
dma_demo.axf:     file format elf32-littlearm


Disassembly of section .text:

00100040 <__cs3_interrupt_vector>:
  100040:	18 f0 9f e5 18 f0 9f e5 18 f0 9f e5 18 f0 9f e5     ................
  100050:	18 f0 9f e5 18 f0 9f e5 18 f0 9f e5 18 f0 9f e5     ................
  100060:	80 00 10 00 7c 25 11 00 80 25 11 00 84 25 11 00     ....|%...%...%..
  100070:	88 25 11 00 78 25 11 00 8c 25 11 00 90 25 11 00     .%..x%...%...%..

00100080 <__cs3_reset>:
  100080:	ea000022 	b	100110 <_start>

00100084 <__cs3_start_c>:
  100084:	e3008002 	movw	r8, #2
  100088:	e92d4080 	push	{r7, lr}
  10008c:	e3408000 	movt	r8, #0
  100090:	e3580000 	cmp	r8, #0
  100094:	e2488001 	sub	r8, r8, #1
  100098:	1302ead4 	movwne	lr, #10964	; 0x2ad4
  10009c:	13a04000 	movne	r4, #0
  1000a0:	13a05000 	movne	r5, #0
  1000a4:	1340e011 	movtne	lr, #17
  1000a8:	0a000017 	beq	10010c <__cs3_start_c+0x88>
  1000ac:	e99e1005 	ldmib	lr, {r0, r2, ip}
  1000b0:	e1500002 	cmp	r0, r2
  1000b4:	0082200c 	addeq	r2, r2, ip
  1000b8:	0a000007 	beq	1000dc <__cs3_start_c+0x58>
  1000bc:	e35c0000 	cmp	ip, #0
  1000c0:	0a000005 	beq	1000dc <__cs3_start_c+0x58>
  1000c4:	e1a03000 	mov	r3, r0
  1000c8:	e0c360d8 	ldrd	r6, [r3], #8
  1000cc:	e0601003 	rsb	r1, r0, r3
  1000d0:	e0c260f8 	strd	r6, [r2], #8
  1000d4:	e15c0001 	cmp	ip, r1
  1000d8:	1afffffa 	bne	1000c8 <__cs3_start_c+0x44>
  1000dc:	e59e0010 	ldr	r0, [lr, #16]
  1000e0:	e3500000 	cmp	r0, #0
  1000e4:	11a03002 	movne	r3, r2
  1000e8:	0a000003 	beq	1000fc <__cs3_start_c+0x78>
  1000ec:	e0c340f8 	strd	r4, [r3], #8
  1000f0:	e0621003 	rsb	r1, r2, r3
  1000f4:	e1500001 	cmp	r0, r1
  1000f8:	1afffffb 	bne	1000ec <__cs3_start_c+0x68>
  1000fc:	e2488001 	sub	r8, r8, #1
  100100:	e28ee014 	add	lr, lr, #20
  100104:	e3780001 	cmn	r8, #1
  100108:	1affffe7 	bne	1000ac <__cs3_start_c+0x28>
  10010c:	eb0048cf 	bl	112450 <__cs3_premain>

00100110 <_start>:
  100110:	e51fd000 	ldr	sp, [pc, #-0]	; 100118 <_start+0x8>
  100114:	eaffffda 	b	100084 <__cs3_start_c>
  100118:	01100040 	.word	0x01100040

0010011c <deregister_tm_clones>:
  10011c:	e59f3024 	ldr	r3, [pc, #36]	; 100148 <deregister_tm_clones+0x2c>
  100120:	e30303d0 	movw	r0, #13264	; 0x33d0
  100124:	e3400011 	movt	r0, #17
  100128:	e0603003 	rsb	r3, r0, r3
  10012c:	e3530006 	cmp	r3, #6
  100130:	912fff1e 	bxls	lr
  100134:	e3003000 	movw	r3, #0
  100138:	e3403000 	movt	r3, #0
  10013c:	e3530000 	cmp	r3, #0
  100140:	012fff1e 	bxeq	lr
  100144:	e12fff13 	bx	r3
  100148:	001133d3 	.word	0x001133d3

0010014c <register_tm_clones>:
  10014c:	e30333d0 	movw	r3, #13264	; 0x33d0
  100150:	e30303d0 	movw	r0, #13264	; 0x33d0
  100154:	e3403011 	movt	r3, #17
  100158:	e3400011 	movt	r0, #17
  10015c:	e0601003 	rsb	r1, r0, r3
  100160:	e1a01141 	asr	r1, r1, #2
  100164:	e0811fa1 	add	r1, r1, r1, lsr #31
  100168:	e1b010c1 	asrs	r1, r1, #1
  10016c:	012fff1e 	bxeq	lr
  100170:	e3003000 	movw	r3, #0
  100174:	e3403000 	movt	r3, #0
  100178:	e3530000 	cmp	r3, #0
  10017c:	012fff1e 	bxeq	lr
  100180:	e12fff13 	bx	r3

00100184 <__do_global_dtors_aux>:
  100184:	e92d4010 	push	{r4, lr}
  100188:	e30343d0 	movw	r4, #13264	; 0x33d0
  10018c:	e3404011 	movt	r4, #17
  100190:	e5d43000 	ldrb	r3, [r4]
  100194:	e3530000 	cmp	r3, #0
  100198:	18bd8010 	popne	{r4, pc}
  10019c:	ebffffde 	bl	10011c <deregister_tm_clones>
  1001a0:	e3003000 	movw	r3, #0
  1001a4:	e3403000 	movt	r3, #0
  1001a8:	e3530000 	cmp	r3, #0
  1001ac:	0a000002 	beq	1001bc <__do_global_dtors_aux+0x38>
  1001b0:	e302061c 	movw	r0, #9756	; 0x261c
  1001b4:	e3400011 	movt	r0, #17
  1001b8:	e320f000 	nop	{0}
  1001bc:	e3a03001 	mov	r3, #1
  1001c0:	e5c43000 	strb	r3, [r4]
  1001c4:	e8bd8010 	pop	{r4, pc}

001001c8 <frame_dummy>:
  1001c8:	e92d4008 	push	{r3, lr}
  1001cc:	e3003000 	movw	r3, #0
  1001d0:	e3403000 	movt	r3, #0
  1001d4:	e3530000 	cmp	r3, #0
  1001d8:	0a000004 	beq	1001f0 <frame_dummy+0x28>
  1001dc:	e302061c 	movw	r0, #9756	; 0x261c
  1001e0:	e30313d4 	movw	r1, #13268	; 0x33d4
  1001e4:	e3400011 	movt	r0, #17
  1001e8:	e3401011 	movt	r1, #17
  1001ec:	e320f000 	nop	{0}
  1001f0:	e3020b00 	movw	r0, #11008	; 0x2b00
  1001f4:	e3400011 	movt	r0, #17
  1001f8:	e5903000 	ldr	r3, [r0]
  1001fc:	e3530000 	cmp	r3, #0
  100200:	1a000001 	bne	10020c <frame_dummy+0x44>
  100204:	e8bd4008 	pop	{r3, lr}
  100208:	eaffffcf 	b	10014c <register_tm_clones>
  10020c:	e3003000 	movw	r3, #0
  100210:	e3403000 	movt	r3, #0
  100214:	e3530000 	cmp	r3, #0
  100218:	0afffff9 	beq	100204 <frame_dummy+0x3c>
  10021c:	e12fff33 	blx	r3
  100220:	eafffff7 	b	100204 <frame_dummy+0x3c>

00100224 <system_init>:
  100224:	e92d4800 	push	{fp, lr}
  100228:	e28db004 	add	fp, sp, #4
  10022c:	e24dd040 	sub	sp, sp, #64	; 0x40
  100230:	e3a03000 	mov	r3, #0
  100234:	e50b3008 	str	r3, [fp, #-8]
  100238:	e3020698 	movw	r0, #9880	; 0x2698
  10023c:	e3400011 	movt	r0, #17
  100240:	eb0023b6 	bl	109120 <printf>
  100244:	e51b3008 	ldr	r3, [fp, #-8]
  100248:	e3530000 	cmp	r3, #0
  10024c:	1a000001 	bne	100258 <system_init+0x34>
  100250:	eb0004c3 	bl	101564 <alt_dma_uninit>
  100254:	e50b0008 	str	r0, [fp, #-8]
  100258:	e51b3008 	ldr	r3, [fp, #-8]
  10025c:	e3530000 	cmp	r3, #0
  100260:	1a00002f 	bne	100324 <system_init+0x100>
  100264:	e3a03000 	mov	r3, #0
  100268:	e54b3044 	strb	r3, [fp, #-68]	; 0xffffffbc
  10026c:	e3a03000 	mov	r3, #0
  100270:	e50b300c 	str	r3, [fp, #-12]
  100274:	ea000007 	b	100298 <system_init+0x74>
  100278:	e24b2044 	sub	r2, fp, #68	; 0x44
  10027c:	e51b300c 	ldr	r3, [fp, #-12]
  100280:	e0823003 	add	r3, r2, r3
  100284:	e3a02000 	mov	r2, #0
  100288:	e5c32001 	strb	r2, [r3, #1]
  10028c:	e51b300c 	ldr	r3, [fp, #-12]
  100290:	e2833001 	add	r3, r3, #1
  100294:	e50b300c 	str	r3, [fp, #-12]
  100298:	e51b300c 	ldr	r3, [fp, #-12]
  10029c:	e3530007 	cmp	r3, #7
  1002a0:	dafffff4 	ble	100278 <system_init+0x54>
  1002a4:	e3a03000 	mov	r3, #0
  1002a8:	e50b3010 	str	r3, [fp, #-16]
  1002ac:	ea000007 	b	1002d0 <system_init+0xac>
  1002b0:	e24b203c 	sub	r2, fp, #60	; 0x3c
  1002b4:	e51b3010 	ldr	r3, [fp, #-16]
  1002b8:	e0823003 	add	r3, r2, r3
  1002bc:	e3a02000 	mov	r2, #0
  1002c0:	e5c32001 	strb	r2, [r3, #1]
  1002c4:	e51b3010 	ldr	r3, [fp, #-16]
  1002c8:	e2833001 	add	r3, r3, #1
  1002cc:	e50b3010 	str	r3, [fp, #-16]
  1002d0:	e51b3010 	ldr	r3, [fp, #-16]
  1002d4:	e353001f 	cmp	r3, #31
  1002d8:	dafffff4 	ble	1002b0 <system_init+0x8c>
  1002dc:	e3a03000 	mov	r3, #0
  1002e0:	e50b3014 	str	r3, [fp, #-20]	; 0xffffffec
  1002e4:	ea000007 	b	100308 <system_init+0xe4>
  1002e8:	e24b201c 	sub	r2, fp, #28
  1002ec:	e51b3014 	ldr	r3, [fp, #-20]	; 0xffffffec
  1002f0:	e0823003 	add	r3, r2, r3
  1002f4:	e3a02000 	mov	r2, #0
  1002f8:	e5c32001 	strb	r2, [r3, #1]
  1002fc:	e51b3014 	ldr	r3, [fp, #-20]	; 0xffffffec
  100300:	e2833001 	add	r3, r3, #1
  100304:	e50b3014 	str	r3, [fp, #-20]	; 0xffffffec
  100308:	e51b3014 	ldr	r3, [fp, #-20]	; 0xffffffec
  10030c:	e3530003 	cmp	r3, #3
  100310:	dafffff4 	ble	1002e8 <system_init+0xc4>
  100314:	e24b3044 	sub	r3, fp, #68	; 0x44
  100318:	e1a00003 	mov	r0, r3
  10031c:	eb0003d6 	bl	10127c <alt_dma_init>
  100320:	e50b0008 	str	r0, [fp, #-8]
  100324:	e30206b0 	movw	r0, #9904	; 0x26b0
  100328:	e3400011 	movt	r0, #17
  10032c:	eb00237b 	bl	109120 <printf>
  100330:	e51b3008 	ldr	r3, [fp, #-8]
  100334:	e1a00003 	mov	r0, r3
  100338:	e24bd004 	sub	sp, fp, #4
  10033c:	e8bd8800 	pop	{fp, pc}

00100340 <system_uninit>:
  100340:	e92d4800 	push	{fp, lr}
  100344:	e28db004 	add	fp, sp, #4
  100348:	e30206b4 	movw	r0, #9908	; 0x26b4
  10034c:	e3400011 	movt	r0, #17
  100350:	eb002372 	bl	109120 <printf>
  100354:	e30206b0 	movw	r0, #9904	; 0x26b0
  100358:	e3400011 	movt	r0, #17
  10035c:	eb00236f 	bl	109120 <printf>
  100360:	e3a03000 	mov	r3, #0
  100364:	e1a00003 	mov	r0, r3
  100368:	e8bd8800 	pop	{fp, pc}

0010036c <main>:
  10036c:	e92d4810 	push	{r4, fp, lr}
  100370:	e28db008 	add	fp, sp, #8
  100374:	e24dde67 	sub	sp, sp, #1648	; 0x670
  100378:	e24dd004 	sub	sp, sp, #4
  10037c:	e30206d0 	movw	r0, #9936	; 0x26d0
  100380:	e3400011 	movt	r0, #17
  100384:	eb002365 	bl	109120 <printf>
  100388:	e3a03103 	mov	r3, #-1073741824	; 0xc0000000
  10038c:	e50b3018 	str	r3, [fp, #-24]	; 0xffffffe8
  100390:	e3a03000 	mov	r3, #0
  100394:	e50b3010 	str	r3, [fp, #-16]
  100398:	e51b3010 	ldr	r3, [fp, #-16]
  10039c:	e3530000 	cmp	r3, #0
  1003a0:	1a000001 	bne	1003ac <main+0x40>
  1003a4:	ebffff9e 	bl	100224 <system_init>
  1003a8:	e50b0010 	str	r0, [fp, #-16]
  1003ac:	e51b3010 	ldr	r3, [fp, #-16]
  1003b0:	e3530000 	cmp	r3, #0
  1003b4:	1a000008 	bne	1003dc <main+0x70>
  1003b8:	e30206dc 	movw	r0, #9948	; 0x26dc
  1003bc:	e3400011 	movt	r0, #17
  1003c0:	eb002356 	bl	109120 <printf>
  1003c4:	e24b3e42 	sub	r3, fp, #1056	; 0x420
  1003c8:	e243300c 	sub	r3, r3, #12
  1003cc:	e2433001 	sub	r3, r3, #1
  1003d0:	e1a00003 	mov	r0, r3
  1003d4:	eb0004ad 	bl	101690 <alt_dma_channel_alloc_any>
  1003d8:	e50b0010 	str	r0, [fp, #-16]
  1003dc:	e3a03000 	mov	r3, #0
  1003e0:	e50b301c 	str	r3, [fp, #-28]	; 0xffffffe4
  1003e4:	e3a03000 	mov	r3, #0
  1003e8:	e50b3020 	str	r3, [fp, #-32]	; 0xffffffe0
  1003ec:	e3a03b01 	mov	r3, #1024	; 0x400
  1003f0:	e50b3024 	str	r3, [fp, #-36]	; 0xffffffdc
  1003f4:	e3a03000 	mov	r3, #0
  1003f8:	e50b3014 	str	r3, [fp, #-20]	; 0xffffffec
  1003fc:	ea000012 	b	10044c <main+0xe0>
  100400:	eb002386 	bl	109220 <rand>
  100404:	e1a03000 	mov	r3, r0
  100408:	e6ef1073 	uxtb	r1, r3
  10040c:	e24b2e42 	sub	r2, fp, #1056	; 0x420
  100410:	e242200c 	sub	r2, r2, #12
  100414:	e51b3014 	ldr	r3, [fp, #-20]	; 0xffffffec
  100418:	e0823003 	add	r3, r2, r3
  10041c:	e1a02001 	mov	r2, r1
  100420:	e5c32000 	strb	r2, [r3]
  100424:	e51b3014 	ldr	r3, [fp, #-20]	; 0xffffffec
  100428:	e51b2018 	ldr	r2, [fp, #-24]	; 0xffffffe8
  10042c:	e0824003 	add	r4, r2, r3
  100430:	eb00237a 	bl	109220 <rand>
  100434:	e1a03000 	mov	r3, r0
  100438:	e6ef3073 	uxtb	r3, r3
  10043c:	e5c43000 	strb	r3, [r4]
  100440:	e51b3014 	ldr	r3, [fp, #-20]	; 0xffffffec
  100444:	e2833001 	add	r3, r3, #1
  100448:	e50b3014 	str	r3, [fp, #-20]	; 0xffffffec
  10044c:	e51b3014 	ldr	r3, [fp, #-20]	; 0xffffffec
  100450:	e3530b01 	cmp	r3, #1024	; 0x400
  100454:	baffffe9 	blt	100400 <main+0x94>
  100458:	e51b2018 	ldr	r2, [fp, #-24]	; 0xffffffe8
  10045c:	e51b3020 	ldr	r3, [fp, #-32]	; 0xffffffe0
  100460:	e0823003 	add	r3, r2, r3
  100464:	e50b3028 	str	r3, [fp, #-40]	; 0xffffffd8
  100468:	e24b2e42 	sub	r2, fp, #1056	; 0x420
  10046c:	e242200c 	sub	r2, r2, #12
  100470:	e51b301c 	ldr	r3, [fp, #-28]	; 0xffffffe4
  100474:	e0823003 	add	r3, r2, r3
  100478:	e50b302c 	str	r3, [fp, #-44]	; 0xffffffd4
  10047c:	e30206fc 	movw	r0, #9980	; 0x26fc
  100480:	e3400011 	movt	r0, #17
  100484:	eb002325 	bl	109120 <printf>
  100488:	e51b3010 	ldr	r3, [fp, #-16]
  10048c:	e3530000 	cmp	r3, #0
  100490:	1a000015 	bne	1004ec <main+0x180>
  100494:	e51b102c 	ldr	r1, [fp, #-44]	; 0xffffffd4
  100498:	e51b2028 	ldr	r2, [fp, #-40]	; 0xffffffd8
  10049c:	e51b3024 	ldr	r3, [fp, #-36]	; 0xffffffdc
  1004a0:	e3020728 	movw	r0, #10024	; 0x2728
  1004a4:	e3400011 	movt	r0, #17
  1004a8:	eb00231c 	bl	109120 <printf>
  1004ac:	e55b142d 	ldrb	r1, [fp, #-1069]	; 0xfffffbd3
  1004b0:	e24b3e65 	sub	r3, fp, #1616	; 0x650
  1004b4:	e243300c 	sub	r3, r3, #12
  1004b8:	e2433004 	sub	r3, r3, #4
  1004bc:	e51b2024 	ldr	r2, [fp, #-36]	; 0xffffffdc
  1004c0:	e58d2000 	str	r2, [sp]
  1004c4:	e3a02000 	mov	r2, #0
  1004c8:	e58d2004 	str	r2, [sp, #4]
  1004cc:	e3a02000 	mov	r2, #0
  1004d0:	e58d2008 	str	r2, [sp, #8]
  1004d4:	e1a00001 	mov	r0, r1
  1004d8:	e1a01003 	mov	r1, r3
  1004dc:	e51b2028 	ldr	r2, [fp, #-40]	; 0xffffffd8
  1004e0:	e51b302c 	ldr	r3, [fp, #-44]	; 0xffffffd4
  1004e4:	eb000863 	bl	102678 <alt_dma_memory_to_memory>
  1004e8:	e50b0010 	str	r0, [fp, #-16]
  1004ec:	e51b3010 	ldr	r3, [fp, #-16]
  1004f0:	e3530000 	cmp	r3, #0
  1004f4:	1a000024 	bne	10058c <main+0x220>
  1004f8:	e3020760 	movw	r0, #10080	; 0x2760
  1004fc:	e3400011 	movt	r0, #17
  100500:	eb002306 	bl	109120 <printf>
  100504:	e3a03001 	mov	r3, #1
  100508:	e54b3665 	strb	r3, [fp, #-1637]	; 0xfffff99b
  10050c:	ea000018 	b	100574 <main+0x208>
  100510:	e55b242d 	ldrb	r2, [fp, #-1069]	; 0xfffffbd3
  100514:	e24b3e65 	sub	r3, fp, #1616	; 0x650
  100518:	e243300c 	sub	r3, r3, #12
  10051c:	e2433009 	sub	r3, r3, #9
  100520:	e1a00002 	mov	r0, r2
  100524:	e1a01003 	mov	r1, r3
  100528:	eb0005d4 	bl	101c80 <alt_dma_channel_state_get>
  10052c:	e50b0010 	str	r0, [fp, #-16]
  100530:	e55b3665 	ldrb	r3, [fp, #-1637]	; 0xfffff99b
  100534:	e353000f 	cmp	r3, #15
  100538:	1a00000d 	bne	100574 <main+0x208>
  10053c:	e55b242d 	ldrb	r2, [fp, #-1069]	; 0xfffffbd3
  100540:	e24b3e65 	sub	r3, fp, #1616	; 0x650
  100544:	e243300c 	sub	r3, r3, #12
  100548:	e2433008 	sub	r3, r3, #8
  10054c:	e1a00002 	mov	r0, r2
  100550:	e1a01003 	mov	r1, r3
  100554:	eb0005f6 	bl	101d34 <alt_dma_channel_fault_status_get>
  100558:	e51b3664 	ldr	r3, [fp, #-1636]	; 0xfffff99c
  10055c:	e3020790 	movw	r0, #10128	; 0x2790
  100560:	e3400011 	movt	r0, #17
  100564:	e1a01003 	mov	r1, r3
  100568:	eb0022ec 	bl	109120 <printf>
  10056c:	e3e03000 	mvn	r3, #0
  100570:	e50b3010 	str	r3, [fp, #-16]
  100574:	e51b3010 	ldr	r3, [fp, #-16]
  100578:	e3530000 	cmp	r3, #0
  10057c:	1a000002 	bne	10058c <main+0x220>
  100580:	e55b3665 	ldrb	r3, [fp, #-1637]	; 0xfffff99b
  100584:	e3530000 	cmp	r3, #0
  100588:	1affffe0 	bne	100510 <main+0x1a4>
  10058c:	e51b3010 	ldr	r3, [fp, #-16]
  100590:	e3530000 	cmp	r3, #0
  100594:	1a00000b 	bne	1005c8 <main+0x25c>
  100598:	e30207b0 	movw	r0, #10160	; 0x27b0
  10059c:	e3400011 	movt	r0, #17
  1005a0:	eb0022de 	bl	109120 <printf>
  1005a4:	e51b002c 	ldr	r0, [fp, #-44]	; 0xffffffd4
  1005a8:	e51b1028 	ldr	r1, [fp, #-40]	; 0xffffffd8
  1005ac:	e51b2024 	ldr	r2, [fp, #-36]	; 0xffffffdc
  1005b0:	eb0022a3 	bl	109044 <memcmp>
  1005b4:	e1a03000 	mov	r3, r0
  1005b8:	e3530000 	cmp	r3, #0
  1005bc:	0a000001 	beq	1005c8 <main+0x25c>
  1005c0:	e3e03000 	mvn	r3, #0
  1005c4:	e50b3010 	str	r3, [fp, #-16]
  1005c8:	e51b3010 	ldr	r3, [fp, #-16]
  1005cc:	e3530000 	cmp	r3, #0
  1005d0:	1a000003 	bne	1005e4 <main+0x278>
  1005d4:	e30207e4 	movw	r0, #10212	; 0x27e4
  1005d8:	e3400011 	movt	r0, #17
  1005dc:	eb0022cf 	bl	109120 <printf>
  1005e0:	ea000002 	b	1005f0 <main+0x284>
  1005e4:	e3020814 	movw	r0, #10260	; 0x2814
  1005e8:	e3400011 	movt	r0, #17
  1005ec:	eb0022cb 	bl	109120 <printf>
  1005f0:	e30206b0 	movw	r0, #9904	; 0x26b0
  1005f4:	e3400011 	movt	r0, #17
  1005f8:	eb0022c8 	bl	109120 <printf>
  1005fc:	e51b3010 	ldr	r3, [fp, #-16]
  100600:	e3530000 	cmp	r3, #0
  100604:	1a000001 	bne	100610 <main+0x2a4>
  100608:	ebffff4c 	bl	100340 <system_uninit>
  10060c:	e50b0010 	str	r0, [fp, #-16]
  100610:	e51b3010 	ldr	r3, [fp, #-16]
  100614:	e3530000 	cmp	r3, #0
  100618:	1a000004 	bne	100630 <main+0x2c4>
  10061c:	e3020840 	movw	r0, #10304	; 0x2840
  100620:	e3400011 	movt	r0, #17
  100624:	eb0022bd 	bl	109120 <printf>
  100628:	e3a03000 	mov	r3, #0
  10062c:	ea000003 	b	100640 <main+0x2d4>
  100630:	e3020860 	movw	r0, #10336	; 0x2860
  100634:	e3400011 	movt	r0, #17
  100638:	eb0022b8 	bl	109120 <printf>
  10063c:	e3a03001 	mov	r3, #1
  100640:	e1a00003 	mov	r0, r3
  100644:	e24bd008 	sub	sp, fp, #8
  100648:	e8bd8810 	pop	{r4, fp, pc}

0010064c <_close>:
  10064c:	e52db004 	push	{fp}		; (str fp, [sp, #-4]!)
  100650:	e28db000 	add	fp, sp, #0
  100654:	e24dd00c 	sub	sp, sp, #12
  100658:	e50b0008 	str	r0, [fp, #-8]
  10065c:	e51b3008 	ldr	r3, [fp, #-8]
  100660:	e3530001 	cmp	r3, #1
  100664:	1a000001 	bne	100670 <_close+0x24>
  100668:	e3a03000 	mov	r3, #0
  10066c:	ea000000 	b	100674 <_close+0x28>
  100670:	e3e03000 	mvn	r3, #0
  100674:	e1a00003 	mov	r0, r3
  100678:	e24bd000 	sub	sp, fp, #0
  10067c:	e49db004 	pop	{fp}		; (ldr fp, [sp], #4)
  100680:	e12fff1e 	bx	lr

00100684 <_fstat>:
  100684:	e52db004 	push	{fp}		; (str fp, [sp, #-4]!)
  100688:	e28db000 	add	fp, sp, #0
  10068c:	e24dd00c 	sub	sp, sp, #12
  100690:	e50b0008 	str	r0, [fp, #-8]
  100694:	e50b100c 	str	r1, [fp, #-12]
  100698:	e51b3008 	ldr	r3, [fp, #-8]
  10069c:	e3530001 	cmp	r3, #1
  1006a0:	1a000001 	bne	1006ac <_fstat+0x28>
  1006a4:	e3a03000 	mov	r3, #0
  1006a8:	ea000000 	b	1006b0 <_fstat+0x2c>
  1006ac:	e3e03000 	mvn	r3, #0
  1006b0:	e1a00003 	mov	r0, r3
  1006b4:	e24bd000 	sub	sp, fp, #0
  1006b8:	e49db004 	pop	{fp}		; (ldr fp, [sp], #4)
  1006bc:	e12fff1e 	bx	lr

001006c0 <_isatty>:
  1006c0:	e52db004 	push	{fp}		; (str fp, [sp, #-4]!)
  1006c4:	e28db000 	add	fp, sp, #0
  1006c8:	e24dd00c 	sub	sp, sp, #12
  1006cc:	e50b0008 	str	r0, [fp, #-8]
  1006d0:	e51b3008 	ldr	r3, [fp, #-8]
  1006d4:	e3530001 	cmp	r3, #1
  1006d8:	1a000001 	bne	1006e4 <_isatty+0x24>
  1006dc:	e3a03001 	mov	r3, #1
  1006e0:	ea000000 	b	1006e8 <_isatty+0x28>
  1006e4:	e3e03000 	mvn	r3, #0
  1006e8:	e1a00003 	mov	r0, r3
  1006ec:	e24bd000 	sub	sp, fp, #0
  1006f0:	e49db004 	pop	{fp}		; (ldr fp, [sp], #4)
  1006f4:	e12fff1e 	bx	lr

001006f8 <_lseek>:
  1006f8:	e52db004 	push	{fp}		; (str fp, [sp, #-4]!)
  1006fc:	e28db000 	add	fp, sp, #0
  100700:	e24dd014 	sub	sp, sp, #20
  100704:	e50b0008 	str	r0, [fp, #-8]
  100708:	e50b100c 	str	r1, [fp, #-12]
  10070c:	e50b2010 	str	r2, [fp, #-16]
  100710:	e51b3008 	ldr	r3, [fp, #-8]
  100714:	e3530001 	cmp	r3, #1
  100718:	1a000001 	bne	100724 <_lseek+0x2c>
  10071c:	e3a03000 	mov	r3, #0
  100720:	ea000000 	b	100728 <_lseek+0x30>
  100724:	e3e03000 	mvn	r3, #0
  100728:	e1a00003 	mov	r0, r3
  10072c:	e24bd000 	sub	sp, fp, #0
  100730:	e49db004 	pop	{fp}		; (ldr fp, [sp], #4)
  100734:	e12fff1e 	bx	lr

00100738 <_read>:
  100738:	e52db004 	push	{fp}		; (str fp, [sp, #-4]!)
  10073c:	e28db000 	add	fp, sp, #0
  100740:	e24dd014 	sub	sp, sp, #20
  100744:	e50b0008 	str	r0, [fp, #-8]
  100748:	e50b100c 	str	r1, [fp, #-12]
  10074c:	e50b2010 	str	r2, [fp, #-16]
  100750:	e3e03000 	mvn	r3, #0
  100754:	e1a00003 	mov	r0, r3
  100758:	e24bd000 	sub	sp, fp, #0
  10075c:	e49db004 	pop	{fp}		; (ldr fp, [sp], #4)
  100760:	e12fff1e 	bx	lr

00100764 <_write>:
  100764:	e52db004 	push	{fp}		; (str fp, [sp, #-4]!)
  100768:	e28db000 	add	fp, sp, #0
  10076c:	e24dd01c 	sub	sp, sp, #28
  100770:	e50b0010 	str	r0, [fp, #-16]
  100774:	e50b1014 	str	r1, [fp, #-20]	; 0xffffffec
  100778:	e50b2018 	str	r2, [fp, #-24]	; 0xffffffe8
  10077c:	e50b301c 	str	r3, [fp, #-28]	; 0xffffffe4
  100780:	e51b3010 	ldr	r3, [fp, #-16]
  100784:	e3530001 	cmp	r3, #1
  100788:	0a000001 	beq	100794 <_write+0x30>
  10078c:	e3e03000 	mvn	r3, #0
  100790:	ea000019 	b	1007fc <_write+0x98>
  100794:	e3a03000 	mov	r3, #0
  100798:	e50b3008 	str	r3, [fp, #-8]
  10079c:	ea000011 	b	1007e8 <_write+0x84>
  1007a0:	e1a00000 	nop			; (mov r0, r0)
  1007a4:	e3023014 	movw	r3, #8212	; 0x2014
  1007a8:	e34f3fc0 	movt	r3, #65472	; 0xffc0
  1007ac:	e5933000 	ldr	r3, [r3]
  1007b0:	e2033020 	and	r3, r3, #32
  1007b4:	e1a032a3 	lsr	r3, r3, #5
  1007b8:	e3530001 	cmp	r3, #1
  1007bc:	1afffff8 	bne	1007a4 <_write+0x40>
  1007c0:	e3a03a02 	mov	r3, #8192	; 0x2000
  1007c4:	e34f3fc0 	movt	r3, #65472	; 0xffc0
  1007c8:	e51b2008 	ldr	r2, [fp, #-8]
  1007cc:	e51b1014 	ldr	r1, [fp, #-20]	; 0xffffffec
  1007d0:	e0812002 	add	r2, r1, r2
  1007d4:	e5d22000 	ldrb	r2, [r2]
  1007d8:	e5832000 	str	r2, [r3]
  1007dc:	e51b3008 	ldr	r3, [fp, #-8]
  1007e0:	e2833001 	add	r3, r3, #1
  1007e4:	e50b3008 	str	r3, [fp, #-8]
  1007e8:	e51b2008 	ldr	r2, [fp, #-8]
  1007ec:	e51b3018 	ldr	r3, [fp, #-24]	; 0xffffffe8
  1007f0:	e1520003 	cmp	r2, r3
  1007f4:	3affffe9 	bcc	1007a0 <_write+0x3c>
  1007f8:	e51b3018 	ldr	r3, [fp, #-24]	; 0xffffffe8
  1007fc:	e1a00003 	mov	r0, r3
  100800:	e24bd000 	sub	sp, fp, #0
  100804:	e49db004 	pop	{fp}		; (ldr fp, [sp], #4)
  100808:	e12fff1e 	bx	lr

0010080c <alt_globaltmr_is_running>:
  10080c:	e52db004 	push	{fp}		; (str fp, [sp, #-4]!)
  100810:	e28db000 	add	fp, sp, #0
  100814:	e30c3208 	movw	r3, #49672	; 0xc208
  100818:	e34f3ffe 	movt	r3, #65534	; 0xfffe
  10081c:	e5933000 	ldr	r3, [r3]
  100820:	e2033001 	and	r3, r3, #1
  100824:	e3530000 	cmp	r3, #0
  100828:	13a03001 	movne	r3, #1
  10082c:	03a03000 	moveq	r3, #0
  100830:	e6ef3073 	uxtb	r3, r3
  100834:	e1a00003 	mov	r0, r3
  100838:	e24bd000 	sub	sp, fp, #0
  10083c:	e49db004 	pop	{fp}		; (ldr fp, [sp], #4)
  100840:	e12fff1e 	bx	lr

00100844 <alt_globaltmr_uninit>:
  100844:	e52db004 	push	{fp}		; (str fp, [sp, #-4]!)
  100848:	e28db000 	add	fp, sp, #0
  10084c:	e30c3208 	movw	r3, #49672	; 0xc208
  100850:	e34f3ffe 	movt	r3, #65534	; 0xfffe
  100854:	e30c2208 	movw	r2, #49672	; 0xc208
  100858:	e34f2ffe 	movt	r2, #65534	; 0xfffe
  10085c:	e5922000 	ldr	r2, [r2]
  100860:	e3c2200e 	bic	r2, r2, #14
  100864:	e5832000 	str	r2, [r3]
  100868:	e30c3210 	movw	r3, #49680	; 0xc210
  10086c:	e34f3ffe 	movt	r3, #65534	; 0xfffe
  100870:	e3a02000 	mov	r2, #0
  100874:	e5832000 	str	r2, [r3]
  100878:	e30c3214 	movw	r3, #49684	; 0xc214
  10087c:	e34f3ffe 	movt	r3, #65534	; 0xfffe
  100880:	e3a02000 	mov	r2, #0
  100884:	e5832000 	str	r2, [r3]
  100888:	e30c3218 	movw	r3, #49688	; 0xc218
  10088c:	e34f3ffe 	movt	r3, #65534	; 0xfffe
  100890:	e3a02000 	mov	r2, #0
  100894:	e5832000 	str	r2, [r3]
  100898:	e30c320c 	movw	r3, #49676	; 0xc20c
  10089c:	e34f3ffe 	movt	r3, #65534	; 0xfffe
  1008a0:	e3a02001 	mov	r2, #1
  1008a4:	e5832000 	str	r2, [r3]
  1008a8:	e3a03000 	mov	r3, #0
  1008ac:	e1a00003 	mov	r0, r3
  1008b0:	e24bd000 	sub	sp, fp, #0
  1008b4:	e49db004 	pop	{fp}		; (ldr fp, [sp], #4)
  1008b8:	e12fff1e 	bx	lr

001008bc <alt_globaltmr_init>:
  1008bc:	e92d4800 	push	{fp, lr}
  1008c0:	e28db004 	add	fp, sp, #4
  1008c4:	ebffffde 	bl	100844 <alt_globaltmr_uninit>
  1008c8:	e30c3208 	movw	r3, #49672	; 0xc208
  1008cc:	e34f3ffe 	movt	r3, #65534	; 0xfffe
  1008d0:	e30c2208 	movw	r2, #49672	; 0xc208
  1008d4:	e34f2ffe 	movt	r2, #65534	; 0xfffe
  1008d8:	e5922000 	ldr	r2, [r2]
  1008dc:	e3822001 	orr	r2, r2, #1
  1008e0:	e5832000 	str	r2, [r3]
  1008e4:	e3a03000 	mov	r3, #0
  1008e8:	e1a00003 	mov	r0, r3
  1008ec:	e8bd8800 	pop	{fp, pc}

001008f0 <alt_globaltmr_stop>:
  1008f0:	e52db004 	push	{fp}		; (str fp, [sp, #-4]!)
  1008f4:	e28db000 	add	fp, sp, #0
  1008f8:	e24dd00c 	sub	sp, sp, #12
  1008fc:	e30c3208 	movw	r3, #49672	; 0xc208
  100900:	e34f3ffe 	movt	r3, #65534	; 0xfffe
  100904:	e5933000 	ldr	r3, [r3]
  100908:	e50b3008 	str	r3, [fp, #-8]
  10090c:	e30c3208 	movw	r3, #49672	; 0xc208
  100910:	e34f3ffe 	movt	r3, #65534	; 0xfffe
  100914:	e51b2008 	ldr	r2, [fp, #-8]
  100918:	e3c22002 	bic	r2, r2, #2
  10091c:	e5832000 	str	r2, [r3]
  100920:	e3a03000 	mov	r3, #0
  100924:	e1a00003 	mov	r0, r3
  100928:	e24bd000 	sub	sp, fp, #0
  10092c:	e49db004 	pop	{fp}		; (ldr fp, [sp], #4)
  100930:	e12fff1e 	bx	lr

00100934 <alt_globaltmr_start>:
  100934:	e52db004 	push	{fp}		; (str fp, [sp, #-4]!)
  100938:	e28db000 	add	fp, sp, #0
  10093c:	e24dd00c 	sub	sp, sp, #12
  100940:	e30c3208 	movw	r3, #49672	; 0xc208
  100944:	e34f3ffe 	movt	r3, #65534	; 0xfffe
  100948:	e5933000 	ldr	r3, [r3]
  10094c:	e50b3008 	str	r3, [fp, #-8]
  100950:	e30c3208 	movw	r3, #49672	; 0xc208
  100954:	e34f3ffe 	movt	r3, #65534	; 0xfffe
  100958:	e51b2008 	ldr	r2, [fp, #-8]
  10095c:	e3822003 	orr	r2, r2, #3
  100960:	e5832000 	str	r2, [r3]
  100964:	e3a03000 	mov	r3, #0
  100968:	e1a00003 	mov	r0, r3
  10096c:	e24bd000 	sub	sp, fp, #0
  100970:	e49db004 	pop	{fp}		; (ldr fp, [sp], #4)
  100974:	e12fff1e 	bx	lr

00100978 <alt_globaltmr_get>:
  100978:	e52db004 	push	{fp}		; (str fp, [sp, #-4]!)
  10097c:	e28db000 	add	fp, sp, #0
  100980:	e24dd024 	sub	sp, sp, #36	; 0x24
  100984:	e50b0020 	str	r0, [fp, #-32]	; 0xffffffe0
  100988:	e50b1024 	str	r1, [fp, #-36]	; 0xffffffdc
  10098c:	e3e03000 	mvn	r3, #0
  100990:	e50b3008 	str	r3, [fp, #-8]
  100994:	e3a03003 	mov	r3, #3
  100998:	e50b3010 	str	r3, [fp, #-16]
  10099c:	e51b3020 	ldr	r3, [fp, #-32]	; 0xffffffe0
  1009a0:	e3530000 	cmp	r3, #0
  1009a4:	0a000002 	beq	1009b4 <alt_globaltmr_get+0x3c>
  1009a8:	e51b3024 	ldr	r3, [fp, #-36]	; 0xffffffdc
  1009ac:	e3530000 	cmp	r3, #0
  1009b0:	1a000002 	bne	1009c0 <alt_globaltmr_get+0x48>
  1009b4:	e3e03008 	mvn	r3, #8
  1009b8:	e50b3008 	str	r3, [fp, #-8]
  1009bc:	ea000021 	b	100a48 <alt_globaltmr_get+0xd0>
  1009c0:	e30c3204 	movw	r3, #49668	; 0xc204
  1009c4:	e34f3ffe 	movt	r3, #65534	; 0xfffe
  1009c8:	e5933000 	ldr	r3, [r3]
  1009cc:	e50b300c 	str	r3, [fp, #-12]
  1009d0:	e51b300c 	ldr	r3, [fp, #-12]
  1009d4:	e50b3014 	str	r3, [fp, #-20]	; 0xffffffec
  1009d8:	e3a03cc2 	mov	r3, #49664	; 0xc200
  1009dc:	e34f3ffe 	movt	r3, #65534	; 0xfffe
  1009e0:	e5933000 	ldr	r3, [r3]
  1009e4:	e50b3018 	str	r3, [fp, #-24]	; 0xffffffe8
  1009e8:	e30c3204 	movw	r3, #49668	; 0xc204
  1009ec:	e34f3ffe 	movt	r3, #65534	; 0xfffe
  1009f0:	e5933000 	ldr	r3, [r3]
  1009f4:	e50b300c 	str	r3, [fp, #-12]
  1009f8:	e51b2014 	ldr	r2, [fp, #-20]	; 0xffffffec
  1009fc:	e51b300c 	ldr	r3, [fp, #-12]
  100a00:	e1520003 	cmp	r2, r3
  100a04:	0a000004 	beq	100a1c <alt_globaltmr_get+0xa4>
  100a08:	e51b3010 	ldr	r3, [fp, #-16]
  100a0c:	e2432001 	sub	r2, r3, #1
  100a10:	e50b2010 	str	r2, [fp, #-16]
  100a14:	e3530000 	cmp	r3, #0
  100a18:	1affffec 	bne	1009d0 <alt_globaltmr_get+0x58>
  100a1c:	e51b3010 	ldr	r3, [fp, #-16]
  100a20:	e3530000 	cmp	r3, #0
  100a24:	0a000007 	beq	100a48 <alt_globaltmr_get+0xd0>
  100a28:	e51b3020 	ldr	r3, [fp, #-32]	; 0xffffffe0
  100a2c:	e51b200c 	ldr	r2, [fp, #-12]
  100a30:	e5832000 	str	r2, [r3]
  100a34:	e51b3024 	ldr	r3, [fp, #-36]	; 0xffffffdc
  100a38:	e51b2018 	ldr	r2, [fp, #-24]	; 0xffffffe8
  100a3c:	e5832000 	str	r2, [r3]
  100a40:	e3a03000 	mov	r3, #0
  100a44:	e50b3008 	str	r3, [fp, #-8]
  100a48:	e51b3008 	ldr	r3, [fp, #-8]
  100a4c:	e1a00003 	mov	r0, r3
  100a50:	e24bd000 	sub	sp, fp, #0
  100a54:	e49db004 	pop	{fp}		; (ldr fp, [sp], #4)
  100a58:	e12fff1e 	bx	lr

00100a5c <alt_globaltmr_get64>:
  100a5c:	e52db004 	push	{fp}		; (str fp, [sp, #-4]!)
  100a60:	e28db000 	add	fp, sp, #0
  100a64:	e24dd01c 	sub	sp, sp, #28
  100a68:	f2c00010 	vmov.i32	d16, #0	; 0x00000000
  100a6c:	ed4b0b03 	vstr	d16, [fp, #-12]
  100a70:	e3a03003 	mov	r3, #3
  100a74:	e50b3014 	str	r3, [fp, #-20]	; 0xffffffec
  100a78:	e30c3204 	movw	r3, #49668	; 0xc204
  100a7c:	e34f3ffe 	movt	r3, #65534	; 0xfffe
  100a80:	e5933000 	ldr	r3, [r3]
  100a84:	e50b3010 	str	r3, [fp, #-16]
  100a88:	e51b3010 	ldr	r3, [fp, #-16]
  100a8c:	e50b3018 	str	r3, [fp, #-24]	; 0xffffffe8
  100a90:	e3a03cc2 	mov	r3, #49664	; 0xc200
  100a94:	e34f3ffe 	movt	r3, #65534	; 0xfffe
  100a98:	e5933000 	ldr	r3, [r3]
  100a9c:	e50b301c 	str	r3, [fp, #-28]	; 0xffffffe4
  100aa0:	e30c3204 	movw	r3, #49668	; 0xc204
  100aa4:	e34f3ffe 	movt	r3, #65534	; 0xfffe
  100aa8:	e5933000 	ldr	r3, [r3]
  100aac:	e50b3010 	str	r3, [fp, #-16]
  100ab0:	e51b2018 	ldr	r2, [fp, #-24]	; 0xffffffe8
  100ab4:	e51b3010 	ldr	r3, [fp, #-16]
  100ab8:	e1520003 	cmp	r2, r3
  100abc:	0a000004 	beq	100ad4 <alt_globaltmr_get64+0x78>
  100ac0:	e51b3014 	ldr	r3, [fp, #-20]	; 0xffffffec
  100ac4:	e2432001 	sub	r2, r3, #1
  100ac8:	e50b2014 	str	r2, [fp, #-20]	; 0xffffffec
  100acc:	e3530000 	cmp	r3, #0
  100ad0:	1affffec 	bne	100a88 <alt_globaltmr_get64+0x2c>
  100ad4:	e51b3014 	ldr	r3, [fp, #-20]	; 0xffffffec
  100ad8:	e3530000 	cmp	r3, #0
  100adc:	0a00000c 	beq	100b14 <alt_globaltmr_get64+0xb8>
  100ae0:	e51b3010 	ldr	r3, [fp, #-16]
  100ae4:	e1a02003 	mov	r2, r3
  100ae8:	e3a03000 	mov	r3, #0
  100aec:	e14b20fc 	strd	r2, [fp, #-12]
  100af0:	ed5b0b03 	vldr	d16, [fp, #-12]
  100af4:	f2e015b0 	vshl.s64	d17, d16, #32
  100af8:	ec510b31 	vmov	r0, r1, d17
  100afc:	e51b301c 	ldr	r3, [fp, #-28]	; 0xffffffe4
  100b00:	e1a02003 	mov	r2, r3
  100b04:	e3a03000 	mov	r3, #0
  100b08:	e1822000 	orr	r2, r2, r0
  100b0c:	e1833001 	orr	r3, r3, r1
  100b10:	e14b20fc 	strd	r2, [fp, #-12]
  100b14:	e14b20dc 	ldrd	r2, [fp, #-12]
  100b18:	e1a00002 	mov	r0, r2
  100b1c:	e1a01003 	mov	r1, r3
  100b20:	e24bd000 	sub	sp, fp, #0
  100b24:	e49db004 	pop	{fp}		; (ldr fp, [sp], #4)
  100b28:	e12fff1e 	bx	lr

00100b2c <alt_globaltmr_counter_get_low32>:
  100b2c:	e52db004 	push	{fp}		; (str fp, [sp, #-4]!)
  100b30:	e28db000 	add	fp, sp, #0
  100b34:	e3a03cc2 	mov	r3, #49664	; 0xc200
  100b38:	e34f3ffe 	movt	r3, #65534	; 0xfffe
  100b3c:	e5933000 	ldr	r3, [r3]
  100b40:	e1a00003 	mov	r0, r3
  100b44:	e24bd000 	sub	sp, fp, #0
  100b48:	e49db004 	pop	{fp}		; (ldr fp, [sp], #4)
  100b4c:	e12fff1e 	bx	lr

00100b50 <alt_globaltmr_counter_get_hi32>:
  100b50:	e52db004 	push	{fp}		; (str fp, [sp, #-4]!)
  100b54:	e28db000 	add	fp, sp, #0
  100b58:	e30c3204 	movw	r3, #49668	; 0xc204
  100b5c:	e34f3ffe 	movt	r3, #65534	; 0xfffe
  100b60:	e5933000 	ldr	r3, [r3]
  100b64:	e1a00003 	mov	r0, r3
  100b68:	e24bd000 	sub	sp, fp, #0
  100b6c:	e49db004 	pop	{fp}		; (ldr fp, [sp], #4)
  100b70:	e12fff1e 	bx	lr

00100b74 <alt_globaltmr_comp_set>:
  100b74:	e92d4800 	push	{fp, lr}
  100b78:	e28db004 	add	fp, sp, #4
  100b7c:	e24dd010 	sub	sp, sp, #16
  100b80:	e50b0010 	str	r0, [fp, #-16]
  100b84:	e50b1014 	str	r1, [fp, #-20]	; 0xffffffec
  100b88:	e3a03000 	mov	r3, #0
  100b8c:	e54b3005 	strb	r3, [fp, #-5]
  100b90:	e3e03000 	mvn	r3, #0
  100b94:	e50b300c 	str	r3, [fp, #-12]
  100b98:	eb0000a7 	bl	100e3c <alt_globaltmr_is_comp_mode>
  100b9c:	e1a03000 	mov	r3, r0
  100ba0:	e3530000 	cmp	r3, #0
  100ba4:	0a000008 	beq	100bcc <alt_globaltmr_comp_set+0x58>
  100ba8:	e3a03001 	mov	r3, #1
  100bac:	e54b3005 	strb	r3, [fp, #-5]
  100bb0:	eb000093 	bl	100e04 <alt_globaltmr_comp_mode_stop>
  100bb4:	e50b000c 	str	r0, [fp, #-12]
  100bb8:	e51b300c 	ldr	r3, [fp, #-12]
  100bbc:	e3530000 	cmp	r3, #0
  100bc0:	0a000001 	beq	100bcc <alt_globaltmr_comp_set+0x58>
  100bc4:	e51b300c 	ldr	r3, [fp, #-12]
  100bc8:	ea00000f 	b	100c0c <alt_globaltmr_comp_set+0x98>
  100bcc:	e30c3210 	movw	r3, #49680	; 0xc210
  100bd0:	e34f3ffe 	movt	r3, #65534	; 0xfffe
  100bd4:	e51b2014 	ldr	r2, [fp, #-20]	; 0xffffffec
  100bd8:	e5832000 	str	r2, [r3]
  100bdc:	e30c3214 	movw	r3, #49684	; 0xc214
  100be0:	e34f3ffe 	movt	r3, #65534	; 0xfffe
  100be4:	e51b2010 	ldr	r2, [fp, #-16]
  100be8:	e5832000 	str	r2, [r3]
  100bec:	e3a03000 	mov	r3, #0
  100bf0:	e50b300c 	str	r3, [fp, #-12]
  100bf4:	e55b3005 	ldrb	r3, [fp, #-5]
  100bf8:	e3530000 	cmp	r3, #0
  100bfc:	0a000001 	beq	100c08 <alt_globaltmr_comp_set+0x94>
  100c00:	eb000071 	bl	100dcc <alt_globaltmr_comp_mode_start>
  100c04:	e50b000c 	str	r0, [fp, #-12]
  100c08:	e51b300c 	ldr	r3, [fp, #-12]
  100c0c:	e1a00003 	mov	r0, r3
  100c10:	e24bd004 	sub	sp, fp, #4
  100c14:	e8bd8800 	pop	{fp, pc}

00100c18 <alt_globaltmr_comp_set64>:
  100c18:	e92d4800 	push	{fp, lr}
  100c1c:	e28db004 	add	fp, sp, #4
  100c20:	e24dd010 	sub	sp, sp, #16
  100c24:	e14b01f4 	strd	r0, [fp, #-20]	; 0xffffffec
  100c28:	e3e03000 	mvn	r3, #0
  100c2c:	e50b3008 	str	r3, [fp, #-8]
  100c30:	e3a03000 	mov	r3, #0
  100c34:	e54b3009 	strb	r3, [fp, #-9]
  100c38:	eb00007f 	bl	100e3c <alt_globaltmr_is_comp_mode>
  100c3c:	e1a03000 	mov	r3, r0
  100c40:	e3530000 	cmp	r3, #0
  100c44:	0a000008 	beq	100c6c <alt_globaltmr_comp_set64+0x54>
  100c48:	e3a03001 	mov	r3, #1
  100c4c:	e54b3009 	strb	r3, [fp, #-9]
  100c50:	eb00006b 	bl	100e04 <alt_globaltmr_comp_mode_stop>
  100c54:	e50b0008 	str	r0, [fp, #-8]
  100c58:	e51b3008 	ldr	r3, [fp, #-8]
  100c5c:	e3530000 	cmp	r3, #0
  100c60:	0a000001 	beq	100c6c <alt_globaltmr_comp_set64+0x54>
  100c64:	e51b3008 	ldr	r3, [fp, #-8]
  100c68:	ea000012 	b	100cb8 <alt_globaltmr_comp_set64+0xa0>
  100c6c:	e30c3210 	movw	r3, #49680	; 0xc210
  100c70:	e34f3ffe 	movt	r3, #65534	; 0xfffe
  100c74:	e51b2014 	ldr	r2, [fp, #-20]	; 0xffffffec
  100c78:	e5832000 	str	r2, [r3]
  100c7c:	e30c3214 	movw	r3, #49684	; 0xc214
  100c80:	e34f3ffe 	movt	r3, #65534	; 0xfffe
  100c84:	e14b01d4 	ldrd	r0, [fp, #-20]	; 0xffffffec
  100c88:	e1a00001 	mov	r0, r1
  100c8c:	e3a01000 	mov	r1, #0
  100c90:	e1a02000 	mov	r2, r0
  100c94:	e5832000 	str	r2, [r3]
  100c98:	e3a03000 	mov	r3, #0
  100c9c:	e50b3008 	str	r3, [fp, #-8]
  100ca0:	e55b3009 	ldrb	r3, [fp, #-9]
  100ca4:	e3530000 	cmp	r3, #0
  100ca8:	0a000001 	beq	100cb4 <alt_globaltmr_comp_set64+0x9c>
  100cac:	eb000046 	bl	100dcc <alt_globaltmr_comp_mode_start>
  100cb0:	e50b0008 	str	r0, [fp, #-8]
  100cb4:	e51b3008 	ldr	r3, [fp, #-8]
  100cb8:	e1a00003 	mov	r0, r3
  100cbc:	e24bd004 	sub	sp, fp, #4
  100cc0:	e8bd8800 	pop	{fp, pc}

00100cc4 <alt_globaltmr_comp_get>:
  100cc4:	e52db004 	push	{fp}		; (str fp, [sp, #-4]!)
  100cc8:	e28db000 	add	fp, sp, #0
  100ccc:	e24dd00c 	sub	sp, sp, #12
  100cd0:	e50b0008 	str	r0, [fp, #-8]
  100cd4:	e50b100c 	str	r1, [fp, #-12]
  100cd8:	e51b3008 	ldr	r3, [fp, #-8]
  100cdc:	e3530000 	cmp	r3, #0
  100ce0:	0a000002 	beq	100cf0 <alt_globaltmr_comp_get+0x2c>
  100ce4:	e51b300c 	ldr	r3, [fp, #-12]
  100ce8:	e3530000 	cmp	r3, #0
  100cec:	1a000001 	bne	100cf8 <alt_globaltmr_comp_get+0x34>
  100cf0:	e3e03000 	mvn	r3, #0
  100cf4:	ea00000a 	b	100d24 <alt_globaltmr_comp_get+0x60>
  100cf8:	e30c3210 	movw	r3, #49680	; 0xc210
  100cfc:	e34f3ffe 	movt	r3, #65534	; 0xfffe
  100d00:	e5932000 	ldr	r2, [r3]
  100d04:	e51b300c 	ldr	r3, [fp, #-12]
  100d08:	e5832000 	str	r2, [r3]
  100d0c:	e30c3214 	movw	r3, #49684	; 0xc214
  100d10:	e34f3ffe 	movt	r3, #65534	; 0xfffe
  100d14:	e5932000 	ldr	r2, [r3]
  100d18:	e51b3008 	ldr	r3, [fp, #-8]
  100d1c:	e5832000 	str	r2, [r3]
  100d20:	e3a03000 	mov	r3, #0
  100d24:	e1a00003 	mov	r0, r3
  100d28:	e24bd000 	sub	sp, fp, #0
  100d2c:	e49db004 	pop	{fp}		; (ldr fp, [sp], #4)
  100d30:	e12fff1e 	bx	lr

00100d34 <alt_globaltmr_comp_get64>:
  100d34:	e52db004 	push	{fp}		; (str fp, [sp, #-4]!)
  100d38:	e28db000 	add	fp, sp, #0
  100d3c:	e24dd00c 	sub	sp, sp, #12
  100d40:	e30c3214 	movw	r3, #49684	; 0xc214
  100d44:	e34f3ffe 	movt	r3, #65534	; 0xfffe
  100d48:	e5933000 	ldr	r3, [r3]
  100d4c:	ee803b90 	vdup.32	d16, r3
  100d50:	f3e000b0 	vshr.u64	d16, d16, #32
  100d54:	f2e005b0 	vshl.s64	d16, d16, #32
  100d58:	ed4b0b03 	vstr	d16, [fp, #-12]
  100d5c:	e30c3210 	movw	r3, #49680	; 0xc210
  100d60:	e34f3ffe 	movt	r3, #65534	; 0xfffe
  100d64:	e5933000 	ldr	r3, [r3]
  100d68:	e1a02003 	mov	r2, r3
  100d6c:	e3a03000 	mov	r3, #0
  100d70:	e14b00dc 	ldrd	r0, [fp, #-12]
  100d74:	e1822000 	orr	r2, r2, r0
  100d78:	e1833001 	orr	r3, r3, r1
  100d7c:	e14b20fc 	strd	r2, [fp, #-12]
  100d80:	e14b20dc 	ldrd	r2, [fp, #-12]
  100d84:	e1a00002 	mov	r0, r2
  100d88:	e1a01003 	mov	r1, r3
  100d8c:	e24bd000 	sub	sp, fp, #0
  100d90:	e49db004 	pop	{fp}		; (ldr fp, [sp], #4)
  100d94:	e12fff1e 	bx	lr

00100d98 <alt_globaltmr_remain_get>:
  100d98:	e92d4818 	push	{r3, r4, fp, lr}
  100d9c:	e28db00c 	add	fp, sp, #12
  100da0:	ebffffe3 	bl	100d34 <alt_globaltmr_comp_get64>
  100da4:	e1a02000 	mov	r2, r0
  100da8:	e1a03001 	mov	r3, r1
  100dac:	e1a04002 	mov	r4, r2
  100db0:	ebffff29 	bl	100a5c <alt_globaltmr_get64>
  100db4:	e1a02000 	mov	r2, r0
  100db8:	e1a03001 	mov	r3, r1
  100dbc:	e1a03002 	mov	r3, r2
  100dc0:	e0633004 	rsb	r3, r3, r4
  100dc4:	e1a00003 	mov	r0, r3
  100dc8:	e8bd8818 	pop	{r3, r4, fp, pc}

00100dcc <alt_globaltmr_comp_mode_start>:
  100dcc:	e52db004 	push	{fp}		; (str fp, [sp, #-4]!)
  100dd0:	e28db000 	add	fp, sp, #0
  100dd4:	e30c3208 	movw	r3, #49672	; 0xc208
  100dd8:	e34f3ffe 	movt	r3, #65534	; 0xfffe
  100ddc:	e30c2208 	movw	r2, #49672	; 0xc208
  100de0:	e34f2ffe 	movt	r2, #65534	; 0xfffe
  100de4:	e5922000 	ldr	r2, [r2]
  100de8:	e3822002 	orr	r2, r2, #2
  100dec:	e5832000 	str	r2, [r3]
  100df0:	e3a03000 	mov	r3, #0
  100df4:	e1a00003 	mov	r0, r3
  100df8:	e24bd000 	sub	sp, fp, #0
  100dfc:	e49db004 	pop	{fp}		; (ldr fp, [sp], #4)
  100e00:	e12fff1e 	bx	lr

00100e04 <alt_globaltmr_comp_mode_stop>:
  100e04:	e52db004 	push	{fp}		; (str fp, [sp, #-4]!)
  100e08:	e28db000 	add	fp, sp, #0
  100e0c:	e30c3208 	movw	r3, #49672	; 0xc208
  100e10:	e34f3ffe 	movt	r3, #65534	; 0xfffe
  100e14:	e30c2208 	movw	r2, #49672	; 0xc208
  100e18:	e34f2ffe 	movt	r2, #65534	; 0xfffe
  100e1c:	e5922000 	ldr	r2, [r2]
  100e20:	e3c22002 	bic	r2, r2, #2
  100e24:	e5832000 	str	r2, [r3]
  100e28:	e3a03000 	mov	r3, #0
  100e2c:	e1a00003 	mov	r0, r3
  100e30:	e24bd000 	sub	sp, fp, #0
  100e34:	e49db004 	pop	{fp}		; (ldr fp, [sp], #4)
  100e38:	e12fff1e 	bx	lr

00100e3c <alt_globaltmr_is_comp_mode>:
  100e3c:	e52db004 	push	{fp}		; (str fp, [sp, #-4]!)
  100e40:	e28db000 	add	fp, sp, #0
  100e44:	e30c3208 	movw	r3, #49672	; 0xc208
  100e48:	e34f3ffe 	movt	r3, #65534	; 0xfffe
  100e4c:	e5933000 	ldr	r3, [r3]
  100e50:	e2033002 	and	r3, r3, #2
  100e54:	e3530000 	cmp	r3, #0
  100e58:	13a03001 	movne	r3, #1
  100e5c:	03a03000 	moveq	r3, #0
  100e60:	e6ef3073 	uxtb	r3, r3
  100e64:	e1a00003 	mov	r0, r3
  100e68:	e24bd000 	sub	sp, fp, #0
  100e6c:	e49db004 	pop	{fp}		; (ldr fp, [sp], #4)
  100e70:	e12fff1e 	bx	lr

00100e74 <alt_globaltmr_prescaler_get>:
  100e74:	e52db004 	push	{fp}		; (str fp, [sp, #-4]!)
  100e78:	e28db000 	add	fp, sp, #0
  100e7c:	e30c3208 	movw	r3, #49672	; 0xc208
  100e80:	e34f3ffe 	movt	r3, #65534	; 0xfffe
  100e84:	e5933000 	ldr	r3, [r3]
  100e88:	e2033cff 	and	r3, r3, #65280	; 0xff00
  100e8c:	e1a03423 	lsr	r3, r3, #8
  100e90:	e1a00003 	mov	r0, r3
  100e94:	e24bd000 	sub	sp, fp, #0
  100e98:	e49db004 	pop	{fp}		; (ldr fp, [sp], #4)
  100e9c:	e12fff1e 	bx	lr

00100ea0 <alt_globaltmr_prescaler_set>:
  100ea0:	e52db004 	push	{fp}		; (str fp, [sp, #-4]!)
  100ea4:	e28db000 	add	fp, sp, #0
  100ea8:	e24dd014 	sub	sp, sp, #20
  100eac:	e50b0010 	str	r0, [fp, #-16]
  100eb0:	e51b3010 	ldr	r3, [fp, #-16]
  100eb4:	e35300ff 	cmp	r3, #255	; 0xff
  100eb8:	9a000001 	bls	100ec4 <alt_globaltmr_prescaler_set+0x24>
  100ebc:	e3e03008 	mvn	r3, #8
  100ec0:	ea00000c 	b	100ef8 <alt_globaltmr_prescaler_set+0x58>
  100ec4:	e30c3208 	movw	r3, #49672	; 0xc208
  100ec8:	e34f3ffe 	movt	r3, #65534	; 0xfffe
  100ecc:	e5933000 	ldr	r3, [r3]
  100ed0:	e3c33cff 	bic	r3, r3, #65280	; 0xff00
  100ed4:	e50b3008 	str	r3, [fp, #-8]
  100ed8:	e30c3208 	movw	r3, #49672	; 0xc208
  100edc:	e34f3ffe 	movt	r3, #65534	; 0xfffe
  100ee0:	e51b2010 	ldr	r2, [fp, #-16]
  100ee4:	e1a01402 	lsl	r1, r2, #8
  100ee8:	e51b2008 	ldr	r2, [fp, #-8]
  100eec:	e1812002 	orr	r2, r1, r2
  100ef0:	e5832000 	str	r2, [r3]
  100ef4:	e3a03000 	mov	r3, #0
  100ef8:	e1a00003 	mov	r0, r3
  100efc:	e24bd000 	sub	sp, fp, #0
  100f00:	e49db004 	pop	{fp}		; (ldr fp, [sp], #4)
  100f04:	e12fff1e 	bx	lr

00100f08 <alt_globaltmr_autoinc_set>:
  100f08:	e92d4800 	push	{fp, lr}
  100f0c:	e28db004 	add	fp, sp, #4
  100f10:	e24dd010 	sub	sp, sp, #16
  100f14:	e50b0010 	str	r0, [fp, #-16]
  100f18:	e3e03000 	mvn	r3, #0
  100f1c:	e50b3008 	str	r3, [fp, #-8]
  100f20:	e3a03000 	mov	r3, #0
  100f24:	e54b3009 	strb	r3, [fp, #-9]
  100f28:	ebffffc3 	bl	100e3c <alt_globaltmr_is_comp_mode>
  100f2c:	e1a03000 	mov	r3, r0
  100f30:	e3530000 	cmp	r3, #0
  100f34:	0a000008 	beq	100f5c <alt_globaltmr_autoinc_set+0x54>
  100f38:	e3a03001 	mov	r3, #1
  100f3c:	e54b3009 	strb	r3, [fp, #-9]
  100f40:	ebffffaf 	bl	100e04 <alt_globaltmr_comp_mode_stop>
  100f44:	e50b0008 	str	r0, [fp, #-8]
  100f48:	e51b3008 	ldr	r3, [fp, #-8]
  100f4c:	e3530000 	cmp	r3, #0
  100f50:	0a000001 	beq	100f5c <alt_globaltmr_autoinc_set+0x54>
  100f54:	e51b3008 	ldr	r3, [fp, #-8]
  100f58:	ea00000b 	b	100f8c <alt_globaltmr_autoinc_set+0x84>
  100f5c:	e30c3218 	movw	r3, #49688	; 0xc218
  100f60:	e34f3ffe 	movt	r3, #65534	; 0xfffe
  100f64:	e51b2010 	ldr	r2, [fp, #-16]
  100f68:	e5832000 	str	r2, [r3]
  100f6c:	e3a03000 	mov	r3, #0
  100f70:	e50b3008 	str	r3, [fp, #-8]
  100f74:	e55b3009 	ldrb	r3, [fp, #-9]
  100f78:	e3530000 	cmp	r3, #0
  100f7c:	0a000001 	beq	100f88 <alt_globaltmr_autoinc_set+0x80>
  100f80:	ebffff91 	bl	100dcc <alt_globaltmr_comp_mode_start>
  100f84:	e50b0008 	str	r0, [fp, #-8]
  100f88:	e51b3008 	ldr	r3, [fp, #-8]
  100f8c:	e1a00003 	mov	r0, r3
  100f90:	e24bd004 	sub	sp, fp, #4
  100f94:	e8bd8800 	pop	{fp, pc}

00100f98 <alt_globaltmr_autoinc_get>:
  100f98:	e52db004 	push	{fp}		; (str fp, [sp, #-4]!)
  100f9c:	e28db000 	add	fp, sp, #0
  100fa0:	e30c3218 	movw	r3, #49688	; 0xc218
  100fa4:	e34f3ffe 	movt	r3, #65534	; 0xfffe
  100fa8:	e5933000 	ldr	r3, [r3]
  100fac:	e1a00003 	mov	r0, r3
  100fb0:	e24bd000 	sub	sp, fp, #0
  100fb4:	e49db004 	pop	{fp}		; (ldr fp, [sp], #4)
  100fb8:	e12fff1e 	bx	lr

00100fbc <alt_globaltmr_autoinc_mode_start>:
  100fbc:	e52db004 	push	{fp}		; (str fp, [sp, #-4]!)
  100fc0:	e28db000 	add	fp, sp, #0
  100fc4:	e30c3208 	movw	r3, #49672	; 0xc208
  100fc8:	e34f3ffe 	movt	r3, #65534	; 0xfffe
  100fcc:	e30c2208 	movw	r2, #49672	; 0xc208
  100fd0:	e34f2ffe 	movt	r2, #65534	; 0xfffe
  100fd4:	e5922000 	ldr	r2, [r2]
  100fd8:	e3822008 	orr	r2, r2, #8
  100fdc:	e5832000 	str	r2, [r3]
  100fe0:	e3a03000 	mov	r3, #0
  100fe4:	e1a00003 	mov	r0, r3
  100fe8:	e24bd000 	sub	sp, fp, #0
  100fec:	e49db004 	pop	{fp}		; (ldr fp, [sp], #4)
  100ff0:	e12fff1e 	bx	lr

00100ff4 <alt_globaltmr_autoinc_mode_stop>:
  100ff4:	e52db004 	push	{fp}		; (str fp, [sp, #-4]!)
  100ff8:	e28db000 	add	fp, sp, #0
  100ffc:	e30c3208 	movw	r3, #49672	; 0xc208
  101000:	e34f3ffe 	movt	r3, #65534	; 0xfffe
  101004:	e30c2208 	movw	r2, #49672	; 0xc208
  101008:	e34f2ffe 	movt	r2, #65534	; 0xfffe
  10100c:	e5922000 	ldr	r2, [r2]
  101010:	e3c22008 	bic	r2, r2, #8
  101014:	e5832000 	str	r2, [r3]
  101018:	e3a03000 	mov	r3, #0
  10101c:	e1a00003 	mov	r0, r3
  101020:	e24bd000 	sub	sp, fp, #0
  101024:	e49db004 	pop	{fp}		; (ldr fp, [sp], #4)
  101028:	e12fff1e 	bx	lr

0010102c <alt_globaltmr_is_autoinc_mode>:
  10102c:	e52db004 	push	{fp}		; (str fp, [sp, #-4]!)
  101030:	e28db000 	add	fp, sp, #0
  101034:	e30c3208 	movw	r3, #49672	; 0xc208
  101038:	e34f3ffe 	movt	r3, #65534	; 0xfffe
  10103c:	e5933000 	ldr	r3, [r3]
  101040:	e2033008 	and	r3, r3, #8
  101044:	e3530000 	cmp	r3, #0
  101048:	13a03001 	movne	r3, #1
  10104c:	03a03000 	moveq	r3, #0
  101050:	e6ef3073 	uxtb	r3, r3
  101054:	e1a00003 	mov	r0, r3
  101058:	e24bd000 	sub	sp, fp, #0
  10105c:	e49db004 	pop	{fp}		; (ldr fp, [sp], #4)
  101060:	e12fff1e 	bx	lr

00101064 <alt_globaltmr_maxcounter_get>:
  101064:	e52db004 	push	{fp}		; (str fp, [sp, #-4]!)
  101068:	e28db000 	add	fp, sp, #0
  10106c:	e3e03000 	mvn	r3, #0
  101070:	e1a00003 	mov	r0, r3
  101074:	e24bd000 	sub	sp, fp, #0
  101078:	e49db004 	pop	{fp}		; (ldr fp, [sp], #4)
  10107c:	e12fff1e 	bx	lr

00101080 <alt_globaltmr_int_disable>:
  101080:	e52db004 	push	{fp}		; (str fp, [sp, #-4]!)
  101084:	e28db000 	add	fp, sp, #0
  101088:	e30c3208 	movw	r3, #49672	; 0xc208
  10108c:	e34f3ffe 	movt	r3, #65534	; 0xfffe
  101090:	e30c2208 	movw	r2, #49672	; 0xc208
  101094:	e34f2ffe 	movt	r2, #65534	; 0xfffe
  101098:	e5922000 	ldr	r2, [r2]
  10109c:	e3c22004 	bic	r2, r2, #4
  1010a0:	e5832000 	str	r2, [r3]
  1010a4:	e3a03000 	mov	r3, #0
  1010a8:	e1a00003 	mov	r0, r3
  1010ac:	e24bd000 	sub	sp, fp, #0
  1010b0:	e49db004 	pop	{fp}		; (ldr fp, [sp], #4)
  1010b4:	e12fff1e 	bx	lr

001010b8 <alt_globaltmr_int_enable>:
  1010b8:	e92d4800 	push	{fp, lr}
  1010bc:	e28db004 	add	fp, sp, #4
  1010c0:	ebfffdd1 	bl	10080c <alt_globaltmr_is_running>
  1010c4:	e1a03000 	mov	r3, r0
  1010c8:	e2233001 	eor	r3, r3, #1
  1010cc:	e6ef3073 	uxtb	r3, r3
  1010d0:	e3530000 	cmp	r3, #0
  1010d4:	0a000005 	beq	1010f0 <alt_globaltmr_int_enable+0x38>
  1010d8:	ebfffe15 	bl	100934 <alt_globaltmr_start>
  1010dc:	e1a03000 	mov	r3, r0
  1010e0:	e3530000 	cmp	r3, #0
  1010e4:	0a000001 	beq	1010f0 <alt_globaltmr_int_enable+0x38>
  1010e8:	e3e03000 	mvn	r3, #0
  1010ec:	ea000007 	b	101110 <alt_globaltmr_int_enable+0x58>
  1010f0:	e30c3208 	movw	r3, #49672	; 0xc208
  1010f4:	e34f3ffe 	movt	r3, #65534	; 0xfffe
  1010f8:	e30c2208 	movw	r2, #49672	; 0xc208
  1010fc:	e34f2ffe 	movt	r2, #65534	; 0xfffe
  101100:	e5922000 	ldr	r2, [r2]
  101104:	e3822004 	orr	r2, r2, #4
  101108:	e5832000 	str	r2, [r3]
  10110c:	e3a03000 	mov	r3, #0
  101110:	e1a00003 	mov	r0, r3
  101114:	e8bd8800 	pop	{fp, pc}

00101118 <alt_globaltmr_int_is_enabled>:
  101118:	e52db004 	push	{fp}		; (str fp, [sp, #-4]!)
  10111c:	e28db000 	add	fp, sp, #0
  101120:	e30c3208 	movw	r3, #49672	; 0xc208
  101124:	e34f3ffe 	movt	r3, #65534	; 0xfffe
  101128:	e5933000 	ldr	r3, [r3]
  10112c:	e2033004 	and	r3, r3, #4
  101130:	e3530000 	cmp	r3, #0
  101134:	13a03001 	movne	r3, #1
  101138:	03a03000 	moveq	r3, #0
  10113c:	e6ef3073 	uxtb	r3, r3
  101140:	e1a00003 	mov	r0, r3
  101144:	e24bd000 	sub	sp, fp, #0
  101148:	e49db004 	pop	{fp}		; (ldr fp, [sp], #4)
  10114c:	e12fff1e 	bx	lr

00101150 <alt_globaltmr_int_clear_pending>:
  101150:	e52db004 	push	{fp}		; (str fp, [sp, #-4]!)
  101154:	e28db000 	add	fp, sp, #0
  101158:	e30c320c 	movw	r3, #49676	; 0xc20c
  10115c:	e34f3ffe 	movt	r3, #65534	; 0xfffe
  101160:	e3a02001 	mov	r2, #1
  101164:	e5832000 	str	r2, [r3]
  101168:	e3a03000 	mov	r3, #0
  10116c:	e1a00003 	mov	r0, r3
  101170:	e24bd000 	sub	sp, fp, #0
  101174:	e49db004 	pop	{fp}		; (ldr fp, [sp], #4)
  101178:	e12fff1e 	bx	lr

0010117c <alt_globaltmr_int_is_pending>:
  10117c:	e52db004 	push	{fp}		; (str fp, [sp, #-4]!)
  101180:	e28db000 	add	fp, sp, #0
  101184:	e30c320c 	movw	r3, #49676	; 0xc20c
  101188:	e34f3ffe 	movt	r3, #65534	; 0xfffe
  10118c:	e5933000 	ldr	r3, [r3]
  101190:	e2033001 	and	r3, r3, #1
  101194:	e3530000 	cmp	r3, #0
  101198:	13a03001 	movne	r3, #1
  10119c:	03a03000 	moveq	r3, #0
  1011a0:	e6ef3073 	uxtb	r3, r3
  1011a4:	e1a00003 	mov	r0, r3
  1011a8:	e24bd000 	sub	sp, fp, #0
  1011ac:	e49db004 	pop	{fp}		; (ldr fp, [sp], #4)
  1011b0:	e12fff1e 	bx	lr

001011b4 <alt_globaltmr_int_if_pending_clear>:
  1011b4:	e52db004 	push	{fp}		; (str fp, [sp, #-4]!)
  1011b8:	e28db000 	add	fp, sp, #0
  1011bc:	e24dd00c 	sub	sp, sp, #12
  1011c0:	e30c320c 	movw	r3, #49676	; 0xc20c
  1011c4:	e34f3ffe 	movt	r3, #65534	; 0xfffe
  1011c8:	e5933000 	ldr	r3, [r3]
  1011cc:	e2033001 	and	r3, r3, #1
  1011d0:	e3530000 	cmp	r3, #0
  1011d4:	13a03001 	movne	r3, #1
  1011d8:	03a03000 	moveq	r3, #0
  1011dc:	e54b3005 	strb	r3, [fp, #-5]
  1011e0:	e55b3005 	ldrb	r3, [fp, #-5]
  1011e4:	e3530000 	cmp	r3, #0
  1011e8:	0a000003 	beq	1011fc <alt_globaltmr_int_if_pending_clear+0x48>
  1011ec:	e30c320c 	movw	r3, #49676	; 0xc20c
  1011f0:	e34f3ffe 	movt	r3, #65534	; 0xfffe
  1011f4:	e3a02001 	mov	r2, #1
  1011f8:	e5832000 	str	r2, [r3]
  1011fc:	e55b3005 	ldrb	r3, [fp, #-5]
  101200:	e1a00003 	mov	r0, r3
  101204:	e24bd000 	sub	sp, fp, #0
  101208:	e49db004 	pop	{fp}		; (ldr fp, [sp], #4)
  10120c:	e12fff1e 	bx	lr

00101210 <alt_mmu_va_to_pa>:
  101210:	e52db004 	push	{fp}		; (str fp, [sp, #-4]!)
  101214:	e28db000 	add	fp, sp, #0
  101218:	e24dd014 	sub	sp, sp, #20
  10121c:	e50b0008 	str	r0, [fp, #-8]
  101220:	e50b100c 	str	r1, [fp, #-12]
  101224:	e50b2010 	str	r2, [fp, #-16]
  101228:	e51b300c 	ldr	r3, [fp, #-12]
  10122c:	e3e02000 	mvn	r2, #0
  101230:	e5832000 	str	r2, [r3]
  101234:	e51b3010 	ldr	r3, [fp, #-16]
  101238:	e3a02000 	mov	r2, #0
  10123c:	e5832000 	str	r2, [r3]
  101240:	e51b3008 	ldr	r3, [fp, #-8]
  101244:	e1a00003 	mov	r0, r3
  101248:	e24bd000 	sub	sp, fp, #0
  10124c:	e49db004 	pop	{fp}		; (ldr fp, [sp], #4)
  101250:	e12fff1e 	bx	lr

00101254 <alt_cache_system_clean>:
  101254:	e52db004 	push	{fp}		; (str fp, [sp, #-4]!)
  101258:	e28db000 	add	fp, sp, #0
  10125c:	e24dd00c 	sub	sp, sp, #12
  101260:	e50b0008 	str	r0, [fp, #-8]
  101264:	e50b100c 	str	r1, [fp, #-12]
  101268:	e3a03000 	mov	r3, #0
  10126c:	e1a00003 	mov	r0, r3
  101270:	e24bd000 	sub	sp, fp, #0
  101274:	e49db004 	pop	{fp}		; (ldr fp, [sp], #4)
  101278:	e12fff1e 	bx	lr

0010127c <alt_dma_init>:
  10127c:	e52db004 	push	{fp}		; (str fp, [sp, #-4]!)
  101280:	e28db000 	add	fp, sp, #0
  101284:	e24dd024 	sub	sp, sp, #36	; 0x24
  101288:	e50b0020 	str	r0, [fp, #-32]	; 0xffffffe0
  10128c:	e3083018 	movw	r3, #32792	; 0x8018
  101290:	e34f3fd0 	movt	r3, #65488	; 0xffd0
  101294:	e5933000 	ldr	r3, [r3]
  101298:	e2033002 	and	r3, r3, #2
  10129c:	e1a030a3 	lsr	r3, r3, #1
  1012a0:	e3530001 	cmp	r3, #1
  1012a4:	03a03001 	moveq	r3, #1
  1012a8:	13a03000 	movne	r3, #0
  1012ac:	e6ef2073 	uxtb	r2, r3
  1012b0:	e30333ec 	movw	r3, #13292	; 0x33ec
  1012b4:	e3403011 	movt	r3, #17
  1012b8:	e5c32008 	strb	r2, [r3, #8]
  1012bc:	e3a03000 	mov	r3, #0
  1012c0:	e50b3008 	str	r3, [fp, #-8]
  1012c4:	ea000008 	b	1012ec <alt_dma_init+0x70>
  1012c8:	e30333ec 	movw	r3, #13292	; 0x33ec
  1012cc:	e3403011 	movt	r3, #17
  1012d0:	e51b2008 	ldr	r2, [fp, #-8]
  1012d4:	e0833002 	add	r3, r3, r2
  1012d8:	e3a02000 	mov	r2, #0
  1012dc:	e5c32000 	strb	r2, [r3]
  1012e0:	e51b3008 	ldr	r3, [fp, #-8]
  1012e4:	e2833001 	add	r3, r3, #1
  1012e8:	e50b3008 	str	r3, [fp, #-8]
  1012ec:	e51b3008 	ldr	r3, [fp, #-8]
  1012f0:	e3530007 	cmp	r3, #7
  1012f4:	9afffff3 	bls	1012c8 <alt_dma_init+0x4c>
  1012f8:	e30333ec 	movw	r3, #13292	; 0x33ec
  1012fc:	e3403011 	movt	r3, #17
  101300:	e3a02000 	mov	r2, #0
  101304:	e583200c 	str	r2, [r3, #12]
  101308:	e3a03000 	mov	r3, #0
  10130c:	e50b300c 	str	r3, [fp, #-12]
  101310:	ea000024 	b	1013a8 <alt_dma_init+0x12c>
  101314:	e51b2020 	ldr	r2, [fp, #-32]	; 0xffffffe0
  101318:	e51b300c 	ldr	r3, [fp, #-12]
  10131c:	e0823003 	add	r3, r2, r3
  101320:	e2833028 	add	r3, r3, #40	; 0x28
  101324:	e5d33001 	ldrb	r3, [r3, #1]
  101328:	e3530000 	cmp	r3, #0
  10132c:	ba000017 	blt	101390 <alt_dma_init+0x114>
  101330:	e3530001 	cmp	r3, #1
  101334:	da000017 	ble	101398 <alt_dma_init+0x11c>
  101338:	e3530002 	cmp	r3, #2
  10133c:	1a000013 	bne	101390 <alt_dma_init+0x114>
  101340:	e30333ec 	movw	r3, #13292	; 0x33ec
  101344:	e3403011 	movt	r3, #17
  101348:	e5d33008 	ldrb	r3, [r3, #8]
  10134c:	e2233001 	eor	r3, r3, #1
  101350:	e6ef3073 	uxtb	r3, r3
  101354:	e3530000 	cmp	r3, #0
  101358:	0a000001 	beq	101364 <alt_dma_init+0xe8>
  10135c:	e3e03008 	mvn	r3, #8
  101360:	ea00007b 	b	101554 <alt_dma_init+0x2d8>
  101364:	e30333ec 	movw	r3, #13292	; 0x33ec
  101368:	e3403011 	movt	r3, #17
  10136c:	e593300c 	ldr	r3, [r3, #12]
  101370:	e3a01001 	mov	r1, #1
  101374:	e51b200c 	ldr	r2, [fp, #-12]
  101378:	e1a02211 	lsl	r2, r1, r2
  10137c:	e1832002 	orr	r2, r3, r2
  101380:	e30333ec 	movw	r3, #13292	; 0x33ec
  101384:	e3403011 	movt	r3, #17
  101388:	e583200c 	str	r2, [r3, #12]
  10138c:	ea000002 	b	10139c <alt_dma_init+0x120>
  101390:	e3e03000 	mvn	r3, #0
  101394:	ea00006e 	b	101554 <alt_dma_init+0x2d8>
  101398:	e1a00000 	nop			; (mov r0, r0)
  10139c:	e51b300c 	ldr	r3, [fp, #-12]
  1013a0:	e2833001 	add	r3, r3, #1
  1013a4:	e50b300c 	str	r3, [fp, #-12]
  1013a8:	e51b300c 	ldr	r3, [fp, #-12]
  1013ac:	e3530003 	cmp	r3, #3
  1013b0:	9affffd7 	bls	101314 <alt_dma_init+0x98>
  1013b4:	e51b3020 	ldr	r3, [fp, #-32]	; 0xffffffe0
  1013b8:	e5d33000 	ldrb	r3, [r3]
  1013bc:	e3530000 	cmp	r3, #0
  1013c0:	ba00000b 	blt	1013f4 <alt_dma_init+0x178>
  1013c4:	e3530001 	cmp	r3, #1
  1013c8:	da00000b 	ble	1013fc <alt_dma_init+0x180>
  1013cc:	e3530002 	cmp	r3, #2
  1013d0:	1a000007 	bne	1013f4 <alt_dma_init+0x178>
  1013d4:	e30333ec 	movw	r3, #13292	; 0x33ec
  1013d8:	e3403011 	movt	r3, #17
  1013dc:	e593300c 	ldr	r3, [r3, #12]
  1013e0:	e3832010 	orr	r2, r3, #16
  1013e4:	e30333ec 	movw	r3, #13292	; 0x33ec
  1013e8:	e3403011 	movt	r3, #17
  1013ec:	e583200c 	str	r2, [r3, #12]
  1013f0:	ea000002 	b	101400 <alt_dma_init+0x184>
  1013f4:	e3e03000 	mvn	r3, #0
  1013f8:	ea000055 	b	101554 <alt_dma_init+0x2d8>
  1013fc:	e1a00000 	nop			; (mov r0, r0)
  101400:	e3a03000 	mov	r3, #0
  101404:	e50b3010 	str	r3, [fp, #-16]
  101408:	ea00001b 	b	10147c <alt_dma_init+0x200>
  10140c:	e51b2020 	ldr	r2, [fp, #-32]	; 0xffffffe0
  101410:	e51b3010 	ldr	r3, [fp, #-16]
  101414:	e0823003 	add	r3, r2, r3
  101418:	e5d33001 	ldrb	r3, [r3, #1]
  10141c:	e3530000 	cmp	r3, #0
  101420:	ba00000f 	blt	101464 <alt_dma_init+0x1e8>
  101424:	e3530001 	cmp	r3, #1
  101428:	da00000f 	ble	10146c <alt_dma_init+0x1f0>
  10142c:	e3530002 	cmp	r3, #2
  101430:	1a00000b 	bne	101464 <alt_dma_init+0x1e8>
  101434:	e30333ec 	movw	r3, #13292	; 0x33ec
  101438:	e3403011 	movt	r3, #17
  10143c:	e593300c 	ldr	r3, [r3, #12]
  101440:	e51b2010 	ldr	r2, [fp, #-16]
  101444:	e2822005 	add	r2, r2, #5
  101448:	e3a01001 	mov	r1, #1
  10144c:	e1a02211 	lsl	r2, r1, r2
  101450:	e1832002 	orr	r2, r3, r2
  101454:	e30333ec 	movw	r3, #13292	; 0x33ec
  101458:	e3403011 	movt	r3, #17
  10145c:	e583200c 	str	r2, [r3, #12]
  101460:	ea000002 	b	101470 <alt_dma_init+0x1f4>
  101464:	e3e03000 	mvn	r3, #0
  101468:	ea000039 	b	101554 <alt_dma_init+0x2d8>
  10146c:	e1a00000 	nop			; (mov r0, r0)
  101470:	e51b3010 	ldr	r3, [fp, #-16]
  101474:	e2833001 	add	r3, r3, #1
  101478:	e50b3010 	str	r3, [fp, #-16]
  10147c:	e51b3010 	ldr	r3, [fp, #-16]
  101480:	e3530007 	cmp	r3, #7
  101484:	daffffe0 	ble	10140c <alt_dma_init+0x190>
  101488:	e3083070 	movw	r3, #32880	; 0x8070
  10148c:	e34f3fd0 	movt	r3, #65488	; 0xffd0
  101490:	e30323ec 	movw	r2, #13292	; 0x33ec
  101494:	e3402011 	movt	r2, #17
  101498:	e592200c 	ldr	r2, [r2, #12]
  10149c:	e5832000 	str	r2, [r3]
  1014a0:	e3a03000 	mov	r3, #0
  1014a4:	e50b3014 	str	r3, [fp, #-20]	; 0xffffffec
  1014a8:	e3a03000 	mov	r3, #0
  1014ac:	e50b3018 	str	r3, [fp, #-24]	; 0xffffffe8
  1014b0:	ea000018 	b	101518 <alt_dma_init+0x29c>
  1014b4:	e51b2020 	ldr	r2, [fp, #-32]	; 0xffffffe0
  1014b8:	e51b3018 	ldr	r3, [fp, #-24]	; 0xffffffe8
  1014bc:	e0823003 	add	r3, r2, r3
  1014c0:	e2833008 	add	r3, r3, #8
  1014c4:	e5d33001 	ldrb	r3, [r3, #1]
  1014c8:	e3530000 	cmp	r3, #0
  1014cc:	ba00000b 	blt	101500 <alt_dma_init+0x284>
  1014d0:	e3530001 	cmp	r3, #1
  1014d4:	da00000b 	ble	101508 <alt_dma_init+0x28c>
  1014d8:	e3530002 	cmp	r3, #2
  1014dc:	1a000007 	bne	101500 <alt_dma_init+0x284>
  1014e0:	e3a02001 	mov	r2, #1
  1014e4:	e51b3018 	ldr	r3, [fp, #-24]	; 0xffffffe8
  1014e8:	e1a03312 	lsl	r3, r2, r3
  1014ec:	e1a02003 	mov	r2, r3
  1014f0:	e51b3014 	ldr	r3, [fp, #-20]	; 0xffffffec
  1014f4:	e1833002 	orr	r3, r3, r2
  1014f8:	e50b3014 	str	r3, [fp, #-20]	; 0xffffffec
  1014fc:	ea000002 	b	10150c <alt_dma_init+0x290>
  101500:	e3e03000 	mvn	r3, #0
  101504:	ea000012 	b	101554 <alt_dma_init+0x2d8>
  101508:	e1a00000 	nop			; (mov r0, r0)
  10150c:	e51b3018 	ldr	r3, [fp, #-24]	; 0xffffffe8
  101510:	e2833001 	add	r3, r3, #1
  101514:	e50b3018 	str	r3, [fp, #-24]	; 0xffffffe8
  101518:	e51b3018 	ldr	r3, [fp, #-24]	; 0xffffffe8
  10151c:	e353001f 	cmp	r3, #31
  101520:	9affffe3 	bls	1014b4 <alt_dma_init+0x238>
  101524:	e3083074 	movw	r3, #32884	; 0x8074
  101528:	e34f3fd0 	movt	r3, #65488	; 0xffd0
  10152c:	e51b2014 	ldr	r2, [fp, #-20]	; 0xffffffec
  101530:	e5832000 	str	r2, [r3]
  101534:	e3053014 	movw	r3, #20500	; 0x5014
  101538:	e34f3fd0 	movt	r3, #65488	; 0xffd0
  10153c:	e3052014 	movw	r2, #20500	; 0x5014
  101540:	e34f2fd0 	movt	r2, #65488	; 0xffd0
  101544:	e5922000 	ldr	r2, [r2]
  101548:	e3c22201 	bic	r2, r2, #268435456	; 0x10000000
  10154c:	e5832000 	str	r2, [r3]
  101550:	e3a03000 	mov	r3, #0
  101554:	e1a00003 	mov	r0, r3
  101558:	e24bd000 	sub	sp, fp, #0
  10155c:	e49db004 	pop	{fp}		; (ldr fp, [sp], #4)
  101560:	e12fff1e 	bx	lr

00101564 <alt_dma_uninit>:
  101564:	e92d4800 	push	{fp, lr}
  101568:	e28db004 	add	fp, sp, #4
  10156c:	e24dd008 	sub	sp, sp, #8
  101570:	e3a03000 	mov	r3, #0
  101574:	e50b3008 	str	r3, [fp, #-8]
  101578:	ea000012 	b	1015c8 <alt_dma_uninit+0x64>
  10157c:	e30333ec 	movw	r3, #13292	; 0x33ec
  101580:	e3403011 	movt	r3, #17
  101584:	e51b2008 	ldr	r2, [fp, #-8]
  101588:	e0833002 	add	r3, r3, r2
  10158c:	e5d33000 	ldrb	r3, [r3]
  101590:	e2033001 	and	r3, r3, #1
  101594:	e3530000 	cmp	r3, #0
  101598:	0a000007 	beq	1015bc <alt_dma_uninit+0x58>
  10159c:	e51b3008 	ldr	r3, [fp, #-8]
  1015a0:	e6ef3073 	uxtb	r3, r3
  1015a4:	e1a00003 	mov	r0, r3
  1015a8:	eb000107 	bl	1019cc <alt_dma_channel_kill>
  1015ac:	e51b3008 	ldr	r3, [fp, #-8]
  1015b0:	e6ef3073 	uxtb	r3, r3
  1015b4:	e1a00003 	mov	r0, r3
  1015b8:	eb00005b 	bl	10172c <alt_dma_channel_free>
  1015bc:	e51b3008 	ldr	r3, [fp, #-8]
  1015c0:	e2833001 	add	r3, r3, #1
  1015c4:	e50b3008 	str	r3, [fp, #-8]
  1015c8:	e51b3008 	ldr	r3, [fp, #-8]
  1015cc:	e3530007 	cmp	r3, #7
  1015d0:	9affffe9 	bls	10157c <alt_dma_uninit+0x18>
  1015d4:	e3053014 	movw	r3, #20500	; 0x5014
  1015d8:	e34f3fd0 	movt	r3, #65488	; 0xffd0
  1015dc:	e3052014 	movw	r2, #20500	; 0x5014
  1015e0:	e34f2fd0 	movt	r2, #65488	; 0xffd0
  1015e4:	e5922000 	ldr	r2, [r2]
  1015e8:	e3822201 	orr	r2, r2, #268435456	; 0x10000000
  1015ec:	e5832000 	str	r2, [r3]
  1015f0:	e3a03000 	mov	r3, #0
  1015f4:	e1a00003 	mov	r0, r3
  1015f8:	e24bd004 	sub	sp, fp, #4
  1015fc:	e8bd8800 	pop	{fp, pc}

00101600 <alt_dma_channel_alloc>:
  101600:	e52db004 	push	{fp}		; (str fp, [sp, #-4]!)
  101604:	e28db000 	add	fp, sp, #0
  101608:	e24dd00c 	sub	sp, sp, #12
  10160c:	e1a03000 	mov	r3, r0
  101610:	e54b3005 	strb	r3, [fp, #-5]
  101614:	e55b3005 	ldrb	r3, [fp, #-5]
  101618:	e2833000 	add	r3, r3, #0
  10161c:	e3530007 	cmp	r3, #7
  101620:	9a000001 	bls	10162c <alt_dma_channel_alloc+0x2c>
  101624:	e3e03008 	mvn	r3, #8
  101628:	ea000014 	b	101680 <alt_dma_channel_alloc+0x80>
  10162c:	e1a00000 	nop			; (mov r0, r0)
  101630:	e55b2005 	ldrb	r2, [fp, #-5]
  101634:	e30333ec 	movw	r3, #13292	; 0x33ec
  101638:	e3403011 	movt	r3, #17
  10163c:	e7d33002 	ldrb	r3, [r3, r2]
  101640:	e2033001 	and	r3, r3, #1
  101644:	e3530000 	cmp	r3, #0
  101648:	0a000001 	beq	101654 <alt_dma_channel_alloc+0x54>
  10164c:	e3e03000 	mvn	r3, #0
  101650:	ea00000a 	b	101680 <alt_dma_channel_alloc+0x80>
  101654:	e55b2005 	ldrb	r2, [fp, #-5]
  101658:	e55b1005 	ldrb	r1, [fp, #-5]
  10165c:	e30333ec 	movw	r3, #13292	; 0x33ec
  101660:	e3403011 	movt	r3, #17
  101664:	e7d33001 	ldrb	r3, [r3, r1]
  101668:	e3833001 	orr	r3, r3, #1
  10166c:	e6ef1073 	uxtb	r1, r3
  101670:	e30333ec 	movw	r3, #13292	; 0x33ec
  101674:	e3403011 	movt	r3, #17
  101678:	e7c31002 	strb	r1, [r3, r2]
  10167c:	e3a03000 	mov	r3, #0
  101680:	e1a00003 	mov	r0, r3
  101684:	e24bd000 	sub	sp, fp, #0
  101688:	e49db004 	pop	{fp}		; (ldr fp, [sp], #4)
  10168c:	e12fff1e 	bx	lr

00101690 <alt_dma_channel_alloc_any>:
  101690:	e92d4800 	push	{fp, lr}
  101694:	e28db004 	add	fp, sp, #4
  101698:	e24dd010 	sub	sp, sp, #16
  10169c:	e50b0010 	str	r0, [fp, #-16]
  1016a0:	e3a03000 	mov	r3, #0
  1016a4:	e50b3008 	str	r3, [fp, #-8]
  1016a8:	ea000018 	b	101710 <alt_dma_channel_alloc_any+0x80>
  1016ac:	e30333ec 	movw	r3, #13292	; 0x33ec
  1016b0:	e3403011 	movt	r3, #17
  1016b4:	e51b2008 	ldr	r2, [fp, #-8]
  1016b8:	e0833002 	add	r3, r3, r2
  1016bc:	e5d33000 	ldrb	r3, [r3]
  1016c0:	e2033001 	and	r3, r3, #1
  1016c4:	e3530000 	cmp	r3, #0
  1016c8:	1a00000d 	bne	101704 <alt_dma_channel_alloc_any+0x74>
  1016cc:	e51b3008 	ldr	r3, [fp, #-8]
  1016d0:	e6ef3073 	uxtb	r3, r3
  1016d4:	e1a00003 	mov	r0, r3
  1016d8:	ebffffc8 	bl	101600 <alt_dma_channel_alloc>
  1016dc:	e50b000c 	str	r0, [fp, #-12]
  1016e0:	e51b300c 	ldr	r3, [fp, #-12]
  1016e4:	e3530000 	cmp	r3, #0
  1016e8:	1a000003 	bne	1016fc <alt_dma_channel_alloc_any+0x6c>
  1016ec:	e51b3008 	ldr	r3, [fp, #-8]
  1016f0:	e6ef2073 	uxtb	r2, r3
  1016f4:	e51b3010 	ldr	r3, [fp, #-16]
  1016f8:	e5c32000 	strb	r2, [r3]
  1016fc:	e51b300c 	ldr	r3, [fp, #-12]
  101700:	ea000006 	b	101720 <alt_dma_channel_alloc_any+0x90>
  101704:	e51b3008 	ldr	r3, [fp, #-8]
  101708:	e2833001 	add	r3, r3, #1
  10170c:	e50b3008 	str	r3, [fp, #-8]
  101710:	e51b3008 	ldr	r3, [fp, #-8]
  101714:	e3530007 	cmp	r3, #7
  101718:	9affffe3 	bls	1016ac <alt_dma_channel_alloc_any+0x1c>
  10171c:	e3e03000 	mvn	r3, #0
  101720:	e1a00003 	mov	r0, r3
  101724:	e24bd004 	sub	sp, fp, #4
  101728:	e8bd8800 	pop	{fp, pc}

0010172c <alt_dma_channel_free>:
  10172c:	e92d4800 	push	{fp, lr}
  101730:	e28db004 	add	fp, sp, #4
  101734:	e24dd010 	sub	sp, sp, #16
  101738:	e1a03000 	mov	r3, r0
  10173c:	e54b300d 	strb	r3, [fp, #-13]
  101740:	e55b300d 	ldrb	r3, [fp, #-13]
  101744:	e2833000 	add	r3, r3, #0
  101748:	e3530007 	cmp	r3, #7
  10174c:	9a000001 	bls	101758 <alt_dma_channel_free+0x2c>
  101750:	e3e03008 	mvn	r3, #8
  101754:	ea000024 	b	1017ec <alt_dma_channel_free+0xc0>
  101758:	e1a00000 	nop			; (mov r0, r0)
  10175c:	e55b200d 	ldrb	r2, [fp, #-13]
  101760:	e30333ec 	movw	r3, #13292	; 0x33ec
  101764:	e3403011 	movt	r3, #17
  101768:	e7d33002 	ldrb	r3, [r3, r2]
  10176c:	e2033001 	and	r3, r3, #1
  101770:	e3530000 	cmp	r3, #0
  101774:	1a000001 	bne	101780 <alt_dma_channel_free+0x54>
  101778:	e3e03000 	mvn	r3, #0
  10177c:	ea00001a 	b	1017ec <alt_dma_channel_free+0xc0>
  101780:	e55b200d 	ldrb	r2, [fp, #-13]
  101784:	e24b3009 	sub	r3, fp, #9
  101788:	e1a00002 	mov	r0, r2
  10178c:	e1a01003 	mov	r1, r3
  101790:	eb00013a 	bl	101c80 <alt_dma_channel_state_get>
  101794:	e50b0008 	str	r0, [fp, #-8]
  101798:	e51b3008 	ldr	r3, [fp, #-8]
  10179c:	e3530000 	cmp	r3, #0
  1017a0:	0a000001 	beq	1017ac <alt_dma_channel_free+0x80>
  1017a4:	e51b3008 	ldr	r3, [fp, #-8]
  1017a8:	ea00000f 	b	1017ec <alt_dma_channel_free+0xc0>
  1017ac:	e55b3009 	ldrb	r3, [fp, #-9]
  1017b0:	e3530000 	cmp	r3, #0
  1017b4:	0a000001 	beq	1017c0 <alt_dma_channel_free+0x94>
  1017b8:	e3e03000 	mvn	r3, #0
  1017bc:	ea00000a 	b	1017ec <alt_dma_channel_free+0xc0>
  1017c0:	e55b200d 	ldrb	r2, [fp, #-13]
  1017c4:	e55b100d 	ldrb	r1, [fp, #-13]
  1017c8:	e30333ec 	movw	r3, #13292	; 0x33ec
  1017cc:	e3403011 	movt	r3, #17
  1017d0:	e7d33001 	ldrb	r3, [r3, r1]
  1017d4:	e3c33001 	bic	r3, r3, #1
  1017d8:	e6ef1073 	uxtb	r1, r3
  1017dc:	e30333ec 	movw	r3, #13292	; 0x33ec
  1017e0:	e3403011 	movt	r3, #17
  1017e4:	e7c31002 	strb	r1, [r3, r2]
  1017e8:	e3a03000 	mov	r3, #0
  1017ec:	e1a00003 	mov	r0, r3
  1017f0:	e24bd004 	sub	sp, fp, #4
  1017f4:	e8bd8800 	pop	{fp, pc}

001017f8 <alt_dma_channel_exec>:
  1017f8:	e92d4800 	push	{fp, lr}
  1017fc:	e28db004 	add	fp, sp, #4
  101800:	e24dd028 	sub	sp, sp, #40	; 0x28
  101804:	e1a03000 	mov	r3, r0
  101808:	e50b102c 	str	r1, [fp, #-44]	; 0xffffffd4
  10180c:	e54b3025 	strb	r3, [fp, #-37]	; 0xffffffdb
  101810:	e55b3025 	ldrb	r3, [fp, #-37]	; 0xffffffdb
  101814:	e2833000 	add	r3, r3, #0
  101818:	e3530007 	cmp	r3, #7
  10181c:	9a000001 	bls	101828 <alt_dma_channel_exec+0x30>
  101820:	e3e03008 	mvn	r3, #8
  101824:	ea000065 	b	1019c0 <alt_dma_channel_exec+0x1c8>
  101828:	e1a00000 	nop			; (mov r0, r0)
  10182c:	e55b2025 	ldrb	r2, [fp, #-37]	; 0xffffffdb
  101830:	e30333ec 	movw	r3, #13292	; 0x33ec
  101834:	e3403011 	movt	r3, #17
  101838:	e7d33002 	ldrb	r3, [r3, r2]
  10183c:	e2033001 	and	r3, r3, #1
  101840:	e3530000 	cmp	r3, #0
  101844:	1a000001 	bne	101850 <alt_dma_channel_exec+0x58>
  101848:	e3e03000 	mvn	r3, #0
  10184c:	ea00005b 	b	1019c0 <alt_dma_channel_exec+0x1c8>
  101850:	e3a03000 	mov	r3, #0
  101854:	e50b3008 	str	r3, [fp, #-8]
  101858:	e3a03000 	mov	r3, #0
  10185c:	e50b300c 	str	r3, [fp, #-12]
  101860:	e51b3008 	ldr	r3, [fp, #-8]
  101864:	e3530000 	cmp	r3, #0
  101868:	1a00000a 	bne	101898 <alt_dma_channel_exec+0xa0>
  10186c:	e55b2025 	ldrb	r2, [fp, #-37]	; 0xffffffdb
  101870:	e24b3019 	sub	r3, fp, #25
  101874:	e1a00002 	mov	r0, r2
  101878:	e1a01003 	mov	r1, r3
  10187c:	eb0000ff 	bl	101c80 <alt_dma_channel_state_get>
  101880:	e50b0008 	str	r0, [fp, #-8]
  101884:	e55b3019 	ldrb	r3, [fp, #-25]	; 0xffffffe7
  101888:	e3530000 	cmp	r3, #0
  10188c:	0a000001 	beq	101898 <alt_dma_channel_exec+0xa0>
  101890:	e3e03000 	mvn	r3, #0
  101894:	ea000049 	b	1019c0 <alt_dma_channel_exec+0x1c8>
  101898:	e51b3008 	ldr	r3, [fp, #-8]
  10189c:	e3530000 	cmp	r3, #0
  1018a0:	1a000002 	bne	1018b0 <alt_dma_channel_exec+0xb8>
  1018a4:	e51b002c 	ldr	r0, [fp, #-44]	; 0xffffffd4
  1018a8:	eb0017c0 	bl	1077b0 <alt_dma_program_validate>
  1018ac:	e50b0008 	str	r0, [fp, #-8]
  1018b0:	e51b3008 	ldr	r3, [fp, #-8]
  1018b4:	e3530000 	cmp	r3, #0
  1018b8:	1a00001a 	bne	101928 <alt_dma_channel_exec+0x130>
  1018bc:	e51b302c 	ldr	r3, [fp, #-44]	; 0xffffffd4
  1018c0:	e1d330b4 	ldrh	r3, [r3, #4]
  1018c4:	e2833010 	add	r3, r3, #16
  1018c8:	e51b202c 	ldr	r2, [fp, #-44]	; 0xffffffd4
  1018cc:	e0823003 	add	r3, r2, r3
  1018d0:	e3c3301f 	bic	r3, r3, #31
  1018d4:	e50b3010 	str	r3, [fp, #-16]
  1018d8:	e51b302c 	ldr	r3, [fp, #-44]	; 0xffffffd4
  1018dc:	e1d330b4 	ldrh	r3, [r3, #4]
  1018e0:	e1a02003 	mov	r2, r3
  1018e4:	e51b302c 	ldr	r3, [fp, #-44]	; 0xffffffd4
  1018e8:	e1d330b6 	ldrh	r3, [r3, #6]
  1018ec:	e0823003 	add	r3, r2, r3
  1018f0:	e2833010 	add	r3, r3, #16
  1018f4:	e51b202c 	ldr	r2, [fp, #-44]	; 0xffffffd4
  1018f8:	e0823003 	add	r3, r2, r3
  1018fc:	e283301f 	add	r3, r3, #31
  101900:	e3c3301f 	bic	r3, r3, #31
  101904:	e50b3014 	str	r3, [fp, #-20]	; 0xffffffec
  101908:	e51b2014 	ldr	r2, [fp, #-20]	; 0xffffffec
  10190c:	e51b3010 	ldr	r3, [fp, #-16]
  101910:	e0633002 	rsb	r3, r3, r2
  101914:	e50b3018 	str	r3, [fp, #-24]	; 0xffffffe8
  101918:	e51b0010 	ldr	r0, [fp, #-16]
  10191c:	e51b1018 	ldr	r1, [fp, #-24]	; 0xffffffe8
  101920:	ebfffe4b 	bl	101254 <alt_cache_system_clean>
  101924:	e50b0008 	str	r0, [fp, #-8]
  101928:	e51b3008 	ldr	r3, [fp, #-8]
  10192c:	e3530000 	cmp	r3, #0
  101930:	1a000010 	bne	101978 <alt_dma_channel_exec+0x180>
  101934:	e51b302c 	ldr	r3, [fp, #-44]	; 0xffffffd4
  101938:	e1d330b4 	ldrh	r3, [r3, #4]
  10193c:	e2833010 	add	r3, r3, #16
  101940:	e51b202c 	ldr	r2, [fp, #-44]	; 0xffffffd4
  101944:	e0821003 	add	r1, r2, r3
  101948:	e24b2024 	sub	r2, fp, #36	; 0x24
  10194c:	e24b3020 	sub	r3, fp, #32
  101950:	e1a00001 	mov	r0, r1
  101954:	e1a01002 	mov	r1, r2
  101958:	e1a02003 	mov	r2, r3
  10195c:	ebfffe2b 	bl	101210 <alt_mmu_va_to_pa>
  101960:	e50b000c 	str	r0, [fp, #-12]
  101964:	e51b3020 	ldr	r3, [fp, #-32]	; 0xffffffe0
  101968:	e3530000 	cmp	r3, #0
  10196c:	0a000001 	beq	101978 <alt_dma_channel_exec+0x180>
  101970:	e3e03000 	mvn	r3, #0
  101974:	e50b3008 	str	r3, [fp, #-8]
  101978:	e51b3008 	ldr	r3, [fp, #-8]
  10197c:	e3530000 	cmp	r3, #0
  101980:	1a00000d 	bne	1019bc <alt_dma_channel_exec+0x1c4>
  101984:	e3013d08 	movw	r3, #7432	; 0x1d08
  101988:	e34f3fe0 	movt	r3, #65504	; 0xffe0
  10198c:	e55b2025 	ldrb	r2, [fp, #-37]	; 0xffffffdb
  101990:	e1a02c02 	lsl	r2, r2, #24
  101994:	e382260a 	orr	r2, r2, #10485760	; 0xa00000
  101998:	e5832000 	str	r2, [r3]
  10199c:	e3013d0c 	movw	r3, #7436	; 0x1d0c
  1019a0:	e34f3fe0 	movt	r3, #65504	; 0xffe0
  1019a4:	e51b200c 	ldr	r2, [fp, #-12]
  1019a8:	e5832000 	str	r2, [r3]
  1019ac:	e3013d04 	movw	r3, #7428	; 0x1d04
  1019b0:	e34f3fe0 	movt	r3, #65504	; 0xffe0
  1019b4:	e3a02000 	mov	r2, #0
  1019b8:	e5832000 	str	r2, [r3]
  1019bc:	e51b3008 	ldr	r3, [fp, #-8]
  1019c0:	e1a00003 	mov	r0, r3
  1019c4:	e24bd004 	sub	sp, fp, #4
  1019c8:	e8bd8800 	pop	{fp, pc}

001019cc <alt_dma_channel_kill>:
  1019cc:	e92d4800 	push	{fp, lr}
  1019d0:	e28db004 	add	fp, sp, #4
  1019d4:	e24dd018 	sub	sp, sp, #24
  1019d8:	e1a03000 	mov	r3, r0
  1019dc:	e54b3015 	strb	r3, [fp, #-21]	; 0xffffffeb
  1019e0:	e55b3015 	ldrb	r3, [fp, #-21]	; 0xffffffeb
  1019e4:	e2833000 	add	r3, r3, #0
  1019e8:	e3530007 	cmp	r3, #7
  1019ec:	9a000001 	bls	1019f8 <alt_dma_channel_kill+0x2c>
  1019f0:	e3e03008 	mvn	r3, #8
  1019f4:	ea000036 	b	101ad4 <alt_dma_channel_kill+0x108>
  1019f8:	e1a00000 	nop			; (mov r0, r0)
  1019fc:	e55b2015 	ldrb	r2, [fp, #-21]	; 0xffffffeb
  101a00:	e30333ec 	movw	r3, #13292	; 0x33ec
  101a04:	e3403011 	movt	r3, #17
  101a08:	e7d33002 	ldrb	r3, [r3, r2]
  101a0c:	e2033001 	and	r3, r3, #1
  101a10:	e3530000 	cmp	r3, #0
  101a14:	1a000001 	bne	101a20 <alt_dma_channel_kill+0x54>
  101a18:	e3e03000 	mvn	r3, #0
  101a1c:	ea00002c 	b	101ad4 <alt_dma_channel_kill+0x108>
  101a20:	e3013d08 	movw	r3, #7432	; 0x1d08
  101a24:	e34f3fe0 	movt	r3, #65504	; 0xffe0
  101a28:	e55b2015 	ldrb	r2, [fp, #-21]	; 0xffffffeb
  101a2c:	e2022007 	and	r2, r2, #7
  101a30:	e1a02402 	lsl	r2, r2, #8
  101a34:	e3822801 	orr	r2, r2, #65536	; 0x10000
  101a38:	e3822001 	orr	r2, r2, #1
  101a3c:	e5832000 	str	r2, [r3]
  101a40:	e3013d04 	movw	r3, #7428	; 0x1d04
  101a44:	e34f3fe0 	movt	r3, #65504	; 0xffe0
  101a48:	e3a02000 	mov	r2, #0
  101a4c:	e5832000 	str	r2, [r3]
  101a50:	e3a03000 	mov	r3, #0
  101a54:	e50b3008 	str	r3, [fp, #-8]
  101a58:	e3043e20 	movw	r3, #20000	; 0x4e20
  101a5c:	e50b300c 	str	r3, [fp, #-12]
  101a60:	ea00000f 	b	101aa4 <alt_dma_channel_kill+0xd8>
  101a64:	e55b2015 	ldrb	r2, [fp, #-21]	; 0xffffffeb
  101a68:	e24b300d 	sub	r3, fp, #13
  101a6c:	e1a00002 	mov	r0, r2
  101a70:	e1a01003 	mov	r1, r3
  101a74:	eb000081 	bl	101c80 <alt_dma_channel_state_get>
  101a78:	e50b0008 	str	r0, [fp, #-8]
  101a7c:	e51b3008 	ldr	r3, [fp, #-8]
  101a80:	e3530000 	cmp	r3, #0
  101a84:	0a000000 	beq	101a8c <alt_dma_channel_kill+0xc0>
  101a88:	ea00000b 	b	101abc <alt_dma_channel_kill+0xf0>
  101a8c:	e55b300d 	ldrb	r3, [fp, #-13]
  101a90:	e3530008 	cmp	r3, #8
  101a94:	0a000008 	beq	101abc <alt_dma_channel_kill+0xf0>
  101a98:	e55b300d 	ldrb	r3, [fp, #-13]
  101a9c:	e3530000 	cmp	r3, #0
  101aa0:	0a000005 	beq	101abc <alt_dma_channel_kill+0xf0>
  101aa4:	e51b300c 	ldr	r3, [fp, #-12]
  101aa8:	e2433001 	sub	r3, r3, #1
  101aac:	e50b300c 	str	r3, [fp, #-12]
  101ab0:	e51b300c 	ldr	r3, [fp, #-12]
  101ab4:	e3530000 	cmp	r3, #0
  101ab8:	1affffe9 	bne	101a64 <alt_dma_channel_kill+0x98>
  101abc:	e51b300c 	ldr	r3, [fp, #-12]
  101ac0:	e3530000 	cmp	r3, #0
  101ac4:	1a000001 	bne	101ad0 <alt_dma_channel_kill+0x104>
  101ac8:	e3e0300b 	mvn	r3, #11
  101acc:	e50b3008 	str	r3, [fp, #-8]
  101ad0:	e51b3008 	ldr	r3, [fp, #-8]
  101ad4:	e1a00003 	mov	r0, r3
  101ad8:	e24bd004 	sub	sp, fp, #4
  101adc:	e8bd8800 	pop	{fp, pc}

00101ae0 <alt_dma_channel_reg_get>:
  101ae0:	e52db004 	push	{fp}		; (str fp, [sp, #-4]!)
  101ae4:	e28db000 	add	fp, sp, #0
  101ae8:	e24dd00c 	sub	sp, sp, #12
  101aec:	e1a03000 	mov	r3, r0
  101af0:	e50b200c 	str	r2, [fp, #-12]
  101af4:	e54b3005 	strb	r3, [fp, #-5]
  101af8:	e1a03001 	mov	r3, r1
  101afc:	e54b3006 	strb	r3, [fp, #-6]
  101b00:	e55b3005 	ldrb	r3, [fp, #-5]
  101b04:	e2833000 	add	r3, r3, #0
  101b08:	e3530007 	cmp	r3, #7
  101b0c:	9a000001 	bls	101b18 <alt_dma_channel_reg_get+0x38>
  101b10:	e3e03008 	mvn	r3, #8
  101b14:	ea000027 	b	101bb8 <alt_dma_channel_reg_get+0xd8>
  101b18:	e1a00000 	nop			; (mov r0, r0)
  101b1c:	e55b3006 	ldrb	r3, [fp, #-6]
  101b20:	e3530001 	cmp	r3, #1
  101b24:	0a000016 	beq	101b84 <alt_dma_channel_reg_get+0xa4>
  101b28:	e3530002 	cmp	r3, #2
  101b2c:	0a00000a 	beq	101b5c <alt_dma_channel_reg_get+0x7c>
  101b30:	e3530000 	cmp	r3, #0
  101b34:	1a00001c 	bne	101bac <alt_dma_channel_reg_get+0xcc>
  101b38:	e55b3005 	ldrb	r3, [fp, #-5]
  101b3c:	e2833020 	add	r3, r3, #32
  101b40:	e1a03283 	lsl	r3, r3, #5
  101b44:	e243397f 	sub	r3, r3, #2080768	; 0x1fc000
  101b48:	e2433a03 	sub	r3, r3, #12288	; 0x3000
  101b4c:	e5932000 	ldr	r2, [r3]
  101b50:	e51b300c 	ldr	r3, [fp, #-12]
  101b54:	e5832000 	str	r2, [r3]
  101b58:	ea000015 	b	101bb4 <alt_dma_channel_reg_get+0xd4>
  101b5c:	e55b3005 	ldrb	r3, [fp, #-5]
  101b60:	e1a03283 	lsl	r3, r3, #5
  101b64:	e2833b01 	add	r3, r3, #1024	; 0x400
  101b68:	e2833004 	add	r3, r3, #4
  101b6c:	e243397f 	sub	r3, r3, #2080768	; 0x1fc000
  101b70:	e2433a03 	sub	r3, r3, #12288	; 0x3000
  101b74:	e5932000 	ldr	r2, [r3]
  101b78:	e51b300c 	ldr	r3, [fp, #-12]
  101b7c:	e5832000 	str	r2, [r3]
  101b80:	ea00000b 	b	101bb4 <alt_dma_channel_reg_get+0xd4>
  101b84:	e55b3005 	ldrb	r3, [fp, #-5]
  101b88:	e1a03283 	lsl	r3, r3, #5
  101b8c:	e2833b01 	add	r3, r3, #1024	; 0x400
  101b90:	e2833008 	add	r3, r3, #8
  101b94:	e243397f 	sub	r3, r3, #2080768	; 0x1fc000
  101b98:	e2433a03 	sub	r3, r3, #12288	; 0x3000
  101b9c:	e5932000 	ldr	r2, [r3]
  101ba0:	e51b300c 	ldr	r3, [fp, #-12]
  101ba4:	e5832000 	str	r2, [r3]
  101ba8:	ea000001 	b	101bb4 <alt_dma_channel_reg_get+0xd4>
  101bac:	e3e03008 	mvn	r3, #8
  101bb0:	ea000000 	b	101bb8 <alt_dma_channel_reg_get+0xd8>
  101bb4:	e3a03000 	mov	r3, #0
  101bb8:	e1a00003 	mov	r0, r3
  101bbc:	e24bd000 	sub	sp, fp, #0
  101bc0:	e49db004 	pop	{fp}		; (ldr fp, [sp], #4)
  101bc4:	e12fff1e 	bx	lr

00101bc8 <alt_dma_send_event>:
  101bc8:	e52db004 	push	{fp}		; (str fp, [sp, #-4]!)
  101bcc:	e28db000 	add	fp, sp, #0
  101bd0:	e24dd00c 	sub	sp, sp, #12
  101bd4:	e1a03000 	mov	r3, r0
  101bd8:	e54b3005 	strb	r3, [fp, #-5]
  101bdc:	e55b3005 	ldrb	r3, [fp, #-5]
  101be0:	e2833000 	add	r3, r3, #0
  101be4:	e3530008 	cmp	r3, #8
  101be8:	9a000001 	bls	101bf4 <alt_dma_send_event+0x2c>
  101bec:	e3e03008 	mvn	r3, #8
  101bf0:	ea00000b 	b	101c24 <alt_dma_send_event+0x5c>
  101bf4:	e1a00000 	nop			; (mov r0, r0)
  101bf8:	e3013d08 	movw	r3, #7432	; 0x1d08
  101bfc:	e34f3fe0 	movt	r3, #65504	; 0xffe0
  101c00:	e55b2005 	ldrb	r2, [fp, #-5]
  101c04:	e1a02d82 	lsl	r2, r2, #27
  101c08:	e382270d 	orr	r2, r2, #3407872	; 0x340000
  101c0c:	e5832000 	str	r2, [r3]
  101c10:	e3013d04 	movw	r3, #7428	; 0x1d04
  101c14:	e34f3fe0 	movt	r3, #65504	; 0xffe0
  101c18:	e3a02000 	mov	r2, #0
  101c1c:	e5832000 	str	r2, [r3]
  101c20:	e3a03000 	mov	r3, #0
  101c24:	e1a00003 	mov	r0, r3
  101c28:	e24bd000 	sub	sp, fp, #0
  101c2c:	e49db004 	pop	{fp}		; (ldr fp, [sp], #4)
  101c30:	e12fff1e 	bx	lr

00101c34 <alt_dma_manager_state_get>:
  101c34:	e52db004 	push	{fp}		; (str fp, [sp, #-4]!)
  101c38:	e28db000 	add	fp, sp, #0
  101c3c:	e24dd014 	sub	sp, sp, #20
  101c40:	e50b0010 	str	r0, [fp, #-16]
  101c44:	e3a03a01 	mov	r3, #4096	; 0x1000
  101c48:	e34f3fe0 	movt	r3, #65504	; 0xffe0
  101c4c:	e5933000 	ldr	r3, [r3]
  101c50:	e50b3008 	str	r3, [fp, #-8]
  101c54:	e51b3008 	ldr	r3, [fp, #-8]
  101c58:	e6ef3073 	uxtb	r3, r3
  101c5c:	e203300f 	and	r3, r3, #15
  101c60:	e6ef2073 	uxtb	r2, r3
  101c64:	e51b3010 	ldr	r3, [fp, #-16]
  101c68:	e5c32000 	strb	r2, [r3]
  101c6c:	e3a03000 	mov	r3, #0
  101c70:	e1a00003 	mov	r0, r3
  101c74:	e24bd000 	sub	sp, fp, #0
  101c78:	e49db004 	pop	{fp}		; (ldr fp, [sp], #4)
  101c7c:	e12fff1e 	bx	lr

00101c80 <alt_dma_channel_state_get>:
  101c80:	e52db004 	push	{fp}		; (str fp, [sp, #-4]!)
  101c84:	e28db000 	add	fp, sp, #0
  101c88:	e24dd014 	sub	sp, sp, #20
  101c8c:	e1a03000 	mov	r3, r0
  101c90:	e50b1014 	str	r1, [fp, #-20]	; 0xffffffec
  101c94:	e54b300d 	strb	r3, [fp, #-13]
  101c98:	e55b300d 	ldrb	r3, [fp, #-13]
  101c9c:	e2833000 	add	r3, r3, #0
  101ca0:	e3530007 	cmp	r3, #7
  101ca4:	9a000001 	bls	101cb0 <alt_dma_channel_state_get+0x30>
  101ca8:	e3e03008 	mvn	r3, #8
  101cac:	ea00000e 	b	101cec <alt_dma_channel_state_get+0x6c>
  101cb0:	e1a00000 	nop			; (mov r0, r0)
  101cb4:	e55b300d 	ldrb	r3, [fp, #-13]
  101cb8:	e2833020 	add	r3, r3, #32
  101cbc:	e1a03183 	lsl	r3, r3, #3
  101cc0:	e243397f 	sub	r3, r3, #2080768	; 0x1fc000
  101cc4:	e2433a03 	sub	r3, r3, #12288	; 0x3000
  101cc8:	e5933000 	ldr	r3, [r3]
  101ccc:	e50b3008 	str	r3, [fp, #-8]
  101cd0:	e51b3008 	ldr	r3, [fp, #-8]
  101cd4:	e6ef3073 	uxtb	r3, r3
  101cd8:	e203300f 	and	r3, r3, #15
  101cdc:	e6ef2073 	uxtb	r2, r3
  101ce0:	e51b3014 	ldr	r3, [fp, #-20]	; 0xffffffec
  101ce4:	e5c32000 	strb	r2, [r3]
  101ce8:	e3a03000 	mov	r3, #0
  101cec:	e1a00003 	mov	r0, r3
  101cf0:	e24bd000 	sub	sp, fp, #0
  101cf4:	e49db004 	pop	{fp}		; (ldr fp, [sp], #4)
  101cf8:	e12fff1e 	bx	lr

00101cfc <alt_dma_manager_fault_status_get>:
  101cfc:	e52db004 	push	{fp}		; (str fp, [sp, #-4]!)
  101d00:	e28db000 	add	fp, sp, #0
  101d04:	e24dd00c 	sub	sp, sp, #12
  101d08:	e50b0008 	str	r0, [fp, #-8]
  101d0c:	e3013030 	movw	r3, #4144	; 0x1030
  101d10:	e34f3fe0 	movt	r3, #65504	; 0xffe0
  101d14:	e5932000 	ldr	r2, [r3]
  101d18:	e51b3008 	ldr	r3, [fp, #-8]
  101d1c:	e5832000 	str	r2, [r3]
  101d20:	e3a03000 	mov	r3, #0
  101d24:	e1a00003 	mov	r0, r3
  101d28:	e24bd000 	sub	sp, fp, #0
  101d2c:	e49db004 	pop	{fp}		; (ldr fp, [sp], #4)
  101d30:	e12fff1e 	bx	lr

00101d34 <alt_dma_channel_fault_status_get>:
  101d34:	e52db004 	push	{fp}		; (str fp, [sp, #-4]!)
  101d38:	e28db000 	add	fp, sp, #0
  101d3c:	e24dd00c 	sub	sp, sp, #12
  101d40:	e1a03000 	mov	r3, r0
  101d44:	e50b100c 	str	r1, [fp, #-12]
  101d48:	e54b3005 	strb	r3, [fp, #-5]
  101d4c:	e55b3005 	ldrb	r3, [fp, #-5]
  101d50:	e2833000 	add	r3, r3, #0
  101d54:	e3530007 	cmp	r3, #7
  101d58:	9a000001 	bls	101d64 <alt_dma_channel_fault_status_get+0x30>
  101d5c:	e3e03008 	mvn	r3, #8
  101d60:	ea00000a 	b	101d90 <alt_dma_channel_fault_status_get+0x5c>
  101d64:	e1a00000 	nop			; (mov r0, r0)
  101d68:	e55b3005 	ldrb	r3, [fp, #-5]
  101d6c:	e2833010 	add	r3, r3, #16
  101d70:	e1a03103 	lsl	r3, r3, #2
  101d74:	e243397f 	sub	r3, r3, #2080768	; 0x1fc000
  101d78:	e2433a03 	sub	r3, r3, #12288	; 0x3000
  101d7c:	e5933000 	ldr	r3, [r3]
  101d80:	e1a02003 	mov	r2, r3
  101d84:	e51b300c 	ldr	r3, [fp, #-12]
  101d88:	e5832000 	str	r2, [r3]
  101d8c:	e3a03000 	mov	r3, #0
  101d90:	e1a00003 	mov	r0, r3
  101d94:	e24bd000 	sub	sp, fp, #0
  101d98:	e49db004 	pop	{fp}		; (ldr fp, [sp], #4)
  101d9c:	e12fff1e 	bx	lr

00101da0 <alt_dma_event_int_select>:
  101da0:	e52db004 	push	{fp}		; (str fp, [sp, #-4]!)
  101da4:	e28db000 	add	fp, sp, #0
  101da8:	e24dd00c 	sub	sp, sp, #12
  101dac:	e1a03000 	mov	r3, r0
  101db0:	e1a02001 	mov	r2, r1
  101db4:	e54b3005 	strb	r3, [fp, #-5]
  101db8:	e1a03002 	mov	r3, r2
  101dbc:	e54b3006 	strb	r3, [fp, #-6]
  101dc0:	e55b3005 	ldrb	r3, [fp, #-5]
  101dc4:	e2833000 	add	r3, r3, #0
  101dc8:	e3530008 	cmp	r3, #8
  101dcc:	9a000001 	bls	101dd8 <alt_dma_event_int_select+0x38>
  101dd0:	e3e03008 	mvn	r3, #8
  101dd4:	ea000020 	b	101e5c <alt_dma_event_int_select+0xbc>
  101dd8:	e1a00000 	nop			; (mov r0, r0)
  101ddc:	e55b3006 	ldrb	r3, [fp, #-6]
  101de0:	e3530000 	cmp	r3, #0
  101de4:	0a000002 	beq	101df4 <alt_dma_event_int_select+0x54>
  101de8:	e3530001 	cmp	r3, #1
  101dec:	0a00000c 	beq	101e24 <alt_dma_event_int_select+0x84>
  101df0:	ea000016 	b	101e50 <alt_dma_event_int_select+0xb0>
  101df4:	e3013020 	movw	r3, #4128	; 0x1020
  101df8:	e34f3fe0 	movt	r3, #65504	; 0xffe0
  101dfc:	e3012020 	movw	r2, #4128	; 0x1020
  101e00:	e34f2fe0 	movt	r2, #65504	; 0xffe0
  101e04:	e5922000 	ldr	r2, [r2]
  101e08:	e55b1005 	ldrb	r1, [fp, #-5]
  101e0c:	e3a00001 	mov	r0, #1
  101e10:	e1a01110 	lsl	r1, r0, r1
  101e14:	e1e01001 	mvn	r1, r1
  101e18:	e0022001 	and	r2, r2, r1
  101e1c:	e5832000 	str	r2, [r3]
  101e20:	ea00000c 	b	101e58 <alt_dma_event_int_select+0xb8>
  101e24:	e3013020 	movw	r3, #4128	; 0x1020
  101e28:	e34f3fe0 	movt	r3, #65504	; 0xffe0
  101e2c:	e3012020 	movw	r2, #4128	; 0x1020
  101e30:	e34f2fe0 	movt	r2, #65504	; 0xffe0
  101e34:	e5922000 	ldr	r2, [r2]
  101e38:	e55b1005 	ldrb	r1, [fp, #-5]
  101e3c:	e3a00001 	mov	r0, #1
  101e40:	e1a01110 	lsl	r1, r0, r1
  101e44:	e1822001 	orr	r2, r2, r1
  101e48:	e5832000 	str	r2, [r3]
  101e4c:	ea000001 	b	101e58 <alt_dma_event_int_select+0xb8>
  101e50:	e3e03008 	mvn	r3, #8
  101e54:	ea000000 	b	101e5c <alt_dma_event_int_select+0xbc>
  101e58:	e3a03000 	mov	r3, #0
  101e5c:	e1a00003 	mov	r0, r3
  101e60:	e24bd000 	sub	sp, fp, #0
  101e64:	e49db004 	pop	{fp}		; (ldr fp, [sp], #4)
  101e68:	e12fff1e 	bx	lr

00101e6c <alt_dma_event_int_status_get_raw>:
  101e6c:	e52db004 	push	{fp}		; (str fp, [sp, #-4]!)
  101e70:	e28db000 	add	fp, sp, #0
  101e74:	e24dd014 	sub	sp, sp, #20
  101e78:	e1a03000 	mov	r3, r0
  101e7c:	e54b300d 	strb	r3, [fp, #-13]
  101e80:	e55b300d 	ldrb	r3, [fp, #-13]
  101e84:	e2833000 	add	r3, r3, #0
  101e88:	e3530008 	cmp	r3, #8
  101e8c:	9a000001 	bls	101e98 <alt_dma_event_int_status_get_raw+0x2c>
  101e90:	e3e03008 	mvn	r3, #8
  101e94:	ea00000f 	b	101ed8 <alt_dma_event_int_status_get_raw+0x6c>
  101e98:	e1a00000 	nop			; (mov r0, r0)
  101e9c:	e3013024 	movw	r3, #4132	; 0x1024
  101ea0:	e34f3fe0 	movt	r3, #65504	; 0xffe0
  101ea4:	e5933000 	ldr	r3, [r3]
  101ea8:	e50b3008 	str	r3, [fp, #-8]
  101eac:	e55b300d 	ldrb	r3, [fp, #-13]
  101eb0:	e3a02001 	mov	r2, #1
  101eb4:	e1a03312 	lsl	r3, r2, r3
  101eb8:	e1a02003 	mov	r2, r3
  101ebc:	e51b3008 	ldr	r3, [fp, #-8]
  101ec0:	e0033002 	and	r3, r3, r2
  101ec4:	e3530000 	cmp	r3, #0
  101ec8:	0a000001 	beq	101ed4 <alt_dma_event_int_status_get_raw+0x68>
  101ecc:	e3a03001 	mov	r3, #1
  101ed0:	ea000000 	b	101ed8 <alt_dma_event_int_status_get_raw+0x6c>
  101ed4:	e3a03000 	mov	r3, #0
  101ed8:	e1a00003 	mov	r0, r3
  101edc:	e24bd000 	sub	sp, fp, #0
  101ee0:	e49db004 	pop	{fp}		; (ldr fp, [sp], #4)
  101ee4:	e12fff1e 	bx	lr

00101ee8 <alt_dma_int_status_get>:
  101ee8:	e52db004 	push	{fp}		; (str fp, [sp, #-4]!)
  101eec:	e28db000 	add	fp, sp, #0
  101ef0:	e24dd014 	sub	sp, sp, #20
  101ef4:	e1a03000 	mov	r3, r0
  101ef8:	e54b300d 	strb	r3, [fp, #-13]
  101efc:	e55b300d 	ldrb	r3, [fp, #-13]
  101f00:	e2833000 	add	r3, r3, #0
  101f04:	e3530008 	cmp	r3, #8
  101f08:	9a000001 	bls	101f14 <alt_dma_int_status_get+0x2c>
  101f0c:	e3e03008 	mvn	r3, #8
  101f10:	ea00000f 	b	101f54 <alt_dma_int_status_get+0x6c>
  101f14:	e1a00000 	nop			; (mov r0, r0)
  101f18:	e3013028 	movw	r3, #4136	; 0x1028
  101f1c:	e34f3fe0 	movt	r3, #65504	; 0xffe0
  101f20:	e5933000 	ldr	r3, [r3]
  101f24:	e50b3008 	str	r3, [fp, #-8]
  101f28:	e55b300d 	ldrb	r3, [fp, #-13]
  101f2c:	e3a02001 	mov	r2, #1
  101f30:	e1a03312 	lsl	r3, r2, r3
  101f34:	e1a02003 	mov	r2, r3
  101f38:	e51b3008 	ldr	r3, [fp, #-8]
  101f3c:	e0033002 	and	r3, r3, r2
  101f40:	e3530000 	cmp	r3, #0
  101f44:	0a000001 	beq	101f50 <alt_dma_int_status_get+0x68>
  101f48:	e3a03001 	mov	r3, #1
  101f4c:	ea000000 	b	101f54 <alt_dma_int_status_get+0x6c>
  101f50:	e3a03000 	mov	r3, #0
  101f54:	e1a00003 	mov	r0, r3
  101f58:	e24bd000 	sub	sp, fp, #0
  101f5c:	e49db004 	pop	{fp}		; (ldr fp, [sp], #4)
  101f60:	e12fff1e 	bx	lr

00101f64 <alt_dma_int_clear>:
  101f64:	e52db004 	push	{fp}		; (str fp, [sp, #-4]!)
  101f68:	e28db000 	add	fp, sp, #0
  101f6c:	e24dd00c 	sub	sp, sp, #12
  101f70:	e1a03000 	mov	r3, r0
  101f74:	e54b3005 	strb	r3, [fp, #-5]
  101f78:	e55b3005 	ldrb	r3, [fp, #-5]
  101f7c:	e2833000 	add	r3, r3, #0
  101f80:	e3530008 	cmp	r3, #8
  101f84:	9a000001 	bls	101f90 <alt_dma_int_clear+0x2c>
  101f88:	e3e03008 	mvn	r3, #8
  101f8c:	ea000007 	b	101fb0 <alt_dma_int_clear+0x4c>
  101f90:	e1a00000 	nop			; (mov r0, r0)
  101f94:	e301302c 	movw	r3, #4140	; 0x102c
  101f98:	e34f3fe0 	movt	r3, #65504	; 0xffe0
  101f9c:	e55b2005 	ldrb	r2, [fp, #-5]
  101fa0:	e3a01001 	mov	r1, #1
  101fa4:	e1a02211 	lsl	r2, r1, r2
  101fa8:	e5832000 	str	r2, [r3]
  101fac:	e3a03000 	mov	r3, #0
  101fb0:	e1a00003 	mov	r0, r3
  101fb4:	e24bd000 	sub	sp, fp, #0
  101fb8:	e49db004 	pop	{fp}		; (ldr fp, [sp], #4)
  101fbc:	e12fff1e 	bx	lr

00101fc0 <alt_mmu_va_to_pa_coalesce_begin>:
  101fc0:	e92d4800 	push	{fp, lr}
  101fc4:	e28db004 	add	fp, sp, #4
  101fc8:	e24dd018 	sub	sp, sp, #24
  101fcc:	e50b0010 	str	r0, [fp, #-16]
  101fd0:	e50b1014 	str	r1, [fp, #-20]	; 0xffffffec
  101fd4:	e50b2018 	str	r2, [fp, #-24]	; 0xffffffe8
  101fd8:	e51b2014 	ldr	r2, [fp, #-20]	; 0xffffffec
  101fdc:	e51b3018 	ldr	r3, [fp, #-24]	; 0xffffffe8
  101fe0:	e0823003 	add	r3, r2, r3
  101fe4:	e2432001 	sub	r2, r3, #1
  101fe8:	e51b3014 	ldr	r3, [fp, #-20]	; 0xffffffec
  101fec:	e1520003 	cmp	r2, r3
  101ff0:	2a000001 	bcs	101ffc <alt_mmu_va_to_pa_coalesce_begin+0x3c>
  101ff4:	e3e03000 	mvn	r3, #0
  101ff8:	ea00001d 	b	102074 <alt_mmu_va_to_pa_coalesce_begin+0xb4>
  101ffc:	e51b3010 	ldr	r3, [fp, #-16]
  102000:	e283200c 	add	r2, r3, #12
  102004:	e24b3008 	sub	r3, fp, #8
  102008:	e51b0014 	ldr	r0, [fp, #-20]	; 0xffffffec
  10200c:	e1a01002 	mov	r1, r2
  102010:	e1a02003 	mov	r2, r3
  102014:	ebfffc7d 	bl	101210 <alt_mmu_va_to_pa>
  102018:	e1a02000 	mov	r2, r0
  10201c:	e51b3010 	ldr	r3, [fp, #-16]
  102020:	e5832008 	str	r2, [r3, #8]
  102024:	e51b3008 	ldr	r3, [fp, #-8]
  102028:	e3530000 	cmp	r3, #0
  10202c:	0a000001 	beq	102038 <alt_mmu_va_to_pa_coalesce_begin+0x78>
  102030:	e3e03000 	mvn	r3, #0
  102034:	ea00000e 	b	102074 <alt_mmu_va_to_pa_coalesce_begin+0xb4>
  102038:	e51b3010 	ldr	r3, [fp, #-16]
  10203c:	e593200c 	ldr	r2, [r3, #12]
  102040:	e51b3018 	ldr	r3, [fp, #-24]	; 0xffffffe8
  102044:	e1520003 	cmp	r2, r3
  102048:	31a02002 	movcc	r2, r2
  10204c:	21a02003 	movcs	r2, r3
  102050:	e51b3010 	ldr	r3, [fp, #-16]
  102054:	e583200c 	str	r2, [r3, #12]
  102058:	e51b3010 	ldr	r3, [fp, #-16]
  10205c:	e51b2014 	ldr	r2, [fp, #-20]	; 0xffffffec
  102060:	e5832000 	str	r2, [r3]
  102064:	e51b3010 	ldr	r3, [fp, #-16]
  102068:	e51b2018 	ldr	r2, [fp, #-24]	; 0xffffffe8
  10206c:	e5832004 	str	r2, [r3, #4]
  102070:	e3a03000 	mov	r3, #0
  102074:	e1a00003 	mov	r0, r3
  102078:	e24bd004 	sub	sp, fp, #4
  10207c:	e8bd8800 	pop	{fp, pc}

00102080 <alt_mmu_va_to_pa_coalesce_next>:
  102080:	e92d4800 	push	{fp, lr}
  102084:	e28db004 	add	fp, sp, #4
  102088:	e24dd020 	sub	sp, sp, #32
  10208c:	e50b0018 	str	r0, [fp, #-24]	; 0xffffffe8
  102090:	e50b101c 	str	r1, [fp, #-28]	; 0xffffffe4
  102094:	e50b2020 	str	r2, [fp, #-32]	; 0xffffffe0
  102098:	e51b3018 	ldr	r3, [fp, #-24]	; 0xffffffe8
  10209c:	e5933004 	ldr	r3, [r3, #4]
  1020a0:	e3530000 	cmp	r3, #0
  1020a4:	1a000001 	bne	1020b0 <alt_mmu_va_to_pa_coalesce_next+0x30>
  1020a8:	e3e03000 	mvn	r3, #0
  1020ac:	ea000051 	b	1021f8 <alt_mmu_va_to_pa_coalesce_next+0x178>
  1020b0:	e51b3018 	ldr	r3, [fp, #-24]	; 0xffffffe8
  1020b4:	e5933008 	ldr	r3, [r3, #8]
  1020b8:	e50b300c 	str	r3, [fp, #-12]
  1020bc:	e51b3018 	ldr	r3, [fp, #-24]	; 0xffffffe8
  1020c0:	e593300c 	ldr	r3, [r3, #12]
  1020c4:	e50b3008 	str	r3, [fp, #-8]
  1020c8:	e51b3018 	ldr	r3, [fp, #-24]	; 0xffffffe8
  1020cc:	e5932000 	ldr	r2, [r3]
  1020d0:	e51b3008 	ldr	r3, [fp, #-8]
  1020d4:	e0822003 	add	r2, r2, r3
  1020d8:	e51b3018 	ldr	r3, [fp, #-24]	; 0xffffffe8
  1020dc:	e5832000 	str	r2, [r3]
  1020e0:	e51b3018 	ldr	r3, [fp, #-24]	; 0xffffffe8
  1020e4:	e5932004 	ldr	r2, [r3, #4]
  1020e8:	e51b3008 	ldr	r3, [fp, #-8]
  1020ec:	e0632002 	rsb	r2, r3, r2
  1020f0:	e51b3018 	ldr	r3, [fp, #-24]	; 0xffffffe8
  1020f4:	e5832004 	str	r2, [r3, #4]
  1020f8:	ea000033 	b	1021cc <alt_mmu_va_to_pa_coalesce_next+0x14c>
  1020fc:	e51b3018 	ldr	r3, [fp, #-24]	; 0xffffffe8
  102100:	e5931000 	ldr	r1, [r3]
  102104:	e51b3018 	ldr	r3, [fp, #-24]	; 0xffffffe8
  102108:	e283200c 	add	r2, r3, #12
  10210c:	e24b3010 	sub	r3, fp, #16
  102110:	e1a00001 	mov	r0, r1
  102114:	e1a01002 	mov	r1, r2
  102118:	e1a02003 	mov	r2, r3
  10211c:	ebfffc3b 	bl	101210 <alt_mmu_va_to_pa>
  102120:	e1a02000 	mov	r2, r0
  102124:	e51b3018 	ldr	r3, [fp, #-24]	; 0xffffffe8
  102128:	e5832008 	str	r2, [r3, #8]
  10212c:	e51b3010 	ldr	r3, [fp, #-16]
  102130:	e3530000 	cmp	r3, #0
  102134:	0a000001 	beq	102140 <alt_mmu_va_to_pa_coalesce_next+0xc0>
  102138:	e3e03000 	mvn	r3, #0
  10213c:	ea00002d 	b	1021f8 <alt_mmu_va_to_pa_coalesce_next+0x178>
  102140:	e51b3018 	ldr	r3, [fp, #-24]	; 0xffffffe8
  102144:	e593200c 	ldr	r2, [r3, #12]
  102148:	e51b3018 	ldr	r3, [fp, #-24]	; 0xffffffe8
  10214c:	e5933004 	ldr	r3, [r3, #4]
  102150:	e1520003 	cmp	r2, r3
  102154:	31a02002 	movcc	r2, r2
  102158:	21a02003 	movcs	r2, r3
  10215c:	e51b3018 	ldr	r3, [fp, #-24]	; 0xffffffe8
  102160:	e583200c 	str	r2, [r3, #12]
  102164:	e51b3018 	ldr	r3, [fp, #-24]	; 0xffffffe8
  102168:	e5932008 	ldr	r2, [r3, #8]
  10216c:	e51b100c 	ldr	r1, [fp, #-12]
  102170:	e51b3008 	ldr	r3, [fp, #-8]
  102174:	e0813003 	add	r3, r1, r3
  102178:	e1520003 	cmp	r2, r3
  10217c:	1a000016 	bne	1021dc <alt_mmu_va_to_pa_coalesce_next+0x15c>
  102180:	e51b3018 	ldr	r3, [fp, #-24]	; 0xffffffe8
  102184:	e593300c 	ldr	r3, [r3, #12]
  102188:	e51b2008 	ldr	r2, [fp, #-8]
  10218c:	e0823003 	add	r3, r2, r3
  102190:	e50b3008 	str	r3, [fp, #-8]
  102194:	e51b3018 	ldr	r3, [fp, #-24]	; 0xffffffe8
  102198:	e5932000 	ldr	r2, [r3]
  10219c:	e51b3018 	ldr	r3, [fp, #-24]	; 0xffffffe8
  1021a0:	e593300c 	ldr	r3, [r3, #12]
  1021a4:	e0822003 	add	r2, r2, r3
  1021a8:	e51b3018 	ldr	r3, [fp, #-24]	; 0xffffffe8
  1021ac:	e5832000 	str	r2, [r3]
  1021b0:	e51b3018 	ldr	r3, [fp, #-24]	; 0xffffffe8
  1021b4:	e5932004 	ldr	r2, [r3, #4]
  1021b8:	e51b3018 	ldr	r3, [fp, #-24]	; 0xffffffe8
  1021bc:	e593300c 	ldr	r3, [r3, #12]
  1021c0:	e0632002 	rsb	r2, r3, r2
  1021c4:	e51b3018 	ldr	r3, [fp, #-24]	; 0xffffffe8
  1021c8:	e5832004 	str	r2, [r3, #4]
  1021cc:	e51b3018 	ldr	r3, [fp, #-24]	; 0xffffffe8
  1021d0:	e5933004 	ldr	r3, [r3, #4]
  1021d4:	e3530000 	cmp	r3, #0
  1021d8:	1affffc7 	bne	1020fc <alt_mmu_va_to_pa_coalesce_next+0x7c>
  1021dc:	e51b301c 	ldr	r3, [fp, #-28]	; 0xffffffe4
  1021e0:	e51b200c 	ldr	r2, [fp, #-12]
  1021e4:	e5832000 	str	r2, [r3]
  1021e8:	e51b3020 	ldr	r3, [fp, #-32]	; 0xffffffe0
  1021ec:	e51b2008 	ldr	r2, [fp, #-8]
  1021f0:	e5832000 	str	r2, [r3]
  1021f4:	e3a03000 	mov	r3, #0
  1021f8:	e1a00003 	mov	r0, r3
  1021fc:	e24bd004 	sub	sp, fp, #4
  102200:	e8bd8800 	pop	{fp, pc}

00102204 <alt_mmu_va_to_pa_coalesce_end>:
  102204:	e52db004 	push	{fp}		; (str fp, [sp, #-4]!)
  102208:	e28db000 	add	fp, sp, #0
  10220c:	e24dd00c 	sub	sp, sp, #12
  102210:	e50b0008 	str	r0, [fp, #-8]
  102214:	e51b3008 	ldr	r3, [fp, #-8]
  102218:	e5933004 	ldr	r3, [r3, #4]
  10221c:	e3530000 	cmp	r3, #0
  102220:	0a000001 	beq	10222c <alt_mmu_va_to_pa_coalesce_end+0x28>
  102224:	e3e03000 	mvn	r3, #0
  102228:	ea000000 	b	102230 <alt_mmu_va_to_pa_coalesce_end+0x2c>
  10222c:	e3a03000 	mov	r3, #0
  102230:	e1a00003 	mov	r0, r3
  102234:	e24bd000 	sub	sp, fp, #0
  102238:	e49db004 	pop	{fp}		; (ldr fp, [sp], #4)
  10223c:	e12fff1e 	bx	lr

00102240 <alt_dma_memory_to_memory_segment>:
  102240:	e92d4800 	push	{fp, lr}
  102244:	e28db004 	add	fp, sp, #4
  102248:	e24dd030 	sub	sp, sp, #48	; 0x30
  10224c:	e50b0028 	str	r0, [fp, #-40]	; 0xffffffd8
  102250:	e50b102c 	str	r1, [fp, #-44]	; 0xffffffd4
  102254:	e50b2030 	str	r2, [fp, #-48]	; 0xffffffd0
  102258:	e50b3034 	str	r3, [fp, #-52]	; 0xffffffcc
  10225c:	e3a03000 	mov	r3, #0
  102260:	e50b3008 	str	r3, [fp, #-8]
  102264:	e51b3008 	ldr	r3, [fp, #-8]
  102268:	e3530000 	cmp	r3, #0
  10226c:	1a000004 	bne	102284 <alt_dma_memory_to_memory_segment+0x44>
  102270:	e51b0028 	ldr	r0, [fp, #-40]	; 0xffffffd8
  102274:	e3a01000 	mov	r1, #0
  102278:	e51b2030 	ldr	r2, [fp, #-48]	; 0xffffffd0
  10227c:	eb00191d 	bl	1086f8 <alt_dma_program_DMAMOV>
  102280:	e50b0008 	str	r0, [fp, #-8]
  102284:	e51b3008 	ldr	r3, [fp, #-8]
  102288:	e3530000 	cmp	r3, #0
  10228c:	1a000004 	bne	1022a4 <alt_dma_memory_to_memory_segment+0x64>
  102290:	e51b0028 	ldr	r0, [fp, #-40]	; 0xffffffd8
  102294:	e3a01002 	mov	r1, #2
  102298:	e51b202c 	ldr	r2, [fp, #-44]	; 0xffffffd4
  10229c:	eb001915 	bl	1086f8 <alt_dma_program_DMAMOV>
  1022a0:	e50b0008 	str	r0, [fp, #-8]
  1022a4:	e51b3034 	ldr	r3, [fp, #-52]	; 0xffffffcc
  1022a8:	e50b300c 	str	r3, [fp, #-12]
  1022ac:	e51b3030 	ldr	r3, [fp, #-48]	; 0xffffffd0
  1022b0:	e2033007 	and	r3, r3, #7
  1022b4:	e3530000 	cmp	r3, #0
  1022b8:	0a00002a 	beq	102368 <alt_dma_memory_to_memory_segment+0x128>
  1022bc:	e51b3030 	ldr	r3, [fp, #-48]	; 0xffffffd0
  1022c0:	e2033007 	and	r3, r3, #7
  1022c4:	e2632008 	rsb	r2, r3, #8
  1022c8:	e51b300c 	ldr	r3, [fp, #-12]
  1022cc:	e1520003 	cmp	r2, r3
  1022d0:	31a03002 	movcc	r3, r2
  1022d4:	21a03003 	movcs	r3, r3
  1022d8:	e50b3018 	str	r3, [fp, #-24]	; 0xffffffe8
  1022dc:	e51b200c 	ldr	r2, [fp, #-12]
  1022e0:	e51b3018 	ldr	r3, [fp, #-24]	; 0xffffffe8
  1022e4:	e0633002 	rsb	r3, r3, r2
  1022e8:	e50b300c 	str	r3, [fp, #-12]
  1022ec:	e51b3008 	ldr	r3, [fp, #-8]
  1022f0:	e3530000 	cmp	r3, #0
  1022f4:	1a00000d 	bne	102330 <alt_dma_memory_to_memory_segment+0xf0>
  1022f8:	e51b3018 	ldr	r3, [fp, #-24]	; 0xffffffe8
  1022fc:	e2433001 	sub	r3, r3, #1
  102300:	e1a02203 	lsl	r2, r3, #4
  102304:	e51b3018 	ldr	r3, [fp, #-24]	; 0xffffffe8
  102308:	e2433001 	sub	r3, r3, #1
  10230c:	e1a03903 	lsl	r3, r3, #18
  102310:	e1823003 	orr	r3, r2, r3
  102314:	e3833901 	orr	r3, r3, #16384	; 0x4000
  102318:	e3833001 	orr	r3, r3, #1
  10231c:	e51b0028 	ldr	r0, [fp, #-40]	; 0xffffffd8
  102320:	e3a01001 	mov	r1, #1
  102324:	e1a02003 	mov	r2, r3
  102328:	eb0018f2 	bl	1086f8 <alt_dma_program_DMAMOV>
  10232c:	e50b0008 	str	r0, [fp, #-8]
  102330:	e51b3008 	ldr	r3, [fp, #-8]
  102334:	e3530000 	cmp	r3, #0
  102338:	1a000003 	bne	10234c <alt_dma_memory_to_memory_segment+0x10c>
  10233c:	e51b0028 	ldr	r0, [fp, #-40]	; 0xffffffd8
  102340:	e3a01000 	mov	r1, #0
  102344:	eb00173d 	bl	108040 <alt_dma_program_DMALD>
  102348:	e50b0008 	str	r0, [fp, #-8]
  10234c:	e51b3008 	ldr	r3, [fp, #-8]
  102350:	e3530000 	cmp	r3, #0
  102354:	1a000003 	bne	102368 <alt_dma_memory_to_memory_segment+0x128>
  102358:	e51b0028 	ldr	r0, [fp, #-40]	; 0xffffffd8
  10235c:	e3a01000 	mov	r1, #0
  102360:	eb0019d3 	bl	108ab4 <alt_dma_program_DMAST>
  102364:	e50b0008 	str	r0, [fp, #-8]
  102368:	e51b300c 	ldr	r3, [fp, #-12]
  10236c:	e1a031a3 	lsr	r3, r3, #3
  102370:	e50b3010 	str	r3, [fp, #-16]
  102374:	e51b3010 	ldr	r3, [fp, #-16]
  102378:	e3530000 	cmp	r3, #0
  10237c:	0a000007 	beq	1023a0 <alt_dma_memory_to_memory_segment+0x160>
  102380:	e51b2030 	ldr	r2, [fp, #-48]	; 0xffffffd0
  102384:	e51b302c 	ldr	r3, [fp, #-44]	; 0xffffffd4
  102388:	e0233002 	eor	r3, r3, r2
  10238c:	e2033007 	and	r3, r3, #7
  102390:	e3530000 	cmp	r3, #0
  102394:	0a000001 	beq	1023a0 <alt_dma_memory_to_memory_segment+0x160>
  102398:	e3a03001 	mov	r3, #1
  10239c:	ea000000 	b	1023a4 <alt_dma_memory_to_memory_segment+0x164>
  1023a0:	e3a03000 	mov	r3, #0
  1023a4:	e54b3019 	strb	r3, [fp, #-25]	; 0xffffffe7
  1023a8:	e55b3019 	ldrb	r3, [fp, #-25]	; 0xffffffe7
  1023ac:	e2033001 	and	r3, r3, #1
  1023b0:	e54b3019 	strb	r3, [fp, #-25]	; 0xffffffe7
  1023b4:	e51b300c 	ldr	r3, [fp, #-12]
  1023b8:	e2033007 	and	r3, r3, #7
  1023bc:	e50b300c 	str	r3, [fp, #-12]
  1023c0:	e51b3010 	ldr	r3, [fp, #-16]
  1023c4:	e1a03223 	lsr	r3, r3, #4
  1023c8:	e3530000 	cmp	r3, #0
  1023cc:	0a000041 	beq	1024d8 <alt_dma_memory_to_memory_segment+0x298>
  1023d0:	e51b3010 	ldr	r3, [fp, #-16]
  1023d4:	e1a03223 	lsr	r3, r3, #4
  1023d8:	e50b3014 	str	r3, [fp, #-20]	; 0xffffffec
  1023dc:	e51b3010 	ldr	r3, [fp, #-16]
  1023e0:	e203300f 	and	r3, r3, #15
  1023e4:	e50b3010 	str	r3, [fp, #-16]
  1023e8:	e51b3008 	ldr	r3, [fp, #-8]
  1023ec:	e3530000 	cmp	r3, #0
  1023f0:	1a000005 	bne	10240c <alt_dma_memory_to_memory_segment+0x1cc>
  1023f4:	e51b0028 	ldr	r0, [fp, #-40]	; 0xffffffd8
  1023f8:	e3a01001 	mov	r1, #1
  1023fc:	e30c20f7 	movw	r2, #49399	; 0xc0f7
  102400:	e340203d 	movt	r2, #61	; 0x3d
  102404:	eb0018bb 	bl	1086f8 <alt_dma_program_DMAMOV>
  102408:	e50b0008 	str	r0, [fp, #-8]
  10240c:	ea00002e 	b	1024cc <alt_dma_memory_to_memory_segment+0x28c>
  102410:	e51b3008 	ldr	r3, [fp, #-8]
  102414:	e3530000 	cmp	r3, #0
  102418:	0a000000 	beq	102420 <alt_dma_memory_to_memory_segment+0x1e0>
  10241c:	ea00002d 	b	1024d8 <alt_dma_memory_to_memory_segment+0x298>
  102420:	e51b3014 	ldr	r3, [fp, #-20]	; 0xffffffec
  102424:	e3530c01 	cmp	r3, #256	; 0x100
  102428:	31a03003 	movcc	r3, r3
  10242c:	23a03c01 	movcs	r3, #256	; 0x100
  102430:	e50b3020 	str	r3, [fp, #-32]	; 0xffffffe0
  102434:	e51b2014 	ldr	r2, [fp, #-20]	; 0xffffffec
  102438:	e51b3020 	ldr	r3, [fp, #-32]	; 0xffffffe0
  10243c:	e0633002 	rsb	r3, r3, r2
  102440:	e50b3014 	str	r3, [fp, #-20]	; 0xffffffec
  102444:	e51b3008 	ldr	r3, [fp, #-8]
  102448:	e3530000 	cmp	r3, #0
  10244c:	1a000006 	bne	10246c <alt_dma_memory_to_memory_segment+0x22c>
  102450:	e51b3020 	ldr	r3, [fp, #-32]	; 0xffffffe0
  102454:	e3530001 	cmp	r3, #1
  102458:	9a000003 	bls	10246c <alt_dma_memory_to_memory_segment+0x22c>
  10245c:	e51b0028 	ldr	r0, [fp, #-40]	; 0xffffffd8
  102460:	e51b1020 	ldr	r1, [fp, #-32]	; 0xffffffe0
  102464:	eb001774 	bl	10823c <alt_dma_program_DMALP>
  102468:	e50b0008 	str	r0, [fp, #-8]
  10246c:	e51b3008 	ldr	r3, [fp, #-8]
  102470:	e3530000 	cmp	r3, #0
  102474:	1a000003 	bne	102488 <alt_dma_memory_to_memory_segment+0x248>
  102478:	e51b0028 	ldr	r0, [fp, #-40]	; 0xffffffd8
  10247c:	e3a01000 	mov	r1, #0
  102480:	eb0016ee 	bl	108040 <alt_dma_program_DMALD>
  102484:	e50b0008 	str	r0, [fp, #-8]
  102488:	e51b3008 	ldr	r3, [fp, #-8]
  10248c:	e3530000 	cmp	r3, #0
  102490:	1a000003 	bne	1024a4 <alt_dma_memory_to_memory_segment+0x264>
  102494:	e51b0028 	ldr	r0, [fp, #-40]	; 0xffffffd8
  102498:	e3a01000 	mov	r1, #0
  10249c:	eb001984 	bl	108ab4 <alt_dma_program_DMAST>
  1024a0:	e50b0008 	str	r0, [fp, #-8]
  1024a4:	e51b3008 	ldr	r3, [fp, #-8]
  1024a8:	e3530000 	cmp	r3, #0
  1024ac:	1a000006 	bne	1024cc <alt_dma_memory_to_memory_segment+0x28c>
  1024b0:	e51b3020 	ldr	r3, [fp, #-32]	; 0xffffffe0
  1024b4:	e3530001 	cmp	r3, #1
  1024b8:	9a000003 	bls	1024cc <alt_dma_memory_to_memory_segment+0x28c>
  1024bc:	e51b0028 	ldr	r0, [fp, #-40]	; 0xffffffd8
  1024c0:	e3a01000 	mov	r1, #0
  1024c4:	eb0017bc 	bl	1083bc <alt_dma_program_DMALPEND>
  1024c8:	e50b0008 	str	r0, [fp, #-8]
  1024cc:	e51b3014 	ldr	r3, [fp, #-20]	; 0xffffffec
  1024d0:	e3530000 	cmp	r3, #0
  1024d4:	1affffcd 	bne	102410 <alt_dma_memory_to_memory_segment+0x1d0>
  1024d8:	e51b3010 	ldr	r3, [fp, #-16]
  1024dc:	e3530000 	cmp	r3, #0
  1024e0:	0a00001e 	beq	102560 <alt_dma_memory_to_memory_segment+0x320>
  1024e4:	e51b3008 	ldr	r3, [fp, #-8]
  1024e8:	e3530000 	cmp	r3, #0
  1024ec:	1a00000d 	bne	102528 <alt_dma_memory_to_memory_segment+0x2e8>
  1024f0:	e51b3010 	ldr	r3, [fp, #-16]
  1024f4:	e2433001 	sub	r3, r3, #1
  1024f8:	e1a02203 	lsl	r2, r3, #4
  1024fc:	e51b3010 	ldr	r3, [fp, #-16]
  102500:	e2433001 	sub	r3, r3, #1
  102504:	e1a03903 	lsl	r3, r3, #18
  102508:	e1823003 	orr	r3, r2, r3
  10250c:	e3833907 	orr	r3, r3, #114688	; 0x1c000
  102510:	e3833007 	orr	r3, r3, #7
  102514:	e51b0028 	ldr	r0, [fp, #-40]	; 0xffffffd8
  102518:	e3a01001 	mov	r1, #1
  10251c:	e1a02003 	mov	r2, r3
  102520:	eb001874 	bl	1086f8 <alt_dma_program_DMAMOV>
  102524:	e50b0008 	str	r0, [fp, #-8]
  102528:	e51b3008 	ldr	r3, [fp, #-8]
  10252c:	e3530000 	cmp	r3, #0
  102530:	1a000003 	bne	102544 <alt_dma_memory_to_memory_segment+0x304>
  102534:	e51b0028 	ldr	r0, [fp, #-40]	; 0xffffffd8
  102538:	e3a01000 	mov	r1, #0
  10253c:	eb0016bf 	bl	108040 <alt_dma_program_DMALD>
  102540:	e50b0008 	str	r0, [fp, #-8]
  102544:	e51b3008 	ldr	r3, [fp, #-8]
  102548:	e3530000 	cmp	r3, #0
  10254c:	1a000003 	bne	102560 <alt_dma_memory_to_memory_segment+0x320>
  102550:	e51b0028 	ldr	r0, [fp, #-40]	; 0xffffffd8
  102554:	e3a01000 	mov	r1, #0
  102558:	eb001955 	bl	108ab4 <alt_dma_program_DMAST>
  10255c:	e50b0008 	str	r0, [fp, #-8]
  102560:	e55b3019 	ldrb	r3, [fp, #-25]	; 0xffffffe7
  102564:	e3530000 	cmp	r3, #0
  102568:	0a00001c 	beq	1025e0 <alt_dma_memory_to_memory_segment+0x3a0>
  10256c:	e51b3008 	ldr	r3, [fp, #-8]
  102570:	e3530000 	cmp	r3, #0
  102574:	1a000012 	bne	1025c4 <alt_dma_memory_to_memory_segment+0x384>
  102578:	e51b202c 	ldr	r2, [fp, #-44]	; 0xffffffd4
  10257c:	e51b3030 	ldr	r3, [fp, #-48]	; 0xffffffd0
  102580:	e0633002 	rsb	r3, r3, r2
  102584:	e2033007 	and	r3, r3, #7
  102588:	e50b3024 	str	r3, [fp, #-36]	; 0xffffffdc
  10258c:	e51b3024 	ldr	r3, [fp, #-36]	; 0xffffffdc
  102590:	e2433001 	sub	r3, r3, #1
  102594:	e1a03203 	lsl	r3, r3, #4
  102598:	e3832001 	orr	r2, r3, #1
  10259c:	e51b3024 	ldr	r3, [fp, #-36]	; 0xffffffdc
  1025a0:	e2433001 	sub	r3, r3, #1
  1025a4:	e1a03903 	lsl	r3, r3, #18
  1025a8:	e1823003 	orr	r3, r2, r3
  1025ac:	e3833901 	orr	r3, r3, #16384	; 0x4000
  1025b0:	e51b0028 	ldr	r0, [fp, #-40]	; 0xffffffd8
  1025b4:	e3a01001 	mov	r1, #1
  1025b8:	e1a02003 	mov	r2, r3
  1025bc:	eb00184d 	bl	1086f8 <alt_dma_program_DMAMOV>
  1025c0:	e50b0008 	str	r0, [fp, #-8]
  1025c4:	e51b3008 	ldr	r3, [fp, #-8]
  1025c8:	e3530000 	cmp	r3, #0
  1025cc:	1a000003 	bne	1025e0 <alt_dma_memory_to_memory_segment+0x3a0>
  1025d0:	e51b0028 	ldr	r0, [fp, #-40]	; 0xffffffd8
  1025d4:	e3a01000 	mov	r1, #0
  1025d8:	eb001935 	bl	108ab4 <alt_dma_program_DMAST>
  1025dc:	e50b0008 	str	r0, [fp, #-8]
  1025e0:	e51b300c 	ldr	r3, [fp, #-12]
  1025e4:	e3530000 	cmp	r3, #0
  1025e8:	0a00001e 	beq	102668 <alt_dma_memory_to_memory_segment+0x428>
  1025ec:	e51b3008 	ldr	r3, [fp, #-8]
  1025f0:	e3530000 	cmp	r3, #0
  1025f4:	1a00000d 	bne	102630 <alt_dma_memory_to_memory_segment+0x3f0>
  1025f8:	e51b300c 	ldr	r3, [fp, #-12]
  1025fc:	e2433001 	sub	r3, r3, #1
  102600:	e1a02203 	lsl	r2, r3, #4
  102604:	e51b300c 	ldr	r3, [fp, #-12]
  102608:	e2433001 	sub	r3, r3, #1
  10260c:	e1a03903 	lsl	r3, r3, #18
  102610:	e1823003 	orr	r3, r2, r3
  102614:	e3833901 	orr	r3, r3, #16384	; 0x4000
  102618:	e3833001 	orr	r3, r3, #1
  10261c:	e51b0028 	ldr	r0, [fp, #-40]	; 0xffffffd8
  102620:	e3a01001 	mov	r1, #1
  102624:	e1a02003 	mov	r2, r3
  102628:	eb001832 	bl	1086f8 <alt_dma_program_DMAMOV>
  10262c:	e50b0008 	str	r0, [fp, #-8]
  102630:	e51b3008 	ldr	r3, [fp, #-8]
  102634:	e3530000 	cmp	r3, #0
  102638:	1a000003 	bne	10264c <alt_dma_memory_to_memory_segment+0x40c>
  10263c:	e51b0028 	ldr	r0, [fp, #-40]	; 0xffffffd8
  102640:	e3a01000 	mov	r1, #0
  102644:	eb00167d 	bl	108040 <alt_dma_program_DMALD>
  102648:	e50b0008 	str	r0, [fp, #-8]
  10264c:	e51b3008 	ldr	r3, [fp, #-8]
  102650:	e3530000 	cmp	r3, #0
  102654:	1a000003 	bne	102668 <alt_dma_memory_to_memory_segment+0x428>
  102658:	e51b0028 	ldr	r0, [fp, #-40]	; 0xffffffd8
  10265c:	e3a01000 	mov	r1, #0
  102660:	eb001913 	bl	108ab4 <alt_dma_program_DMAST>
  102664:	e50b0008 	str	r0, [fp, #-8]
  102668:	e51b3008 	ldr	r3, [fp, #-8]
  10266c:	e1a00003 	mov	r0, r3
  102670:	e24bd004 	sub	sp, fp, #4
  102674:	e8bd8800 	pop	{fp, pc}

00102678 <alt_dma_memory_to_memory>:
  102678:	e92d4800 	push	{fp, lr}
  10267c:	e28db004 	add	fp, sp, #4
  102680:	e24dd048 	sub	sp, sp, #72	; 0x48
  102684:	e50b1044 	str	r1, [fp, #-68]	; 0xffffffbc
  102688:	e50b2048 	str	r2, [fp, #-72]	; 0xffffffb8
  10268c:	e50b304c 	str	r3, [fp, #-76]	; 0xffffffb4
  102690:	e1a03000 	mov	r3, r0
  102694:	e54b303d 	strb	r3, [fp, #-61]	; 0xffffffc3
  102698:	e59b3004 	ldr	r3, [fp, #4]
  10269c:	e3530000 	cmp	r3, #0
  1026a0:	1a000006 	bne	1026c0 <alt_dma_memory_to_memory+0x48>
  1026a4:	e5db3008 	ldrb	r3, [fp, #8]
  1026a8:	e2233001 	eor	r3, r3, #1
  1026ac:	e6ef3073 	uxtb	r3, r3
  1026b0:	e3530000 	cmp	r3, #0
  1026b4:	0a000001 	beq	1026c0 <alt_dma_memory_to_memory+0x48>
  1026b8:	e3a03000 	mov	r3, #0
  1026bc:	ea0000be 	b	1029bc <alt_dma_memory_to_memory+0x344>
  1026c0:	e3a03000 	mov	r3, #0
  1026c4:	e50b3008 	str	r3, [fp, #-8]
  1026c8:	e51b3008 	ldr	r3, [fp, #-8]
  1026cc:	e3530000 	cmp	r3, #0
  1026d0:	1a000002 	bne	1026e0 <alt_dma_memory_to_memory+0x68>
  1026d4:	e51b0044 	ldr	r0, [fp, #-68]	; 0xffffffbc
  1026d8:	eb001400 	bl	1076e0 <alt_dma_program_init>
  1026dc:	e50b0008 	str	r0, [fp, #-8]
  1026e0:	e59b3004 	ldr	r3, [fp, #4]
  1026e4:	e3530000 	cmp	r3, #0
  1026e8:	0a000090 	beq	102930 <alt_dma_memory_to_memory+0x2b8>
  1026ec:	e51b2048 	ldr	r2, [fp, #-72]	; 0xffffffb8
  1026f0:	e51b304c 	ldr	r3, [fp, #-76]	; 0xffffffb4
  1026f4:	e1520003 	cmp	r2, r3
  1026f8:	9a000008 	bls	102720 <alt_dma_memory_to_memory+0xa8>
  1026fc:	e51b204c 	ldr	r2, [fp, #-76]	; 0xffffffb4
  102700:	e59b3004 	ldr	r3, [fp, #4]
  102704:	e0823003 	add	r3, r2, r3
  102708:	e2432001 	sub	r2, r3, #1
  10270c:	e51b3048 	ldr	r3, [fp, #-72]	; 0xffffffb8
  102710:	e1520003 	cmp	r2, r3
  102714:	9a00000a 	bls	102744 <alt_dma_memory_to_memory+0xcc>
  102718:	e3e03008 	mvn	r3, #8
  10271c:	ea0000a6 	b	1029bc <alt_dma_memory_to_memory+0x344>
  102720:	e51b2048 	ldr	r2, [fp, #-72]	; 0xffffffb8
  102724:	e59b3004 	ldr	r3, [fp, #4]
  102728:	e0823003 	add	r3, r2, r3
  10272c:	e2432001 	sub	r2, r3, #1
  102730:	e51b304c 	ldr	r3, [fp, #-76]	; 0xffffffb4
  102734:	e1520003 	cmp	r2, r3
  102738:	9a000001 	bls	102744 <alt_dma_memory_to_memory+0xcc>
  10273c:	e3e03008 	mvn	r3, #8
  102740:	ea00009d 	b	1029bc <alt_dma_memory_to_memory+0x344>
  102744:	e51b3008 	ldr	r3, [fp, #-8]
  102748:	e3530000 	cmp	r3, #0
  10274c:	1a000005 	bne	102768 <alt_dma_memory_to_memory+0xf0>
  102750:	e24b301c 	sub	r3, fp, #28
  102754:	e1a00003 	mov	r0, r3
  102758:	e51b1048 	ldr	r1, [fp, #-72]	; 0xffffffb8
  10275c:	e59b2004 	ldr	r2, [fp, #4]
  102760:	ebfffe16 	bl	101fc0 <alt_mmu_va_to_pa_coalesce_begin>
  102764:	e50b0008 	str	r0, [fp, #-8]
  102768:	e51b3008 	ldr	r3, [fp, #-8]
  10276c:	e3530000 	cmp	r3, #0
  102770:	1a000005 	bne	10278c <alt_dma_memory_to_memory+0x114>
  102774:	e24b302c 	sub	r3, fp, #44	; 0x2c
  102778:	e1a00003 	mov	r0, r3
  10277c:	e51b104c 	ldr	r1, [fp, #-76]	; 0xffffffb4
  102780:	e59b2004 	ldr	r2, [fp, #4]
  102784:	ebfffe0d 	bl	101fc0 <alt_mmu_va_to_pa_coalesce_begin>
  102788:	e50b0008 	str	r0, [fp, #-8]
  10278c:	e3a03000 	mov	r3, #0
  102790:	e50b3030 	str	r3, [fp, #-48]	; 0xffffffd0
  102794:	e3a03000 	mov	r3, #0
  102798:	e50b3034 	str	r3, [fp, #-52]	; 0xffffffcc
  10279c:	e3a03000 	mov	r3, #0
  1027a0:	e50b3038 	str	r3, [fp, #-56]	; 0xffffffc8
  1027a4:	e3a03000 	mov	r3, #0
  1027a8:	e50b303c 	str	r3, [fp, #-60]	; 0xffffffc4
  1027ac:	ea00004e 	b	1028ec <alt_dma_memory_to_memory+0x274>
  1027b0:	e51b3008 	ldr	r3, [fp, #-8]
  1027b4:	e3530000 	cmp	r3, #0
  1027b8:	0a000000 	beq	1027c0 <alt_dma_memory_to_memory+0x148>
  1027bc:	ea00004d 	b	1028f8 <alt_dma_memory_to_memory+0x280>
  1027c0:	e51b3008 	ldr	r3, [fp, #-8]
  1027c4:	e3530000 	cmp	r3, #0
  1027c8:	1a00000a 	bne	1027f8 <alt_dma_memory_to_memory+0x180>
  1027cc:	e51b3038 	ldr	r3, [fp, #-56]	; 0xffffffc8
  1027d0:	e3530000 	cmp	r3, #0
  1027d4:	1a000007 	bne	1027f8 <alt_dma_memory_to_memory+0x180>
  1027d8:	e24b101c 	sub	r1, fp, #28
  1027dc:	e24b2030 	sub	r2, fp, #48	; 0x30
  1027e0:	e24b3038 	sub	r3, fp, #56	; 0x38
  1027e4:	e1a00001 	mov	r0, r1
  1027e8:	e1a01002 	mov	r1, r2
  1027ec:	e1a02003 	mov	r2, r3
  1027f0:	ebfffe22 	bl	102080 <alt_mmu_va_to_pa_coalesce_next>
  1027f4:	e50b0008 	str	r0, [fp, #-8]
  1027f8:	e51b3008 	ldr	r3, [fp, #-8]
  1027fc:	e3530000 	cmp	r3, #0
  102800:	1a00000a 	bne	102830 <alt_dma_memory_to_memory+0x1b8>
  102804:	e51b303c 	ldr	r3, [fp, #-60]	; 0xffffffc4
  102808:	e3530000 	cmp	r3, #0
  10280c:	1a000007 	bne	102830 <alt_dma_memory_to_memory+0x1b8>
  102810:	e24b102c 	sub	r1, fp, #44	; 0x2c
  102814:	e24b2034 	sub	r2, fp, #52	; 0x34
  102818:	e24b303c 	sub	r3, fp, #60	; 0x3c
  10281c:	e1a00001 	mov	r0, r1
  102820:	e1a01002 	mov	r1, r2
  102824:	e1a02003 	mov	r2, r3
  102828:	ebfffe14 	bl	102080 <alt_mmu_va_to_pa_coalesce_next>
  10282c:	e50b0008 	str	r0, [fp, #-8]
  102830:	e51b2038 	ldr	r2, [fp, #-56]	; 0xffffffc8
  102834:	e51b303c 	ldr	r3, [fp, #-60]	; 0xffffffc4
  102838:	e1520003 	cmp	r2, r3
  10283c:	31a03002 	movcc	r3, r2
  102840:	21a03003 	movcs	r3, r3
  102844:	e50b300c 	str	r3, [fp, #-12]
  102848:	e51b3008 	ldr	r3, [fp, #-8]
  10284c:	e3530000 	cmp	r3, #0
  102850:	1a000007 	bne	102874 <alt_dma_memory_to_memory+0x1fc>
  102854:	e51b2030 	ldr	r2, [fp, #-48]	; 0xffffffd0
  102858:	e51b3034 	ldr	r3, [fp, #-52]	; 0xffffffcc
  10285c:	e51b0044 	ldr	r0, [fp, #-68]	; 0xffffffbc
  102860:	e1a01002 	mov	r1, r2
  102864:	e1a02003 	mov	r2, r3
  102868:	e51b300c 	ldr	r3, [fp, #-12]
  10286c:	ebfffe73 	bl	102240 <alt_dma_memory_to_memory_segment>
  102870:	e50b0008 	str	r0, [fp, #-8]
  102874:	e51b2038 	ldr	r2, [fp, #-56]	; 0xffffffc8
  102878:	e51b300c 	ldr	r3, [fp, #-12]
  10287c:	e0633002 	rsb	r3, r3, r2
  102880:	e50b3038 	str	r3, [fp, #-56]	; 0xffffffc8
  102884:	e51b203c 	ldr	r2, [fp, #-60]	; 0xffffffc4
  102888:	e51b300c 	ldr	r3, [fp, #-12]
  10288c:	e0633002 	rsb	r3, r3, r2
  102890:	e50b303c 	str	r3, [fp, #-60]	; 0xffffffc4
  102894:	e51b3038 	ldr	r3, [fp, #-56]	; 0xffffffc8
  102898:	e3530000 	cmp	r3, #0
  10289c:	0a000003 	beq	1028b0 <alt_dma_memory_to_memory+0x238>
  1028a0:	e51b2030 	ldr	r2, [fp, #-48]	; 0xffffffd0
  1028a4:	e51b300c 	ldr	r3, [fp, #-12]
  1028a8:	e0823003 	add	r3, r2, r3
  1028ac:	e50b3030 	str	r3, [fp, #-48]	; 0xffffffd0
  1028b0:	e51b303c 	ldr	r3, [fp, #-60]	; 0xffffffc4
  1028b4:	e3530000 	cmp	r3, #0
  1028b8:	0a000003 	beq	1028cc <alt_dma_memory_to_memory+0x254>
  1028bc:	e51b2034 	ldr	r2, [fp, #-52]	; 0xffffffcc
  1028c0:	e51b300c 	ldr	r3, [fp, #-12]
  1028c4:	e0823003 	add	r3, r2, r3
  1028c8:	e50b3034 	str	r3, [fp, #-52]	; 0xffffffcc
  1028cc:	e51b200c 	ldr	r2, [fp, #-12]
  1028d0:	e59b3004 	ldr	r3, [fp, #4]
  1028d4:	e1520003 	cmp	r2, r3
  1028d8:	31a03002 	movcc	r3, r2
  1028dc:	21a03003 	movcs	r3, r3
  1028e0:	e59b2004 	ldr	r2, [fp, #4]
  1028e4:	e0633002 	rsb	r3, r3, r2
  1028e8:	e58b3004 	str	r3, [fp, #4]
  1028ec:	e59b3004 	ldr	r3, [fp, #4]
  1028f0:	e3530000 	cmp	r3, #0
  1028f4:	1affffad 	bne	1027b0 <alt_dma_memory_to_memory+0x138>
  1028f8:	e51b3008 	ldr	r3, [fp, #-8]
  1028fc:	e3530000 	cmp	r3, #0
  102900:	1a000003 	bne	102914 <alt_dma_memory_to_memory+0x29c>
  102904:	e24b301c 	sub	r3, fp, #28
  102908:	e1a00003 	mov	r0, r3
  10290c:	ebfffe3c 	bl	102204 <alt_mmu_va_to_pa_coalesce_end>
  102910:	e50b0008 	str	r0, [fp, #-8]
  102914:	e51b3008 	ldr	r3, [fp, #-8]
  102918:	e3530000 	cmp	r3, #0
  10291c:	1a000003 	bne	102930 <alt_dma_memory_to_memory+0x2b8>
  102920:	e24b302c 	sub	r3, fp, #44	; 0x2c
  102924:	e1a00003 	mov	r0, r3
  102928:	ebfffe35 	bl	102204 <alt_mmu_va_to_pa_coalesce_end>
  10292c:	e50b0008 	str	r0, [fp, #-8]
  102930:	e5db3008 	ldrb	r3, [fp, #8]
  102934:	e3530000 	cmp	r3, #0
  102938:	0a00000d 	beq	102974 <alt_dma_memory_to_memory+0x2fc>
  10293c:	e51b3008 	ldr	r3, [fp, #-8]
  102940:	e3530000 	cmp	r3, #0
  102944:	1a000002 	bne	102954 <alt_dma_memory_to_memory+0x2dc>
  102948:	e51b0044 	ldr	r0, [fp, #-68]	; 0xffffffbc
  10294c:	eb001981 	bl	108f58 <alt_dma_program_DMAWMB>
  102950:	e50b0008 	str	r0, [fp, #-8]
  102954:	e51b3008 	ldr	r3, [fp, #-8]
  102958:	e3530000 	cmp	r3, #0
  10295c:	1a000004 	bne	102974 <alt_dma_memory_to_memory+0x2fc>
  102960:	e5db300c 	ldrb	r3, [fp, #12]
  102964:	e51b0044 	ldr	r0, [fp, #-68]	; 0xffffffbc
  102968:	e1a01003 	mov	r1, r3
  10296c:	eb00181e 	bl	1089ec <alt_dma_program_DMASEV>
  102970:	e50b0008 	str	r0, [fp, #-8]
  102974:	e51b3008 	ldr	r3, [fp, #-8]
  102978:	e3530000 	cmp	r3, #0
  10297c:	1a000002 	bne	10298c <alt_dma_memory_to_memory+0x314>
  102980:	e51b0044 	ldr	r0, [fp, #-68]	; 0xffffffbc
  102984:	eb0014d1 	bl	107cd0 <alt_dma_program_DMAEND>
  102988:	e50b0008 	str	r0, [fp, #-8]
  10298c:	e51b3008 	ldr	r3, [fp, #-8]
  102990:	e3530000 	cmp	r3, #0
  102994:	0a000003 	beq	1029a8 <alt_dma_memory_to_memory+0x330>
  102998:	e51b0044 	ldr	r0, [fp, #-68]	; 0xffffffbc
  10299c:	eb001374 	bl	107774 <alt_dma_program_clear>
  1029a0:	e51b3008 	ldr	r3, [fp, #-8]
  1029a4:	ea000004 	b	1029bc <alt_dma_memory_to_memory+0x344>
  1029a8:	e55b303d 	ldrb	r3, [fp, #-61]	; 0xffffffc3
  1029ac:	e1a00003 	mov	r0, r3
  1029b0:	e51b1044 	ldr	r1, [fp, #-68]	; 0xffffffbc
  1029b4:	ebfffb8f 	bl	1017f8 <alt_dma_channel_exec>
  1029b8:	e1a03000 	mov	r3, r0
  1029bc:	e1a00003 	mov	r0, r3
  1029c0:	e24bd004 	sub	sp, fp, #4
  1029c4:	e8bd8800 	pop	{fp, pc}

001029c8 <alt_dma_zero_to_memory_segment>:
  1029c8:	e92d4800 	push	{fp, lr}
  1029cc:	e28db004 	add	fp, sp, #4
  1029d0:	e24dd028 	sub	sp, sp, #40	; 0x28
  1029d4:	e50b0020 	str	r0, [fp, #-32]	; 0xffffffe0
  1029d8:	e50b1024 	str	r1, [fp, #-36]	; 0xffffffdc
  1029dc:	e50b2028 	str	r2, [fp, #-40]	; 0xffffffd8
  1029e0:	e3a03000 	mov	r3, #0
  1029e4:	e50b3008 	str	r3, [fp, #-8]
  1029e8:	e51b3008 	ldr	r3, [fp, #-8]
  1029ec:	e3530000 	cmp	r3, #0
  1029f0:	1a000004 	bne	102a08 <alt_dma_zero_to_memory_segment+0x40>
  1029f4:	e51b0020 	ldr	r0, [fp, #-32]	; 0xffffffe0
  1029f8:	e3a01002 	mov	r1, #2
  1029fc:	e51b2024 	ldr	r2, [fp, #-36]	; 0xffffffdc
  102a00:	eb00173c 	bl	1086f8 <alt_dma_program_DMAMOV>
  102a04:	e50b0008 	str	r0, [fp, #-8]
  102a08:	e51b3028 	ldr	r3, [fp, #-40]	; 0xffffffd8
  102a0c:	e50b300c 	str	r3, [fp, #-12]
  102a10:	e51b3024 	ldr	r3, [fp, #-36]	; 0xffffffdc
  102a14:	e2033007 	and	r3, r3, #7
  102a18:	e3530000 	cmp	r3, #0
  102a1c:	0a00001e 	beq	102a9c <alt_dma_zero_to_memory_segment+0xd4>
  102a20:	e51b3024 	ldr	r3, [fp, #-36]	; 0xffffffdc
  102a24:	e2033007 	and	r3, r3, #7
  102a28:	e2632008 	rsb	r2, r3, #8
  102a2c:	e51b300c 	ldr	r3, [fp, #-12]
  102a30:	e1520003 	cmp	r2, r3
  102a34:	31a03002 	movcc	r3, r2
  102a38:	21a03003 	movcs	r3, r3
  102a3c:	e50b3018 	str	r3, [fp, #-24]	; 0xffffffe8
  102a40:	e51b200c 	ldr	r2, [fp, #-12]
  102a44:	e51b3018 	ldr	r3, [fp, #-24]	; 0xffffffe8
  102a48:	e0633002 	rsb	r3, r3, r2
  102a4c:	e50b300c 	str	r3, [fp, #-12]
  102a50:	e51b3008 	ldr	r3, [fp, #-8]
  102a54:	e3530000 	cmp	r3, #0
  102a58:	1a000009 	bne	102a84 <alt_dma_zero_to_memory_segment+0xbc>
  102a5c:	e51b3018 	ldr	r3, [fp, #-24]	; 0xffffffe8
  102a60:	e2433001 	sub	r3, r3, #1
  102a64:	e1a03903 	lsl	r3, r3, #18
  102a68:	e3833901 	orr	r3, r3, #16384	; 0x4000
  102a6c:	e3833001 	orr	r3, r3, #1
  102a70:	e51b0020 	ldr	r0, [fp, #-32]	; 0xffffffe0
  102a74:	e3a01001 	mov	r1, #1
  102a78:	e1a02003 	mov	r2, r3
  102a7c:	eb00171d 	bl	1086f8 <alt_dma_program_DMAMOV>
  102a80:	e50b0008 	str	r0, [fp, #-8]
  102a84:	e51b3008 	ldr	r3, [fp, #-8]
  102a88:	e3530000 	cmp	r3, #0
  102a8c:	1a000002 	bne	102a9c <alt_dma_zero_to_memory_segment+0xd4>
  102a90:	e51b0020 	ldr	r0, [fp, #-32]	; 0xffffffe0
  102a94:	eb001885 	bl	108cb0 <alt_dma_program_DMASTZ>
  102a98:	e50b0008 	str	r0, [fp, #-8]
  102a9c:	e51b300c 	ldr	r3, [fp, #-12]
  102aa0:	e1a031a3 	lsr	r3, r3, #3
  102aa4:	e50b3010 	str	r3, [fp, #-16]
  102aa8:	e51b300c 	ldr	r3, [fp, #-12]
  102aac:	e2033007 	and	r3, r3, #7
  102ab0:	e50b300c 	str	r3, [fp, #-12]
  102ab4:	e51b3010 	ldr	r3, [fp, #-16]
  102ab8:	e1a03223 	lsr	r3, r3, #4
  102abc:	e3530000 	cmp	r3, #0
  102ac0:	0a000039 	beq	102bac <alt_dma_zero_to_memory_segment+0x1e4>
  102ac4:	e51b3010 	ldr	r3, [fp, #-16]
  102ac8:	e1a03223 	lsr	r3, r3, #4
  102acc:	e50b3014 	str	r3, [fp, #-20]	; 0xffffffec
  102ad0:	e51b3010 	ldr	r3, [fp, #-16]
  102ad4:	e203300f 	and	r3, r3, #15
  102ad8:	e50b3010 	str	r3, [fp, #-16]
  102adc:	e51b3008 	ldr	r3, [fp, #-8]
  102ae0:	e3530000 	cmp	r3, #0
  102ae4:	1a000005 	bne	102b00 <alt_dma_zero_to_memory_segment+0x138>
  102ae8:	e51b0020 	ldr	r0, [fp, #-32]	; 0xffffffe0
  102aec:	e3a01001 	mov	r1, #1
  102af0:	e30c2001 	movw	r2, #49153	; 0xc001
  102af4:	e340203d 	movt	r2, #61	; 0x3d
  102af8:	eb0016fe 	bl	1086f8 <alt_dma_program_DMAMOV>
  102afc:	e50b0008 	str	r0, [fp, #-8]
  102b00:	ea000026 	b	102ba0 <alt_dma_zero_to_memory_segment+0x1d8>
  102b04:	e51b3008 	ldr	r3, [fp, #-8]
  102b08:	e3530000 	cmp	r3, #0
  102b0c:	0a000000 	beq	102b14 <alt_dma_zero_to_memory_segment+0x14c>
  102b10:	ea000025 	b	102bac <alt_dma_zero_to_memory_segment+0x1e4>
  102b14:	e51b3014 	ldr	r3, [fp, #-20]	; 0xffffffec
  102b18:	e3530c01 	cmp	r3, #256	; 0x100
  102b1c:	31a03003 	movcc	r3, r3
  102b20:	23a03c01 	movcs	r3, #256	; 0x100
  102b24:	e50b301c 	str	r3, [fp, #-28]	; 0xffffffe4
  102b28:	e51b2014 	ldr	r2, [fp, #-20]	; 0xffffffec
  102b2c:	e51b301c 	ldr	r3, [fp, #-28]	; 0xffffffe4
  102b30:	e0633002 	rsb	r3, r3, r2
  102b34:	e50b3014 	str	r3, [fp, #-20]	; 0xffffffec
  102b38:	e51b3008 	ldr	r3, [fp, #-8]
  102b3c:	e3530000 	cmp	r3, #0
  102b40:	1a000006 	bne	102b60 <alt_dma_zero_to_memory_segment+0x198>
  102b44:	e51b301c 	ldr	r3, [fp, #-28]	; 0xffffffe4
  102b48:	e3530001 	cmp	r3, #1
  102b4c:	9a000003 	bls	102b60 <alt_dma_zero_to_memory_segment+0x198>
  102b50:	e51b0020 	ldr	r0, [fp, #-32]	; 0xffffffe0
  102b54:	e51b101c 	ldr	r1, [fp, #-28]	; 0xffffffe4
  102b58:	eb0015b7 	bl	10823c <alt_dma_program_DMALP>
  102b5c:	e50b0008 	str	r0, [fp, #-8]
  102b60:	e51b3008 	ldr	r3, [fp, #-8]
  102b64:	e3530000 	cmp	r3, #0
  102b68:	1a000002 	bne	102b78 <alt_dma_zero_to_memory_segment+0x1b0>
  102b6c:	e51b0020 	ldr	r0, [fp, #-32]	; 0xffffffe0
  102b70:	eb00184e 	bl	108cb0 <alt_dma_program_DMASTZ>
  102b74:	e50b0008 	str	r0, [fp, #-8]
  102b78:	e51b3008 	ldr	r3, [fp, #-8]
  102b7c:	e3530000 	cmp	r3, #0
  102b80:	1a000006 	bne	102ba0 <alt_dma_zero_to_memory_segment+0x1d8>
  102b84:	e51b301c 	ldr	r3, [fp, #-28]	; 0xffffffe4
  102b88:	e3530001 	cmp	r3, #1
  102b8c:	9a000003 	bls	102ba0 <alt_dma_zero_to_memory_segment+0x1d8>
  102b90:	e51b0020 	ldr	r0, [fp, #-32]	; 0xffffffe0
  102b94:	e3a01000 	mov	r1, #0
  102b98:	eb001607 	bl	1083bc <alt_dma_program_DMALPEND>
  102b9c:	e50b0008 	str	r0, [fp, #-8]
  102ba0:	e51b3014 	ldr	r3, [fp, #-20]	; 0xffffffec
  102ba4:	e3530000 	cmp	r3, #0
  102ba8:	1affffd5 	bne	102b04 <alt_dma_zero_to_memory_segment+0x13c>
  102bac:	e51b3010 	ldr	r3, [fp, #-16]
  102bb0:	e3530000 	cmp	r3, #0
  102bb4:	0a000012 	beq	102c04 <alt_dma_zero_to_memory_segment+0x23c>
  102bb8:	e51b3008 	ldr	r3, [fp, #-8]
  102bbc:	e3530000 	cmp	r3, #0
  102bc0:	1a000009 	bne	102bec <alt_dma_zero_to_memory_segment+0x224>
  102bc4:	e51b3010 	ldr	r3, [fp, #-16]
  102bc8:	e2433001 	sub	r3, r3, #1
  102bcc:	e1a03903 	lsl	r3, r3, #18
  102bd0:	e3833907 	orr	r3, r3, #114688	; 0x1c000
  102bd4:	e3833001 	orr	r3, r3, #1
  102bd8:	e51b0020 	ldr	r0, [fp, #-32]	; 0xffffffe0
  102bdc:	e3a01001 	mov	r1, #1
  102be0:	e1a02003 	mov	r2, r3
  102be4:	eb0016c3 	bl	1086f8 <alt_dma_program_DMAMOV>
  102be8:	e50b0008 	str	r0, [fp, #-8]
  102bec:	e51b3008 	ldr	r3, [fp, #-8]
  102bf0:	e3530000 	cmp	r3, #0
  102bf4:	1a000002 	bne	102c04 <alt_dma_zero_to_memory_segment+0x23c>
  102bf8:	e51b0020 	ldr	r0, [fp, #-32]	; 0xffffffe0
  102bfc:	eb00182b 	bl	108cb0 <alt_dma_program_DMASTZ>
  102c00:	e50b0008 	str	r0, [fp, #-8]
  102c04:	e51b300c 	ldr	r3, [fp, #-12]
  102c08:	e3530000 	cmp	r3, #0
  102c0c:	0a000012 	beq	102c5c <alt_dma_zero_to_memory_segment+0x294>
  102c10:	e51b3008 	ldr	r3, [fp, #-8]
  102c14:	e3530000 	cmp	r3, #0
  102c18:	1a000009 	bne	102c44 <alt_dma_zero_to_memory_segment+0x27c>
  102c1c:	e51b300c 	ldr	r3, [fp, #-12]
  102c20:	e2433001 	sub	r3, r3, #1
  102c24:	e1a03903 	lsl	r3, r3, #18
  102c28:	e3833901 	orr	r3, r3, #16384	; 0x4000
  102c2c:	e3833001 	orr	r3, r3, #1
  102c30:	e51b0020 	ldr	r0, [fp, #-32]	; 0xffffffe0
  102c34:	e3a01001 	mov	r1, #1
  102c38:	e1a02003 	mov	r2, r3
  102c3c:	eb0016ad 	bl	1086f8 <alt_dma_program_DMAMOV>
  102c40:	e50b0008 	str	r0, [fp, #-8]
  102c44:	e51b3008 	ldr	r3, [fp, #-8]
  102c48:	e3530000 	cmp	r3, #0
  102c4c:	1a000002 	bne	102c5c <alt_dma_zero_to_memory_segment+0x294>
  102c50:	e51b0020 	ldr	r0, [fp, #-32]	; 0xffffffe0
  102c54:	eb001815 	bl	108cb0 <alt_dma_program_DMASTZ>
  102c58:	e50b0008 	str	r0, [fp, #-8]
  102c5c:	e51b3008 	ldr	r3, [fp, #-8]
  102c60:	e1a00003 	mov	r0, r3
  102c64:	e24bd004 	sub	sp, fp, #4
  102c68:	e8bd8800 	pop	{fp, pc}

00102c6c <alt_dma_zero_to_memory>:
  102c6c:	e92d4800 	push	{fp, lr}
  102c70:	e28db004 	add	fp, sp, #4
  102c74:	e24dd030 	sub	sp, sp, #48	; 0x30
  102c78:	e50b102c 	str	r1, [fp, #-44]	; 0xffffffd4
  102c7c:	e50b2030 	str	r2, [fp, #-48]	; 0xffffffd0
  102c80:	e50b3034 	str	r3, [fp, #-52]	; 0xffffffcc
  102c84:	e1a03000 	mov	r3, r0
  102c88:	e54b3025 	strb	r3, [fp, #-37]	; 0xffffffdb
  102c8c:	e51b3034 	ldr	r3, [fp, #-52]	; 0xffffffcc
  102c90:	e3530000 	cmp	r3, #0
  102c94:	1a000006 	bne	102cb4 <alt_dma_zero_to_memory+0x48>
  102c98:	e5db3004 	ldrb	r3, [fp, #4]
  102c9c:	e2233001 	eor	r3, r3, #1
  102ca0:	e6ef3073 	uxtb	r3, r3
  102ca4:	e3530000 	cmp	r3, #0
  102ca8:	0a000001 	beq	102cb4 <alt_dma_zero_to_memory+0x48>
  102cac:	e3a03000 	mov	r3, #0
  102cb0:	ea00005b 	b	102e24 <alt_dma_zero_to_memory+0x1b8>
  102cb4:	e3a03000 	mov	r3, #0
  102cb8:	e50b3008 	str	r3, [fp, #-8]
  102cbc:	e51b3008 	ldr	r3, [fp, #-8]
  102cc0:	e3530000 	cmp	r3, #0
  102cc4:	1a000002 	bne	102cd4 <alt_dma_zero_to_memory+0x68>
  102cc8:	e51b002c 	ldr	r0, [fp, #-44]	; 0xffffffd4
  102ccc:	eb001283 	bl	1076e0 <alt_dma_program_init>
  102cd0:	e50b0008 	str	r0, [fp, #-8]
  102cd4:	e51b3034 	ldr	r3, [fp, #-52]	; 0xffffffcc
  102cd8:	e3530000 	cmp	r3, #0
  102cdc:	0a000033 	beq	102db0 <alt_dma_zero_to_memory+0x144>
  102ce0:	e51b3008 	ldr	r3, [fp, #-8]
  102ce4:	e3530000 	cmp	r3, #0
  102ce8:	1a000005 	bne	102d04 <alt_dma_zero_to_memory+0x98>
  102cec:	e24b3018 	sub	r3, fp, #24
  102cf0:	e1a00003 	mov	r0, r3
  102cf4:	e51b1030 	ldr	r1, [fp, #-48]	; 0xffffffd0
  102cf8:	e51b2034 	ldr	r2, [fp, #-52]	; 0xffffffcc
  102cfc:	ebfffcaf 	bl	101fc0 <alt_mmu_va_to_pa_coalesce_begin>
  102d00:	e50b0008 	str	r0, [fp, #-8]
  102d04:	ea00001f 	b	102d88 <alt_dma_zero_to_memory+0x11c>
  102d08:	e51b3008 	ldr	r3, [fp, #-8]
  102d0c:	e3530000 	cmp	r3, #0
  102d10:	1a00001f 	bne	102d94 <alt_dma_zero_to_memory+0x128>
  102d14:	e3a03000 	mov	r3, #0
  102d18:	e50b301c 	str	r3, [fp, #-28]	; 0xffffffe4
  102d1c:	e3a03000 	mov	r3, #0
  102d20:	e50b3020 	str	r3, [fp, #-32]	; 0xffffffe0
  102d24:	e51b3008 	ldr	r3, [fp, #-8]
  102d28:	e3530000 	cmp	r3, #0
  102d2c:	1a000007 	bne	102d50 <alt_dma_zero_to_memory+0xe4>
  102d30:	e24b1018 	sub	r1, fp, #24
  102d34:	e24b201c 	sub	r2, fp, #28
  102d38:	e24b3020 	sub	r3, fp, #32
  102d3c:	e1a00001 	mov	r0, r1
  102d40:	e1a01002 	mov	r1, r2
  102d44:	e1a02003 	mov	r2, r3
  102d48:	ebfffccc 	bl	102080 <alt_mmu_va_to_pa_coalesce_next>
  102d4c:	e50b0008 	str	r0, [fp, #-8]
  102d50:	e51b3020 	ldr	r3, [fp, #-32]	; 0xffffffe0
  102d54:	e51b2034 	ldr	r2, [fp, #-52]	; 0xffffffcc
  102d58:	e0633002 	rsb	r3, r3, r2
  102d5c:	e50b3034 	str	r3, [fp, #-52]	; 0xffffffcc
  102d60:	e51b3008 	ldr	r3, [fp, #-8]
  102d64:	e3530000 	cmp	r3, #0
  102d68:	1a000006 	bne	102d88 <alt_dma_zero_to_memory+0x11c>
  102d6c:	e51b201c 	ldr	r2, [fp, #-28]	; 0xffffffe4
  102d70:	e51b3020 	ldr	r3, [fp, #-32]	; 0xffffffe0
  102d74:	e51b002c 	ldr	r0, [fp, #-44]	; 0xffffffd4
  102d78:	e1a01002 	mov	r1, r2
  102d7c:	e1a02003 	mov	r2, r3
  102d80:	ebffff10 	bl	1029c8 <alt_dma_zero_to_memory_segment>
  102d84:	e50b0008 	str	r0, [fp, #-8]
  102d88:	e51b3034 	ldr	r3, [fp, #-52]	; 0xffffffcc
  102d8c:	e3530000 	cmp	r3, #0
  102d90:	1affffdc 	bne	102d08 <alt_dma_zero_to_memory+0x9c>
  102d94:	e51b3008 	ldr	r3, [fp, #-8]
  102d98:	e3530000 	cmp	r3, #0
  102d9c:	1a000003 	bne	102db0 <alt_dma_zero_to_memory+0x144>
  102da0:	e24b3018 	sub	r3, fp, #24
  102da4:	e1a00003 	mov	r0, r3
  102da8:	ebfffd15 	bl	102204 <alt_mmu_va_to_pa_coalesce_end>
  102dac:	e50b0008 	str	r0, [fp, #-8]
  102db0:	e5db3004 	ldrb	r3, [fp, #4]
  102db4:	e3530000 	cmp	r3, #0
  102db8:	0a000007 	beq	102ddc <alt_dma_zero_to_memory+0x170>
  102dbc:	e51b3008 	ldr	r3, [fp, #-8]
  102dc0:	e3530000 	cmp	r3, #0
  102dc4:	1a000004 	bne	102ddc <alt_dma_zero_to_memory+0x170>
  102dc8:	e5db3008 	ldrb	r3, [fp, #8]
  102dcc:	e51b002c 	ldr	r0, [fp, #-44]	; 0xffffffd4
  102dd0:	e1a01003 	mov	r1, r3
  102dd4:	eb001704 	bl	1089ec <alt_dma_program_DMASEV>
  102dd8:	e50b0008 	str	r0, [fp, #-8]
  102ddc:	e51b3008 	ldr	r3, [fp, #-8]
  102de0:	e3530000 	cmp	r3, #0
  102de4:	1a000002 	bne	102df4 <alt_dma_zero_to_memory+0x188>
  102de8:	e51b002c 	ldr	r0, [fp, #-44]	; 0xffffffd4
  102dec:	eb0013b7 	bl	107cd0 <alt_dma_program_DMAEND>
  102df0:	e50b0008 	str	r0, [fp, #-8]
  102df4:	e51b3008 	ldr	r3, [fp, #-8]
  102df8:	e3530000 	cmp	r3, #0
  102dfc:	0a000003 	beq	102e10 <alt_dma_zero_to_memory+0x1a4>
  102e00:	e51b002c 	ldr	r0, [fp, #-44]	; 0xffffffd4
  102e04:	eb00125a 	bl	107774 <alt_dma_program_clear>
  102e08:	e51b3008 	ldr	r3, [fp, #-8]
  102e0c:	ea000004 	b	102e24 <alt_dma_zero_to_memory+0x1b8>
  102e10:	e55b3025 	ldrb	r3, [fp, #-37]	; 0xffffffdb
  102e14:	e1a00003 	mov	r0, r3
  102e18:	e51b102c 	ldr	r1, [fp, #-44]	; 0xffffffd4
  102e1c:	ebfffa75 	bl	1017f8 <alt_dma_channel_exec>
  102e20:	e1a03000 	mov	r3, r0
  102e24:	e1a00003 	mov	r0, r3
  102e28:	e24bd004 	sub	sp, fp, #4
  102e2c:	e8bd8800 	pop	{fp, pc}

00102e30 <alt_dma_memory_to_register_segment>:
  102e30:	e92d4800 	push	{fp, lr}
  102e34:	e28db004 	add	fp, sp, #4
  102e38:	e24dd028 	sub	sp, sp, #40	; 0x28
  102e3c:	e50b1024 	str	r1, [fp, #-36]	; 0xffffffdc
  102e40:	e50b2028 	str	r2, [fp, #-40]	; 0xffffffd8
  102e44:	e50b302c 	str	r3, [fp, #-44]	; 0xffffffd4
  102e48:	e1a03000 	mov	r3, r0
  102e4c:	e54b301d 	strb	r3, [fp, #-29]	; 0xffffffe3
  102e50:	e3a03000 	mov	r3, #0
  102e54:	e50b3008 	str	r3, [fp, #-8]
  102e58:	e51b3008 	ldr	r3, [fp, #-8]
  102e5c:	e3530000 	cmp	r3, #0
  102e60:	1a000004 	bne	102e78 <alt_dma_memory_to_register_segment+0x48>
  102e64:	e51b0024 	ldr	r0, [fp, #-36]	; 0xffffffdc
  102e68:	e3a01000 	mov	r1, #0
  102e6c:	e51b202c 	ldr	r2, [fp, #-44]	; 0xffffffd4
  102e70:	eb001620 	bl	1086f8 <alt_dma_program_DMAMOV>
  102e74:	e50b0008 	str	r0, [fp, #-8]
  102e78:	e59b3004 	ldr	r3, [fp, #4]
  102e7c:	e50b300c 	str	r3, [fp, #-12]
  102e80:	e51b300c 	ldr	r3, [fp, #-12]
  102e84:	e1a03223 	lsr	r3, r3, #4
  102e88:	e3530000 	cmp	r3, #0
  102e8c:	0a000084 	beq	1030a4 <alt_dma_memory_to_register_segment+0x274>
  102e90:	e51b3008 	ldr	r3, [fp, #-8]
  102e94:	e3530000 	cmp	r3, #0
  102e98:	1a000007 	bne	102ebc <alt_dma_memory_to_register_segment+0x8c>
  102e9c:	e51b3028 	ldr	r3, [fp, #-40]	; 0xffffffd8
  102ea0:	e383370f 	orr	r3, r3, #3932160	; 0x3c0000
  102ea4:	e38330f1 	orr	r3, r3, #241	; 0xf1
  102ea8:	e51b0024 	ldr	r0, [fp, #-36]	; 0xffffffdc
  102eac:	e3a01001 	mov	r1, #1
  102eb0:	e1a02003 	mov	r2, r3
  102eb4:	eb00160f 	bl	1086f8 <alt_dma_program_DMAMOV>
  102eb8:	e50b0008 	str	r0, [fp, #-8]
  102ebc:	e51b300c 	ldr	r3, [fp, #-12]
  102ec0:	e1a03223 	lsr	r3, r3, #4
  102ec4:	e50b3010 	str	r3, [fp, #-16]
  102ec8:	e51b300c 	ldr	r3, [fp, #-12]
  102ecc:	e203300f 	and	r3, r3, #15
  102ed0:	e50b300c 	str	r3, [fp, #-12]
  102ed4:	e51b3010 	ldr	r3, [fp, #-16]
  102ed8:	e1a03423 	lsr	r3, r3, #8
  102edc:	e3530000 	cmp	r3, #0
  102ee0:	0a000046 	beq	103000 <alt_dma_memory_to_register_segment+0x1d0>
  102ee4:	e51b3010 	ldr	r3, [fp, #-16]
  102ee8:	e1a03423 	lsr	r3, r3, #8
  102eec:	e50b3014 	str	r3, [fp, #-20]	; 0xffffffec
  102ef0:	e51b3010 	ldr	r3, [fp, #-16]
  102ef4:	e6ef3073 	uxtb	r3, r3
  102ef8:	e50b3010 	str	r3, [fp, #-16]
  102efc:	ea00003c 	b	102ff4 <alt_dma_memory_to_register_segment+0x1c4>
  102f00:	e51b3008 	ldr	r3, [fp, #-8]
  102f04:	e3530000 	cmp	r3, #0
  102f08:	0a000000 	beq	102f10 <alt_dma_memory_to_register_segment+0xe0>
  102f0c:	ea00003b 	b	103000 <alt_dma_memory_to_register_segment+0x1d0>
  102f10:	e51b3014 	ldr	r3, [fp, #-20]	; 0xffffffec
  102f14:	e3530c01 	cmp	r3, #256	; 0x100
  102f18:	31a03003 	movcc	r3, r3
  102f1c:	23a03c01 	movcs	r3, #256	; 0x100
  102f20:	e50b3018 	str	r3, [fp, #-24]	; 0xffffffe8
  102f24:	e51b2014 	ldr	r2, [fp, #-20]	; 0xffffffec
  102f28:	e51b3018 	ldr	r3, [fp, #-24]	; 0xffffffe8
  102f2c:	e0633002 	rsb	r3, r3, r2
  102f30:	e50b3014 	str	r3, [fp, #-20]	; 0xffffffec
  102f34:	e51b3008 	ldr	r3, [fp, #-8]
  102f38:	e3530000 	cmp	r3, #0
  102f3c:	1a000006 	bne	102f5c <alt_dma_memory_to_register_segment+0x12c>
  102f40:	e51b3018 	ldr	r3, [fp, #-24]	; 0xffffffe8
  102f44:	e3530001 	cmp	r3, #1
  102f48:	9a000003 	bls	102f5c <alt_dma_memory_to_register_segment+0x12c>
  102f4c:	e51b0024 	ldr	r0, [fp, #-36]	; 0xffffffdc
  102f50:	e51b1018 	ldr	r1, [fp, #-24]	; 0xffffffe8
  102f54:	eb0014b8 	bl	10823c <alt_dma_program_DMALP>
  102f58:	e50b0008 	str	r0, [fp, #-8]
  102f5c:	e51b3008 	ldr	r3, [fp, #-8]
  102f60:	e3530000 	cmp	r3, #0
  102f64:	1a000003 	bne	102f78 <alt_dma_memory_to_register_segment+0x148>
  102f68:	e51b0024 	ldr	r0, [fp, #-36]	; 0xffffffdc
  102f6c:	e3a01c01 	mov	r1, #256	; 0x100
  102f70:	eb0014b1 	bl	10823c <alt_dma_program_DMALP>
  102f74:	e50b0008 	str	r0, [fp, #-8]
  102f78:	e51b3008 	ldr	r3, [fp, #-8]
  102f7c:	e3530000 	cmp	r3, #0
  102f80:	1a000003 	bne	102f94 <alt_dma_memory_to_register_segment+0x164>
  102f84:	e51b0024 	ldr	r0, [fp, #-36]	; 0xffffffdc
  102f88:	e3a01000 	mov	r1, #0
  102f8c:	eb00142b 	bl	108040 <alt_dma_program_DMALD>
  102f90:	e50b0008 	str	r0, [fp, #-8]
  102f94:	e51b3008 	ldr	r3, [fp, #-8]
  102f98:	e3530000 	cmp	r3, #0
  102f9c:	1a000003 	bne	102fb0 <alt_dma_memory_to_register_segment+0x180>
  102fa0:	e51b0024 	ldr	r0, [fp, #-36]	; 0xffffffdc
  102fa4:	e3a01000 	mov	r1, #0
  102fa8:	eb0016c1 	bl	108ab4 <alt_dma_program_DMAST>
  102fac:	e50b0008 	str	r0, [fp, #-8]
  102fb0:	e51b3008 	ldr	r3, [fp, #-8]
  102fb4:	e3530000 	cmp	r3, #0
  102fb8:	1a000003 	bne	102fcc <alt_dma_memory_to_register_segment+0x19c>
  102fbc:	e51b0024 	ldr	r0, [fp, #-36]	; 0xffffffdc
  102fc0:	e3a01000 	mov	r1, #0
  102fc4:	eb0014fc 	bl	1083bc <alt_dma_program_DMALPEND>
  102fc8:	e50b0008 	str	r0, [fp, #-8]
  102fcc:	e51b3008 	ldr	r3, [fp, #-8]
  102fd0:	e3530000 	cmp	r3, #0
  102fd4:	1a000006 	bne	102ff4 <alt_dma_memory_to_register_segment+0x1c4>
  102fd8:	e51b3018 	ldr	r3, [fp, #-24]	; 0xffffffe8
  102fdc:	e3530001 	cmp	r3, #1
  102fe0:	9a000003 	bls	102ff4 <alt_dma_memory_to_register_segment+0x1c4>
  102fe4:	e51b0024 	ldr	r0, [fp, #-36]	; 0xffffffdc
  102fe8:	e3a01000 	mov	r1, #0
  102fec:	eb0014f2 	bl	1083bc <alt_dma_program_DMALPEND>
  102ff0:	e50b0008 	str	r0, [fp, #-8]
  102ff4:	e51b3014 	ldr	r3, [fp, #-20]	; 0xffffffec
  102ff8:	e3530000 	cmp	r3, #0
  102ffc:	1affffbf 	bne	102f00 <alt_dma_memory_to_register_segment+0xd0>
  103000:	e51b3010 	ldr	r3, [fp, #-16]
  103004:	e3530000 	cmp	r3, #0
  103008:	0a000025 	beq	1030a4 <alt_dma_memory_to_register_segment+0x274>
  10300c:	e51b3010 	ldr	r3, [fp, #-16]
  103010:	e50b301c 	str	r3, [fp, #-28]	; 0xffffffe4
  103014:	e3a03000 	mov	r3, #0
  103018:	e50b3010 	str	r3, [fp, #-16]
  10301c:	e51b3008 	ldr	r3, [fp, #-8]
  103020:	e3530000 	cmp	r3, #0
  103024:	1a000006 	bne	103044 <alt_dma_memory_to_register_segment+0x214>
  103028:	e51b301c 	ldr	r3, [fp, #-28]	; 0xffffffe4
  10302c:	e3530001 	cmp	r3, #1
  103030:	9a000003 	bls	103044 <alt_dma_memory_to_register_segment+0x214>
  103034:	e51b0024 	ldr	r0, [fp, #-36]	; 0xffffffdc
  103038:	e51b101c 	ldr	r1, [fp, #-28]	; 0xffffffe4
  10303c:	eb00147e 	bl	10823c <alt_dma_program_DMALP>
  103040:	e50b0008 	str	r0, [fp, #-8]
  103044:	e51b3008 	ldr	r3, [fp, #-8]
  103048:	e3530000 	cmp	r3, #0
  10304c:	1a000003 	bne	103060 <alt_dma_memory_to_register_segment+0x230>
  103050:	e51b0024 	ldr	r0, [fp, #-36]	; 0xffffffdc
  103054:	e3a01000 	mov	r1, #0
  103058:	eb0013f8 	bl	108040 <alt_dma_program_DMALD>
  10305c:	e50b0008 	str	r0, [fp, #-8]
  103060:	e51b3008 	ldr	r3, [fp, #-8]
  103064:	e3530000 	cmp	r3, #0
  103068:	1a000003 	bne	10307c <alt_dma_memory_to_register_segment+0x24c>
  10306c:	e51b0024 	ldr	r0, [fp, #-36]	; 0xffffffdc
  103070:	e3a01000 	mov	r1, #0
  103074:	eb00168e 	bl	108ab4 <alt_dma_program_DMAST>
  103078:	e50b0008 	str	r0, [fp, #-8]
  10307c:	e51b3008 	ldr	r3, [fp, #-8]
  103080:	e3530000 	cmp	r3, #0
  103084:	1a000006 	bne	1030a4 <alt_dma_memory_to_register_segment+0x274>
  103088:	e51b301c 	ldr	r3, [fp, #-28]	; 0xffffffe4
  10308c:	e3530001 	cmp	r3, #1
  103090:	9a000003 	bls	1030a4 <alt_dma_memory_to_register_segment+0x274>
  103094:	e51b0024 	ldr	r0, [fp, #-36]	; 0xffffffdc
  103098:	e3a01000 	mov	r1, #0
  10309c:	eb0014c6 	bl	1083bc <alt_dma_program_DMALPEND>
  1030a0:	e50b0008 	str	r0, [fp, #-8]
  1030a4:	e51b300c 	ldr	r3, [fp, #-12]
  1030a8:	e3530000 	cmp	r3, #0
  1030ac:	0a00001f 	beq	103130 <alt_dma_memory_to_register_segment+0x300>
  1030b0:	e51b3008 	ldr	r3, [fp, #-8]
  1030b4:	e3530000 	cmp	r3, #0
  1030b8:	1a00000e 	bne	1030f8 <alt_dma_memory_to_register_segment+0x2c8>
  1030bc:	e51b300c 	ldr	r3, [fp, #-12]
  1030c0:	e2433001 	sub	r3, r3, #1
  1030c4:	e1a02203 	lsl	r2, r3, #4
  1030c8:	e51b3028 	ldr	r3, [fp, #-40]	; 0xffffffd8
  1030cc:	e1822003 	orr	r2, r2, r3
  1030d0:	e51b300c 	ldr	r3, [fp, #-12]
  1030d4:	e2433001 	sub	r3, r3, #1
  1030d8:	e1a03903 	lsl	r3, r3, #18
  1030dc:	e1823003 	orr	r3, r2, r3
  1030e0:	e3833001 	orr	r3, r3, #1
  1030e4:	e51b0024 	ldr	r0, [fp, #-36]	; 0xffffffdc
  1030e8:	e3a01001 	mov	r1, #1
  1030ec:	e1a02003 	mov	r2, r3
  1030f0:	eb001580 	bl	1086f8 <alt_dma_program_DMAMOV>
  1030f4:	e50b0008 	str	r0, [fp, #-8]
  1030f8:	e51b3008 	ldr	r3, [fp, #-8]
  1030fc:	e3530000 	cmp	r3, #0
  103100:	1a000003 	bne	103114 <alt_dma_memory_to_register_segment+0x2e4>
  103104:	e51b0024 	ldr	r0, [fp, #-36]	; 0xffffffdc
  103108:	e3a01000 	mov	r1, #0
  10310c:	eb0013cb 	bl	108040 <alt_dma_program_DMALD>
  103110:	e50b0008 	str	r0, [fp, #-8]
  103114:	e51b3008 	ldr	r3, [fp, #-8]
  103118:	e3530000 	cmp	r3, #0
  10311c:	1a000003 	bne	103130 <alt_dma_memory_to_register_segment+0x300>
  103120:	e51b0024 	ldr	r0, [fp, #-36]	; 0xffffffdc
  103124:	e3a01000 	mov	r1, #0
  103128:	eb001661 	bl	108ab4 <alt_dma_program_DMAST>
  10312c:	e50b0008 	str	r0, [fp, #-8]
  103130:	e51b3008 	ldr	r3, [fp, #-8]
  103134:	e1a00003 	mov	r0, r3
  103138:	e24bd004 	sub	sp, fp, #4
  10313c:	e8bd8800 	pop	{fp, pc}

00103140 <alt_dma_memory_to_register>:
  103140:	e92d4800 	push	{fp, lr}
  103144:	e28db004 	add	fp, sp, #4
  103148:	e24dd040 	sub	sp, sp, #64	; 0x40
  10314c:	e50b1034 	str	r1, [fp, #-52]	; 0xffffffcc
  103150:	e50b2038 	str	r2, [fp, #-56]	; 0xffffffc8
  103154:	e50b303c 	str	r3, [fp, #-60]	; 0xffffffc4
  103158:	e1a03000 	mov	r3, r0
  10315c:	e54b302d 	strb	r3, [fp, #-45]	; 0xffffffd3
  103160:	e59b3004 	ldr	r3, [fp, #4]
  103164:	e3530000 	cmp	r3, #0
  103168:	1a000006 	bne	103188 <alt_dma_memory_to_register+0x48>
  10316c:	e5db300c 	ldrb	r3, [fp, #12]
  103170:	e2233001 	eor	r3, r3, #1
  103174:	e6ef3073 	uxtb	r3, r3
  103178:	e3530000 	cmp	r3, #0
  10317c:	0a000001 	beq	103188 <alt_dma_memory_to_register+0x48>
  103180:	e3a03000 	mov	r3, #0
  103184:	ea0000b4 	b	10345c <alt_dma_memory_to_register+0x31c>
  103188:	e3a03000 	mov	r3, #0
  10318c:	e50b3008 	str	r3, [fp, #-8]
  103190:	e51b3008 	ldr	r3, [fp, #-8]
  103194:	e3530000 	cmp	r3, #0
  103198:	1a000002 	bne	1031a8 <alt_dma_memory_to_register+0x68>
  10319c:	e51b0034 	ldr	r0, [fp, #-52]	; 0xffffffcc
  1031a0:	eb00114e 	bl	1076e0 <alt_dma_program_init>
  1031a4:	e50b0008 	str	r0, [fp, #-8]
  1031a8:	e59b3004 	ldr	r3, [fp, #4]
  1031ac:	e3530000 	cmp	r3, #0
  1031b0:	0a00008c 	beq	1033e8 <alt_dma_memory_to_register+0x2a8>
  1031b4:	e3a03000 	mov	r3, #0
  1031b8:	e50b300c 	str	r3, [fp, #-12]
  1031bc:	e3a03000 	mov	r3, #0
  1031c0:	e50b3010 	str	r3, [fp, #-16]
  1031c4:	e51b3008 	ldr	r3, [fp, #-8]
  1031c8:	e3530000 	cmp	r3, #0
  1031cc:	1a000025 	bne	103268 <alt_dma_memory_to_register+0x128>
  1031d0:	e59b3008 	ldr	r3, [fp, #8]
  1031d4:	e3530010 	cmp	r3, #16
  1031d8:	0a00000e 	beq	103218 <alt_dma_memory_to_register+0xd8>
  1031dc:	e3530010 	cmp	r3, #16
  1031e0:	8a000002 	bhi	1031f0 <alt_dma_memory_to_register+0xb0>
  1031e4:	e3530008 	cmp	r3, #8
  1031e8:	0a000005 	beq	103204 <alt_dma_memory_to_register+0xc4>
  1031ec:	ea00001a 	b	10325c <alt_dma_memory_to_register+0x11c>
  1031f0:	e3530020 	cmp	r3, #32
  1031f4:	0a00000c 	beq	10322c <alt_dma_memory_to_register+0xec>
  1031f8:	e3530040 	cmp	r3, #64	; 0x40
  1031fc:	0a000010 	beq	103244 <alt_dma_memory_to_register+0x104>
  103200:	ea000015 	b	10325c <alt_dma_memory_to_register+0x11c>
  103204:	e3a03000 	mov	r3, #0
  103208:	e50b300c 	str	r3, [fp, #-12]
  10320c:	e3a03000 	mov	r3, #0
  103210:	e50b3010 	str	r3, [fp, #-16]
  103214:	ea000013 	b	103268 <alt_dma_memory_to_register+0x128>
  103218:	e3083002 	movw	r3, #32770	; 0x8002
  10321c:	e50b300c 	str	r3, [fp, #-12]
  103220:	e3a03001 	mov	r3, #1
  103224:	e50b3010 	str	r3, [fp, #-16]
  103228:	ea00000e 	b	103268 <alt_dma_memory_to_register+0x128>
  10322c:	e3a03004 	mov	r3, #4
  103230:	e3403001 	movt	r3, #1
  103234:	e50b300c 	str	r3, [fp, #-12]
  103238:	e3a03002 	mov	r3, #2
  10323c:	e50b3010 	str	r3, [fp, #-16]
  103240:	ea000008 	b	103268 <alt_dma_memory_to_register+0x128>
  103244:	e3083006 	movw	r3, #32774	; 0x8006
  103248:	e3403001 	movt	r3, #1
  10324c:	e50b300c 	str	r3, [fp, #-12]
  103250:	e3a03003 	mov	r3, #3
  103254:	e50b3010 	str	r3, [fp, #-16]
  103258:	ea000002 	b	103268 <alt_dma_memory_to_register+0x128>
  10325c:	e3e03008 	mvn	r3, #8
  103260:	e50b3008 	str	r3, [fp, #-8]
  103264:	e1a00000 	nop			; (mov r0, r0)
  103268:	e51b3008 	ldr	r3, [fp, #-8]
  10326c:	e3530000 	cmp	r3, #0
  103270:	1a000016 	bne	1032d0 <alt_dma_memory_to_register+0x190>
  103274:	e51b3010 	ldr	r3, [fp, #-16]
  103278:	e3a02001 	mov	r2, #1
  10327c:	e1a03312 	lsl	r3, r2, r3
  103280:	e2433001 	sub	r3, r3, #1
  103284:	e1a02003 	mov	r2, r3
  103288:	e51b3038 	ldr	r3, [fp, #-56]	; 0xffffffc8
  10328c:	e0033002 	and	r3, r3, r2
  103290:	e3530000 	cmp	r3, #0
  103294:	0a000002 	beq	1032a4 <alt_dma_memory_to_register+0x164>
  103298:	e3e03008 	mvn	r3, #8
  10329c:	e50b3008 	str	r3, [fp, #-8]
  1032a0:	ea00000a 	b	1032d0 <alt_dma_memory_to_register+0x190>
  1032a4:	e51b3010 	ldr	r3, [fp, #-16]
  1032a8:	e3a02001 	mov	r2, #1
  1032ac:	e1a03312 	lsl	r3, r2, r3
  1032b0:	e2433001 	sub	r3, r3, #1
  1032b4:	e1a02003 	mov	r2, r3
  1032b8:	e51b303c 	ldr	r3, [fp, #-60]	; 0xffffffc4
  1032bc:	e0033002 	and	r3, r3, r2
  1032c0:	e3530000 	cmp	r3, #0
  1032c4:	0a000001 	beq	1032d0 <alt_dma_memory_to_register+0x190>
  1032c8:	e3e03008 	mvn	r3, #8
  1032cc:	e50b3008 	str	r3, [fp, #-8]
  1032d0:	e51b3008 	ldr	r3, [fp, #-8]
  1032d4:	e3530000 	cmp	r3, #0
  1032d8:	1a000005 	bne	1032f4 <alt_dma_memory_to_register+0x1b4>
  1032dc:	e51b3038 	ldr	r3, [fp, #-56]	; 0xffffffc8
  1032e0:	e51b0034 	ldr	r0, [fp, #-52]	; 0xffffffcc
  1032e4:	e3a01002 	mov	r1, #2
  1032e8:	e1a02003 	mov	r2, r3
  1032ec:	eb001501 	bl	1086f8 <alt_dma_program_DMAMOV>
  1032f0:	e50b0008 	str	r0, [fp, #-8]
  1032f4:	e51b3010 	ldr	r3, [fp, #-16]
  1032f8:	e59b2004 	ldr	r2, [fp, #4]
  1032fc:	e1a03312 	lsl	r3, r2, r3
  103300:	e50b3014 	str	r3, [fp, #-20]	; 0xffffffec
  103304:	e51b3008 	ldr	r3, [fp, #-8]
  103308:	e3530000 	cmp	r3, #0
  10330c:	1a000005 	bne	103328 <alt_dma_memory_to_register+0x1e8>
  103310:	e24b3024 	sub	r3, fp, #36	; 0x24
  103314:	e1a00003 	mov	r0, r3
  103318:	e51b103c 	ldr	r1, [fp, #-60]	; 0xffffffc4
  10331c:	e51b2014 	ldr	r2, [fp, #-20]	; 0xffffffec
  103320:	ebfffb26 	bl	101fc0 <alt_mmu_va_to_pa_coalesce_begin>
  103324:	e50b0008 	str	r0, [fp, #-8]
  103328:	ea000024 	b	1033c0 <alt_dma_memory_to_register+0x280>
  10332c:	e51b3008 	ldr	r3, [fp, #-8]
  103330:	e3530000 	cmp	r3, #0
  103334:	1a000024 	bne	1033cc <alt_dma_memory_to_register+0x28c>
  103338:	e3a03000 	mov	r3, #0
  10333c:	e50b3028 	str	r3, [fp, #-40]	; 0xffffffd8
  103340:	e3a03000 	mov	r3, #0
  103344:	e50b302c 	str	r3, [fp, #-44]	; 0xffffffd4
  103348:	e51b3008 	ldr	r3, [fp, #-8]
  10334c:	e3530000 	cmp	r3, #0
  103350:	1a000007 	bne	103374 <alt_dma_memory_to_register+0x234>
  103354:	e24b1024 	sub	r1, fp, #36	; 0x24
  103358:	e24b2028 	sub	r2, fp, #40	; 0x28
  10335c:	e24b302c 	sub	r3, fp, #44	; 0x2c
  103360:	e1a00001 	mov	r0, r1
  103364:	e1a01002 	mov	r1, r2
  103368:	e1a02003 	mov	r2, r3
  10336c:	ebfffb43 	bl	102080 <alt_mmu_va_to_pa_coalesce_next>
  103370:	e50b0008 	str	r0, [fp, #-8]
  103374:	e51b302c 	ldr	r3, [fp, #-44]	; 0xffffffd4
  103378:	e51b2014 	ldr	r2, [fp, #-20]	; 0xffffffec
  10337c:	e0633002 	rsb	r3, r3, r2
  103380:	e50b3014 	str	r3, [fp, #-20]	; 0xffffffec
  103384:	e51b3008 	ldr	r3, [fp, #-8]
  103388:	e3530000 	cmp	r3, #0
  10338c:	1a00000b 	bne	1033c0 <alt_dma_memory_to_register+0x280>
  103390:	e51bc028 	ldr	ip, [fp, #-40]	; 0xffffffd8
  103394:	e51b202c 	ldr	r2, [fp, #-44]	; 0xffffffd4
  103398:	e51b3010 	ldr	r3, [fp, #-16]
  10339c:	e1a03332 	lsr	r3, r2, r3
  1033a0:	e55b202d 	ldrb	r2, [fp, #-45]	; 0xffffffd3
  1033a4:	e58d3000 	str	r3, [sp]
  1033a8:	e1a00002 	mov	r0, r2
  1033ac:	e51b1034 	ldr	r1, [fp, #-52]	; 0xffffffcc
  1033b0:	e51b200c 	ldr	r2, [fp, #-12]
  1033b4:	e1a0300c 	mov	r3, ip
  1033b8:	ebfffe9c 	bl	102e30 <alt_dma_memory_to_register_segment>
  1033bc:	e50b0008 	str	r0, [fp, #-8]
  1033c0:	e51b3014 	ldr	r3, [fp, #-20]	; 0xffffffec
  1033c4:	e3530000 	cmp	r3, #0
  1033c8:	1affffd7 	bne	10332c <alt_dma_memory_to_register+0x1ec>
  1033cc:	e51b3008 	ldr	r3, [fp, #-8]
  1033d0:	e3530000 	cmp	r3, #0
  1033d4:	1a000003 	bne	1033e8 <alt_dma_memory_to_register+0x2a8>
  1033d8:	e24b3024 	sub	r3, fp, #36	; 0x24
  1033dc:	e1a00003 	mov	r0, r3
  1033e0:	ebfffb87 	bl	102204 <alt_mmu_va_to_pa_coalesce_end>
  1033e4:	e50b0008 	str	r0, [fp, #-8]
  1033e8:	e5db300c 	ldrb	r3, [fp, #12]
  1033ec:	e3530000 	cmp	r3, #0
  1033f0:	0a000007 	beq	103414 <alt_dma_memory_to_register+0x2d4>
  1033f4:	e51b3008 	ldr	r3, [fp, #-8]
  1033f8:	e3530000 	cmp	r3, #0
  1033fc:	1a000004 	bne	103414 <alt_dma_memory_to_register+0x2d4>
  103400:	e5db3010 	ldrb	r3, [fp, #16]
  103404:	e51b0034 	ldr	r0, [fp, #-52]	; 0xffffffcc
  103408:	e1a01003 	mov	r1, r3
  10340c:	eb001576 	bl	1089ec <alt_dma_program_DMASEV>
  103410:	e50b0008 	str	r0, [fp, #-8]
  103414:	e51b3008 	ldr	r3, [fp, #-8]
  103418:	e3530000 	cmp	r3, #0
  10341c:	1a000002 	bne	10342c <alt_dma_memory_to_register+0x2ec>
  103420:	e51b0034 	ldr	r0, [fp, #-52]	; 0xffffffcc
  103424:	eb001229 	bl	107cd0 <alt_dma_program_DMAEND>
  103428:	e50b0008 	str	r0, [fp, #-8]
  10342c:	e51b3008 	ldr	r3, [fp, #-8]
  103430:	e3530000 	cmp	r3, #0
  103434:	0a000003 	beq	103448 <alt_dma_memory_to_register+0x308>
  103438:	e51b0034 	ldr	r0, [fp, #-52]	; 0xffffffcc
  10343c:	eb0010cc 	bl	107774 <alt_dma_program_clear>
  103440:	e51b3008 	ldr	r3, [fp, #-8]
  103444:	ea000004 	b	10345c <alt_dma_memory_to_register+0x31c>
  103448:	e55b302d 	ldrb	r3, [fp, #-45]	; 0xffffffd3
  10344c:	e1a00003 	mov	r0, r3
  103450:	e51b1034 	ldr	r1, [fp, #-52]	; 0xffffffcc
  103454:	ebfff8e7 	bl	1017f8 <alt_dma_channel_exec>
  103458:	e1a03000 	mov	r3, r0
  10345c:	e1a00003 	mov	r0, r3
  103460:	e24bd004 	sub	sp, fp, #4
  103464:	e8bd8800 	pop	{fp, pc}

00103468 <alt_dma_register_to_memory_segment>:
  103468:	e92d4800 	push	{fp, lr}
  10346c:	e28db004 	add	fp, sp, #4
  103470:	e24dd028 	sub	sp, sp, #40	; 0x28
  103474:	e50b1024 	str	r1, [fp, #-36]	; 0xffffffdc
  103478:	e50b2028 	str	r2, [fp, #-40]	; 0xffffffd8
  10347c:	e50b302c 	str	r3, [fp, #-44]	; 0xffffffd4
  103480:	e1a03000 	mov	r3, r0
  103484:	e54b301d 	strb	r3, [fp, #-29]	; 0xffffffe3
  103488:	e3a03000 	mov	r3, #0
  10348c:	e50b3008 	str	r3, [fp, #-8]
  103490:	e51b3008 	ldr	r3, [fp, #-8]
  103494:	e3530000 	cmp	r3, #0
  103498:	1a000004 	bne	1034b0 <alt_dma_register_to_memory_segment+0x48>
  10349c:	e51b0024 	ldr	r0, [fp, #-36]	; 0xffffffdc
  1034a0:	e3a01002 	mov	r1, #2
  1034a4:	e51b202c 	ldr	r2, [fp, #-44]	; 0xffffffd4
  1034a8:	eb001492 	bl	1086f8 <alt_dma_program_DMAMOV>
  1034ac:	e50b0008 	str	r0, [fp, #-8]
  1034b0:	e59b3004 	ldr	r3, [fp, #4]
  1034b4:	e50b300c 	str	r3, [fp, #-12]
  1034b8:	e51b300c 	ldr	r3, [fp, #-12]
  1034bc:	e1a03223 	lsr	r3, r3, #4
  1034c0:	e3530000 	cmp	r3, #0
  1034c4:	0a000084 	beq	1036dc <alt_dma_register_to_memory_segment+0x274>
  1034c8:	e51b300c 	ldr	r3, [fp, #-12]
  1034cc:	e1a03223 	lsr	r3, r3, #4
  1034d0:	e50b3010 	str	r3, [fp, #-16]
  1034d4:	e51b300c 	ldr	r3, [fp, #-12]
  1034d8:	e203300f 	and	r3, r3, #15
  1034dc:	e50b300c 	str	r3, [fp, #-12]
  1034e0:	e51b3008 	ldr	r3, [fp, #-8]
  1034e4:	e3530000 	cmp	r3, #0
  1034e8:	1a000007 	bne	10350c <alt_dma_register_to_memory_segment+0xa4>
  1034ec:	e51b3028 	ldr	r3, [fp, #-40]	; 0xffffffd8
  1034f0:	e38339f1 	orr	r3, r3, #3948544	; 0x3c4000
  1034f4:	e38330f0 	orr	r3, r3, #240	; 0xf0
  1034f8:	e51b0024 	ldr	r0, [fp, #-36]	; 0xffffffdc
  1034fc:	e3a01001 	mov	r1, #1
  103500:	e1a02003 	mov	r2, r3
  103504:	eb00147b 	bl	1086f8 <alt_dma_program_DMAMOV>
  103508:	e50b0008 	str	r0, [fp, #-8]
  10350c:	e51b3010 	ldr	r3, [fp, #-16]
  103510:	e1a03423 	lsr	r3, r3, #8
  103514:	e3530000 	cmp	r3, #0
  103518:	0a000046 	beq	103638 <alt_dma_register_to_memory_segment+0x1d0>
  10351c:	e51b3010 	ldr	r3, [fp, #-16]
  103520:	e1a03423 	lsr	r3, r3, #8
  103524:	e50b3014 	str	r3, [fp, #-20]	; 0xffffffec
  103528:	e51b3010 	ldr	r3, [fp, #-16]
  10352c:	e6ef3073 	uxtb	r3, r3
  103530:	e50b3010 	str	r3, [fp, #-16]
  103534:	ea00003c 	b	10362c <alt_dma_register_to_memory_segment+0x1c4>
  103538:	e51b3008 	ldr	r3, [fp, #-8]
  10353c:	e3530000 	cmp	r3, #0
  103540:	0a000000 	beq	103548 <alt_dma_register_to_memory_segment+0xe0>
  103544:	ea00003b 	b	103638 <alt_dma_register_to_memory_segment+0x1d0>
  103548:	e51b3014 	ldr	r3, [fp, #-20]	; 0xffffffec
  10354c:	e3530c01 	cmp	r3, #256	; 0x100
  103550:	31a03003 	movcc	r3, r3
  103554:	23a03c01 	movcs	r3, #256	; 0x100
  103558:	e50b3018 	str	r3, [fp, #-24]	; 0xffffffe8
  10355c:	e51b2014 	ldr	r2, [fp, #-20]	; 0xffffffec
  103560:	e51b3018 	ldr	r3, [fp, #-24]	; 0xffffffe8
  103564:	e0633002 	rsb	r3, r3, r2
  103568:	e50b3014 	str	r3, [fp, #-20]	; 0xffffffec
  10356c:	e51b3008 	ldr	r3, [fp, #-8]
  103570:	e3530000 	cmp	r3, #0
  103574:	1a000006 	bne	103594 <alt_dma_register_to_memory_segment+0x12c>
  103578:	e51b3018 	ldr	r3, [fp, #-24]	; 0xffffffe8
  10357c:	e3530001 	cmp	r3, #1
  103580:	9a000003 	bls	103594 <alt_dma_register_to_memory_segment+0x12c>
  103584:	e51b0024 	ldr	r0, [fp, #-36]	; 0xffffffdc
  103588:	e51b1018 	ldr	r1, [fp, #-24]	; 0xffffffe8
  10358c:	eb00132a 	bl	10823c <alt_dma_program_DMALP>
  103590:	e50b0008 	str	r0, [fp, #-8]
  103594:	e51b3008 	ldr	r3, [fp, #-8]
  103598:	e3530000 	cmp	r3, #0
  10359c:	1a000003 	bne	1035b0 <alt_dma_register_to_memory_segment+0x148>
  1035a0:	e51b0024 	ldr	r0, [fp, #-36]	; 0xffffffdc
  1035a4:	e3a01c01 	mov	r1, #256	; 0x100
  1035a8:	eb001323 	bl	10823c <alt_dma_program_DMALP>
  1035ac:	e50b0008 	str	r0, [fp, #-8]
  1035b0:	e51b3008 	ldr	r3, [fp, #-8]
  1035b4:	e3530000 	cmp	r3, #0
  1035b8:	1a000003 	bne	1035cc <alt_dma_register_to_memory_segment+0x164>
  1035bc:	e51b0024 	ldr	r0, [fp, #-36]	; 0xffffffdc
  1035c0:	e3a01000 	mov	r1, #0
  1035c4:	eb00129d 	bl	108040 <alt_dma_program_DMALD>
  1035c8:	e50b0008 	str	r0, [fp, #-8]
  1035cc:	e51b3008 	ldr	r3, [fp, #-8]
  1035d0:	e3530000 	cmp	r3, #0
  1035d4:	1a000003 	bne	1035e8 <alt_dma_register_to_memory_segment+0x180>
  1035d8:	e51b0024 	ldr	r0, [fp, #-36]	; 0xffffffdc
  1035dc:	e3a01000 	mov	r1, #0
  1035e0:	eb001533 	bl	108ab4 <alt_dma_program_DMAST>
  1035e4:	e50b0008 	str	r0, [fp, #-8]
  1035e8:	e51b3008 	ldr	r3, [fp, #-8]
  1035ec:	e3530000 	cmp	r3, #0
  1035f0:	1a000003 	bne	103604 <alt_dma_register_to_memory_segment+0x19c>
  1035f4:	e51b0024 	ldr	r0, [fp, #-36]	; 0xffffffdc
  1035f8:	e3a01000 	mov	r1, #0
  1035fc:	eb00136e 	bl	1083bc <alt_dma_program_DMALPEND>
  103600:	e50b0008 	str	r0, [fp, #-8]
  103604:	e51b3008 	ldr	r3, [fp, #-8]
  103608:	e3530000 	cmp	r3, #0
  10360c:	1a000006 	bne	10362c <alt_dma_register_to_memory_segment+0x1c4>
  103610:	e51b3018 	ldr	r3, [fp, #-24]	; 0xffffffe8
  103614:	e3530001 	cmp	r3, #1
  103618:	9a000003 	bls	10362c <alt_dma_register_to_memory_segment+0x1c4>
  10361c:	e51b0024 	ldr	r0, [fp, #-36]	; 0xffffffdc
  103620:	e3a01000 	mov	r1, #0
  103624:	eb001364 	bl	1083bc <alt_dma_program_DMALPEND>
  103628:	e50b0008 	str	r0, [fp, #-8]
  10362c:	e51b3014 	ldr	r3, [fp, #-20]	; 0xffffffec
  103630:	e3530000 	cmp	r3, #0
  103634:	1affffbf 	bne	103538 <alt_dma_register_to_memory_segment+0xd0>
  103638:	e51b3010 	ldr	r3, [fp, #-16]
  10363c:	e3530000 	cmp	r3, #0
  103640:	0a000025 	beq	1036dc <alt_dma_register_to_memory_segment+0x274>
  103644:	e51b3010 	ldr	r3, [fp, #-16]
  103648:	e50b301c 	str	r3, [fp, #-28]	; 0xffffffe4
  10364c:	e3a03000 	mov	r3, #0
  103650:	e50b3010 	str	r3, [fp, #-16]
  103654:	e51b3008 	ldr	r3, [fp, #-8]
  103658:	e3530000 	cmp	r3, #0
  10365c:	1a000006 	bne	10367c <alt_dma_register_to_memory_segment+0x214>
  103660:	e51b301c 	ldr	r3, [fp, #-28]	; 0xffffffe4
  103664:	e3530001 	cmp	r3, #1
  103668:	9a000003 	bls	10367c <alt_dma_register_to_memory_segment+0x214>
  10366c:	e51b0024 	ldr	r0, [fp, #-36]	; 0xffffffdc
  103670:	e51b101c 	ldr	r1, [fp, #-28]	; 0xffffffe4
  103674:	eb0012f0 	bl	10823c <alt_dma_program_DMALP>
  103678:	e50b0008 	str	r0, [fp, #-8]
  10367c:	e51b3008 	ldr	r3, [fp, #-8]
  103680:	e3530000 	cmp	r3, #0
  103684:	1a000003 	bne	103698 <alt_dma_register_to_memory_segment+0x230>
  103688:	e51b0024 	ldr	r0, [fp, #-36]	; 0xffffffdc
  10368c:	e3a01000 	mov	r1, #0
  103690:	eb00126a 	bl	108040 <alt_dma_program_DMALD>
  103694:	e50b0008 	str	r0, [fp, #-8]
  103698:	e51b3008 	ldr	r3, [fp, #-8]
  10369c:	e3530000 	cmp	r3, #0
  1036a0:	1a000003 	bne	1036b4 <alt_dma_register_to_memory_segment+0x24c>
  1036a4:	e51b0024 	ldr	r0, [fp, #-36]	; 0xffffffdc
  1036a8:	e3a01000 	mov	r1, #0
  1036ac:	eb001500 	bl	108ab4 <alt_dma_program_DMAST>
  1036b0:	e50b0008 	str	r0, [fp, #-8]
  1036b4:	e51b3008 	ldr	r3, [fp, #-8]
  1036b8:	e3530000 	cmp	r3, #0
  1036bc:	1a000006 	bne	1036dc <alt_dma_register_to_memory_segment+0x274>
  1036c0:	e51b301c 	ldr	r3, [fp, #-28]	; 0xffffffe4
  1036c4:	e3530001 	cmp	r3, #1
  1036c8:	9a000003 	bls	1036dc <alt_dma_register_to_memory_segment+0x274>
  1036cc:	e51b0024 	ldr	r0, [fp, #-36]	; 0xffffffdc
  1036d0:	e3a01000 	mov	r1, #0
  1036d4:	eb001338 	bl	1083bc <alt_dma_program_DMALPEND>
  1036d8:	e50b0008 	str	r0, [fp, #-8]
  1036dc:	e51b300c 	ldr	r3, [fp, #-12]
  1036e0:	e3530000 	cmp	r3, #0
  1036e4:	0a00001f 	beq	103768 <alt_dma_register_to_memory_segment+0x300>
  1036e8:	e51b3008 	ldr	r3, [fp, #-8]
  1036ec:	e3530000 	cmp	r3, #0
  1036f0:	1a00000e 	bne	103730 <alt_dma_register_to_memory_segment+0x2c8>
  1036f4:	e51b300c 	ldr	r3, [fp, #-12]
  1036f8:	e2433001 	sub	r3, r3, #1
  1036fc:	e1a02203 	lsl	r2, r3, #4
  103700:	e51b3028 	ldr	r3, [fp, #-40]	; 0xffffffd8
  103704:	e1822003 	orr	r2, r2, r3
  103708:	e51b300c 	ldr	r3, [fp, #-12]
  10370c:	e2433001 	sub	r3, r3, #1
  103710:	e1a03903 	lsl	r3, r3, #18
  103714:	e1823003 	orr	r3, r2, r3
  103718:	e3833901 	orr	r3, r3, #16384	; 0x4000
  10371c:	e51b0024 	ldr	r0, [fp, #-36]	; 0xffffffdc
  103720:	e3a01001 	mov	r1, #1
  103724:	e1a02003 	mov	r2, r3
  103728:	eb0013f2 	bl	1086f8 <alt_dma_program_DMAMOV>
  10372c:	e50b0008 	str	r0, [fp, #-8]
  103730:	e51b3008 	ldr	r3, [fp, #-8]
  103734:	e3530000 	cmp	r3, #0
  103738:	1a000003 	bne	10374c <alt_dma_register_to_memory_segment+0x2e4>
  10373c:	e51b0024 	ldr	r0, [fp, #-36]	; 0xffffffdc
  103740:	e3a01000 	mov	r1, #0
  103744:	eb00123d 	bl	108040 <alt_dma_program_DMALD>
  103748:	e50b0008 	str	r0, [fp, #-8]
  10374c:	e51b3008 	ldr	r3, [fp, #-8]
  103750:	e3530000 	cmp	r3, #0
  103754:	1a000003 	bne	103768 <alt_dma_register_to_memory_segment+0x300>
  103758:	e51b0024 	ldr	r0, [fp, #-36]	; 0xffffffdc
  10375c:	e3a01000 	mov	r1, #0
  103760:	eb0014d3 	bl	108ab4 <alt_dma_program_DMAST>
  103764:	e50b0008 	str	r0, [fp, #-8]
  103768:	e51b3008 	ldr	r3, [fp, #-8]
  10376c:	e1a00003 	mov	r0, r3
  103770:	e24bd004 	sub	sp, fp, #4
  103774:	e8bd8800 	pop	{fp, pc}

00103778 <alt_dma_register_to_memory>:
  103778:	e92d4800 	push	{fp, lr}
  10377c:	e28db004 	add	fp, sp, #4
  103780:	e24dd040 	sub	sp, sp, #64	; 0x40
  103784:	e50b1034 	str	r1, [fp, #-52]	; 0xffffffcc
  103788:	e50b2038 	str	r2, [fp, #-56]	; 0xffffffc8
  10378c:	e50b303c 	str	r3, [fp, #-60]	; 0xffffffc4
  103790:	e1a03000 	mov	r3, r0
  103794:	e54b302d 	strb	r3, [fp, #-45]	; 0xffffffd3
  103798:	e59b3004 	ldr	r3, [fp, #4]
  10379c:	e3530000 	cmp	r3, #0
  1037a0:	1a000006 	bne	1037c0 <alt_dma_register_to_memory+0x48>
  1037a4:	e5db300c 	ldrb	r3, [fp, #12]
  1037a8:	e2233001 	eor	r3, r3, #1
  1037ac:	e6ef3073 	uxtb	r3, r3
  1037b0:	e3530000 	cmp	r3, #0
  1037b4:	0a000001 	beq	1037c0 <alt_dma_register_to_memory+0x48>
  1037b8:	e3a03000 	mov	r3, #0
  1037bc:	ea0000b4 	b	103a94 <alt_dma_register_to_memory+0x31c>
  1037c0:	e3a03000 	mov	r3, #0
  1037c4:	e50b3008 	str	r3, [fp, #-8]
  1037c8:	e51b3008 	ldr	r3, [fp, #-8]
  1037cc:	e3530000 	cmp	r3, #0
  1037d0:	1a000002 	bne	1037e0 <alt_dma_register_to_memory+0x68>
  1037d4:	e51b0034 	ldr	r0, [fp, #-52]	; 0xffffffcc
  1037d8:	eb000fc0 	bl	1076e0 <alt_dma_program_init>
  1037dc:	e50b0008 	str	r0, [fp, #-8]
  1037e0:	e59b3004 	ldr	r3, [fp, #4]
  1037e4:	e3530000 	cmp	r3, #0
  1037e8:	0a00008c 	beq	103a20 <alt_dma_register_to_memory+0x2a8>
  1037ec:	e3a03000 	mov	r3, #0
  1037f0:	e50b300c 	str	r3, [fp, #-12]
  1037f4:	e3a03000 	mov	r3, #0
  1037f8:	e50b3010 	str	r3, [fp, #-16]
  1037fc:	e51b3008 	ldr	r3, [fp, #-8]
  103800:	e3530000 	cmp	r3, #0
  103804:	1a000025 	bne	1038a0 <alt_dma_register_to_memory+0x128>
  103808:	e59b3008 	ldr	r3, [fp, #8]
  10380c:	e3530010 	cmp	r3, #16
  103810:	0a00000e 	beq	103850 <alt_dma_register_to_memory+0xd8>
  103814:	e3530010 	cmp	r3, #16
  103818:	8a000002 	bhi	103828 <alt_dma_register_to_memory+0xb0>
  10381c:	e3530008 	cmp	r3, #8
  103820:	0a000005 	beq	10383c <alt_dma_register_to_memory+0xc4>
  103824:	ea00001a 	b	103894 <alt_dma_register_to_memory+0x11c>
  103828:	e3530020 	cmp	r3, #32
  10382c:	0a00000c 	beq	103864 <alt_dma_register_to_memory+0xec>
  103830:	e3530040 	cmp	r3, #64	; 0x40
  103834:	0a000010 	beq	10387c <alt_dma_register_to_memory+0x104>
  103838:	ea000015 	b	103894 <alt_dma_register_to_memory+0x11c>
  10383c:	e3a03000 	mov	r3, #0
  103840:	e50b300c 	str	r3, [fp, #-12]
  103844:	e3a03000 	mov	r3, #0
  103848:	e50b3010 	str	r3, [fp, #-16]
  10384c:	ea000013 	b	1038a0 <alt_dma_register_to_memory+0x128>
  103850:	e3083002 	movw	r3, #32770	; 0x8002
  103854:	e50b300c 	str	r3, [fp, #-12]
  103858:	e3a03001 	mov	r3, #1
  10385c:	e50b3010 	str	r3, [fp, #-16]
  103860:	ea00000e 	b	1038a0 <alt_dma_register_to_memory+0x128>
  103864:	e3a03004 	mov	r3, #4
  103868:	e3403001 	movt	r3, #1
  10386c:	e50b300c 	str	r3, [fp, #-12]
  103870:	e3a03002 	mov	r3, #2
  103874:	e50b3010 	str	r3, [fp, #-16]
  103878:	ea000008 	b	1038a0 <alt_dma_register_to_memory+0x128>
  10387c:	e3083006 	movw	r3, #32774	; 0x8006
  103880:	e3403001 	movt	r3, #1
  103884:	e50b300c 	str	r3, [fp, #-12]
  103888:	e3a03003 	mov	r3, #3
  10388c:	e50b3010 	str	r3, [fp, #-16]
  103890:	ea000002 	b	1038a0 <alt_dma_register_to_memory+0x128>
  103894:	e3e03008 	mvn	r3, #8
  103898:	e50b3008 	str	r3, [fp, #-8]
  10389c:	e1a00000 	nop			; (mov r0, r0)
  1038a0:	e51b3008 	ldr	r3, [fp, #-8]
  1038a4:	e3530000 	cmp	r3, #0
  1038a8:	1a000016 	bne	103908 <alt_dma_register_to_memory+0x190>
  1038ac:	e51b3010 	ldr	r3, [fp, #-16]
  1038b0:	e3a02001 	mov	r2, #1
  1038b4:	e1a03312 	lsl	r3, r2, r3
  1038b8:	e2433001 	sub	r3, r3, #1
  1038bc:	e1a02003 	mov	r2, r3
  1038c0:	e51b3038 	ldr	r3, [fp, #-56]	; 0xffffffc8
  1038c4:	e0033002 	and	r3, r3, r2
  1038c8:	e3530000 	cmp	r3, #0
  1038cc:	0a000002 	beq	1038dc <alt_dma_register_to_memory+0x164>
  1038d0:	e3e03008 	mvn	r3, #8
  1038d4:	e50b3008 	str	r3, [fp, #-8]
  1038d8:	ea00000a 	b	103908 <alt_dma_register_to_memory+0x190>
  1038dc:	e51b3010 	ldr	r3, [fp, #-16]
  1038e0:	e3a02001 	mov	r2, #1
  1038e4:	e1a03312 	lsl	r3, r2, r3
  1038e8:	e2433001 	sub	r3, r3, #1
  1038ec:	e1a02003 	mov	r2, r3
  1038f0:	e51b303c 	ldr	r3, [fp, #-60]	; 0xffffffc4
  1038f4:	e0033002 	and	r3, r3, r2
  1038f8:	e3530000 	cmp	r3, #0
  1038fc:	0a000001 	beq	103908 <alt_dma_register_to_memory+0x190>
  103900:	e3e03008 	mvn	r3, #8
  103904:	e50b3008 	str	r3, [fp, #-8]
  103908:	e51b3008 	ldr	r3, [fp, #-8]
  10390c:	e3530000 	cmp	r3, #0
  103910:	1a000005 	bne	10392c <alt_dma_register_to_memory+0x1b4>
  103914:	e51b303c 	ldr	r3, [fp, #-60]	; 0xffffffc4
  103918:	e51b0034 	ldr	r0, [fp, #-52]	; 0xffffffcc
  10391c:	e3a01000 	mov	r1, #0
  103920:	e1a02003 	mov	r2, r3
  103924:	eb001373 	bl	1086f8 <alt_dma_program_DMAMOV>
  103928:	e50b0008 	str	r0, [fp, #-8]
  10392c:	e51b3010 	ldr	r3, [fp, #-16]
  103930:	e59b2004 	ldr	r2, [fp, #4]
  103934:	e1a03312 	lsl	r3, r2, r3
  103938:	e50b3014 	str	r3, [fp, #-20]	; 0xffffffec
  10393c:	e51b3008 	ldr	r3, [fp, #-8]
  103940:	e3530000 	cmp	r3, #0
  103944:	1a000005 	bne	103960 <alt_dma_register_to_memory+0x1e8>
  103948:	e24b3024 	sub	r3, fp, #36	; 0x24
  10394c:	e1a00003 	mov	r0, r3
  103950:	e51b1038 	ldr	r1, [fp, #-56]	; 0xffffffc8
  103954:	e51b2014 	ldr	r2, [fp, #-20]	; 0xffffffec
  103958:	ebfff998 	bl	101fc0 <alt_mmu_va_to_pa_coalesce_begin>
  10395c:	e50b0008 	str	r0, [fp, #-8]
  103960:	ea000024 	b	1039f8 <alt_dma_register_to_memory+0x280>
  103964:	e51b3008 	ldr	r3, [fp, #-8]
  103968:	e3530000 	cmp	r3, #0
  10396c:	1a000024 	bne	103a04 <alt_dma_register_to_memory+0x28c>
  103970:	e3a03000 	mov	r3, #0
  103974:	e50b3028 	str	r3, [fp, #-40]	; 0xffffffd8
  103978:	e3a03000 	mov	r3, #0
  10397c:	e50b302c 	str	r3, [fp, #-44]	; 0xffffffd4
  103980:	e51b3008 	ldr	r3, [fp, #-8]
  103984:	e3530000 	cmp	r3, #0
  103988:	1a000007 	bne	1039ac <alt_dma_register_to_memory+0x234>
  10398c:	e24b1024 	sub	r1, fp, #36	; 0x24
  103990:	e24b2028 	sub	r2, fp, #40	; 0x28
  103994:	e24b302c 	sub	r3, fp, #44	; 0x2c
  103998:	e1a00001 	mov	r0, r1
  10399c:	e1a01002 	mov	r1, r2
  1039a0:	e1a02003 	mov	r2, r3
  1039a4:	ebfff9b5 	bl	102080 <alt_mmu_va_to_pa_coalesce_next>
  1039a8:	e50b0008 	str	r0, [fp, #-8]
  1039ac:	e51b302c 	ldr	r3, [fp, #-44]	; 0xffffffd4
  1039b0:	e51b2014 	ldr	r2, [fp, #-20]	; 0xffffffec
  1039b4:	e0633002 	rsb	r3, r3, r2
  1039b8:	e50b3014 	str	r3, [fp, #-20]	; 0xffffffec
  1039bc:	e51b3008 	ldr	r3, [fp, #-8]
  1039c0:	e3530000 	cmp	r3, #0
  1039c4:	1a00000b 	bne	1039f8 <alt_dma_register_to_memory+0x280>
  1039c8:	e51bc028 	ldr	ip, [fp, #-40]	; 0xffffffd8
  1039cc:	e51b202c 	ldr	r2, [fp, #-44]	; 0xffffffd4
  1039d0:	e51b3010 	ldr	r3, [fp, #-16]
  1039d4:	e1a03332 	lsr	r3, r2, r3
  1039d8:	e55b202d 	ldrb	r2, [fp, #-45]	; 0xffffffd3
  1039dc:	e58d3000 	str	r3, [sp]
  1039e0:	e1a00002 	mov	r0, r2
  1039e4:	e51b1034 	ldr	r1, [fp, #-52]	; 0xffffffcc
  1039e8:	e51b200c 	ldr	r2, [fp, #-12]
  1039ec:	e1a0300c 	mov	r3, ip
  1039f0:	ebfffe9c 	bl	103468 <alt_dma_register_to_memory_segment>
  1039f4:	e50b0008 	str	r0, [fp, #-8]
  1039f8:	e51b3014 	ldr	r3, [fp, #-20]	; 0xffffffec
  1039fc:	e3530000 	cmp	r3, #0
  103a00:	1affffd7 	bne	103964 <alt_dma_register_to_memory+0x1ec>
  103a04:	e51b3008 	ldr	r3, [fp, #-8]
  103a08:	e3530000 	cmp	r3, #0
  103a0c:	1a000003 	bne	103a20 <alt_dma_register_to_memory+0x2a8>
  103a10:	e24b3024 	sub	r3, fp, #36	; 0x24
  103a14:	e1a00003 	mov	r0, r3
  103a18:	ebfff9f9 	bl	102204 <alt_mmu_va_to_pa_coalesce_end>
  103a1c:	e50b0008 	str	r0, [fp, #-8]
  103a20:	e5db300c 	ldrb	r3, [fp, #12]
  103a24:	e3530000 	cmp	r3, #0
  103a28:	0a000007 	beq	103a4c <alt_dma_register_to_memory+0x2d4>
  103a2c:	e51b3008 	ldr	r3, [fp, #-8]
  103a30:	e3530000 	cmp	r3, #0
  103a34:	1a000004 	bne	103a4c <alt_dma_register_to_memory+0x2d4>
  103a38:	e5db3010 	ldrb	r3, [fp, #16]
  103a3c:	e51b0034 	ldr	r0, [fp, #-52]	; 0xffffffcc
  103a40:	e1a01003 	mov	r1, r3
  103a44:	eb0013e8 	bl	1089ec <alt_dma_program_DMASEV>
  103a48:	e50b0008 	str	r0, [fp, #-8]
  103a4c:	e51b3008 	ldr	r3, [fp, #-8]
  103a50:	e3530000 	cmp	r3, #0
  103a54:	1a000002 	bne	103a64 <alt_dma_register_to_memory+0x2ec>
  103a58:	e51b0034 	ldr	r0, [fp, #-52]	; 0xffffffcc
  103a5c:	eb00109b 	bl	107cd0 <alt_dma_program_DMAEND>
  103a60:	e50b0008 	str	r0, [fp, #-8]
  103a64:	e51b3008 	ldr	r3, [fp, #-8]
  103a68:	e3530000 	cmp	r3, #0
  103a6c:	0a000003 	beq	103a80 <alt_dma_register_to_memory+0x308>
  103a70:	e51b0034 	ldr	r0, [fp, #-52]	; 0xffffffcc
  103a74:	eb000f3e 	bl	107774 <alt_dma_program_clear>
  103a78:	e51b3008 	ldr	r3, [fp, #-8]
  103a7c:	ea000004 	b	103a94 <alt_dma_register_to_memory+0x31c>
  103a80:	e55b302d 	ldrb	r3, [fp, #-45]	; 0xffffffd3
  103a84:	e1a00003 	mov	r0, r3
  103a88:	e51b1034 	ldr	r1, [fp, #-52]	; 0xffffffcc
  103a8c:	ebfff759 	bl	1017f8 <alt_dma_channel_exec>
  103a90:	e1a03000 	mov	r3, r0
  103a94:	e1a00003 	mov	r0, r3
  103a98:	e24bd004 	sub	sp, fp, #4
  103a9c:	e8bd8800 	pop	{fp, pc}

00103aa0 <alt_i2c_op_mode_get>:
  103aa0:	e52db004 	push	{fp}		; (str fp, [sp, #-4]!)
  103aa4:	e28db000 	add	fp, sp, #0
  103aa8:	e24dd014 	sub	sp, sp, #20
  103aac:	e50b0010 	str	r0, [fp, #-16]
  103ab0:	e50b1014 	str	r1, [fp, #-20]	; 0xffffffec
  103ab4:	e51b3010 	ldr	r3, [fp, #-16]
  103ab8:	e5933000 	ldr	r3, [r3]
  103abc:	e5933000 	ldr	r3, [r3]
  103ac0:	e50b3008 	str	r3, [fp, #-8]
  103ac4:	e51b3008 	ldr	r3, [fp, #-8]
  103ac8:	e2033001 	and	r3, r3, #1
  103acc:	e50b300c 	str	r3, [fp, #-12]
  103ad0:	e51b300c 	ldr	r3, [fp, #-12]
  103ad4:	e6ef2073 	uxtb	r2, r3
  103ad8:	e51b3014 	ldr	r3, [fp, #-20]	; 0xffffffec
  103adc:	e5c32000 	strb	r2, [r3]
  103ae0:	e3a03000 	mov	r3, #0
  103ae4:	e1a00003 	mov	r0, r3
  103ae8:	e24bd000 	sub	sp, fp, #0
  103aec:	e49db004 	pop	{fp}		; (ldr fp, [sp], #4)
  103af0:	e12fff1e 	bx	lr

00103af4 <alt_dma_memory_to_i2c_master_custom>:
  103af4:	e92d4800 	push	{fp, lr}
  103af8:	e28db004 	add	fp, sp, #4
  103afc:	e24dd018 	sub	sp, sp, #24
  103b00:	e50b0010 	str	r0, [fp, #-16]
  103b04:	e50b2018 	str	r2, [fp, #-24]	; 0xffffffe8
  103b08:	e50b301c 	str	r3, [fp, #-28]	; 0xffffffe4
  103b0c:	e1a03001 	mov	r3, r1
  103b10:	e54b3011 	strb	r3, [fp, #-17]	; 0xffffffef
  103b14:	e3a03000 	mov	r3, #0
  103b18:	e50b3008 	str	r3, [fp, #-8]
  103b1c:	e51b3008 	ldr	r3, [fp, #-8]
  103b20:	e3530000 	cmp	r3, #0
  103b24:	1a00000a 	bne	103b54 <alt_dma_memory_to_i2c_master_custom+0x60>
  103b28:	e5db3008 	ldrb	r3, [fp, #8]
  103b2c:	e3530000 	cmp	r3, #0
  103b30:	0a000007 	beq	103b54 <alt_dma_memory_to_i2c_master_custom+0x60>
  103b34:	e51b3018 	ldr	r3, [fp, #-24]	; 0xffffffe8
  103b38:	e5933000 	ldr	r3, [r3]
  103b3c:	e2833010 	add	r3, r3, #16
  103b40:	e51b0010 	ldr	r0, [fp, #-16]
  103b44:	e3a01002 	mov	r1, #2
  103b48:	e1a02003 	mov	r2, r3
  103b4c:	eb0012e9 	bl	1086f8 <alt_dma_program_DMAMOV>
  103b50:	e50b0008 	str	r0, [fp, #-8]
  103b54:	e51b3008 	ldr	r3, [fp, #-8]
  103b58:	e3530000 	cmp	r3, #0
  103b5c:	1a000004 	bne	103b74 <alt_dma_memory_to_i2c_master_custom+0x80>
  103b60:	e51b0010 	ldr	r0, [fp, #-16]
  103b64:	e3a01000 	mov	r1, #0
  103b68:	e51b201c 	ldr	r2, [fp, #-28]	; 0xffffffe4
  103b6c:	eb0012e1 	bl	1086f8 <alt_dma_program_DMAMOV>
  103b70:	e50b0008 	str	r0, [fp, #-8]
  103b74:	e51b3008 	ldr	r3, [fp, #-8]
  103b78:	e3530000 	cmp	r3, #0
  103b7c:	1a000008 	bne	103ba4 <alt_dma_memory_to_i2c_master_custom+0xb0>
  103b80:	e5db3008 	ldrb	r3, [fp, #8]
  103b84:	e3530000 	cmp	r3, #0
  103b88:	0a000005 	beq	103ba4 <alt_dma_memory_to_i2c_master_custom+0xb0>
  103b8c:	e51b0010 	ldr	r0, [fp, #-16]
  103b90:	e3a01001 	mov	r1, #1
  103b94:	e3a02004 	mov	r2, #4
  103b98:	e3402001 	movt	r2, #1
  103b9c:	eb0012d5 	bl	1086f8 <alt_dma_program_DMAMOV>
  103ba0:	e50b0008 	str	r0, [fp, #-8]
  103ba4:	ea00003f 	b	103ca8 <alt_dma_memory_to_i2c_master_custom+0x1b4>
  103ba8:	e51b3008 	ldr	r3, [fp, #-8]
  103bac:	e3530000 	cmp	r3, #0
  103bb0:	0a000000 	beq	103bb8 <alt_dma_memory_to_i2c_master_custom+0xc4>
  103bb4:	ea00003e 	b	103cb4 <alt_dma_memory_to_i2c_master_custom+0x1c0>
  103bb8:	e59b3004 	ldr	r3, [fp, #4]
  103bbc:	e3530c01 	cmp	r3, #256	; 0x100
  103bc0:	31a03003 	movcc	r3, r3
  103bc4:	23a03c01 	movcs	r3, #256	; 0x100
  103bc8:	e50b300c 	str	r3, [fp, #-12]
  103bcc:	e59b2004 	ldr	r2, [fp, #4]
  103bd0:	e51b300c 	ldr	r3, [fp, #-12]
  103bd4:	e0633002 	rsb	r3, r3, r2
  103bd8:	e58b3004 	str	r3, [fp, #4]
  103bdc:	e51b3008 	ldr	r3, [fp, #-8]
  103be0:	e3530000 	cmp	r3, #0
  103be4:	1a000006 	bne	103c04 <alt_dma_memory_to_i2c_master_custom+0x110>
  103be8:	e51b300c 	ldr	r3, [fp, #-12]
  103bec:	e3530001 	cmp	r3, #1
  103bf0:	9a000003 	bls	103c04 <alt_dma_memory_to_i2c_master_custom+0x110>
  103bf4:	e51b0010 	ldr	r0, [fp, #-16]
  103bf8:	e51b100c 	ldr	r1, [fp, #-12]
  103bfc:	eb00118e 	bl	10823c <alt_dma_program_DMALP>
  103c00:	e50b0008 	str	r0, [fp, #-8]
  103c04:	e51b3008 	ldr	r3, [fp, #-8]
  103c08:	e3530000 	cmp	r3, #0
  103c0c:	1a000004 	bne	103c24 <alt_dma_memory_to_i2c_master_custom+0x130>
  103c10:	e55b3011 	ldrb	r3, [fp, #-17]	; 0xffffffef
  103c14:	e51b0010 	ldr	r0, [fp, #-16]
  103c18:	e1a01003 	mov	r1, r3
  103c1c:	eb001053 	bl	107d70 <alt_dma_program_DMAFLUSHP>
  103c20:	e50b0008 	str	r0, [fp, #-8]
  103c24:	e51b3008 	ldr	r3, [fp, #-8]
  103c28:	e3530000 	cmp	r3, #0
  103c2c:	1a000005 	bne	103c48 <alt_dma_memory_to_i2c_master_custom+0x154>
  103c30:	e55b3011 	ldrb	r3, [fp, #-17]	; 0xffffffef
  103c34:	e51b0010 	ldr	r0, [fp, #-16]
  103c38:	e1a01003 	mov	r1, r3
  103c3c:	e3a02001 	mov	r2, #1
  103c40:	eb00147c 	bl	108e38 <alt_dma_program_DMAWFP>
  103c44:	e50b0008 	str	r0, [fp, #-8]
  103c48:	e51b3008 	ldr	r3, [fp, #-8]
  103c4c:	e3530000 	cmp	r3, #0
  103c50:	1a000003 	bne	103c64 <alt_dma_memory_to_i2c_master_custom+0x170>
  103c54:	e51b0010 	ldr	r0, [fp, #-16]
  103c58:	e3a01001 	mov	r1, #1
  103c5c:	eb0010f7 	bl	108040 <alt_dma_program_DMALD>
  103c60:	e50b0008 	str	r0, [fp, #-8]
  103c64:	e51b3008 	ldr	r3, [fp, #-8]
  103c68:	e3530000 	cmp	r3, #0
  103c6c:	1a000003 	bne	103c80 <alt_dma_memory_to_i2c_master_custom+0x18c>
  103c70:	e51b0010 	ldr	r0, [fp, #-16]
  103c74:	e3a01001 	mov	r1, #1
  103c78:	eb00138d 	bl	108ab4 <alt_dma_program_DMAST>
  103c7c:	e50b0008 	str	r0, [fp, #-8]
  103c80:	e51b3008 	ldr	r3, [fp, #-8]
  103c84:	e3530000 	cmp	r3, #0
  103c88:	1a000006 	bne	103ca8 <alt_dma_memory_to_i2c_master_custom+0x1b4>
  103c8c:	e51b300c 	ldr	r3, [fp, #-12]
  103c90:	e3530001 	cmp	r3, #1
  103c94:	9a000003 	bls	103ca8 <alt_dma_memory_to_i2c_master_custom+0x1b4>
  103c98:	e51b0010 	ldr	r0, [fp, #-16]
  103c9c:	e3a01000 	mov	r1, #0
  103ca0:	eb0011c5 	bl	1083bc <alt_dma_program_DMALPEND>
  103ca4:	e50b0008 	str	r0, [fp, #-8]
  103ca8:	e59b3004 	ldr	r3, [fp, #4]
  103cac:	e3530000 	cmp	r3, #0
  103cb0:	1affffbc 	bne	103ba8 <alt_dma_memory_to_i2c_master_custom+0xb4>
  103cb4:	e51b3008 	ldr	r3, [fp, #-8]
  103cb8:	e1a00003 	mov	r0, r3
  103cbc:	e24bd004 	sub	sp, fp, #4
  103cc0:	e8bd8800 	pop	{fp, pc}

00103cc4 <alt_dma_memory_to_i2c_common_segment>:
  103cc4:	e92d4800 	push	{fp, lr}
  103cc8:	e28db004 	add	fp, sp, #4
  103ccc:	e24dd038 	sub	sp, sp, #56	; 0x38
  103cd0:	e50b0030 	str	r0, [fp, #-48]	; 0xffffffd0
  103cd4:	e50b3038 	str	r3, [fp, #-56]	; 0xffffffc8
  103cd8:	e1a03001 	mov	r3, r1
  103cdc:	e54b3031 	strb	r3, [fp, #-49]	; 0xffffffcf
  103ce0:	e1a03002 	mov	r3, r2
  103ce4:	e54b3032 	strb	r3, [fp, #-50]	; 0xffffffce
  103ce8:	e3a03000 	mov	r3, #0
  103cec:	e50b3008 	str	r3, [fp, #-8]
  103cf0:	e3a03000 	mov	r3, #0
  103cf4:	e50b300c 	str	r3, [fp, #-12]
  103cf8:	e3a03000 	mov	r3, #0
  103cfc:	e50b3010 	str	r3, [fp, #-16]
  103d00:	e3a03000 	mov	r3, #0
  103d04:	e50b3014 	str	r3, [fp, #-20]	; 0xffffffec
  103d08:	e51b3008 	ldr	r3, [fp, #-8]
  103d0c:	e3530000 	cmp	r3, #0
  103d10:	1a000018 	bne	103d78 <alt_dma_memory_to_i2c_common_segment+0xb4>
  103d14:	e59b3004 	ldr	r3, [fp, #4]
  103d18:	e50b3018 	str	r3, [fp, #-24]	; 0xffffffe8
  103d1c:	e55b3032 	ldrb	r3, [fp, #-50]	; 0xffffffce
  103d20:	e3530001 	cmp	r3, #1
  103d24:	9a000011 	bls	103d70 <alt_dma_memory_to_i2c_common_segment+0xac>
  103d28:	e55b3032 	ldrb	r3, [fp, #-50]	; 0xffffffce
  103d2c:	e3530010 	cmp	r3, #16
  103d30:	9a000001 	bls	103d3c <alt_dma_memory_to_i2c_common_segment+0x78>
  103d34:	e3a03010 	mov	r3, #16
  103d38:	e54b3032 	strb	r3, [fp, #-50]	; 0xffffffce
  103d3c:	e55b3032 	ldrb	r3, [fp, #-50]	; 0xffffffce
  103d40:	e50b300c 	str	r3, [fp, #-12]
  103d44:	e51b2018 	ldr	r2, [fp, #-24]	; 0xffffffe8
  103d48:	e51b300c 	ldr	r3, [fp, #-12]
  103d4c:	e24b102c 	sub	r1, fp, #44	; 0x2c
  103d50:	e1a00001 	mov	r0, r1
  103d54:	e1a01002 	mov	r1, r2
  103d58:	e1a02003 	mov	r2, r3
  103d5c:	eb0014a0 	bl	108fe4 <ldiv>
  103d60:	e51b302c 	ldr	r3, [fp, #-44]	; 0xffffffd4
  103d64:	e50b3010 	str	r3, [fp, #-16]
  103d68:	e51b3028 	ldr	r3, [fp, #-40]	; 0xffffffd8
  103d6c:	e50b3018 	str	r3, [fp, #-24]	; 0xffffffe8
  103d70:	e51b3018 	ldr	r3, [fp, #-24]	; 0xffffffe8
  103d74:	e50b3014 	str	r3, [fp, #-20]	; 0xffffffec
  103d78:	e51b3008 	ldr	r3, [fp, #-8]
  103d7c:	e3530000 	cmp	r3, #0
  103d80:	1a000004 	bne	103d98 <alt_dma_memory_to_i2c_common_segment+0xd4>
  103d84:	e51b0030 	ldr	r0, [fp, #-48]	; 0xffffffd0
  103d88:	e3a01000 	mov	r1, #0
  103d8c:	e51b2038 	ldr	r2, [fp, #-56]	; 0xffffffc8
  103d90:	eb001258 	bl	1086f8 <alt_dma_program_DMAMOV>
  103d94:	e50b0008 	str	r0, [fp, #-8]
  103d98:	e51b3010 	ldr	r3, [fp, #-16]
  103d9c:	e3530000 	cmp	r3, #0
  103da0:	0a000059 	beq	103f0c <alt_dma_memory_to_i2c_common_segment+0x248>
  103da4:	e51b3008 	ldr	r3, [fp, #-8]
  103da8:	e3530000 	cmp	r3, #0
  103dac:	1a000008 	bne	103dd4 <alt_dma_memory_to_i2c_common_segment+0x110>
  103db0:	e51b300c 	ldr	r3, [fp, #-12]
  103db4:	e2433001 	sub	r3, r3, #1
  103db8:	e1a03203 	lsl	r3, r3, #4
  103dbc:	e3833001 	orr	r3, r3, #1
  103dc0:	e51b0030 	ldr	r0, [fp, #-48]	; 0xffffffd0
  103dc4:	e3a01001 	mov	r1, #1
  103dc8:	e1a02003 	mov	r2, r3
  103dcc:	eb001249 	bl	1086f8 <alt_dma_program_DMAMOV>
  103dd0:	e50b0008 	str	r0, [fp, #-8]
  103dd4:	ea000049 	b	103f00 <alt_dma_memory_to_i2c_common_segment+0x23c>
  103dd8:	e51b3008 	ldr	r3, [fp, #-8]
  103ddc:	e3530000 	cmp	r3, #0
  103de0:	0a000000 	beq	103de8 <alt_dma_memory_to_i2c_common_segment+0x124>
  103de4:	ea000048 	b	103f0c <alt_dma_memory_to_i2c_common_segment+0x248>
  103de8:	e51b3010 	ldr	r3, [fp, #-16]
  103dec:	e3530c01 	cmp	r3, #256	; 0x100
  103df0:	31a03003 	movcc	r3, r3
  103df4:	23a03c01 	movcs	r3, #256	; 0x100
  103df8:	e50b3020 	str	r3, [fp, #-32]	; 0xffffffe0
  103dfc:	e51b2010 	ldr	r2, [fp, #-16]
  103e00:	e51b3020 	ldr	r3, [fp, #-32]	; 0xffffffe0
  103e04:	e0633002 	rsb	r3, r3, r2
  103e08:	e50b3010 	str	r3, [fp, #-16]
  103e0c:	e51b3008 	ldr	r3, [fp, #-8]
  103e10:	e3530000 	cmp	r3, #0
  103e14:	1a000006 	bne	103e34 <alt_dma_memory_to_i2c_common_segment+0x170>
  103e18:	e51b3020 	ldr	r3, [fp, #-32]	; 0xffffffe0
  103e1c:	e3530001 	cmp	r3, #1
  103e20:	9a000003 	bls	103e34 <alt_dma_memory_to_i2c_common_segment+0x170>
  103e24:	e51b0030 	ldr	r0, [fp, #-48]	; 0xffffffd0
  103e28:	e51b1020 	ldr	r1, [fp, #-32]	; 0xffffffe0
  103e2c:	eb001102 	bl	10823c <alt_dma_program_DMALP>
  103e30:	e50b0008 	str	r0, [fp, #-8]
  103e34:	e51b3008 	ldr	r3, [fp, #-8]
  103e38:	e3530000 	cmp	r3, #0
  103e3c:	1a000004 	bne	103e54 <alt_dma_memory_to_i2c_common_segment+0x190>
  103e40:	e55b3031 	ldrb	r3, [fp, #-49]	; 0xffffffcf
  103e44:	e51b0030 	ldr	r0, [fp, #-48]	; 0xffffffd0
  103e48:	e1a01003 	mov	r1, r3
  103e4c:	eb000fc7 	bl	107d70 <alt_dma_program_DMAFLUSHP>
  103e50:	e50b0008 	str	r0, [fp, #-8]
  103e54:	e51b3008 	ldr	r3, [fp, #-8]
  103e58:	e3530000 	cmp	r3, #0
  103e5c:	1a000005 	bne	103e78 <alt_dma_memory_to_i2c_common_segment+0x1b4>
  103e60:	e55b3031 	ldrb	r3, [fp, #-49]	; 0xffffffcf
  103e64:	e51b0030 	ldr	r0, [fp, #-48]	; 0xffffffd0
  103e68:	e1a01003 	mov	r1, r3
  103e6c:	e3a02002 	mov	r2, #2
  103e70:	eb0013f0 	bl	108e38 <alt_dma_program_DMAWFP>
  103e74:	e50b0008 	str	r0, [fp, #-8]
  103e78:	e51b3008 	ldr	r3, [fp, #-8]
  103e7c:	e3530000 	cmp	r3, #0
  103e80:	1a000003 	bne	103e94 <alt_dma_memory_to_i2c_common_segment+0x1d0>
  103e84:	e51b0030 	ldr	r0, [fp, #-48]	; 0xffffffd0
  103e88:	e3a01002 	mov	r1, #2
  103e8c:	eb00106b 	bl	108040 <alt_dma_program_DMALD>
  103e90:	e50b0008 	str	r0, [fp, #-8]
  103e94:	e3a03000 	mov	r3, #0
  103e98:	e50b301c 	str	r3, [fp, #-28]	; 0xffffffe4
  103e9c:	ea000009 	b	103ec8 <alt_dma_memory_to_i2c_common_segment+0x204>
  103ea0:	e51b3008 	ldr	r3, [fp, #-8]
  103ea4:	e3530000 	cmp	r3, #0
  103ea8:	1a000003 	bne	103ebc <alt_dma_memory_to_i2c_common_segment+0x1f8>
  103eac:	e51b0030 	ldr	r0, [fp, #-48]	; 0xffffffd0
  103eb0:	e3a01002 	mov	r1, #2
  103eb4:	eb0012fe 	bl	108ab4 <alt_dma_program_DMAST>
  103eb8:	e50b0008 	str	r0, [fp, #-8]
  103ebc:	e51b301c 	ldr	r3, [fp, #-28]	; 0xffffffe4
  103ec0:	e2833001 	add	r3, r3, #1
  103ec4:	e50b301c 	str	r3, [fp, #-28]	; 0xffffffe4
  103ec8:	e51b201c 	ldr	r2, [fp, #-28]	; 0xffffffe4
  103ecc:	e51b300c 	ldr	r3, [fp, #-12]
  103ed0:	e1520003 	cmp	r2, r3
  103ed4:	3afffff1 	bcc	103ea0 <alt_dma_memory_to_i2c_common_segment+0x1dc>
  103ed8:	e51b3008 	ldr	r3, [fp, #-8]
  103edc:	e3530000 	cmp	r3, #0
  103ee0:	1a000006 	bne	103f00 <alt_dma_memory_to_i2c_common_segment+0x23c>
  103ee4:	e51b3020 	ldr	r3, [fp, #-32]	; 0xffffffe0
  103ee8:	e3530001 	cmp	r3, #1
  103eec:	9a000003 	bls	103f00 <alt_dma_memory_to_i2c_common_segment+0x23c>
  103ef0:	e51b0030 	ldr	r0, [fp, #-48]	; 0xffffffd0
  103ef4:	e3a01000 	mov	r1, #0
  103ef8:	eb00112f 	bl	1083bc <alt_dma_program_DMALPEND>
  103efc:	e50b0008 	str	r0, [fp, #-8]
  103f00:	e51b3010 	ldr	r3, [fp, #-16]
  103f04:	e3530000 	cmp	r3, #0
  103f08:	1affffb2 	bne	103dd8 <alt_dma_memory_to_i2c_common_segment+0x114>
  103f0c:	e51b3014 	ldr	r3, [fp, #-20]	; 0xffffffec
  103f10:	e3530000 	cmp	r3, #0
  103f14:	0a00004b 	beq	104048 <alt_dma_memory_to_i2c_common_segment+0x384>
  103f18:	e51b3008 	ldr	r3, [fp, #-8]
  103f1c:	e3530000 	cmp	r3, #0
  103f20:	1a000004 	bne	103f38 <alt_dma_memory_to_i2c_common_segment+0x274>
  103f24:	e51b0030 	ldr	r0, [fp, #-48]	; 0xffffffd0
  103f28:	e3a01001 	mov	r1, #1
  103f2c:	e3a02001 	mov	r2, #1
  103f30:	eb0011f0 	bl	1086f8 <alt_dma_program_DMAMOV>
  103f34:	e50b0008 	str	r0, [fp, #-8]
  103f38:	ea00003f 	b	10403c <alt_dma_memory_to_i2c_common_segment+0x378>
  103f3c:	e51b3008 	ldr	r3, [fp, #-8]
  103f40:	e3530000 	cmp	r3, #0
  103f44:	0a000000 	beq	103f4c <alt_dma_memory_to_i2c_common_segment+0x288>
  103f48:	ea00003e 	b	104048 <alt_dma_memory_to_i2c_common_segment+0x384>
  103f4c:	e51b3014 	ldr	r3, [fp, #-20]	; 0xffffffec
  103f50:	e3530c01 	cmp	r3, #256	; 0x100
  103f54:	31a03003 	movcc	r3, r3
  103f58:	23a03c01 	movcs	r3, #256	; 0x100
  103f5c:	e50b3024 	str	r3, [fp, #-36]	; 0xffffffdc
  103f60:	e51b2014 	ldr	r2, [fp, #-20]	; 0xffffffec
  103f64:	e51b3024 	ldr	r3, [fp, #-36]	; 0xffffffdc
  103f68:	e0633002 	rsb	r3, r3, r2
  103f6c:	e50b3014 	str	r3, [fp, #-20]	; 0xffffffec
  103f70:	e51b3008 	ldr	r3, [fp, #-8]
  103f74:	e3530000 	cmp	r3, #0
  103f78:	1a000006 	bne	103f98 <alt_dma_memory_to_i2c_common_segment+0x2d4>
  103f7c:	e51b3024 	ldr	r3, [fp, #-36]	; 0xffffffdc
  103f80:	e3530001 	cmp	r3, #1
  103f84:	9a000003 	bls	103f98 <alt_dma_memory_to_i2c_common_segment+0x2d4>
  103f88:	e51b0030 	ldr	r0, [fp, #-48]	; 0xffffffd0
  103f8c:	e51b1024 	ldr	r1, [fp, #-36]	; 0xffffffdc
  103f90:	eb0010a9 	bl	10823c <alt_dma_program_DMALP>
  103f94:	e50b0008 	str	r0, [fp, #-8]
  103f98:	e51b3008 	ldr	r3, [fp, #-8]
  103f9c:	e3530000 	cmp	r3, #0
  103fa0:	1a000004 	bne	103fb8 <alt_dma_memory_to_i2c_common_segment+0x2f4>
  103fa4:	e55b3031 	ldrb	r3, [fp, #-49]	; 0xffffffcf
  103fa8:	e51b0030 	ldr	r0, [fp, #-48]	; 0xffffffd0
  103fac:	e1a01003 	mov	r1, r3
  103fb0:	eb000f6e 	bl	107d70 <alt_dma_program_DMAFLUSHP>
  103fb4:	e50b0008 	str	r0, [fp, #-8]
  103fb8:	e51b3008 	ldr	r3, [fp, #-8]
  103fbc:	e3530000 	cmp	r3, #0
  103fc0:	1a000005 	bne	103fdc <alt_dma_memory_to_i2c_common_segment+0x318>
  103fc4:	e55b3031 	ldrb	r3, [fp, #-49]	; 0xffffffcf
  103fc8:	e51b0030 	ldr	r0, [fp, #-48]	; 0xffffffd0
  103fcc:	e1a01003 	mov	r1, r3
  103fd0:	e3a02001 	mov	r2, #1
  103fd4:	eb001397 	bl	108e38 <alt_dma_program_DMAWFP>
  103fd8:	e50b0008 	str	r0, [fp, #-8]
  103fdc:	e51b3008 	ldr	r3, [fp, #-8]
  103fe0:	e3530000 	cmp	r3, #0
  103fe4:	1a000003 	bne	103ff8 <alt_dma_memory_to_i2c_common_segment+0x334>
  103fe8:	e51b0030 	ldr	r0, [fp, #-48]	; 0xffffffd0
  103fec:	e3a01001 	mov	r1, #1
  103ff0:	eb001012 	bl	108040 <alt_dma_program_DMALD>
  103ff4:	e50b0008 	str	r0, [fp, #-8]
  103ff8:	e51b3008 	ldr	r3, [fp, #-8]
  103ffc:	e3530000 	cmp	r3, #0
  104000:	1a000003 	bne	104014 <alt_dma_memory_to_i2c_common_segment+0x350>
  104004:	e51b0030 	ldr	r0, [fp, #-48]	; 0xffffffd0
  104008:	e3a01001 	mov	r1, #1
  10400c:	eb0012a8 	bl	108ab4 <alt_dma_program_DMAST>
  104010:	e50b0008 	str	r0, [fp, #-8]
  104014:	e51b3008 	ldr	r3, [fp, #-8]
  104018:	e3530000 	cmp	r3, #0
  10401c:	1a000006 	bne	10403c <alt_dma_memory_to_i2c_common_segment+0x378>
  104020:	e51b3024 	ldr	r3, [fp, #-36]	; 0xffffffdc
  104024:	e3530001 	cmp	r3, #1
  104028:	9a000003 	bls	10403c <alt_dma_memory_to_i2c_common_segment+0x378>
  10402c:	e51b0030 	ldr	r0, [fp, #-48]	; 0xffffffd0
  104030:	e3a01000 	mov	r1, #0
  104034:	eb0010e0 	bl	1083bc <alt_dma_program_DMALPEND>
  104038:	e50b0008 	str	r0, [fp, #-8]
  10403c:	e51b3014 	ldr	r3, [fp, #-20]	; 0xffffffec
  104040:	e3530000 	cmp	r3, #0
  104044:	1affffbc 	bne	103f3c <alt_dma_memory_to_i2c_common_segment+0x278>
  104048:	e51b3008 	ldr	r3, [fp, #-8]
  10404c:	e1a00003 	mov	r0, r3
  104050:	e24bd004 	sub	sp, fp, #4
  104054:	e8bd8800 	pop	{fp, pc}

00104058 <alt_dma_memory_to_i2c_common>:
  104058:	e92d4800 	push	{fp, lr}
  10405c:	e28db004 	add	fp, sp, #4
  104060:	e24dd038 	sub	sp, sp, #56	; 0x38
  104064:	e50b0028 	str	r0, [fp, #-40]	; 0xffffffd8
  104068:	e50b2030 	str	r2, [fp, #-48]	; 0xffffffd0
  10406c:	e50b3034 	str	r3, [fp, #-52]	; 0xffffffcc
  104070:	e1a03001 	mov	r3, r1
  104074:	e54b3029 	strb	r3, [fp, #-41]	; 0xffffffd7
  104078:	e3a03000 	mov	r3, #0
  10407c:	e50b3008 	str	r3, [fp, #-8]
  104080:	e51b3030 	ldr	r3, [fp, #-48]	; 0xffffffd0
  104084:	e5933000 	ldr	r3, [r3]
  104088:	e5933000 	ldr	r3, [r3]
  10408c:	e283303c 	add	r3, r3, #60	; 0x3c
  104090:	e5933000 	ldr	r3, [r3]
  104094:	e6ef3073 	uxtb	r3, r3
  104098:	e2833001 	add	r3, r3, #1
  10409c:	e54b3009 	strb	r3, [fp, #-9]
  1040a0:	e51b3008 	ldr	r3, [fp, #-8]
  1040a4:	e3530000 	cmp	r3, #0
  1040a8:	1a000008 	bne	1040d0 <alt_dma_memory_to_i2c_common+0x78>
  1040ac:	e51b3030 	ldr	r3, [fp, #-48]	; 0xffffffd0
  1040b0:	e5933000 	ldr	r3, [r3]
  1040b4:	e5933000 	ldr	r3, [r3]
  1040b8:	e2833010 	add	r3, r3, #16
  1040bc:	e51b0028 	ldr	r0, [fp, #-40]	; 0xffffffd8
  1040c0:	e3a01002 	mov	r1, #2
  1040c4:	e1a02003 	mov	r2, r3
  1040c8:	eb00118a 	bl	1086f8 <alt_dma_program_DMAMOV>
  1040cc:	e50b0008 	str	r0, [fp, #-8]
  1040d0:	e51b3008 	ldr	r3, [fp, #-8]
  1040d4:	e3530000 	cmp	r3, #0
  1040d8:	1a000005 	bne	1040f4 <alt_dma_memory_to_i2c_common+0x9c>
  1040dc:	e24b301c 	sub	r3, fp, #28
  1040e0:	e1a00003 	mov	r0, r3
  1040e4:	e51b1034 	ldr	r1, [fp, #-52]	; 0xffffffcc
  1040e8:	e59b2004 	ldr	r2, [fp, #4]
  1040ec:	ebfff7b3 	bl	101fc0 <alt_mmu_va_to_pa_coalesce_begin>
  1040f0:	e50b0008 	str	r0, [fp, #-8]
  1040f4:	ea000021 	b	104180 <alt_dma_memory_to_i2c_common+0x128>
  1040f8:	e51b3008 	ldr	r3, [fp, #-8]
  1040fc:	e3530000 	cmp	r3, #0
  104100:	1a000021 	bne	10418c <alt_dma_memory_to_i2c_common+0x134>
  104104:	e3a03000 	mov	r3, #0
  104108:	e50b3020 	str	r3, [fp, #-32]	; 0xffffffe0
  10410c:	e3a03000 	mov	r3, #0
  104110:	e50b3024 	str	r3, [fp, #-36]	; 0xffffffdc
  104114:	e51b3008 	ldr	r3, [fp, #-8]
  104118:	e3530000 	cmp	r3, #0
  10411c:	1a000007 	bne	104140 <alt_dma_memory_to_i2c_common+0xe8>
  104120:	e24b101c 	sub	r1, fp, #28
  104124:	e24b2020 	sub	r2, fp, #32
  104128:	e24b3024 	sub	r3, fp, #36	; 0x24
  10412c:	e1a00001 	mov	r0, r1
  104130:	e1a01002 	mov	r1, r2
  104134:	e1a02003 	mov	r2, r3
  104138:	ebfff7d0 	bl	102080 <alt_mmu_va_to_pa_coalesce_next>
  10413c:	e50b0008 	str	r0, [fp, #-8]
  104140:	e51b3024 	ldr	r3, [fp, #-36]	; 0xffffffdc
  104144:	e59b2004 	ldr	r2, [fp, #4]
  104148:	e0633002 	rsb	r3, r3, r2
  10414c:	e58b3004 	str	r3, [fp, #4]
  104150:	e51b3008 	ldr	r3, [fp, #-8]
  104154:	e3530000 	cmp	r3, #0
  104158:	1a000008 	bne	104180 <alt_dma_memory_to_i2c_common+0x128>
  10415c:	e51bc020 	ldr	ip, [fp, #-32]	; 0xffffffe0
  104160:	e51b3024 	ldr	r3, [fp, #-36]	; 0xffffffdc
  104164:	e55b1029 	ldrb	r1, [fp, #-41]	; 0xffffffd7
  104168:	e55b2009 	ldrb	r2, [fp, #-9]
  10416c:	e58d3000 	str	r3, [sp]
  104170:	e51b0028 	ldr	r0, [fp, #-40]	; 0xffffffd8
  104174:	e1a0300c 	mov	r3, ip
  104178:	ebfffed1 	bl	103cc4 <alt_dma_memory_to_i2c_common_segment>
  10417c:	e50b0008 	str	r0, [fp, #-8]
  104180:	e59b3004 	ldr	r3, [fp, #4]
  104184:	e3530000 	cmp	r3, #0
  104188:	1affffda 	bne	1040f8 <alt_dma_memory_to_i2c_common+0xa0>
  10418c:	e51b3008 	ldr	r3, [fp, #-8]
  104190:	e3530000 	cmp	r3, #0
  104194:	1a000003 	bne	1041a8 <alt_dma_memory_to_i2c_common+0x150>
  104198:	e24b301c 	sub	r3, fp, #28
  10419c:	e1a00003 	mov	r0, r3
  1041a0:	ebfff817 	bl	102204 <alt_mmu_va_to_pa_coalesce_end>
  1041a4:	e50b0008 	str	r0, [fp, #-8]
  1041a8:	e51b3008 	ldr	r3, [fp, #-8]
  1041ac:	e1a00003 	mov	r0, r3
  1041b0:	e24bd004 	sub	sp, fp, #4
  1041b4:	e8bd8800 	pop	{fp, pc}

001041b8 <alt_dma_memory_to_i2c_master>:
  1041b8:	e92d4800 	push	{fp, lr}
  1041bc:	e28db004 	add	fp, sp, #4
  1041c0:	e24dd038 	sub	sp, sp, #56	; 0x38
  1041c4:	e50b0028 	str	r0, [fp, #-40]	; 0xffffffd8
  1041c8:	e50b2030 	str	r2, [fp, #-48]	; 0xffffffd0
  1041cc:	e50b3034 	str	r3, [fp, #-52]	; 0xffffffcc
  1041d0:	e1a03001 	mov	r3, r1
  1041d4:	e54b3029 	strb	r3, [fp, #-41]	; 0xffffffd7
  1041d8:	e3a03000 	mov	r3, #0
  1041dc:	e50b3008 	str	r3, [fp, #-8]
  1041e0:	e51b3008 	ldr	r3, [fp, #-8]
  1041e4:	e3530000 	cmp	r3, #0
  1041e8:	1a000010 	bne	104230 <alt_dma_memory_to_i2c_master+0x78>
  1041ec:	e51b3030 	ldr	r3, [fp, #-48]	; 0xffffffd0
  1041f0:	e2831008 	add	r1, r3, #8
  1041f4:	e24b2020 	sub	r2, fp, #32
  1041f8:	e24b301c 	sub	r3, fp, #28
  1041fc:	e1a00001 	mov	r0, r1
  104200:	e1a01002 	mov	r1, r2
  104204:	e1a02003 	mov	r2, r3
  104208:	ebfff400 	bl	101210 <alt_mmu_va_to_pa>
  10420c:	e50b000c 	str	r0, [fp, #-12]
  104210:	e51b301c 	ldr	r3, [fp, #-28]	; 0xffffffe4
  104214:	e3530000 	cmp	r3, #0
  104218:	0a000004 	beq	104230 <alt_dma_memory_to_i2c_master+0x78>
  10421c:	e3020884 	movw	r0, #10372	; 0x2884
  104220:	e3400011 	movt	r0, #17
  104224:	eb0013f1 	bl	1091f0 <puts>
  104228:	e3e03000 	mvn	r3, #0
  10422c:	e50b3008 	str	r3, [fp, #-8]
  104230:	e59b3004 	ldr	r3, [fp, #4]
  104234:	e3530001 	cmp	r3, #1
  104238:	1a000020 	bne	1042c0 <alt_dma_memory_to_i2c_master+0x108>
  10423c:	e51b3034 	ldr	r3, [fp, #-52]	; 0xffffffcc
  104240:	e5d33000 	ldrb	r3, [r3]
  104244:	e1a02003 	mov	r2, r3
  104248:	e51b3030 	ldr	r3, [fp, #-48]	; 0xffffffd0
  10424c:	e5d33004 	ldrb	r3, [r3, #4]
  104250:	e1a03503 	lsl	r3, r3, #10
  104254:	e2033b01 	and	r3, r3, #1024	; 0x400
  104258:	e1822003 	orr	r2, r2, r3
  10425c:	e51b3030 	ldr	r3, [fp, #-48]	; 0xffffffd0
  104260:	e5d33005 	ldrb	r3, [r3, #5]
  104264:	e1a03483 	lsl	r3, r3, #9
  104268:	e2033c02 	and	r3, r3, #512	; 0x200
  10426c:	e1823003 	orr	r3, r2, r3
  104270:	e1a02003 	mov	r2, r3
  104274:	e51b3030 	ldr	r3, [fp, #-48]	; 0xffffffd0
  104278:	e5832014 	str	r2, [r3, #20]
  10427c:	e51b3008 	ldr	r3, [fp, #-8]
  104280:	e3530000 	cmp	r3, #0
  104284:	1a000065 	bne	104420 <alt_dma_memory_to_i2c_master+0x268>
  104288:	e51b3030 	ldr	r3, [fp, #-48]	; 0xffffffd0
  10428c:	e5932000 	ldr	r2, [r3]
  104290:	e51b300c 	ldr	r3, [fp, #-12]
  104294:	e283c00c 	add	ip, r3, #12
  104298:	e55b1029 	ldrb	r1, [fp, #-41]	; 0xffffffd7
  10429c:	e3a03001 	mov	r3, #1
  1042a0:	e58d3000 	str	r3, [sp]
  1042a4:	e3a03001 	mov	r3, #1
  1042a8:	e58d3004 	str	r3, [sp, #4]
  1042ac:	e51b0028 	ldr	r0, [fp, #-40]	; 0xffffffd8
  1042b0:	e1a0300c 	mov	r3, ip
  1042b4:	ebfffe0e 	bl	103af4 <alt_dma_memory_to_i2c_master_custom>
  1042b8:	e50b0008 	str	r0, [fp, #-8]
  1042bc:	ea000057 	b	104420 <alt_dma_memory_to_i2c_master+0x268>
  1042c0:	e51b3030 	ldr	r3, [fp, #-48]	; 0xffffffd0
  1042c4:	e5d33005 	ldrb	r3, [r3, #5]
  1042c8:	e3530000 	cmp	r3, #0
  1042cc:	0a00000b 	beq	104300 <alt_dma_memory_to_i2c_master+0x148>
  1042d0:	e59b3004 	ldr	r3, [fp, #4]
  1042d4:	e2433001 	sub	r3, r3, #1
  1042d8:	e51b2034 	ldr	r2, [fp, #-52]	; 0xffffffcc
  1042dc:	e0823003 	add	r3, r2, r3
  1042e0:	e5d33000 	ldrb	r3, [r3]
  1042e4:	e3833c02 	orr	r3, r3, #512	; 0x200
  1042e8:	e1a02003 	mov	r2, r3
  1042ec:	e51b3030 	ldr	r3, [fp, #-48]	; 0xffffffd0
  1042f0:	e5832010 	str	r2, [r3, #16]
  1042f4:	e59b3004 	ldr	r3, [fp, #4]
  1042f8:	e2433001 	sub	r3, r3, #1
  1042fc:	e58b3004 	str	r3, [fp, #4]
  104300:	e51b3030 	ldr	r3, [fp, #-48]	; 0xffffffd0
  104304:	e5d33004 	ldrb	r3, [r3, #4]
  104308:	e3530000 	cmp	r3, #0
  10430c:	0a00001b 	beq	104380 <alt_dma_memory_to_i2c_master+0x1c8>
  104310:	e51b3034 	ldr	r3, [fp, #-52]	; 0xffffffcc
  104314:	e5d33000 	ldrb	r3, [r3]
  104318:	e3833b01 	orr	r3, r3, #1024	; 0x400
  10431c:	e1a02003 	mov	r2, r3
  104320:	e51b3030 	ldr	r3, [fp, #-48]	; 0xffffffd0
  104324:	e583200c 	str	r2, [r3, #12]
  104328:	e59b3004 	ldr	r3, [fp, #4]
  10432c:	e2433001 	sub	r3, r3, #1
  104330:	e58b3004 	str	r3, [fp, #4]
  104334:	e51b3008 	ldr	r3, [fp, #-8]
  104338:	e3530000 	cmp	r3, #0
  10433c:	1a00000f 	bne	104380 <alt_dma_memory_to_i2c_master+0x1c8>
  104340:	e51b3030 	ldr	r3, [fp, #-48]	; 0xffffffd0
  104344:	e5932000 	ldr	r2, [r3]
  104348:	e51b300c 	ldr	r3, [fp, #-12]
  10434c:	e283c004 	add	ip, r3, #4
  104350:	e55b1029 	ldrb	r1, [fp, #-41]	; 0xffffffd7
  104354:	e3a03001 	mov	r3, #1
  104358:	e58d3000 	str	r3, [sp]
  10435c:	e3a03001 	mov	r3, #1
  104360:	e58d3004 	str	r3, [sp, #4]
  104364:	e51b0028 	ldr	r0, [fp, #-40]	; 0xffffffd8
  104368:	e1a0300c 	mov	r3, ip
  10436c:	ebfffde0 	bl	103af4 <alt_dma_memory_to_i2c_master_custom>
  104370:	e50b0008 	str	r0, [fp, #-8]
  104374:	e51b3034 	ldr	r3, [fp, #-52]	; 0xffffffcc
  104378:	e2833001 	add	r3, r3, #1
  10437c:	e50b3034 	str	r3, [fp, #-52]	; 0xffffffcc
  104380:	e51b3008 	ldr	r3, [fp, #-8]
  104384:	e3530000 	cmp	r3, #0
  104388:	1a00000b 	bne	1043bc <alt_dma_memory_to_i2c_master+0x204>
  10438c:	e59b3004 	ldr	r3, [fp, #4]
  104390:	e3530000 	cmp	r3, #0
  104394:	0a000008 	beq	1043bc <alt_dma_memory_to_i2c_master+0x204>
  104398:	e55b2029 	ldrb	r2, [fp, #-41]	; 0xffffffd7
  10439c:	e59b3004 	ldr	r3, [fp, #4]
  1043a0:	e58d3000 	str	r3, [sp]
  1043a4:	e51b0028 	ldr	r0, [fp, #-40]	; 0xffffffd8
  1043a8:	e1a01002 	mov	r1, r2
  1043ac:	e51b2030 	ldr	r2, [fp, #-48]	; 0xffffffd0
  1043b0:	e51b3034 	ldr	r3, [fp, #-52]	; 0xffffffcc
  1043b4:	ebffff27 	bl	104058 <alt_dma_memory_to_i2c_common>
  1043b8:	e50b0008 	str	r0, [fp, #-8]
  1043bc:	e51b3030 	ldr	r3, [fp, #-48]	; 0xffffffd0
  1043c0:	e5d33005 	ldrb	r3, [r3, #5]
  1043c4:	e3530000 	cmp	r3, #0
  1043c8:	0a000014 	beq	104420 <alt_dma_memory_to_i2c_master+0x268>
  1043cc:	e51b3008 	ldr	r3, [fp, #-8]
  1043d0:	e3530000 	cmp	r3, #0
  1043d4:	1a000011 	bne	104420 <alt_dma_memory_to_i2c_master+0x268>
  1043d8:	e51b3030 	ldr	r3, [fp, #-48]	; 0xffffffd0
  1043dc:	e593e000 	ldr	lr, [r3]
  1043e0:	e51b300c 	ldr	r3, [fp, #-12]
  1043e4:	e283c008 	add	ip, r3, #8
  1043e8:	e59b3004 	ldr	r3, [fp, #4]
  1043ec:	e3530000 	cmp	r3, #0
  1043f0:	13a03001 	movne	r3, #1
  1043f4:	03a03000 	moveq	r3, #0
  1043f8:	e6ef3073 	uxtb	r3, r3
  1043fc:	e55b1029 	ldrb	r1, [fp, #-41]	; 0xffffffd7
  104400:	e3a02001 	mov	r2, #1
  104404:	e58d2000 	str	r2, [sp]
  104408:	e58d3004 	str	r3, [sp, #4]
  10440c:	e51b0028 	ldr	r0, [fp, #-40]	; 0xffffffd8
  104410:	e1a0200e 	mov	r2, lr
  104414:	e1a0300c 	mov	r3, ip
  104418:	ebfffdb5 	bl	103af4 <alt_dma_memory_to_i2c_master_custom>
  10441c:	e50b0008 	str	r0, [fp, #-8]
  104420:	e51b3008 	ldr	r3, [fp, #-8]
  104424:	e3530000 	cmp	r3, #0
  104428:	1a000010 	bne	104470 <alt_dma_memory_to_i2c_master+0x2b8>
  10442c:	e51b3030 	ldr	r3, [fp, #-48]	; 0xffffffd0
  104430:	e2833008 	add	r3, r3, #8
  104434:	e3c3301f 	bic	r3, r3, #31
  104438:	e50b3010 	str	r3, [fp, #-16]
  10443c:	e51b3030 	ldr	r3, [fp, #-48]	; 0xffffffd0
  104440:	e2833008 	add	r3, r3, #8
  104444:	e283302f 	add	r3, r3, #47	; 0x2f
  104448:	e3c3301f 	bic	r3, r3, #31
  10444c:	e50b3014 	str	r3, [fp, #-20]	; 0xffffffec
  104450:	e51b2014 	ldr	r2, [fp, #-20]	; 0xffffffec
  104454:	e51b3010 	ldr	r3, [fp, #-16]
  104458:	e0633002 	rsb	r3, r3, r2
  10445c:	e50b3018 	str	r3, [fp, #-24]	; 0xffffffe8
  104460:	e51b0010 	ldr	r0, [fp, #-16]
  104464:	e51b1018 	ldr	r1, [fp, #-24]	; 0xffffffe8
  104468:	ebfff379 	bl	101254 <alt_cache_system_clean>
  10446c:	e50b0008 	str	r0, [fp, #-8]
  104470:	e51b3008 	ldr	r3, [fp, #-8]
  104474:	e1a00003 	mov	r0, r3
  104478:	e24bd004 	sub	sp, fp, #4
  10447c:	e8bd8800 	pop	{fp, pc}

00104480 <alt_dma_memory_to_i2c>:
  104480:	e92d4800 	push	{fp, lr}
  104484:	e28db004 	add	fp, sp, #4
  104488:	e24dd020 	sub	sp, sp, #32
  10448c:	e50b0010 	str	r0, [fp, #-16]
  104490:	e50b2018 	str	r2, [fp, #-24]	; 0xffffffe8
  104494:	e50b301c 	str	r3, [fp, #-28]	; 0xffffffe4
  104498:	e1a03001 	mov	r3, r1
  10449c:	e54b3011 	strb	r3, [fp, #-17]	; 0xffffffef
  1044a0:	e3a03000 	mov	r3, #0
  1044a4:	e50b3008 	str	r3, [fp, #-8]
  1044a8:	e51b3008 	ldr	r3, [fp, #-8]
  1044ac:	e3530000 	cmp	r3, #0
  1044b0:	1a000006 	bne	1044d0 <alt_dma_memory_to_i2c+0x50>
  1044b4:	e51b3018 	ldr	r3, [fp, #-24]	; 0xffffffe8
  1044b8:	e5932000 	ldr	r2, [r3]
  1044bc:	e24b3009 	sub	r3, fp, #9
  1044c0:	e1a00002 	mov	r0, r2
  1044c4:	e1a01003 	mov	r1, r3
  1044c8:	ebfffd74 	bl	103aa0 <alt_i2c_op_mode_get>
  1044cc:	e50b0008 	str	r0, [fp, #-8]
  1044d0:	e51b3008 	ldr	r3, [fp, #-8]
  1044d4:	e3530000 	cmp	r3, #0
  1044d8:	1a000015 	bne	104534 <alt_dma_memory_to_i2c+0xb4>
  1044dc:	e55b3009 	ldrb	r3, [fp, #-9]
  1044e0:	e3530001 	cmp	r3, #1
  1044e4:	1a000009 	bne	104510 <alt_dma_memory_to_i2c+0x90>
  1044e8:	e55b2011 	ldrb	r2, [fp, #-17]	; 0xffffffef
  1044ec:	e59b3004 	ldr	r3, [fp, #4]
  1044f0:	e58d3000 	str	r3, [sp]
  1044f4:	e51b0010 	ldr	r0, [fp, #-16]
  1044f8:	e1a01002 	mov	r1, r2
  1044fc:	e51b2018 	ldr	r2, [fp, #-24]	; 0xffffffe8
  104500:	e51b301c 	ldr	r3, [fp, #-28]	; 0xffffffe4
  104504:	ebffff2b 	bl	1041b8 <alt_dma_memory_to_i2c_master>
  104508:	e50b0008 	str	r0, [fp, #-8]
  10450c:	ea000008 	b	104534 <alt_dma_memory_to_i2c+0xb4>
  104510:	e55b2011 	ldrb	r2, [fp, #-17]	; 0xffffffef
  104514:	e59b3004 	ldr	r3, [fp, #4]
  104518:	e58d3000 	str	r3, [sp]
  10451c:	e51b0010 	ldr	r0, [fp, #-16]
  104520:	e1a01002 	mov	r1, r2
  104524:	e51b2018 	ldr	r2, [fp, #-24]	; 0xffffffe8
  104528:	e51b301c 	ldr	r3, [fp, #-28]	; 0xffffffe4
  10452c:	ebfffec9 	bl	104058 <alt_dma_memory_to_i2c_common>
  104530:	e50b0008 	str	r0, [fp, #-8]
  104534:	e51b3008 	ldr	r3, [fp, #-8]
  104538:	e1a00003 	mov	r0, r3
  10453c:	e24bd004 	sub	sp, fp, #4
  104540:	e8bd8800 	pop	{fp, pc}

00104544 <alt_dma_i2c_to_memory_common_segment>:
  104544:	e92d4800 	push	{fp, lr}
  104548:	e28db004 	add	fp, sp, #4
  10454c:	e24dd038 	sub	sp, sp, #56	; 0x38
  104550:	e50b0030 	str	r0, [fp, #-48]	; 0xffffffd0
  104554:	e50b3038 	str	r3, [fp, #-56]	; 0xffffffc8
  104558:	e1a03001 	mov	r3, r1
  10455c:	e54b3031 	strb	r3, [fp, #-49]	; 0xffffffcf
  104560:	e1a03002 	mov	r3, r2
  104564:	e54b3032 	strb	r3, [fp, #-50]	; 0xffffffce
  104568:	e3a03000 	mov	r3, #0
  10456c:	e50b3008 	str	r3, [fp, #-8]
  104570:	e3a03000 	mov	r3, #0
  104574:	e50b300c 	str	r3, [fp, #-12]
  104578:	e3a03000 	mov	r3, #0
  10457c:	e50b3010 	str	r3, [fp, #-16]
  104580:	e3a03000 	mov	r3, #0
  104584:	e50b3014 	str	r3, [fp, #-20]	; 0xffffffec
  104588:	e51b3008 	ldr	r3, [fp, #-8]
  10458c:	e3530000 	cmp	r3, #0
  104590:	1a000018 	bne	1045f8 <alt_dma_i2c_to_memory_common_segment+0xb4>
  104594:	e59b3004 	ldr	r3, [fp, #4]
  104598:	e50b3018 	str	r3, [fp, #-24]	; 0xffffffe8
  10459c:	e55b3032 	ldrb	r3, [fp, #-50]	; 0xffffffce
  1045a0:	e3530001 	cmp	r3, #1
  1045a4:	9a000011 	bls	1045f0 <alt_dma_i2c_to_memory_common_segment+0xac>
  1045a8:	e55b3032 	ldrb	r3, [fp, #-50]	; 0xffffffce
  1045ac:	e3530010 	cmp	r3, #16
  1045b0:	9a000001 	bls	1045bc <alt_dma_i2c_to_memory_common_segment+0x78>
  1045b4:	e3a03010 	mov	r3, #16
  1045b8:	e54b3032 	strb	r3, [fp, #-50]	; 0xffffffce
  1045bc:	e55b3032 	ldrb	r3, [fp, #-50]	; 0xffffffce
  1045c0:	e50b300c 	str	r3, [fp, #-12]
  1045c4:	e51b2018 	ldr	r2, [fp, #-24]	; 0xffffffe8
  1045c8:	e51b300c 	ldr	r3, [fp, #-12]
  1045cc:	e24b102c 	sub	r1, fp, #44	; 0x2c
  1045d0:	e1a00001 	mov	r0, r1
  1045d4:	e1a01002 	mov	r1, r2
  1045d8:	e1a02003 	mov	r2, r3
  1045dc:	eb001280 	bl	108fe4 <ldiv>
  1045e0:	e51b302c 	ldr	r3, [fp, #-44]	; 0xffffffd4
  1045e4:	e50b3010 	str	r3, [fp, #-16]
  1045e8:	e51b3028 	ldr	r3, [fp, #-40]	; 0xffffffd8
  1045ec:	e50b3018 	str	r3, [fp, #-24]	; 0xffffffe8
  1045f0:	e51b3018 	ldr	r3, [fp, #-24]	; 0xffffffe8
  1045f4:	e50b3014 	str	r3, [fp, #-20]	; 0xffffffec
  1045f8:	e51b3008 	ldr	r3, [fp, #-8]
  1045fc:	e3530000 	cmp	r3, #0
  104600:	1a000004 	bne	104618 <alt_dma_i2c_to_memory_common_segment+0xd4>
  104604:	e51b0030 	ldr	r0, [fp, #-48]	; 0xffffffd0
  104608:	e3a01002 	mov	r1, #2
  10460c:	e51b2038 	ldr	r2, [fp, #-56]	; 0xffffffc8
  104610:	eb001038 	bl	1086f8 <alt_dma_program_DMAMOV>
  104614:	e50b0008 	str	r0, [fp, #-8]
  104618:	e51b3010 	ldr	r3, [fp, #-16]
  10461c:	e3530000 	cmp	r3, #0
  104620:	0a000059 	beq	10478c <alt_dma_i2c_to_memory_common_segment+0x248>
  104624:	e51b3008 	ldr	r3, [fp, #-8]
  104628:	e3530000 	cmp	r3, #0
  10462c:	1a000008 	bne	104654 <alt_dma_i2c_to_memory_common_segment+0x110>
  104630:	e51b300c 	ldr	r3, [fp, #-12]
  104634:	e2433001 	sub	r3, r3, #1
  104638:	e1a03903 	lsl	r3, r3, #18
  10463c:	e3833901 	orr	r3, r3, #16384	; 0x4000
  104640:	e51b0030 	ldr	r0, [fp, #-48]	; 0xffffffd0
  104644:	e3a01001 	mov	r1, #1
  104648:	e1a02003 	mov	r2, r3
  10464c:	eb001029 	bl	1086f8 <alt_dma_program_DMAMOV>
  104650:	e50b0008 	str	r0, [fp, #-8]
  104654:	ea000049 	b	104780 <alt_dma_i2c_to_memory_common_segment+0x23c>
  104658:	e51b3008 	ldr	r3, [fp, #-8]
  10465c:	e3530000 	cmp	r3, #0
  104660:	0a000000 	beq	104668 <alt_dma_i2c_to_memory_common_segment+0x124>
  104664:	ea000048 	b	10478c <alt_dma_i2c_to_memory_common_segment+0x248>
  104668:	e51b3010 	ldr	r3, [fp, #-16]
  10466c:	e3530c01 	cmp	r3, #256	; 0x100
  104670:	31a03003 	movcc	r3, r3
  104674:	23a03c01 	movcs	r3, #256	; 0x100
  104678:	e50b3020 	str	r3, [fp, #-32]	; 0xffffffe0
  10467c:	e51b2010 	ldr	r2, [fp, #-16]
  104680:	e51b3020 	ldr	r3, [fp, #-32]	; 0xffffffe0
  104684:	e0633002 	rsb	r3, r3, r2
  104688:	e50b3010 	str	r3, [fp, #-16]
  10468c:	e51b3008 	ldr	r3, [fp, #-8]
  104690:	e3530000 	cmp	r3, #0
  104694:	1a000006 	bne	1046b4 <alt_dma_i2c_to_memory_common_segment+0x170>
  104698:	e51b3020 	ldr	r3, [fp, #-32]	; 0xffffffe0
  10469c:	e3530001 	cmp	r3, #1
  1046a0:	9a000003 	bls	1046b4 <alt_dma_i2c_to_memory_common_segment+0x170>
  1046a4:	e51b0030 	ldr	r0, [fp, #-48]	; 0xffffffd0
  1046a8:	e51b1020 	ldr	r1, [fp, #-32]	; 0xffffffe0
  1046ac:	eb000ee2 	bl	10823c <alt_dma_program_DMALP>
  1046b0:	e50b0008 	str	r0, [fp, #-8]
  1046b4:	e51b3008 	ldr	r3, [fp, #-8]
  1046b8:	e3530000 	cmp	r3, #0
  1046bc:	1a000004 	bne	1046d4 <alt_dma_i2c_to_memory_common_segment+0x190>
  1046c0:	e55b3031 	ldrb	r3, [fp, #-49]	; 0xffffffcf
  1046c4:	e51b0030 	ldr	r0, [fp, #-48]	; 0xffffffd0
  1046c8:	e1a01003 	mov	r1, r3
  1046cc:	eb000da7 	bl	107d70 <alt_dma_program_DMAFLUSHP>
  1046d0:	e50b0008 	str	r0, [fp, #-8]
  1046d4:	e51b3008 	ldr	r3, [fp, #-8]
  1046d8:	e3530000 	cmp	r3, #0
  1046dc:	1a000005 	bne	1046f8 <alt_dma_i2c_to_memory_common_segment+0x1b4>
  1046e0:	e55b3031 	ldrb	r3, [fp, #-49]	; 0xffffffcf
  1046e4:	e51b0030 	ldr	r0, [fp, #-48]	; 0xffffffd0
  1046e8:	e1a01003 	mov	r1, r3
  1046ec:	e3a02002 	mov	r2, #2
  1046f0:	eb0011d0 	bl	108e38 <alt_dma_program_DMAWFP>
  1046f4:	e50b0008 	str	r0, [fp, #-8]
  1046f8:	e3a03000 	mov	r3, #0
  1046fc:	e50b301c 	str	r3, [fp, #-28]	; 0xffffffe4
  104700:	ea000009 	b	10472c <alt_dma_i2c_to_memory_common_segment+0x1e8>
  104704:	e51b3008 	ldr	r3, [fp, #-8]
  104708:	e3530000 	cmp	r3, #0
  10470c:	1a000003 	bne	104720 <alt_dma_i2c_to_memory_common_segment+0x1dc>
  104710:	e51b0030 	ldr	r0, [fp, #-48]	; 0xffffffd0
  104714:	e3a01002 	mov	r1, #2
  104718:	eb000e48 	bl	108040 <alt_dma_program_DMALD>
  10471c:	e50b0008 	str	r0, [fp, #-8]
  104720:	e51b301c 	ldr	r3, [fp, #-28]	; 0xffffffe4
  104724:	e2833001 	add	r3, r3, #1
  104728:	e50b301c 	str	r3, [fp, #-28]	; 0xffffffe4
  10472c:	e51b201c 	ldr	r2, [fp, #-28]	; 0xffffffe4
  104730:	e51b300c 	ldr	r3, [fp, #-12]
  104734:	e1520003 	cmp	r2, r3
  104738:	3afffff1 	bcc	104704 <alt_dma_i2c_to_memory_common_segment+0x1c0>
  10473c:	e51b3008 	ldr	r3, [fp, #-8]
  104740:	e3530000 	cmp	r3, #0
  104744:	1a000003 	bne	104758 <alt_dma_i2c_to_memory_common_segment+0x214>
  104748:	e51b0030 	ldr	r0, [fp, #-48]	; 0xffffffd0
  10474c:	e3a01002 	mov	r1, #2
  104750:	eb0010d7 	bl	108ab4 <alt_dma_program_DMAST>
  104754:	e50b0008 	str	r0, [fp, #-8]
  104758:	e51b3008 	ldr	r3, [fp, #-8]
  10475c:	e3530000 	cmp	r3, #0
  104760:	1a000006 	bne	104780 <alt_dma_i2c_to_memory_common_segment+0x23c>
  104764:	e51b3020 	ldr	r3, [fp, #-32]	; 0xffffffe0
  104768:	e3530001 	cmp	r3, #1
  10476c:	9a000003 	bls	104780 <alt_dma_i2c_to_memory_common_segment+0x23c>
  104770:	e51b0030 	ldr	r0, [fp, #-48]	; 0xffffffd0
  104774:	e3a01000 	mov	r1, #0
  104778:	eb000f0f 	bl	1083bc <alt_dma_program_DMALPEND>
  10477c:	e50b0008 	str	r0, [fp, #-8]
  104780:	e51b3010 	ldr	r3, [fp, #-16]
  104784:	e3530000 	cmp	r3, #0
  104788:	1affffb2 	bne	104658 <alt_dma_i2c_to_memory_common_segment+0x114>
  10478c:	e51b3014 	ldr	r3, [fp, #-20]	; 0xffffffec
  104790:	e3530000 	cmp	r3, #0
  104794:	0a00004b 	beq	1048c8 <alt_dma_i2c_to_memory_common_segment+0x384>
  104798:	e51b3008 	ldr	r3, [fp, #-8]
  10479c:	e3530000 	cmp	r3, #0
  1047a0:	1a000004 	bne	1047b8 <alt_dma_i2c_to_memory_common_segment+0x274>
  1047a4:	e51b0030 	ldr	r0, [fp, #-48]	; 0xffffffd0
  1047a8:	e3a01001 	mov	r1, #1
  1047ac:	e3a02901 	mov	r2, #16384	; 0x4000
  1047b0:	eb000fd0 	bl	1086f8 <alt_dma_program_DMAMOV>
  1047b4:	e50b0008 	str	r0, [fp, #-8]
  1047b8:	ea00003f 	b	1048bc <alt_dma_i2c_to_memory_common_segment+0x378>
  1047bc:	e51b3008 	ldr	r3, [fp, #-8]
  1047c0:	e3530000 	cmp	r3, #0
  1047c4:	0a000000 	beq	1047cc <alt_dma_i2c_to_memory_common_segment+0x288>
  1047c8:	ea00003e 	b	1048c8 <alt_dma_i2c_to_memory_common_segment+0x384>
  1047cc:	e51b3014 	ldr	r3, [fp, #-20]	; 0xffffffec
  1047d0:	e3530c01 	cmp	r3, #256	; 0x100
  1047d4:	31a03003 	movcc	r3, r3
  1047d8:	23a03c01 	movcs	r3, #256	; 0x100
  1047dc:	e50b3024 	str	r3, [fp, #-36]	; 0xffffffdc
  1047e0:	e51b2014 	ldr	r2, [fp, #-20]	; 0xffffffec
  1047e4:	e51b3024 	ldr	r3, [fp, #-36]	; 0xffffffdc
  1047e8:	e0633002 	rsb	r3, r3, r2
  1047ec:	e50b3014 	str	r3, [fp, #-20]	; 0xffffffec
  1047f0:	e51b3008 	ldr	r3, [fp, #-8]
  1047f4:	e3530000 	cmp	r3, #0
  1047f8:	1a000006 	bne	104818 <alt_dma_i2c_to_memory_common_segment+0x2d4>
  1047fc:	e51b3024 	ldr	r3, [fp, #-36]	; 0xffffffdc
  104800:	e3530001 	cmp	r3, #1
  104804:	9a000003 	bls	104818 <alt_dma_i2c_to_memory_common_segment+0x2d4>
  104808:	e51b0030 	ldr	r0, [fp, #-48]	; 0xffffffd0
  10480c:	e51b1024 	ldr	r1, [fp, #-36]	; 0xffffffdc
  104810:	eb000e89 	bl	10823c <alt_dma_program_DMALP>
  104814:	e50b0008 	str	r0, [fp, #-8]
  104818:	e51b3008 	ldr	r3, [fp, #-8]
  10481c:	e3530000 	cmp	r3, #0
  104820:	1a000004 	bne	104838 <alt_dma_i2c_to_memory_common_segment+0x2f4>
  104824:	e55b3031 	ldrb	r3, [fp, #-49]	; 0xffffffcf
  104828:	e51b0030 	ldr	r0, [fp, #-48]	; 0xffffffd0
  10482c:	e1a01003 	mov	r1, r3
  104830:	eb000d4e 	bl	107d70 <alt_dma_program_DMAFLUSHP>
  104834:	e50b0008 	str	r0, [fp, #-8]
  104838:	e51b3008 	ldr	r3, [fp, #-8]
  10483c:	e3530000 	cmp	r3, #0
  104840:	1a000005 	bne	10485c <alt_dma_i2c_to_memory_common_segment+0x318>
  104844:	e55b3031 	ldrb	r3, [fp, #-49]	; 0xffffffcf
  104848:	e51b0030 	ldr	r0, [fp, #-48]	; 0xffffffd0
  10484c:	e1a01003 	mov	r1, r3
  104850:	e3a02001 	mov	r2, #1
  104854:	eb001177 	bl	108e38 <alt_dma_program_DMAWFP>
  104858:	e50b0008 	str	r0, [fp, #-8]
  10485c:	e51b3008 	ldr	r3, [fp, #-8]
  104860:	e3530000 	cmp	r3, #0
  104864:	1a000003 	bne	104878 <alt_dma_i2c_to_memory_common_segment+0x334>
  104868:	e51b0030 	ldr	r0, [fp, #-48]	; 0xffffffd0
  10486c:	e3a01001 	mov	r1, #1
  104870:	eb000df2 	bl	108040 <alt_dma_program_DMALD>
  104874:	e50b0008 	str	r0, [fp, #-8]
  104878:	e51b3008 	ldr	r3, [fp, #-8]
  10487c:	e3530000 	cmp	r3, #0
  104880:	1a000003 	bne	104894 <alt_dma_i2c_to_memory_common_segment+0x350>
  104884:	e51b0030 	ldr	r0, [fp, #-48]	; 0xffffffd0
  104888:	e3a01001 	mov	r1, #1
  10488c:	eb001088 	bl	108ab4 <alt_dma_program_DMAST>
  104890:	e50b0008 	str	r0, [fp, #-8]
  104894:	e51b3008 	ldr	r3, [fp, #-8]
  104898:	e3530000 	cmp	r3, #0
  10489c:	1a000006 	bne	1048bc <alt_dma_i2c_to_memory_common_segment+0x378>
  1048a0:	e51b3024 	ldr	r3, [fp, #-36]	; 0xffffffdc
  1048a4:	e3530001 	cmp	r3, #1
  1048a8:	9a000003 	bls	1048bc <alt_dma_i2c_to_memory_common_segment+0x378>
  1048ac:	e51b0030 	ldr	r0, [fp, #-48]	; 0xffffffd0
  1048b0:	e3a01000 	mov	r1, #0
  1048b4:	eb000ec0 	bl	1083bc <alt_dma_program_DMALPEND>
  1048b8:	e50b0008 	str	r0, [fp, #-8]
  1048bc:	e51b3014 	ldr	r3, [fp, #-20]	; 0xffffffec
  1048c0:	e3530000 	cmp	r3, #0
  1048c4:	1affffbc 	bne	1047bc <alt_dma_i2c_to_memory_common_segment+0x278>
  1048c8:	e51b3008 	ldr	r3, [fp, #-8]
  1048cc:	e1a00003 	mov	r0, r3
  1048d0:	e24bd004 	sub	sp, fp, #4
  1048d4:	e8bd8800 	pop	{fp, pc}

001048d8 <alt_dma_i2c_to_memory_common>:
  1048d8:	e92d4800 	push	{fp, lr}
  1048dc:	e28db004 	add	fp, sp, #4
  1048e0:	e24dd038 	sub	sp, sp, #56	; 0x38
  1048e4:	e50b0028 	str	r0, [fp, #-40]	; 0xffffffd8
  1048e8:	e50b2030 	str	r2, [fp, #-48]	; 0xffffffd0
  1048ec:	e50b3034 	str	r3, [fp, #-52]	; 0xffffffcc
  1048f0:	e1a03001 	mov	r3, r1
  1048f4:	e54b3029 	strb	r3, [fp, #-41]	; 0xffffffd7
  1048f8:	e3a03000 	mov	r3, #0
  1048fc:	e50b3008 	str	r3, [fp, #-8]
  104900:	e51b3030 	ldr	r3, [fp, #-48]	; 0xffffffd0
  104904:	e5933000 	ldr	r3, [r3]
  104908:	e5933000 	ldr	r3, [r3]
  10490c:	e2833038 	add	r3, r3, #56	; 0x38
  104910:	e5933000 	ldr	r3, [r3]
  104914:	e6ef3073 	uxtb	r3, r3
  104918:	e2833001 	add	r3, r3, #1
  10491c:	e54b3009 	strb	r3, [fp, #-9]
  104920:	e51b3008 	ldr	r3, [fp, #-8]
  104924:	e3530000 	cmp	r3, #0
  104928:	1a000008 	bne	104950 <alt_dma_i2c_to_memory_common+0x78>
  10492c:	e51b3030 	ldr	r3, [fp, #-48]	; 0xffffffd0
  104930:	e5933000 	ldr	r3, [r3]
  104934:	e5933000 	ldr	r3, [r3]
  104938:	e2833010 	add	r3, r3, #16
  10493c:	e51b0028 	ldr	r0, [fp, #-40]	; 0xffffffd8
  104940:	e3a01000 	mov	r1, #0
  104944:	e1a02003 	mov	r2, r3
  104948:	eb000f6a 	bl	1086f8 <alt_dma_program_DMAMOV>
  10494c:	e50b0008 	str	r0, [fp, #-8]
  104950:	e51b3008 	ldr	r3, [fp, #-8]
  104954:	e3530000 	cmp	r3, #0
  104958:	1a000005 	bne	104974 <alt_dma_i2c_to_memory_common+0x9c>
  10495c:	e24b301c 	sub	r3, fp, #28
  104960:	e1a00003 	mov	r0, r3
  104964:	e51b1034 	ldr	r1, [fp, #-52]	; 0xffffffcc
  104968:	e59b2004 	ldr	r2, [fp, #4]
  10496c:	ebfff593 	bl	101fc0 <alt_mmu_va_to_pa_coalesce_begin>
  104970:	e50b0008 	str	r0, [fp, #-8]
  104974:	ea000021 	b	104a00 <alt_dma_i2c_to_memory_common+0x128>
  104978:	e51b3008 	ldr	r3, [fp, #-8]
  10497c:	e3530000 	cmp	r3, #0
  104980:	1a000021 	bne	104a0c <alt_dma_i2c_to_memory_common+0x134>
  104984:	e3a03000 	mov	r3, #0
  104988:	e50b3020 	str	r3, [fp, #-32]	; 0xffffffe0
  10498c:	e3a03000 	mov	r3, #0
  104990:	e50b3024 	str	r3, [fp, #-36]	; 0xffffffdc
  104994:	e51b3008 	ldr	r3, [fp, #-8]
  104998:	e3530000 	cmp	r3, #0
  10499c:	1a000007 	bne	1049c0 <alt_dma_i2c_to_memory_common+0xe8>
  1049a0:	e24b101c 	sub	r1, fp, #28
  1049a4:	e24b2020 	sub	r2, fp, #32
  1049a8:	e24b3024 	sub	r3, fp, #36	; 0x24
  1049ac:	e1a00001 	mov	r0, r1
  1049b0:	e1a01002 	mov	r1, r2
  1049b4:	e1a02003 	mov	r2, r3
  1049b8:	ebfff5b0 	bl	102080 <alt_mmu_va_to_pa_coalesce_next>
  1049bc:	e50b0008 	str	r0, [fp, #-8]
  1049c0:	e51b3024 	ldr	r3, [fp, #-36]	; 0xffffffdc
  1049c4:	e59b2004 	ldr	r2, [fp, #4]
  1049c8:	e0633002 	rsb	r3, r3, r2
  1049cc:	e58b3004 	str	r3, [fp, #4]
  1049d0:	e51b3008 	ldr	r3, [fp, #-8]
  1049d4:	e3530000 	cmp	r3, #0
  1049d8:	1a000008 	bne	104a00 <alt_dma_i2c_to_memory_common+0x128>
  1049dc:	e51bc020 	ldr	ip, [fp, #-32]	; 0xffffffe0
  1049e0:	e51b3024 	ldr	r3, [fp, #-36]	; 0xffffffdc
  1049e4:	e55b1029 	ldrb	r1, [fp, #-41]	; 0xffffffd7
  1049e8:	e55b2009 	ldrb	r2, [fp, #-9]
  1049ec:	e58d3000 	str	r3, [sp]
  1049f0:	e51b0028 	ldr	r0, [fp, #-40]	; 0xffffffd8
  1049f4:	e1a0300c 	mov	r3, ip
  1049f8:	ebfffed1 	bl	104544 <alt_dma_i2c_to_memory_common_segment>
  1049fc:	e50b0008 	str	r0, [fp, #-8]
  104a00:	e59b3004 	ldr	r3, [fp, #4]
  104a04:	e3530000 	cmp	r3, #0
  104a08:	1affffda 	bne	104978 <alt_dma_i2c_to_memory_common+0xa0>
  104a0c:	e51b3008 	ldr	r3, [fp, #-8]
  104a10:	e3530000 	cmp	r3, #0
  104a14:	1a000003 	bne	104a28 <alt_dma_i2c_to_memory_common+0x150>
  104a18:	e24b301c 	sub	r3, fp, #28
  104a1c:	e1a00003 	mov	r0, r3
  104a20:	ebfff5f7 	bl	102204 <alt_mmu_va_to_pa_coalesce_end>
  104a24:	e50b0008 	str	r0, [fp, #-8]
  104a28:	e51b3008 	ldr	r3, [fp, #-8]
  104a2c:	e1a00003 	mov	r0, r3
  104a30:	e24bd004 	sub	sp, fp, #4
  104a34:	e8bd8800 	pop	{fp, pc}

00104a38 <alt_dma_i2c_to_memory_master>:
  104a38:	e92d4800 	push	{fp, lr}
  104a3c:	e28db004 	add	fp, sp, #4
  104a40:	e24dd050 	sub	sp, sp, #80	; 0x50
  104a44:	e50b0040 	str	r0, [fp, #-64]	; 0xffffffc0
  104a48:	e50b2048 	str	r2, [fp, #-72]	; 0xffffffb8
  104a4c:	e50b304c 	str	r3, [fp, #-76]	; 0xffffffb4
  104a50:	e1a03001 	mov	r3, r1
  104a54:	e54b3041 	strb	r3, [fp, #-65]	; 0xffffffbf
  104a58:	e3a03000 	mov	r3, #0
  104a5c:	e50b3008 	str	r3, [fp, #-8]
  104a60:	e51b3008 	ldr	r3, [fp, #-8]
  104a64:	e3530000 	cmp	r3, #0
  104a68:	1a000010 	bne	104ab0 <alt_dma_i2c_to_memory_master+0x78>
  104a6c:	e51b3048 	ldr	r3, [fp, #-72]	; 0xffffffb8
  104a70:	e2831008 	add	r1, r3, #8
  104a74:	e24b203c 	sub	r2, fp, #60	; 0x3c
  104a78:	e24b3038 	sub	r3, fp, #56	; 0x38
  104a7c:	e1a00001 	mov	r0, r1
  104a80:	e1a01002 	mov	r1, r2
  104a84:	e1a02003 	mov	r2, r3
  104a88:	ebfff1e0 	bl	101210 <alt_mmu_va_to_pa>
  104a8c:	e50b000c 	str	r0, [fp, #-12]
  104a90:	e51b3038 	ldr	r3, [fp, #-56]	; 0xffffffc8
  104a94:	e3530000 	cmp	r3, #0
  104a98:	0a000004 	beq	104ab0 <alt_dma_i2c_to_memory_master+0x78>
  104a9c:	e3020884 	movw	r0, #10372	; 0x2884
  104aa0:	e3400011 	movt	r0, #17
  104aa4:	eb0011d1 	bl	1091f0 <puts>
  104aa8:	e3e03000 	mvn	r3, #0
  104aac:	e50b3008 	str	r3, [fp, #-8]
  104ab0:	e55b3041 	ldrb	r3, [fp, #-65]	; 0xffffffbf
  104ab4:	e2433001 	sub	r3, r3, #1
  104ab8:	e54b3015 	strb	r3, [fp, #-21]	; 0xffffffeb
  104abc:	e59b3004 	ldr	r3, [fp, #4]
  104ac0:	e50b3010 	str	r3, [fp, #-16]
  104ac4:	e59b3004 	ldr	r3, [fp, #4]
  104ac8:	e50b3014 	str	r3, [fp, #-20]	; 0xffffffec
  104acc:	e3a03040 	mov	r3, #64	; 0x40
  104ad0:	e50b301c 	str	r3, [fp, #-28]	; 0xffffffe4
  104ad4:	e51b3048 	ldr	r3, [fp, #-72]	; 0xffffffb8
  104ad8:	e3a02c01 	mov	r2, #256	; 0x100
  104adc:	e5832008 	str	r2, [r3, #8]
  104ae0:	e51b3048 	ldr	r3, [fp, #-72]	; 0xffffffb8
  104ae4:	e5d33004 	ldrb	r3, [r3, #4]
  104ae8:	e1a03503 	lsl	r3, r3, #10
  104aec:	e2033b01 	and	r3, r3, #1024	; 0x400
  104af0:	e3833c01 	orr	r3, r3, #256	; 0x100
  104af4:	e1a02003 	mov	r2, r3
  104af8:	e51b3048 	ldr	r3, [fp, #-72]	; 0xffffffb8
  104afc:	e583200c 	str	r2, [r3, #12]
  104b00:	e51b3048 	ldr	r3, [fp, #-72]	; 0xffffffb8
  104b04:	e5d33005 	ldrb	r3, [r3, #5]
  104b08:	e1a03483 	lsl	r3, r3, #9
  104b0c:	e2033c02 	and	r3, r3, #512	; 0x200
  104b10:	e3833c01 	orr	r3, r3, #256	; 0x100
  104b14:	e1a02003 	mov	r2, r3
  104b18:	e51b3048 	ldr	r3, [fp, #-72]	; 0xffffffb8
  104b1c:	e5832010 	str	r2, [r3, #16]
  104b20:	e51b3048 	ldr	r3, [fp, #-72]	; 0xffffffb8
  104b24:	e5d33004 	ldrb	r3, [r3, #4]
  104b28:	e1a03503 	lsl	r3, r3, #10
  104b2c:	e2033b01 	and	r3, r3, #1024	; 0x400
  104b30:	e3832c01 	orr	r2, r3, #256	; 0x100
  104b34:	e51b3048 	ldr	r3, [fp, #-72]	; 0xffffffb8
  104b38:	e5d33005 	ldrb	r3, [r3, #5]
  104b3c:	e1a03483 	lsl	r3, r3, #9
  104b40:	e2033c02 	and	r3, r3, #512	; 0x200
  104b44:	e1823003 	orr	r3, r2, r3
  104b48:	e1a02003 	mov	r2, r3
  104b4c:	e51b3048 	ldr	r3, [fp, #-72]	; 0xffffffb8
  104b50:	e5832014 	str	r2, [r3, #20]
  104b54:	e51b2010 	ldr	r2, [fp, #-16]
  104b58:	e51b301c 	ldr	r3, [fp, #-28]	; 0xffffffe4
  104b5c:	e1520003 	cmp	r2, r3
  104b60:	31a03002 	movcc	r3, r2
  104b64:	21a03003 	movcs	r3, r3
  104b68:	e50b3020 	str	r3, [fp, #-32]	; 0xffffffe0
  104b6c:	e51b2010 	ldr	r2, [fp, #-16]
  104b70:	e51b3020 	ldr	r3, [fp, #-32]	; 0xffffffe0
  104b74:	e0633002 	rsb	r3, r3, r2
  104b78:	e50b3010 	str	r3, [fp, #-16]
  104b7c:	e51b3020 	ldr	r3, [fp, #-32]	; 0xffffffe0
  104b80:	e3530001 	cmp	r3, #1
  104b84:	1a000010 	bne	104bcc <alt_dma_i2c_to_memory_master+0x194>
  104b88:	e51b3008 	ldr	r3, [fp, #-8]
  104b8c:	e3530000 	cmp	r3, #0
  104b90:	1a000062 	bne	104d20 <alt_dma_i2c_to_memory_master+0x2e8>
  104b94:	e51b3048 	ldr	r3, [fp, #-72]	; 0xffffffb8
  104b98:	e5932000 	ldr	r2, [r3]
  104b9c:	e51b300c 	ldr	r3, [fp, #-12]
  104ba0:	e283c00c 	add	ip, r3, #12
  104ba4:	e55b1015 	ldrb	r1, [fp, #-21]	; 0xffffffeb
  104ba8:	e3a03001 	mov	r3, #1
  104bac:	e58d3000 	str	r3, [sp]
  104bb0:	e3a03001 	mov	r3, #1
  104bb4:	e58d3004 	str	r3, [sp, #4]
  104bb8:	e51b0040 	ldr	r0, [fp, #-64]	; 0xffffffc0
  104bbc:	e1a0300c 	mov	r3, ip
  104bc0:	ebfffbcb 	bl	103af4 <alt_dma_memory_to_i2c_master_custom>
  104bc4:	e50b0008 	str	r0, [fp, #-8]
  104bc8:	ea0000b3 	b	104e9c <alt_dma_i2c_to_memory_master+0x464>
  104bcc:	e51b3010 	ldr	r3, [fp, #-16]
  104bd0:	e3530000 	cmp	r3, #0
  104bd4:	1a000032 	bne	104ca4 <alt_dma_i2c_to_memory_master+0x26c>
  104bd8:	e51b3008 	ldr	r3, [fp, #-8]
  104bdc:	e3530000 	cmp	r3, #0
  104be0:	1a00000c 	bne	104c18 <alt_dma_i2c_to_memory_master+0x1e0>
  104be4:	e51b3048 	ldr	r3, [fp, #-72]	; 0xffffffb8
  104be8:	e5932000 	ldr	r2, [r3]
  104bec:	e51b300c 	ldr	r3, [fp, #-12]
  104bf0:	e283c004 	add	ip, r3, #4
  104bf4:	e55b1015 	ldrb	r1, [fp, #-21]	; 0xffffffeb
  104bf8:	e3a03001 	mov	r3, #1
  104bfc:	e58d3000 	str	r3, [sp]
  104c00:	e3a03001 	mov	r3, #1
  104c04:	e58d3004 	str	r3, [sp, #4]
  104c08:	e51b0040 	ldr	r0, [fp, #-64]	; 0xffffffc0
  104c0c:	e1a0300c 	mov	r3, ip
  104c10:	ebfffbb7 	bl	103af4 <alt_dma_memory_to_i2c_master_custom>
  104c14:	e50b0008 	str	r0, [fp, #-8]
  104c18:	e51b3008 	ldr	r3, [fp, #-8]
  104c1c:	e3530000 	cmp	r3, #0
  104c20:	1a00000e 	bne	104c60 <alt_dma_i2c_to_memory_master+0x228>
  104c24:	e51b3020 	ldr	r3, [fp, #-32]	; 0xffffffe0
  104c28:	e3530002 	cmp	r3, #2
  104c2c:	9a00000b 	bls	104c60 <alt_dma_i2c_to_memory_master+0x228>
  104c30:	e51b3048 	ldr	r3, [fp, #-72]	; 0xffffffb8
  104c34:	e5932000 	ldr	r2, [r3]
  104c38:	e51b3020 	ldr	r3, [fp, #-32]	; 0xffffffe0
  104c3c:	e2433002 	sub	r3, r3, #2
  104c40:	e55b1015 	ldrb	r1, [fp, #-21]	; 0xffffffeb
  104c44:	e58d3000 	str	r3, [sp]
  104c48:	e3a03000 	mov	r3, #0
  104c4c:	e58d3004 	str	r3, [sp, #4]
  104c50:	e51b0040 	ldr	r0, [fp, #-64]	; 0xffffffc0
  104c54:	e51b300c 	ldr	r3, [fp, #-12]
  104c58:	ebfffba5 	bl	103af4 <alt_dma_memory_to_i2c_master_custom>
  104c5c:	e50b0008 	str	r0, [fp, #-8]
  104c60:	e51b3008 	ldr	r3, [fp, #-8]
  104c64:	e3530000 	cmp	r3, #0
  104c68:	1a00002c 	bne	104d20 <alt_dma_i2c_to_memory_master+0x2e8>
  104c6c:	e51b3048 	ldr	r3, [fp, #-72]	; 0xffffffb8
  104c70:	e5932000 	ldr	r2, [r3]
  104c74:	e51b300c 	ldr	r3, [fp, #-12]
  104c78:	e283c008 	add	ip, r3, #8
  104c7c:	e55b1015 	ldrb	r1, [fp, #-21]	; 0xffffffeb
  104c80:	e3a03001 	mov	r3, #1
  104c84:	e58d3000 	str	r3, [sp]
  104c88:	e3a03000 	mov	r3, #0
  104c8c:	e58d3004 	str	r3, [sp, #4]
  104c90:	e51b0040 	ldr	r0, [fp, #-64]	; 0xffffffc0
  104c94:	e1a0300c 	mov	r3, ip
  104c98:	ebfffb95 	bl	103af4 <alt_dma_memory_to_i2c_master_custom>
  104c9c:	e50b0008 	str	r0, [fp, #-8]
  104ca0:	ea00007d 	b	104e9c <alt_dma_i2c_to_memory_master+0x464>
  104ca4:	e51b3008 	ldr	r3, [fp, #-8]
  104ca8:	e3530000 	cmp	r3, #0
  104cac:	1a00000c 	bne	104ce4 <alt_dma_i2c_to_memory_master+0x2ac>
  104cb0:	e51b3048 	ldr	r3, [fp, #-72]	; 0xffffffb8
  104cb4:	e5932000 	ldr	r2, [r3]
  104cb8:	e51b300c 	ldr	r3, [fp, #-12]
  104cbc:	e283c004 	add	ip, r3, #4
  104cc0:	e55b1015 	ldrb	r1, [fp, #-21]	; 0xffffffeb
  104cc4:	e3a03001 	mov	r3, #1
  104cc8:	e58d3000 	str	r3, [sp]
  104ccc:	e3a03001 	mov	r3, #1
  104cd0:	e58d3004 	str	r3, [sp, #4]
  104cd4:	e51b0040 	ldr	r0, [fp, #-64]	; 0xffffffc0
  104cd8:	e1a0300c 	mov	r3, ip
  104cdc:	ebfffb84 	bl	103af4 <alt_dma_memory_to_i2c_master_custom>
  104ce0:	e50b0008 	str	r0, [fp, #-8]
  104ce4:	e51b3008 	ldr	r3, [fp, #-8]
  104ce8:	e3530000 	cmp	r3, #0
  104cec:	1a00000b 	bne	104d20 <alt_dma_i2c_to_memory_master+0x2e8>
  104cf0:	e51b3048 	ldr	r3, [fp, #-72]	; 0xffffffb8
  104cf4:	e5932000 	ldr	r2, [r3]
  104cf8:	e51b3020 	ldr	r3, [fp, #-32]	; 0xffffffe0
  104cfc:	e2433001 	sub	r3, r3, #1
  104d00:	e55b1015 	ldrb	r1, [fp, #-21]	; 0xffffffeb
  104d04:	e58d3000 	str	r3, [sp]
  104d08:	e3a03000 	mov	r3, #0
  104d0c:	e58d3004 	str	r3, [sp, #4]
  104d10:	e51b0040 	ldr	r0, [fp, #-64]	; 0xffffffc0
  104d14:	e51b300c 	ldr	r3, [fp, #-12]
  104d18:	ebfffb75 	bl	103af4 <alt_dma_memory_to_i2c_master_custom>
  104d1c:	e50b0008 	str	r0, [fp, #-8]
  104d20:	ea00005d 	b	104e9c <alt_dma_i2c_to_memory_master+0x464>
  104d24:	e51b3008 	ldr	r3, [fp, #-8]
  104d28:	e3530000 	cmp	r3, #0
  104d2c:	0a000000 	beq	104d34 <alt_dma_i2c_to_memory_master+0x2fc>
  104d30:	ea00005c 	b	104ea8 <alt_dma_i2c_to_memory_master+0x470>
  104d34:	e51b301c 	ldr	r3, [fp, #-28]	; 0xffffffe4
  104d38:	e1a020a3 	lsr	r2, r3, #1
  104d3c:	e51b3014 	ldr	r3, [fp, #-20]	; 0xffffffec
  104d40:	e1520003 	cmp	r2, r3
  104d44:	31a03002 	movcc	r3, r2
  104d48:	21a03003 	movcs	r3, r3
  104d4c:	e50b3024 	str	r3, [fp, #-36]	; 0xffffffdc
  104d50:	e51b3008 	ldr	r3, [fp, #-8]
  104d54:	e3530000 	cmp	r3, #0
  104d58:	1a000008 	bne	104d80 <alt_dma_i2c_to_memory_master+0x348>
  104d5c:	e55b2041 	ldrb	r2, [fp, #-65]	; 0xffffffbf
  104d60:	e51b3024 	ldr	r3, [fp, #-36]	; 0xffffffdc
  104d64:	e58d3000 	str	r3, [sp]
  104d68:	e51b0040 	ldr	r0, [fp, #-64]	; 0xffffffc0
  104d6c:	e1a01002 	mov	r1, r2
  104d70:	e51b2048 	ldr	r2, [fp, #-72]	; 0xffffffb8
  104d74:	e51b304c 	ldr	r3, [fp, #-76]	; 0xffffffb4
  104d78:	ebfffed6 	bl	1048d8 <alt_dma_i2c_to_memory_common>
  104d7c:	e50b0008 	str	r0, [fp, #-8]
  104d80:	e51b2014 	ldr	r2, [fp, #-20]	; 0xffffffec
  104d84:	e51b3024 	ldr	r3, [fp, #-36]	; 0xffffffdc
  104d88:	e0633002 	rsb	r3, r3, r2
  104d8c:	e50b3014 	str	r3, [fp, #-20]	; 0xffffffec
  104d90:	e51b204c 	ldr	r2, [fp, #-76]	; 0xffffffb4
  104d94:	e51b3024 	ldr	r3, [fp, #-36]	; 0xffffffdc
  104d98:	e0823003 	add	r3, r2, r3
  104d9c:	e50b304c 	str	r3, [fp, #-76]	; 0xffffffb4
  104da0:	e51b3010 	ldr	r3, [fp, #-16]
  104da4:	e3530000 	cmp	r3, #0
  104da8:	0a00003b 	beq	104e9c <alt_dma_i2c_to_memory_master+0x464>
  104dac:	e51b301c 	ldr	r3, [fp, #-28]	; 0xffffffe4
  104db0:	e1a020a3 	lsr	r2, r3, #1
  104db4:	e51b3010 	ldr	r3, [fp, #-16]
  104db8:	e1520003 	cmp	r2, r3
  104dbc:	31a03002 	movcc	r3, r2
  104dc0:	21a03003 	movcs	r3, r3
  104dc4:	e50b3028 	str	r3, [fp, #-40]	; 0xffffffd8
  104dc8:	e51b2010 	ldr	r2, [fp, #-16]
  104dcc:	e51b3028 	ldr	r3, [fp, #-40]	; 0xffffffd8
  104dd0:	e0633002 	rsb	r3, r3, r2
  104dd4:	e50b3010 	str	r3, [fp, #-16]
  104dd8:	e51b3010 	ldr	r3, [fp, #-16]
  104ddc:	e3530000 	cmp	r3, #0
  104de0:	1a00001f 	bne	104e64 <alt_dma_i2c_to_memory_master+0x42c>
  104de4:	e51b3008 	ldr	r3, [fp, #-8]
  104de8:	e3530000 	cmp	r3, #0
  104dec:	1a00000b 	bne	104e20 <alt_dma_i2c_to_memory_master+0x3e8>
  104df0:	e51b3048 	ldr	r3, [fp, #-72]	; 0xffffffb8
  104df4:	e5932000 	ldr	r2, [r3]
  104df8:	e51b3028 	ldr	r3, [fp, #-40]	; 0xffffffd8
  104dfc:	e2433001 	sub	r3, r3, #1
  104e00:	e55b1015 	ldrb	r1, [fp, #-21]	; 0xffffffeb
  104e04:	e58d3000 	str	r3, [sp]
  104e08:	e3a03001 	mov	r3, #1
  104e0c:	e58d3004 	str	r3, [sp, #4]
  104e10:	e51b0040 	ldr	r0, [fp, #-64]	; 0xffffffc0
  104e14:	e51b300c 	ldr	r3, [fp, #-12]
  104e18:	ebfffb35 	bl	103af4 <alt_dma_memory_to_i2c_master_custom>
  104e1c:	e50b0008 	str	r0, [fp, #-8]
  104e20:	e51b3008 	ldr	r3, [fp, #-8]
  104e24:	e3530000 	cmp	r3, #0
  104e28:	1a00001b 	bne	104e9c <alt_dma_i2c_to_memory_master+0x464>
  104e2c:	e51b3048 	ldr	r3, [fp, #-72]	; 0xffffffb8
  104e30:	e5932000 	ldr	r2, [r3]
  104e34:	e51b300c 	ldr	r3, [fp, #-12]
  104e38:	e283c008 	add	ip, r3, #8
  104e3c:	e55b1015 	ldrb	r1, [fp, #-21]	; 0xffffffeb
  104e40:	e3a03001 	mov	r3, #1
  104e44:	e58d3000 	str	r3, [sp]
  104e48:	e3a03000 	mov	r3, #0
  104e4c:	e58d3004 	str	r3, [sp, #4]
  104e50:	e51b0040 	ldr	r0, [fp, #-64]	; 0xffffffc0
  104e54:	e1a0300c 	mov	r3, ip
  104e58:	ebfffb25 	bl	103af4 <alt_dma_memory_to_i2c_master_custom>
  104e5c:	e50b0008 	str	r0, [fp, #-8]
  104e60:	ea00000d 	b	104e9c <alt_dma_i2c_to_memory_master+0x464>
  104e64:	e51b3008 	ldr	r3, [fp, #-8]
  104e68:	e3530000 	cmp	r3, #0
  104e6c:	1a00000a 	bne	104e9c <alt_dma_i2c_to_memory_master+0x464>
  104e70:	e51b3048 	ldr	r3, [fp, #-72]	; 0xffffffb8
  104e74:	e5932000 	ldr	r2, [r3]
  104e78:	e55b1015 	ldrb	r1, [fp, #-21]	; 0xffffffeb
  104e7c:	e51b3028 	ldr	r3, [fp, #-40]	; 0xffffffd8
  104e80:	e58d3000 	str	r3, [sp]
  104e84:	e3a03001 	mov	r3, #1
  104e88:	e58d3004 	str	r3, [sp, #4]
  104e8c:	e51b0040 	ldr	r0, [fp, #-64]	; 0xffffffc0
  104e90:	e51b300c 	ldr	r3, [fp, #-12]
  104e94:	ebfffb16 	bl	103af4 <alt_dma_memory_to_i2c_master_custom>
  104e98:	e50b0008 	str	r0, [fp, #-8]
  104e9c:	e51b3014 	ldr	r3, [fp, #-20]	; 0xffffffec
  104ea0:	e3530000 	cmp	r3, #0
  104ea4:	1affff9e 	bne	104d24 <alt_dma_i2c_to_memory_master+0x2ec>
  104ea8:	e51b3008 	ldr	r3, [fp, #-8]
  104eac:	e3530000 	cmp	r3, #0
  104eb0:	1a000010 	bne	104ef8 <alt_dma_i2c_to_memory_master+0x4c0>
  104eb4:	e51b3048 	ldr	r3, [fp, #-72]	; 0xffffffb8
  104eb8:	e2833008 	add	r3, r3, #8
  104ebc:	e3c3301f 	bic	r3, r3, #31
  104ec0:	e50b302c 	str	r3, [fp, #-44]	; 0xffffffd4
  104ec4:	e51b3048 	ldr	r3, [fp, #-72]	; 0xffffffb8
  104ec8:	e2833008 	add	r3, r3, #8
  104ecc:	e283302f 	add	r3, r3, #47	; 0x2f
  104ed0:	e3c3301f 	bic	r3, r3, #31
  104ed4:	e50b3030 	str	r3, [fp, #-48]	; 0xffffffd0
  104ed8:	e51b2030 	ldr	r2, [fp, #-48]	; 0xffffffd0
  104edc:	e51b302c 	ldr	r3, [fp, #-44]	; 0xffffffd4
  104ee0:	e0633002 	rsb	r3, r3, r2
  104ee4:	e50b3034 	str	r3, [fp, #-52]	; 0xffffffcc
  104ee8:	e51b002c 	ldr	r0, [fp, #-44]	; 0xffffffd4
  104eec:	e51b1034 	ldr	r1, [fp, #-52]	; 0xffffffcc
  104ef0:	ebfff0d7 	bl	101254 <alt_cache_system_clean>
  104ef4:	e50b0008 	str	r0, [fp, #-8]
  104ef8:	e51b3008 	ldr	r3, [fp, #-8]
  104efc:	e1a00003 	mov	r0, r3
  104f00:	e24bd004 	sub	sp, fp, #4
  104f04:	e8bd8800 	pop	{fp, pc}

00104f08 <alt_dma_i2c_to_memory>:
  104f08:	e92d4800 	push	{fp, lr}
  104f0c:	e28db004 	add	fp, sp, #4
  104f10:	e24dd020 	sub	sp, sp, #32
  104f14:	e50b0010 	str	r0, [fp, #-16]
  104f18:	e50b2018 	str	r2, [fp, #-24]	; 0xffffffe8
  104f1c:	e50b301c 	str	r3, [fp, #-28]	; 0xffffffe4
  104f20:	e1a03001 	mov	r3, r1
  104f24:	e54b3011 	strb	r3, [fp, #-17]	; 0xffffffef
  104f28:	e3a03000 	mov	r3, #0
  104f2c:	e50b3008 	str	r3, [fp, #-8]
  104f30:	e51b3008 	ldr	r3, [fp, #-8]
  104f34:	e3530000 	cmp	r3, #0
  104f38:	1a000006 	bne	104f58 <alt_dma_i2c_to_memory+0x50>
  104f3c:	e51b3018 	ldr	r3, [fp, #-24]	; 0xffffffe8
  104f40:	e5932000 	ldr	r2, [r3]
  104f44:	e24b3009 	sub	r3, fp, #9
  104f48:	e1a00002 	mov	r0, r2
  104f4c:	e1a01003 	mov	r1, r3
  104f50:	ebfffad2 	bl	103aa0 <alt_i2c_op_mode_get>
  104f54:	e50b0008 	str	r0, [fp, #-8]
  104f58:	e51b3008 	ldr	r3, [fp, #-8]
  104f5c:	e3530000 	cmp	r3, #0
  104f60:	1a000015 	bne	104fbc <alt_dma_i2c_to_memory+0xb4>
  104f64:	e55b3009 	ldrb	r3, [fp, #-9]
  104f68:	e3530001 	cmp	r3, #1
  104f6c:	1a000009 	bne	104f98 <alt_dma_i2c_to_memory+0x90>
  104f70:	e55b2011 	ldrb	r2, [fp, #-17]	; 0xffffffef
  104f74:	e59b3004 	ldr	r3, [fp, #4]
  104f78:	e58d3000 	str	r3, [sp]
  104f7c:	e51b0010 	ldr	r0, [fp, #-16]
  104f80:	e1a01002 	mov	r1, r2
  104f84:	e51b2018 	ldr	r2, [fp, #-24]	; 0xffffffe8
  104f88:	e51b301c 	ldr	r3, [fp, #-28]	; 0xffffffe4
  104f8c:	ebfffea9 	bl	104a38 <alt_dma_i2c_to_memory_master>
  104f90:	e50b0008 	str	r0, [fp, #-8]
  104f94:	ea000008 	b	104fbc <alt_dma_i2c_to_memory+0xb4>
  104f98:	e55b2011 	ldrb	r2, [fp, #-17]	; 0xffffffef
  104f9c:	e59b3004 	ldr	r3, [fp, #4]
  104fa0:	e58d3000 	str	r3, [sp]
  104fa4:	e51b0010 	ldr	r0, [fp, #-16]
  104fa8:	e1a01002 	mov	r1, r2
  104fac:	e51b2018 	ldr	r2, [fp, #-24]	; 0xffffffe8
  104fb0:	e51b301c 	ldr	r3, [fp, #-28]	; 0xffffffe4
  104fb4:	ebfffe47 	bl	1048d8 <alt_dma_i2c_to_memory_common>
  104fb8:	e50b0008 	str	r0, [fp, #-8]
  104fbc:	e51b3008 	ldr	r3, [fp, #-8]
  104fc0:	e1a00003 	mov	r0, r3
  104fc4:	e24bd004 	sub	sp, fp, #4
  104fc8:	e8bd8800 	pop	{fp, pc}

00104fcc <alt_dma_memory_to_qspi_segment>:
  104fcc:	e92d4800 	push	{fp, lr}
  104fd0:	e28db004 	add	fp, sp, #4
  104fd4:	e24dd060 	sub	sp, sp, #96	; 0x60
  104fd8:	e50b0058 	str	r0, [fp, #-88]	; 0xffffffa8
  104fdc:	e50b105c 	str	r1, [fp, #-92]	; 0xffffffa4
  104fe0:	e50b2060 	str	r2, [fp, #-96]	; 0xffffffa0
  104fe4:	e50b3064 	str	r3, [fp, #-100]	; 0xffffff9c
  104fe8:	e51b3064 	ldr	r3, [fp, #-100]	; 0xffffff9c
  104fec:	e2033003 	and	r3, r3, #3
  104ff0:	e3530000 	cmp	r3, #0
  104ff4:	0a000001 	beq	105000 <alt_dma_memory_to_qspi_segment+0x34>
  104ff8:	e3e03000 	mvn	r3, #0
  104ffc:	ea00017d 	b	1055f8 <alt_dma_memory_to_qspi_segment+0x62c>
  105000:	e59b3004 	ldr	r3, [fp, #4]
  105004:	e2033003 	and	r3, r3, #3
  105008:	e3530000 	cmp	r3, #0
  10500c:	0a000001 	beq	105018 <alt_dma_memory_to_qspi_segment+0x4c>
  105010:	e3e03000 	mvn	r3, #0
  105014:	ea000177 	b	1055f8 <alt_dma_memory_to_qspi_segment+0x62c>
  105018:	e3a03000 	mov	r3, #0
  10501c:	e50b3008 	str	r3, [fp, #-8]
  105020:	e51b3008 	ldr	r3, [fp, #-8]
  105024:	e3530000 	cmp	r3, #0
  105028:	1a000004 	bne	105040 <alt_dma_memory_to_qspi_segment+0x74>
  10502c:	e51b0058 	ldr	r0, [fp, #-88]	; 0xffffffa8
  105030:	e3a01000 	mov	r1, #0
  105034:	e51b2064 	ldr	r2, [fp, #-100]	; 0xffffff9c
  105038:	eb000dae 	bl	1086f8 <alt_dma_program_DMAMOV>
  10503c:	e50b0008 	str	r0, [fp, #-8]
  105040:	e51b305c 	ldr	r3, [fp, #-92]	; 0xffffffa4
  105044:	e3a02001 	mov	r2, #1
  105048:	e1a03312 	lsl	r3, r2, r3
  10504c:	e50b3034 	str	r3, [fp, #-52]	; 0xffffffcc
  105050:	e51b3060 	ldr	r3, [fp, #-96]	; 0xffffffa0
  105054:	e3a02001 	mov	r2, #1
  105058:	e1a03312 	lsl	r3, r2, r3
  10505c:	e50b3038 	str	r3, [fp, #-56]	; 0xffffffc8
  105060:	e51b3034 	ldr	r3, [fp, #-52]	; 0xffffffcc
  105064:	e2432001 	sub	r2, r3, #1
  105068:	e59b3004 	ldr	r3, [fp, #4]
  10506c:	e0033002 	and	r3, r3, r2
  105070:	e3530000 	cmp	r3, #0
  105074:	0a000001 	beq	105080 <alt_dma_memory_to_qspi_segment+0xb4>
  105078:	e3e03000 	mvn	r3, #0
  10507c:	ea00015d 	b	1055f8 <alt_dma_memory_to_qspi_segment+0x62c>
  105080:	e51b3064 	ldr	r3, [fp, #-100]	; 0xffffff9c
  105084:	e2033007 	and	r3, r3, #7
  105088:	e3530000 	cmp	r3, #0
  10508c:	0a000028 	beq	105134 <alt_dma_memory_to_qspi_segment+0x168>
  105090:	e51b3008 	ldr	r3, [fp, #-8]
  105094:	e3530000 	cmp	r3, #0
  105098:	1a000005 	bne	1050b4 <alt_dma_memory_to_qspi_segment+0xe8>
  10509c:	e51b0058 	ldr	r0, [fp, #-88]	; 0xffffffa8
  1050a0:	e3a01001 	mov	r1, #1
  1050a4:	e3a02005 	mov	r2, #5
  1050a8:	e3402001 	movt	r2, #1
  1050ac:	eb000d91 	bl	1086f8 <alt_dma_program_DMAMOV>
  1050b0:	e50b0008 	str	r0, [fp, #-8]
  1050b4:	e51b3008 	ldr	r3, [fp, #-8]
  1050b8:	e3530000 	cmp	r3, #0
  1050bc:	1a000003 	bne	1050d0 <alt_dma_memory_to_qspi_segment+0x104>
  1050c0:	e51b0058 	ldr	r0, [fp, #-88]	; 0xffffffa8
  1050c4:	e3a01018 	mov	r1, #24
  1050c8:	eb000b28 	bl	107d70 <alt_dma_program_DMAFLUSHP>
  1050cc:	e50b0008 	str	r0, [fp, #-8]
  1050d0:	e51b3008 	ldr	r3, [fp, #-8]
  1050d4:	e3530000 	cmp	r3, #0
  1050d8:	1a000004 	bne	1050f0 <alt_dma_memory_to_qspi_segment+0x124>
  1050dc:	e51b0058 	ldr	r0, [fp, #-88]	; 0xffffffa8
  1050e0:	e3a01018 	mov	r1, #24
  1050e4:	e3a02001 	mov	r2, #1
  1050e8:	eb000f52 	bl	108e38 <alt_dma_program_DMAWFP>
  1050ec:	e50b0008 	str	r0, [fp, #-8]
  1050f0:	e51b3008 	ldr	r3, [fp, #-8]
  1050f4:	e3530000 	cmp	r3, #0
  1050f8:	1a000003 	bne	10510c <alt_dma_memory_to_qspi_segment+0x140>
  1050fc:	e51b0058 	ldr	r0, [fp, #-88]	; 0xffffffa8
  105100:	e3a01001 	mov	r1, #1
  105104:	eb000bcd 	bl	108040 <alt_dma_program_DMALD>
  105108:	e50b0008 	str	r0, [fp, #-8]
  10510c:	e51b3008 	ldr	r3, [fp, #-8]
  105110:	e3530000 	cmp	r3, #0
  105114:	1a000003 	bne	105128 <alt_dma_memory_to_qspi_segment+0x15c>
  105118:	e51b0058 	ldr	r0, [fp, #-88]	; 0xffffffa8
  10511c:	e3a01001 	mov	r1, #1
  105120:	eb000e63 	bl	108ab4 <alt_dma_program_DMAST>
  105124:	e50b0008 	str	r0, [fp, #-8]
  105128:	e59b3004 	ldr	r3, [fp, #4]
  10512c:	e2433004 	sub	r3, r3, #4
  105130:	e58b3004 	str	r3, [fp, #4]
  105134:	e3a03000 	mov	r3, #0
  105138:	e50b300c 	str	r3, [fp, #-12]
  10513c:	e51b3060 	ldr	r3, [fp, #-96]	; 0xffffffa0
  105140:	e59b2004 	ldr	r2, [fp, #4]
  105144:	e1a03332 	lsr	r3, r2, r3
  105148:	e50b3010 	str	r3, [fp, #-16]
  10514c:	e51b2060 	ldr	r2, [fp, #-96]	; 0xffffffa0
  105150:	e51b305c 	ldr	r3, [fp, #-92]	; 0xffffffa4
  105154:	e1520003 	cmp	r2, r3
  105158:	9a000094 	bls	1053b0 <alt_dma_memory_to_qspi_segment+0x3e4>
  10515c:	e51b3010 	ldr	r3, [fp, #-16]
  105160:	e3530000 	cmp	r3, #0
  105164:	0a000091 	beq	1053b0 <alt_dma_memory_to_qspi_segment+0x3e4>
  105168:	e51b3038 	ldr	r3, [fp, #-56]	; 0xffffffc8
  10516c:	e2432001 	sub	r2, r3, #1
  105170:	e59b3004 	ldr	r3, [fp, #4]
  105174:	e0022003 	and	r2, r2, r3
  105178:	e51b305c 	ldr	r3, [fp, #-92]	; 0xffffffa4
  10517c:	e1a03332 	lsr	r3, r2, r3
  105180:	e50b300c 	str	r3, [fp, #-12]
  105184:	e51b3060 	ldr	r3, [fp, #-96]	; 0xffffffa0
  105188:	e3530003 	cmp	r3, #3
  10518c:	31a03003 	movcc	r3, r3
  105190:	23a03003 	movcs	r3, #3
  105194:	e50b303c 	str	r3, [fp, #-60]	; 0xffffffc4
  105198:	e3a03000 	mov	r3, #0
  10519c:	e50b3014 	str	r3, [fp, #-20]	; 0xffffffec
  1051a0:	e3a03000 	mov	r3, #0
  1051a4:	e50b3018 	str	r3, [fp, #-24]	; 0xffffffe8
  1051a8:	e51b303c 	ldr	r3, [fp, #-60]	; 0xffffffc4
  1051ac:	e51b2038 	ldr	r2, [fp, #-56]	; 0xffffffc8
  1051b0:	e1a03332 	lsr	r3, r2, r3
  1051b4:	e3530010 	cmp	r3, #16
  1051b8:	8a000006 	bhi	1051d8 <alt_dma_memory_to_qspi_segment+0x20c>
  1051bc:	e51b303c 	ldr	r3, [fp, #-60]	; 0xffffffc4
  1051c0:	e51b2038 	ldr	r2, [fp, #-56]	; 0xffffffc8
  1051c4:	e1a03332 	lsr	r3, r2, r3
  1051c8:	e50b3014 	str	r3, [fp, #-20]	; 0xffffffec
  1051cc:	e3a03001 	mov	r3, #1
  1051d0:	e50b3018 	str	r3, [fp, #-24]	; 0xffffffe8
  1051d4:	ea00000b 	b	105208 <alt_dma_memory_to_qspi_segment+0x23c>
  1051d8:	e3a03010 	mov	r3, #16
  1051dc:	e50b3014 	str	r3, [fp, #-20]	; 0xffffffec
  1051e0:	e51b303c 	ldr	r3, [fp, #-60]	; 0xffffffc4
  1051e4:	e51b2038 	ldr	r2, [fp, #-56]	; 0xffffffc8
  1051e8:	e1a03332 	lsr	r3, r2, r3
  1051ec:	e1a03223 	lsr	r3, r3, #4
  1051f0:	e50b3018 	str	r3, [fp, #-24]	; 0xffffffe8
  1051f4:	e51b3018 	ldr	r3, [fp, #-24]	; 0xffffffe8
  1051f8:	e3530000 	cmp	r3, #0
  1051fc:	1a000001 	bne	105208 <alt_dma_memory_to_qspi_segment+0x23c>
  105200:	e3e03000 	mvn	r3, #0
  105204:	e50b3008 	str	r3, [fp, #-8]
  105208:	e51b3038 	ldr	r3, [fp, #-56]	; 0xffffffc8
  10520c:	e1a03123 	lsr	r3, r3, #2
  105210:	e50b3040 	str	r3, [fp, #-64]	; 0xffffffc0
  105214:	e51b3008 	ldr	r3, [fp, #-8]
  105218:	e3530000 	cmp	r3, #0
  10521c:	1a00000c 	bne	105254 <alt_dma_memory_to_qspi_segment+0x288>
  105220:	e51b303c 	ldr	r3, [fp, #-60]	; 0xffffffc4
  105224:	e1a02083 	lsl	r2, r3, #1
  105228:	e51b3014 	ldr	r3, [fp, #-20]	; 0xffffffec
  10522c:	e2433001 	sub	r3, r3, #1
  105230:	e1a03203 	lsl	r3, r3, #4
  105234:	e1823003 	orr	r3, r2, r3
  105238:	e3833801 	orr	r3, r3, #65536	; 0x10000
  10523c:	e3833001 	orr	r3, r3, #1
  105240:	e51b0058 	ldr	r0, [fp, #-88]	; 0xffffffa8
  105244:	e3a01001 	mov	r1, #1
  105248:	e1a02003 	mov	r2, r3
  10524c:	eb000d29 	bl	1086f8 <alt_dma_program_DMAMOV>
  105250:	e50b0008 	str	r0, [fp, #-8]
  105254:	ea000051 	b	1053a0 <alt_dma_memory_to_qspi_segment+0x3d4>
  105258:	e51b3008 	ldr	r3, [fp, #-8]
  10525c:	e3530000 	cmp	r3, #0
  105260:	0a000000 	beq	105268 <alt_dma_memory_to_qspi_segment+0x29c>
  105264:	ea000050 	b	1053ac <alt_dma_memory_to_qspi_segment+0x3e0>
  105268:	e51b3010 	ldr	r3, [fp, #-16]
  10526c:	e3530c01 	cmp	r3, #256	; 0x100
  105270:	31a03003 	movcc	r3, r3
  105274:	23a03c01 	movcs	r3, #256	; 0x100
  105278:	e50b3044 	str	r3, [fp, #-68]	; 0xffffffbc
  10527c:	e51b2010 	ldr	r2, [fp, #-16]
  105280:	e51b3044 	ldr	r3, [fp, #-68]	; 0xffffffbc
  105284:	e0633002 	rsb	r3, r3, r2
  105288:	e50b3010 	str	r3, [fp, #-16]
  10528c:	e51b3008 	ldr	r3, [fp, #-8]
  105290:	e3530000 	cmp	r3, #0
  105294:	1a000006 	bne	1052b4 <alt_dma_memory_to_qspi_segment+0x2e8>
  105298:	e51b3044 	ldr	r3, [fp, #-68]	; 0xffffffbc
  10529c:	e3530001 	cmp	r3, #1
  1052a0:	9a000003 	bls	1052b4 <alt_dma_memory_to_qspi_segment+0x2e8>
  1052a4:	e51b0058 	ldr	r0, [fp, #-88]	; 0xffffffa8
  1052a8:	e51b1044 	ldr	r1, [fp, #-68]	; 0xffffffbc
  1052ac:	eb000be2 	bl	10823c <alt_dma_program_DMALP>
  1052b0:	e50b0008 	str	r0, [fp, #-8]
  1052b4:	e51b3008 	ldr	r3, [fp, #-8]
  1052b8:	e3530000 	cmp	r3, #0
  1052bc:	1a000003 	bne	1052d0 <alt_dma_memory_to_qspi_segment+0x304>
  1052c0:	e51b0058 	ldr	r0, [fp, #-88]	; 0xffffffa8
  1052c4:	e3a01018 	mov	r1, #24
  1052c8:	eb000aa8 	bl	107d70 <alt_dma_program_DMAFLUSHP>
  1052cc:	e50b0008 	str	r0, [fp, #-8]
  1052d0:	e51b3008 	ldr	r3, [fp, #-8]
  1052d4:	e3530000 	cmp	r3, #0
  1052d8:	1a000004 	bne	1052f0 <alt_dma_memory_to_qspi_segment+0x324>
  1052dc:	e51b0058 	ldr	r0, [fp, #-88]	; 0xffffffa8
  1052e0:	e3a01018 	mov	r1, #24
  1052e4:	e3a02002 	mov	r2, #2
  1052e8:	eb000ed2 	bl	108e38 <alt_dma_program_DMAWFP>
  1052ec:	e50b0008 	str	r0, [fp, #-8]
  1052f0:	e3a03000 	mov	r3, #0
  1052f4:	e50b301c 	str	r3, [fp, #-28]	; 0xffffffe4
  1052f8:	ea000009 	b	105324 <alt_dma_memory_to_qspi_segment+0x358>
  1052fc:	e51b3008 	ldr	r3, [fp, #-8]
  105300:	e3530000 	cmp	r3, #0
  105304:	1a000003 	bne	105318 <alt_dma_memory_to_qspi_segment+0x34c>
  105308:	e51b0058 	ldr	r0, [fp, #-88]	; 0xffffffa8
  10530c:	e3a01002 	mov	r1, #2
  105310:	eb000b4a 	bl	108040 <alt_dma_program_DMALD>
  105314:	e50b0008 	str	r0, [fp, #-8]
  105318:	e51b301c 	ldr	r3, [fp, #-28]	; 0xffffffe4
  10531c:	e2833001 	add	r3, r3, #1
  105320:	e50b301c 	str	r3, [fp, #-28]	; 0xffffffe4
  105324:	e51b201c 	ldr	r2, [fp, #-28]	; 0xffffffe4
  105328:	e51b3018 	ldr	r3, [fp, #-24]	; 0xffffffe8
  10532c:	e1520003 	cmp	r2, r3
  105330:	3afffff1 	bcc	1052fc <alt_dma_memory_to_qspi_segment+0x330>
  105334:	e3a03000 	mov	r3, #0
  105338:	e50b3020 	str	r3, [fp, #-32]	; 0xffffffe0
  10533c:	ea000009 	b	105368 <alt_dma_memory_to_qspi_segment+0x39c>
  105340:	e51b3008 	ldr	r3, [fp, #-8]
  105344:	e3530000 	cmp	r3, #0
  105348:	1a000003 	bne	10535c <alt_dma_memory_to_qspi_segment+0x390>
  10534c:	e51b0058 	ldr	r0, [fp, #-88]	; 0xffffffa8
  105350:	e3a01002 	mov	r1, #2
  105354:	eb000dd6 	bl	108ab4 <alt_dma_program_DMAST>
  105358:	e50b0008 	str	r0, [fp, #-8]
  10535c:	e51b3020 	ldr	r3, [fp, #-32]	; 0xffffffe0
  105360:	e2833001 	add	r3, r3, #1
  105364:	e50b3020 	str	r3, [fp, #-32]	; 0xffffffe0
  105368:	e51b2020 	ldr	r2, [fp, #-32]	; 0xffffffe0
  10536c:	e51b3040 	ldr	r3, [fp, #-64]	; 0xffffffc0
  105370:	e1520003 	cmp	r2, r3
  105374:	3afffff1 	bcc	105340 <alt_dma_memory_to_qspi_segment+0x374>
  105378:	e51b3008 	ldr	r3, [fp, #-8]
  10537c:	e3530000 	cmp	r3, #0
  105380:	1a000006 	bne	1053a0 <alt_dma_memory_to_qspi_segment+0x3d4>
  105384:	e51b3044 	ldr	r3, [fp, #-68]	; 0xffffffbc
  105388:	e3530001 	cmp	r3, #1
  10538c:	9a000003 	bls	1053a0 <alt_dma_memory_to_qspi_segment+0x3d4>
  105390:	e51b0058 	ldr	r0, [fp, #-88]	; 0xffffffa8
  105394:	e3a01000 	mov	r1, #0
  105398:	eb000c07 	bl	1083bc <alt_dma_program_DMALPEND>
  10539c:	e50b0008 	str	r0, [fp, #-8]
  1053a0:	e51b3010 	ldr	r3, [fp, #-16]
  1053a4:	e3530000 	cmp	r3, #0
  1053a8:	1affffaa 	bne	105258 <alt_dma_memory_to_qspi_segment+0x28c>
  1053ac:	ea000003 	b	1053c0 <alt_dma_memory_to_qspi_segment+0x3f4>
  1053b0:	e51b305c 	ldr	r3, [fp, #-92]	; 0xffffffa4
  1053b4:	e59b2004 	ldr	r2, [fp, #4]
  1053b8:	e1a03332 	lsr	r3, r2, r3
  1053bc:	e50b300c 	str	r3, [fp, #-12]
  1053c0:	e51b300c 	ldr	r3, [fp, #-12]
  1053c4:	e3530000 	cmp	r3, #0
  1053c8:	0a000089 	beq	1055f4 <alt_dma_memory_to_qspi_segment+0x628>
  1053cc:	e51b305c 	ldr	r3, [fp, #-92]	; 0xffffffa4
  1053d0:	e3530003 	cmp	r3, #3
  1053d4:	31a03003 	movcc	r3, r3
  1053d8:	23a03003 	movcs	r3, #3
  1053dc:	e50b3048 	str	r3, [fp, #-72]	; 0xffffffb8
  1053e0:	e3a03000 	mov	r3, #0
  1053e4:	e50b3024 	str	r3, [fp, #-36]	; 0xffffffdc
  1053e8:	e3a03000 	mov	r3, #0
  1053ec:	e50b3028 	str	r3, [fp, #-40]	; 0xffffffd8
  1053f0:	e51b3048 	ldr	r3, [fp, #-72]	; 0xffffffb8
  1053f4:	e51b2034 	ldr	r2, [fp, #-52]	; 0xffffffcc
  1053f8:	e1a03332 	lsr	r3, r2, r3
  1053fc:	e3530010 	cmp	r3, #16
  105400:	8a000006 	bhi	105420 <alt_dma_memory_to_qspi_segment+0x454>
  105404:	e51b3048 	ldr	r3, [fp, #-72]	; 0xffffffb8
  105408:	e51b2034 	ldr	r2, [fp, #-52]	; 0xffffffcc
  10540c:	e1a03332 	lsr	r3, r2, r3
  105410:	e50b3024 	str	r3, [fp, #-36]	; 0xffffffdc
  105414:	e3a03001 	mov	r3, #1
  105418:	e50b3028 	str	r3, [fp, #-40]	; 0xffffffd8
  10541c:	ea00000b 	b	105450 <alt_dma_memory_to_qspi_segment+0x484>
  105420:	e3a03010 	mov	r3, #16
  105424:	e50b3024 	str	r3, [fp, #-36]	; 0xffffffdc
  105428:	e51b3048 	ldr	r3, [fp, #-72]	; 0xffffffb8
  10542c:	e51b2034 	ldr	r2, [fp, #-52]	; 0xffffffcc
  105430:	e1a03332 	lsr	r3, r2, r3
  105434:	e1a03223 	lsr	r3, r3, #4
  105438:	e50b3028 	str	r3, [fp, #-40]	; 0xffffffd8
  10543c:	e51b3028 	ldr	r3, [fp, #-40]	; 0xffffffd8
  105440:	e3530000 	cmp	r3, #0
  105444:	1a000001 	bne	105450 <alt_dma_memory_to_qspi_segment+0x484>
  105448:	e3e03000 	mvn	r3, #0
  10544c:	e50b3008 	str	r3, [fp, #-8]
  105450:	e51b3034 	ldr	r3, [fp, #-52]	; 0xffffffcc
  105454:	e1a03123 	lsr	r3, r3, #2
  105458:	e50b304c 	str	r3, [fp, #-76]	; 0xffffffb4
  10545c:	e51b3008 	ldr	r3, [fp, #-8]
  105460:	e3530000 	cmp	r3, #0
  105464:	1a00000c 	bne	10549c <alt_dma_memory_to_qspi_segment+0x4d0>
  105468:	e51b3048 	ldr	r3, [fp, #-72]	; 0xffffffb8
  10546c:	e1a02083 	lsl	r2, r3, #1
  105470:	e51b3024 	ldr	r3, [fp, #-36]	; 0xffffffdc
  105474:	e2433001 	sub	r3, r3, #1
  105478:	e1a03203 	lsl	r3, r3, #4
  10547c:	e1823003 	orr	r3, r2, r3
  105480:	e3833801 	orr	r3, r3, #65536	; 0x10000
  105484:	e3833001 	orr	r3, r3, #1
  105488:	e51b0058 	ldr	r0, [fp, #-88]	; 0xffffffa8
  10548c:	e3a01001 	mov	r1, #1
  105490:	e1a02003 	mov	r2, r3
  105494:	eb000c97 	bl	1086f8 <alt_dma_program_DMAMOV>
  105498:	e50b0008 	str	r0, [fp, #-8]
  10549c:	ea000051 	b	1055e8 <alt_dma_memory_to_qspi_segment+0x61c>
  1054a0:	e51b3008 	ldr	r3, [fp, #-8]
  1054a4:	e3530000 	cmp	r3, #0
  1054a8:	0a000000 	beq	1054b0 <alt_dma_memory_to_qspi_segment+0x4e4>
  1054ac:	ea000050 	b	1055f4 <alt_dma_memory_to_qspi_segment+0x628>
  1054b0:	e51b300c 	ldr	r3, [fp, #-12]
  1054b4:	e3530c01 	cmp	r3, #256	; 0x100
  1054b8:	31a03003 	movcc	r3, r3
  1054bc:	23a03c01 	movcs	r3, #256	; 0x100
  1054c0:	e50b3050 	str	r3, [fp, #-80]	; 0xffffffb0
  1054c4:	e51b200c 	ldr	r2, [fp, #-12]
  1054c8:	e51b3050 	ldr	r3, [fp, #-80]	; 0xffffffb0
  1054cc:	e0633002 	rsb	r3, r3, r2
  1054d0:	e50b300c 	str	r3, [fp, #-12]
  1054d4:	e51b3008 	ldr	r3, [fp, #-8]
  1054d8:	e3530000 	cmp	r3, #0
  1054dc:	1a000006 	bne	1054fc <alt_dma_memory_to_qspi_segment+0x530>
  1054e0:	e51b3050 	ldr	r3, [fp, #-80]	; 0xffffffb0
  1054e4:	e3530001 	cmp	r3, #1
  1054e8:	9a000003 	bls	1054fc <alt_dma_memory_to_qspi_segment+0x530>
  1054ec:	e51b0058 	ldr	r0, [fp, #-88]	; 0xffffffa8
  1054f0:	e51b1050 	ldr	r1, [fp, #-80]	; 0xffffffb0
  1054f4:	eb000b50 	bl	10823c <alt_dma_program_DMALP>
  1054f8:	e50b0008 	str	r0, [fp, #-8]
  1054fc:	e51b3008 	ldr	r3, [fp, #-8]
  105500:	e3530000 	cmp	r3, #0
  105504:	1a000003 	bne	105518 <alt_dma_memory_to_qspi_segment+0x54c>
  105508:	e51b0058 	ldr	r0, [fp, #-88]	; 0xffffffa8
  10550c:	e3a01018 	mov	r1, #24
  105510:	eb000a16 	bl	107d70 <alt_dma_program_DMAFLUSHP>
  105514:	e50b0008 	str	r0, [fp, #-8]
  105518:	e51b3008 	ldr	r3, [fp, #-8]
  10551c:	e3530000 	cmp	r3, #0
  105520:	1a000004 	bne	105538 <alt_dma_memory_to_qspi_segment+0x56c>
  105524:	e51b0058 	ldr	r0, [fp, #-88]	; 0xffffffa8
  105528:	e3a01018 	mov	r1, #24
  10552c:	e3a02001 	mov	r2, #1
  105530:	eb000e40 	bl	108e38 <alt_dma_program_DMAWFP>
  105534:	e50b0008 	str	r0, [fp, #-8]
  105538:	e3a03000 	mov	r3, #0
  10553c:	e50b302c 	str	r3, [fp, #-44]	; 0xffffffd4
  105540:	ea000009 	b	10556c <alt_dma_memory_to_qspi_segment+0x5a0>
  105544:	e51b3008 	ldr	r3, [fp, #-8]
  105548:	e3530000 	cmp	r3, #0
  10554c:	1a000003 	bne	105560 <alt_dma_memory_to_qspi_segment+0x594>
  105550:	e51b0058 	ldr	r0, [fp, #-88]	; 0xffffffa8
  105554:	e3a01001 	mov	r1, #1
  105558:	eb000ab8 	bl	108040 <alt_dma_program_DMALD>
  10555c:	e50b0008 	str	r0, [fp, #-8]
  105560:	e51b302c 	ldr	r3, [fp, #-44]	; 0xffffffd4
  105564:	e2833001 	add	r3, r3, #1
  105568:	e50b302c 	str	r3, [fp, #-44]	; 0xffffffd4
  10556c:	e51b202c 	ldr	r2, [fp, #-44]	; 0xffffffd4
  105570:	e51b3028 	ldr	r3, [fp, #-40]	; 0xffffffd8
  105574:	e1520003 	cmp	r2, r3
  105578:	3afffff1 	bcc	105544 <alt_dma_memory_to_qspi_segment+0x578>
  10557c:	e3a03000 	mov	r3, #0
  105580:	e50b3030 	str	r3, [fp, #-48]	; 0xffffffd0
  105584:	ea000009 	b	1055b0 <alt_dma_memory_to_qspi_segment+0x5e4>
  105588:	e51b3008 	ldr	r3, [fp, #-8]
  10558c:	e3530000 	cmp	r3, #0
  105590:	1a000003 	bne	1055a4 <alt_dma_memory_to_qspi_segment+0x5d8>
  105594:	e51b0058 	ldr	r0, [fp, #-88]	; 0xffffffa8
  105598:	e3a01001 	mov	r1, #1
  10559c:	eb000d44 	bl	108ab4 <alt_dma_program_DMAST>
  1055a0:	e50b0008 	str	r0, [fp, #-8]
  1055a4:	e51b3030 	ldr	r3, [fp, #-48]	; 0xffffffd0
  1055a8:	e2833001 	add	r3, r3, #1
  1055ac:	e50b3030 	str	r3, [fp, #-48]	; 0xffffffd0
  1055b0:	e51b2030 	ldr	r2, [fp, #-48]	; 0xffffffd0
  1055b4:	e51b304c 	ldr	r3, [fp, #-76]	; 0xffffffb4
  1055b8:	e1520003 	cmp	r2, r3
  1055bc:	3afffff1 	bcc	105588 <alt_dma_memory_to_qspi_segment+0x5bc>
  1055c0:	e51b3008 	ldr	r3, [fp, #-8]
  1055c4:	e3530000 	cmp	r3, #0
  1055c8:	1a000006 	bne	1055e8 <alt_dma_memory_to_qspi_segment+0x61c>
  1055cc:	e51b3050 	ldr	r3, [fp, #-80]	; 0xffffffb0
  1055d0:	e3530001 	cmp	r3, #1
  1055d4:	9a000003 	bls	1055e8 <alt_dma_memory_to_qspi_segment+0x61c>
  1055d8:	e51b0058 	ldr	r0, [fp, #-88]	; 0xffffffa8
  1055dc:	e3a01000 	mov	r1, #0
  1055e0:	eb000b75 	bl	1083bc <alt_dma_program_DMALPEND>
  1055e4:	e50b0008 	str	r0, [fp, #-8]
  1055e8:	e51b300c 	ldr	r3, [fp, #-12]
  1055ec:	e3530000 	cmp	r3, #0
  1055f0:	1affffaa 	bne	1054a0 <alt_dma_memory_to_qspi_segment+0x4d4>
  1055f4:	e51b3008 	ldr	r3, [fp, #-8]
  1055f8:	e1a00003 	mov	r0, r3
  1055fc:	e24bd004 	sub	sp, fp, #4
  105600:	e8bd8800 	pop	{fp, pc}

00105604 <alt_dma_memory_to_qspi>:
  105604:	e92d4800 	push	{fp, lr}
  105608:	e28db004 	add	fp, sp, #4
  10560c:	e24dd040 	sub	sp, sp, #64	; 0x40
  105610:	e50b0030 	str	r0, [fp, #-48]	; 0xffffffd0
  105614:	e50b1034 	str	r1, [fp, #-52]	; 0xffffffcc
  105618:	e50b2038 	str	r2, [fp, #-56]	; 0xffffffc8
  10561c:	e3a03000 	mov	r3, #0
  105620:	e50b3008 	str	r3, [fp, #-8]
  105624:	e51b3008 	ldr	r3, [fp, #-8]
  105628:	e3530000 	cmp	r3, #0
  10562c:	1a000005 	bne	105648 <alt_dma_memory_to_qspi+0x44>
  105630:	e51b0030 	ldr	r0, [fp, #-48]	; 0xffffffd0
  105634:	e3a01002 	mov	r1, #2
  105638:	e3a02000 	mov	r2, #0
  10563c:	e34f2fa0 	movt	r2, #65440	; 0xffa0
  105640:	eb000c2c 	bl	1086f8 <alt_dma_program_DMAMOV>
  105644:	e50b0008 	str	r0, [fp, #-8]
  105648:	e3053020 	movw	r3, #20512	; 0x5020
  10564c:	e34f3f70 	movt	r3, #65392	; 0xff70
  105650:	e5933000 	ldr	r3, [r3]
  105654:	e50b300c 	str	r3, [fp, #-12]
  105658:	e51b300c 	ldr	r3, [fp, #-12]
  10565c:	e203300f 	and	r3, r3, #15
  105660:	e50b3010 	str	r3, [fp, #-16]
  105664:	e51b300c 	ldr	r3, [fp, #-12]
  105668:	e2033c0f 	and	r3, r3, #3840	; 0xf00
  10566c:	e1a03423 	lsr	r3, r3, #8
  105670:	e50b3014 	str	r3, [fp, #-20]	; 0xffffffec
  105674:	e51b3008 	ldr	r3, [fp, #-8]
  105678:	e3530000 	cmp	r3, #0
  10567c:	1a000005 	bne	105698 <alt_dma_memory_to_qspi+0x94>
  105680:	e24b3024 	sub	r3, fp, #36	; 0x24
  105684:	e1a00003 	mov	r0, r3
  105688:	e51b1034 	ldr	r1, [fp, #-52]	; 0xffffffcc
  10568c:	e51b2038 	ldr	r2, [fp, #-56]	; 0xffffffc8
  105690:	ebfff24a 	bl	101fc0 <alt_mmu_va_to_pa_coalesce_begin>
  105694:	e50b0008 	str	r0, [fp, #-8]
  105698:	ea000021 	b	105724 <alt_dma_memory_to_qspi+0x120>
  10569c:	e51b3008 	ldr	r3, [fp, #-8]
  1056a0:	e3530000 	cmp	r3, #0
  1056a4:	1a000021 	bne	105730 <alt_dma_memory_to_qspi+0x12c>
  1056a8:	e3a03000 	mov	r3, #0
  1056ac:	e50b3028 	str	r3, [fp, #-40]	; 0xffffffd8
  1056b0:	e3a03000 	mov	r3, #0
  1056b4:	e50b302c 	str	r3, [fp, #-44]	; 0xffffffd4
  1056b8:	e51b3008 	ldr	r3, [fp, #-8]
  1056bc:	e3530000 	cmp	r3, #0
  1056c0:	1a000007 	bne	1056e4 <alt_dma_memory_to_qspi+0xe0>
  1056c4:	e24b1024 	sub	r1, fp, #36	; 0x24
  1056c8:	e24b2028 	sub	r2, fp, #40	; 0x28
  1056cc:	e24b302c 	sub	r3, fp, #44	; 0x2c
  1056d0:	e1a00001 	mov	r0, r1
  1056d4:	e1a01002 	mov	r1, r2
  1056d8:	e1a02003 	mov	r2, r3
  1056dc:	ebfff267 	bl	102080 <alt_mmu_va_to_pa_coalesce_next>
  1056e0:	e50b0008 	str	r0, [fp, #-8]
  1056e4:	e51b302c 	ldr	r3, [fp, #-44]	; 0xffffffd4
  1056e8:	e51b2038 	ldr	r2, [fp, #-56]	; 0xffffffc8
  1056ec:	e0633002 	rsb	r3, r3, r2
  1056f0:	e50b3038 	str	r3, [fp, #-56]	; 0xffffffc8
  1056f4:	e51b3008 	ldr	r3, [fp, #-8]
  1056f8:	e3530000 	cmp	r3, #0
  1056fc:	1a000008 	bne	105724 <alt_dma_memory_to_qspi+0x120>
  105700:	e51bc028 	ldr	ip, [fp, #-40]	; 0xffffffd8
  105704:	e51b302c 	ldr	r3, [fp, #-44]	; 0xffffffd4
  105708:	e58d3000 	str	r3, [sp]
  10570c:	e51b0030 	ldr	r0, [fp, #-48]	; 0xffffffd0
  105710:	e51b1010 	ldr	r1, [fp, #-16]
  105714:	e51b2014 	ldr	r2, [fp, #-20]	; 0xffffffec
  105718:	e1a0300c 	mov	r3, ip
  10571c:	ebfffe2a 	bl	104fcc <alt_dma_memory_to_qspi_segment>
  105720:	e50b0008 	str	r0, [fp, #-8]
  105724:	e51b3038 	ldr	r3, [fp, #-56]	; 0xffffffc8
  105728:	e3530000 	cmp	r3, #0
  10572c:	1affffda 	bne	10569c <alt_dma_memory_to_qspi+0x98>
  105730:	e51b3008 	ldr	r3, [fp, #-8]
  105734:	e3530000 	cmp	r3, #0
  105738:	1a000003 	bne	10574c <alt_dma_memory_to_qspi+0x148>
  10573c:	e24b3024 	sub	r3, fp, #36	; 0x24
  105740:	e1a00003 	mov	r0, r3
  105744:	ebfff2ae 	bl	102204 <alt_mmu_va_to_pa_coalesce_end>
  105748:	e50b0008 	str	r0, [fp, #-8]
  10574c:	e51b3008 	ldr	r3, [fp, #-8]
  105750:	e1a00003 	mov	r0, r3
  105754:	e24bd004 	sub	sp, fp, #4
  105758:	e8bd8800 	pop	{fp, pc}

0010575c <alt_dma_qspi_to_memory_segment>:
  10575c:	e92d4800 	push	{fp, lr}
  105760:	e28db004 	add	fp, sp, #4
  105764:	e24dd080 	sub	sp, sp, #128	; 0x80
  105768:	e50b0078 	str	r0, [fp, #-120]	; 0xffffff88
  10576c:	e50b107c 	str	r1, [fp, #-124]	; 0xffffff84
  105770:	e50b2080 	str	r2, [fp, #-128]	; 0xffffff80
  105774:	e50b3084 	str	r3, [fp, #-132]	; 0xffffff7c
  105778:	e51b3084 	ldr	r3, [fp, #-132]	; 0xffffff7c
  10577c:	e2033003 	and	r3, r3, #3
  105780:	e3530000 	cmp	r3, #0
  105784:	0a000001 	beq	105790 <alt_dma_qspi_to_memory_segment+0x34>
  105788:	e3e03000 	mvn	r3, #0
  10578c:	ea000259 	b	1060f8 <alt_dma_qspi_to_memory_segment+0x99c>
  105790:	e59b3004 	ldr	r3, [fp, #4]
  105794:	e2033003 	and	r3, r3, #3
  105798:	e3530000 	cmp	r3, #0
  10579c:	0a000001 	beq	1057a8 <alt_dma_qspi_to_memory_segment+0x4c>
  1057a0:	e3e03000 	mvn	r3, #0
  1057a4:	ea000253 	b	1060f8 <alt_dma_qspi_to_memory_segment+0x99c>
  1057a8:	e3a03000 	mov	r3, #0
  1057ac:	e50b3008 	str	r3, [fp, #-8]
  1057b0:	e51b3008 	ldr	r3, [fp, #-8]
  1057b4:	e3530000 	cmp	r3, #0
  1057b8:	1a000004 	bne	1057d0 <alt_dma_qspi_to_memory_segment+0x74>
  1057bc:	e51b0078 	ldr	r0, [fp, #-120]	; 0xffffff88
  1057c0:	e3a01002 	mov	r1, #2
  1057c4:	e51b2084 	ldr	r2, [fp, #-132]	; 0xffffff7c
  1057c8:	eb000bca 	bl	1086f8 <alt_dma_program_DMAMOV>
  1057cc:	e50b0008 	str	r0, [fp, #-8]
  1057d0:	e51b307c 	ldr	r3, [fp, #-124]	; 0xffffff84
  1057d4:	e3a02001 	mov	r2, #1
  1057d8:	e1a03312 	lsl	r3, r2, r3
  1057dc:	e50b304c 	str	r3, [fp, #-76]	; 0xffffffb4
  1057e0:	e51b3080 	ldr	r3, [fp, #-128]	; 0xffffff80
  1057e4:	e3a02001 	mov	r2, #1
  1057e8:	e1a03312 	lsl	r3, r2, r3
  1057ec:	e50b3050 	str	r3, [fp, #-80]	; 0xffffffb0
  1057f0:	e51b304c 	ldr	r3, [fp, #-76]	; 0xffffffb4
  1057f4:	e2432001 	sub	r2, r3, #1
  1057f8:	e59b3004 	ldr	r3, [fp, #4]
  1057fc:	e0033002 	and	r3, r3, r2
  105800:	e3530000 	cmp	r3, #0
  105804:	0a000001 	beq	105810 <alt_dma_qspi_to_memory_segment+0xb4>
  105808:	e3e03000 	mvn	r3, #0
  10580c:	ea000239 	b	1060f8 <alt_dma_qspi_to_memory_segment+0x99c>
  105810:	e51b3084 	ldr	r3, [fp, #-132]	; 0xffffff7c
  105814:	e2033007 	and	r3, r3, #7
  105818:	e3530000 	cmp	r3, #0
  10581c:	0a000028 	beq	1058c4 <alt_dma_qspi_to_memory_segment+0x168>
  105820:	e51b3008 	ldr	r3, [fp, #-8]
  105824:	e3530000 	cmp	r3, #0
  105828:	1a000005 	bne	105844 <alt_dma_qspi_to_memory_segment+0xe8>
  10582c:	e51b0078 	ldr	r0, [fp, #-120]	; 0xffffff88
  105830:	e3a01001 	mov	r1, #1
  105834:	e3042004 	movw	r2, #16388	; 0x4004
  105838:	e3402001 	movt	r2, #1
  10583c:	eb000bad 	bl	1086f8 <alt_dma_program_DMAMOV>
  105840:	e50b0008 	str	r0, [fp, #-8]
  105844:	e51b3008 	ldr	r3, [fp, #-8]
  105848:	e3530000 	cmp	r3, #0
  10584c:	1a000003 	bne	105860 <alt_dma_qspi_to_memory_segment+0x104>
  105850:	e51b0078 	ldr	r0, [fp, #-120]	; 0xffffff88
  105854:	e3a01019 	mov	r1, #25
  105858:	eb000944 	bl	107d70 <alt_dma_program_DMAFLUSHP>
  10585c:	e50b0008 	str	r0, [fp, #-8]
  105860:	e51b3008 	ldr	r3, [fp, #-8]
  105864:	e3530000 	cmp	r3, #0
  105868:	1a000004 	bne	105880 <alt_dma_qspi_to_memory_segment+0x124>
  10586c:	e51b0078 	ldr	r0, [fp, #-120]	; 0xffffff88
  105870:	e3a01019 	mov	r1, #25
  105874:	e3a02001 	mov	r2, #1
  105878:	eb000d6e 	bl	108e38 <alt_dma_program_DMAWFP>
  10587c:	e50b0008 	str	r0, [fp, #-8]
  105880:	e51b3008 	ldr	r3, [fp, #-8]
  105884:	e3530000 	cmp	r3, #0
  105888:	1a000003 	bne	10589c <alt_dma_qspi_to_memory_segment+0x140>
  10588c:	e51b0078 	ldr	r0, [fp, #-120]	; 0xffffff88
  105890:	e3a01001 	mov	r1, #1
  105894:	eb0009e9 	bl	108040 <alt_dma_program_DMALD>
  105898:	e50b0008 	str	r0, [fp, #-8]
  10589c:	e51b3008 	ldr	r3, [fp, #-8]
  1058a0:	e3530000 	cmp	r3, #0
  1058a4:	1a000003 	bne	1058b8 <alt_dma_qspi_to_memory_segment+0x15c>
  1058a8:	e51b0078 	ldr	r0, [fp, #-120]	; 0xffffff88
  1058ac:	e3a01001 	mov	r1, #1
  1058b0:	eb000c7f 	bl	108ab4 <alt_dma_program_DMAST>
  1058b4:	e50b0008 	str	r0, [fp, #-8]
  1058b8:	e59b3004 	ldr	r3, [fp, #4]
  1058bc:	e2433004 	sub	r3, r3, #4
  1058c0:	e58b3004 	str	r3, [fp, #4]
  1058c4:	e3a03000 	mov	r3, #0
  1058c8:	e50b300c 	str	r3, [fp, #-12]
  1058cc:	e51b3080 	ldr	r3, [fp, #-128]	; 0xffffff80
  1058d0:	e59b2004 	ldr	r2, [fp, #4]
  1058d4:	e1a03332 	lsr	r3, r2, r3
  1058d8:	e50b3010 	str	r3, [fp, #-16]
  1058dc:	e51b2080 	ldr	r2, [fp, #-128]	; 0xffffff80
  1058e0:	e51b307c 	ldr	r3, [fp, #-124]	; 0xffffff84
  1058e4:	e1520003 	cmp	r2, r3
  1058e8:	9a000102 	bls	105cf8 <alt_dma_qspi_to_memory_segment+0x59c>
  1058ec:	e51b3010 	ldr	r3, [fp, #-16]
  1058f0:	e3530000 	cmp	r3, #0
  1058f4:	0a0000ff 	beq	105cf8 <alt_dma_qspi_to_memory_segment+0x59c>
  1058f8:	e51b3050 	ldr	r3, [fp, #-80]	; 0xffffffb0
  1058fc:	e2432001 	sub	r2, r3, #1
  105900:	e59b3004 	ldr	r3, [fp, #4]
  105904:	e0022003 	and	r2, r2, r3
  105908:	e51b307c 	ldr	r3, [fp, #-124]	; 0xffffff84
  10590c:	e1a03332 	lsr	r3, r2, r3
  105910:	e50b300c 	str	r3, [fp, #-12]
  105914:	e51b3080 	ldr	r3, [fp, #-128]	; 0xffffff80
  105918:	e3530003 	cmp	r3, #3
  10591c:	31a03003 	movcc	r3, r3
  105920:	23a03003 	movcs	r3, #3
  105924:	e50b3054 	str	r3, [fp, #-84]	; 0xffffffac
  105928:	e3a03000 	mov	r3, #0
  10592c:	e50b3014 	str	r3, [fp, #-20]	; 0xffffffec
  105930:	e3a03000 	mov	r3, #0
  105934:	e50b3018 	str	r3, [fp, #-24]	; 0xffffffe8
  105938:	e51b3054 	ldr	r3, [fp, #-84]	; 0xffffffac
  10593c:	e51b2050 	ldr	r2, [fp, #-80]	; 0xffffffb0
  105940:	e1a03332 	lsr	r3, r2, r3
  105944:	e3530010 	cmp	r3, #16
  105948:	8a000006 	bhi	105968 <alt_dma_qspi_to_memory_segment+0x20c>
  10594c:	e51b3054 	ldr	r3, [fp, #-84]	; 0xffffffac
  105950:	e51b2050 	ldr	r2, [fp, #-80]	; 0xffffffb0
  105954:	e1a03332 	lsr	r3, r2, r3
  105958:	e50b3014 	str	r3, [fp, #-20]	; 0xffffffec
  10595c:	e3a03001 	mov	r3, #1
  105960:	e50b3018 	str	r3, [fp, #-24]	; 0xffffffe8
  105964:	ea00000b 	b	105998 <alt_dma_qspi_to_memory_segment+0x23c>
  105968:	e3a03010 	mov	r3, #16
  10596c:	e50b3014 	str	r3, [fp, #-20]	; 0xffffffec
  105970:	e51b3054 	ldr	r3, [fp, #-84]	; 0xffffffac
  105974:	e51b2050 	ldr	r2, [fp, #-80]	; 0xffffffb0
  105978:	e1a03332 	lsr	r3, r2, r3
  10597c:	e1a03223 	lsr	r3, r3, #4
  105980:	e50b3018 	str	r3, [fp, #-24]	; 0xffffffe8
  105984:	e51b3018 	ldr	r3, [fp, #-24]	; 0xffffffe8
  105988:	e3530000 	cmp	r3, #0
  10598c:	1a000001 	bne	105998 <alt_dma_qspi_to_memory_segment+0x23c>
  105990:	e3e03000 	mvn	r3, #0
  105994:	e50b3008 	str	r3, [fp, #-8]
  105998:	e51b3050 	ldr	r3, [fp, #-80]	; 0xffffffb0
  10599c:	e1a03123 	lsr	r3, r3, #2
  1059a0:	e50b3058 	str	r3, [fp, #-88]	; 0xffffffa8
  1059a4:	e51b3008 	ldr	r3, [fp, #-8]
  1059a8:	e3530000 	cmp	r3, #0
  1059ac:	1a00000c 	bne	1059e4 <alt_dma_qspi_to_memory_segment+0x288>
  1059b0:	e51b3054 	ldr	r3, [fp, #-84]	; 0xffffffac
  1059b4:	e1a02783 	lsl	r2, r3, #15
  1059b8:	e51b3014 	ldr	r3, [fp, #-20]	; 0xffffffec
  1059bc:	e2433001 	sub	r3, r3, #1
  1059c0:	e1a03903 	lsl	r3, r3, #18
  1059c4:	e1823003 	orr	r3, r2, r3
  1059c8:	e3833901 	orr	r3, r3, #16384	; 0x4000
  1059cc:	e3833004 	orr	r3, r3, #4
  1059d0:	e51b0078 	ldr	r0, [fp, #-120]	; 0xffffff88
  1059d4:	e3a01001 	mov	r1, #1
  1059d8:	e1a02003 	mov	r2, r3
  1059dc:	eb000b45 	bl	1086f8 <alt_dma_program_DMAMOV>
  1059e0:	e50b0008 	str	r0, [fp, #-8]
  1059e4:	e51b3010 	ldr	r3, [fp, #-16]
  1059e8:	e1a03423 	lsr	r3, r3, #8
  1059ec:	e3530000 	cmp	r3, #0
  1059f0:	0a000069 	beq	105b9c <alt_dma_qspi_to_memory_segment+0x440>
  1059f4:	e51b3010 	ldr	r3, [fp, #-16]
  1059f8:	e1a03423 	lsr	r3, r3, #8
  1059fc:	e50b301c 	str	r3, [fp, #-28]	; 0xffffffe4
  105a00:	e51b3010 	ldr	r3, [fp, #-16]
  105a04:	e6ef3073 	uxtb	r3, r3
  105a08:	e50b3010 	str	r3, [fp, #-16]
  105a0c:	ea00005f 	b	105b90 <alt_dma_qspi_to_memory_segment+0x434>
  105a10:	e51b3008 	ldr	r3, [fp, #-8]
  105a14:	e3530000 	cmp	r3, #0
  105a18:	0a000000 	beq	105a20 <alt_dma_qspi_to_memory_segment+0x2c4>
  105a1c:	ea00005e 	b	105b9c <alt_dma_qspi_to_memory_segment+0x440>
  105a20:	e51b301c 	ldr	r3, [fp, #-28]	; 0xffffffe4
  105a24:	e3530c01 	cmp	r3, #256	; 0x100
  105a28:	31a03003 	movcc	r3, r3
  105a2c:	23a03c01 	movcs	r3, #256	; 0x100
  105a30:	e50b305c 	str	r3, [fp, #-92]	; 0xffffffa4
  105a34:	e51b201c 	ldr	r2, [fp, #-28]	; 0xffffffe4
  105a38:	e51b305c 	ldr	r3, [fp, #-92]	; 0xffffffa4
  105a3c:	e0633002 	rsb	r3, r3, r2
  105a40:	e50b301c 	str	r3, [fp, #-28]	; 0xffffffe4
  105a44:	e51b3008 	ldr	r3, [fp, #-8]
  105a48:	e3530000 	cmp	r3, #0
  105a4c:	1a000006 	bne	105a6c <alt_dma_qspi_to_memory_segment+0x310>
  105a50:	e51b305c 	ldr	r3, [fp, #-92]	; 0xffffffa4
  105a54:	e3530001 	cmp	r3, #1
  105a58:	9a000003 	bls	105a6c <alt_dma_qspi_to_memory_segment+0x310>
  105a5c:	e51b0078 	ldr	r0, [fp, #-120]	; 0xffffff88
  105a60:	e51b105c 	ldr	r1, [fp, #-92]	; 0xffffffa4
  105a64:	eb0009f4 	bl	10823c <alt_dma_program_DMALP>
  105a68:	e50b0008 	str	r0, [fp, #-8]
  105a6c:	e51b3008 	ldr	r3, [fp, #-8]
  105a70:	e3530000 	cmp	r3, #0
  105a74:	1a000003 	bne	105a88 <alt_dma_qspi_to_memory_segment+0x32c>
  105a78:	e51b0078 	ldr	r0, [fp, #-120]	; 0xffffff88
  105a7c:	e3a01c01 	mov	r1, #256	; 0x100
  105a80:	eb0009ed 	bl	10823c <alt_dma_program_DMALP>
  105a84:	e50b0008 	str	r0, [fp, #-8]
  105a88:	e51b3008 	ldr	r3, [fp, #-8]
  105a8c:	e3530000 	cmp	r3, #0
  105a90:	1a000003 	bne	105aa4 <alt_dma_qspi_to_memory_segment+0x348>
  105a94:	e51b0078 	ldr	r0, [fp, #-120]	; 0xffffff88
  105a98:	e3a01019 	mov	r1, #25
  105a9c:	eb0008b3 	bl	107d70 <alt_dma_program_DMAFLUSHP>
  105aa0:	e50b0008 	str	r0, [fp, #-8]
  105aa4:	e51b3008 	ldr	r3, [fp, #-8]
  105aa8:	e3530000 	cmp	r3, #0
  105aac:	1a000004 	bne	105ac4 <alt_dma_qspi_to_memory_segment+0x368>
  105ab0:	e51b0078 	ldr	r0, [fp, #-120]	; 0xffffff88
  105ab4:	e3a01019 	mov	r1, #25
  105ab8:	e3a02002 	mov	r2, #2
  105abc:	eb000cdd 	bl	108e38 <alt_dma_program_DMAWFP>
  105ac0:	e50b0008 	str	r0, [fp, #-8]
  105ac4:	e3a03000 	mov	r3, #0
  105ac8:	e50b3020 	str	r3, [fp, #-32]	; 0xffffffe0
  105acc:	ea000009 	b	105af8 <alt_dma_qspi_to_memory_segment+0x39c>
  105ad0:	e51b3008 	ldr	r3, [fp, #-8]
  105ad4:	e3530000 	cmp	r3, #0
  105ad8:	1a000003 	bne	105aec <alt_dma_qspi_to_memory_segment+0x390>
  105adc:	e51b0078 	ldr	r0, [fp, #-120]	; 0xffffff88
  105ae0:	e3a01002 	mov	r1, #2
  105ae4:	eb000955 	bl	108040 <alt_dma_program_DMALD>
  105ae8:	e50b0008 	str	r0, [fp, #-8]
  105aec:	e51b3020 	ldr	r3, [fp, #-32]	; 0xffffffe0
  105af0:	e2833001 	add	r3, r3, #1
  105af4:	e50b3020 	str	r3, [fp, #-32]	; 0xffffffe0
  105af8:	e51b2020 	ldr	r2, [fp, #-32]	; 0xffffffe0
  105afc:	e51b3058 	ldr	r3, [fp, #-88]	; 0xffffffa8
  105b00:	e1520003 	cmp	r2, r3
  105b04:	3afffff1 	bcc	105ad0 <alt_dma_qspi_to_memory_segment+0x374>
  105b08:	e3a03000 	mov	r3, #0
  105b0c:	e50b3024 	str	r3, [fp, #-36]	; 0xffffffdc
  105b10:	ea000009 	b	105b3c <alt_dma_qspi_to_memory_segment+0x3e0>
  105b14:	e51b3008 	ldr	r3, [fp, #-8]
  105b18:	e3530000 	cmp	r3, #0
  105b1c:	1a000003 	bne	105b30 <alt_dma_qspi_to_memory_segment+0x3d4>
  105b20:	e51b0078 	ldr	r0, [fp, #-120]	; 0xffffff88
  105b24:	e3a01002 	mov	r1, #2
  105b28:	eb000be1 	bl	108ab4 <alt_dma_program_DMAST>
  105b2c:	e50b0008 	str	r0, [fp, #-8]
  105b30:	e51b3024 	ldr	r3, [fp, #-36]	; 0xffffffdc
  105b34:	e2833001 	add	r3, r3, #1
  105b38:	e50b3024 	str	r3, [fp, #-36]	; 0xffffffdc
  105b3c:	e51b2024 	ldr	r2, [fp, #-36]	; 0xffffffdc
  105b40:	e51b3018 	ldr	r3, [fp, #-24]	; 0xffffffe8
  105b44:	e1520003 	cmp	r2, r3
  105b48:	3afffff1 	bcc	105b14 <alt_dma_qspi_to_memory_segment+0x3b8>
  105b4c:	e51b3008 	ldr	r3, [fp, #-8]
  105b50:	e3530000 	cmp	r3, #0
  105b54:	1a000003 	bne	105b68 <alt_dma_qspi_to_memory_segment+0x40c>
  105b58:	e51b0078 	ldr	r0, [fp, #-120]	; 0xffffff88
  105b5c:	e3a01000 	mov	r1, #0
  105b60:	eb000a15 	bl	1083bc <alt_dma_program_DMALPEND>
  105b64:	e50b0008 	str	r0, [fp, #-8]
  105b68:	e51b3008 	ldr	r3, [fp, #-8]
  105b6c:	e3530000 	cmp	r3, #0
  105b70:	1a000006 	bne	105b90 <alt_dma_qspi_to_memory_segment+0x434>
  105b74:	e51b305c 	ldr	r3, [fp, #-92]	; 0xffffffa4
  105b78:	e3530001 	cmp	r3, #1
  105b7c:	9a000003 	bls	105b90 <alt_dma_qspi_to_memory_segment+0x434>
  105b80:	e51b0078 	ldr	r0, [fp, #-120]	; 0xffffff88
  105b84:	e3a01000 	mov	r1, #0
  105b88:	eb000a0b 	bl	1083bc <alt_dma_program_DMALPEND>
  105b8c:	e50b0008 	str	r0, [fp, #-8]
  105b90:	e51b301c 	ldr	r3, [fp, #-28]	; 0xffffffe4
  105b94:	e3530000 	cmp	r3, #0
  105b98:	1affff9c 	bne	105a10 <alt_dma_qspi_to_memory_segment+0x2b4>
  105b9c:	ea000051 	b	105ce8 <alt_dma_qspi_to_memory_segment+0x58c>
  105ba0:	e51b3008 	ldr	r3, [fp, #-8]
  105ba4:	e3530000 	cmp	r3, #0
  105ba8:	0a000000 	beq	105bb0 <alt_dma_qspi_to_memory_segment+0x454>
  105bac:	ea000050 	b	105cf4 <alt_dma_qspi_to_memory_segment+0x598>
  105bb0:	e51b3010 	ldr	r3, [fp, #-16]
  105bb4:	e3530c01 	cmp	r3, #256	; 0x100
  105bb8:	31a03003 	movcc	r3, r3
  105bbc:	23a03c01 	movcs	r3, #256	; 0x100
  105bc0:	e50b3060 	str	r3, [fp, #-96]	; 0xffffffa0
  105bc4:	e51b2010 	ldr	r2, [fp, #-16]
  105bc8:	e51b3060 	ldr	r3, [fp, #-96]	; 0xffffffa0
  105bcc:	e0633002 	rsb	r3, r3, r2
  105bd0:	e50b3010 	str	r3, [fp, #-16]
  105bd4:	e51b3008 	ldr	r3, [fp, #-8]
  105bd8:	e3530000 	cmp	r3, #0
  105bdc:	1a000006 	bne	105bfc <alt_dma_qspi_to_memory_segment+0x4a0>
  105be0:	e51b3060 	ldr	r3, [fp, #-96]	; 0xffffffa0
  105be4:	e3530001 	cmp	r3, #1
  105be8:	9a000003 	bls	105bfc <alt_dma_qspi_to_memory_segment+0x4a0>
  105bec:	e51b0078 	ldr	r0, [fp, #-120]	; 0xffffff88
  105bf0:	e51b1060 	ldr	r1, [fp, #-96]	; 0xffffffa0
  105bf4:	eb000990 	bl	10823c <alt_dma_program_DMALP>
  105bf8:	e50b0008 	str	r0, [fp, #-8]
  105bfc:	e51b3008 	ldr	r3, [fp, #-8]
  105c00:	e3530000 	cmp	r3, #0
  105c04:	1a000003 	bne	105c18 <alt_dma_qspi_to_memory_segment+0x4bc>
  105c08:	e51b0078 	ldr	r0, [fp, #-120]	; 0xffffff88
  105c0c:	e3a01019 	mov	r1, #25
  105c10:	eb000856 	bl	107d70 <alt_dma_program_DMAFLUSHP>
  105c14:	e50b0008 	str	r0, [fp, #-8]
  105c18:	e51b3008 	ldr	r3, [fp, #-8]
  105c1c:	e3530000 	cmp	r3, #0
  105c20:	1a000004 	bne	105c38 <alt_dma_qspi_to_memory_segment+0x4dc>
  105c24:	e51b0078 	ldr	r0, [fp, #-120]	; 0xffffff88
  105c28:	e3a01019 	mov	r1, #25
  105c2c:	e3a02002 	mov	r2, #2
  105c30:	eb000c80 	bl	108e38 <alt_dma_program_DMAWFP>
  105c34:	e50b0008 	str	r0, [fp, #-8]
  105c38:	e3a03000 	mov	r3, #0
  105c3c:	e50b3028 	str	r3, [fp, #-40]	; 0xffffffd8
  105c40:	ea000009 	b	105c6c <alt_dma_qspi_to_memory_segment+0x510>
  105c44:	e51b3008 	ldr	r3, [fp, #-8]
  105c48:	e3530000 	cmp	r3, #0
  105c4c:	1a000003 	bne	105c60 <alt_dma_qspi_to_memory_segment+0x504>
  105c50:	e51b0078 	ldr	r0, [fp, #-120]	; 0xffffff88
  105c54:	e3a01002 	mov	r1, #2
  105c58:	eb0008f8 	bl	108040 <alt_dma_program_DMALD>
  105c5c:	e50b0008 	str	r0, [fp, #-8]
  105c60:	e51b3028 	ldr	r3, [fp, #-40]	; 0xffffffd8
  105c64:	e2833001 	add	r3, r3, #1
  105c68:	e50b3028 	str	r3, [fp, #-40]	; 0xffffffd8
  105c6c:	e51b2028 	ldr	r2, [fp, #-40]	; 0xffffffd8
  105c70:	e51b3058 	ldr	r3, [fp, #-88]	; 0xffffffa8
  105c74:	e1520003 	cmp	r2, r3
  105c78:	3afffff1 	bcc	105c44 <alt_dma_qspi_to_memory_segment+0x4e8>
  105c7c:	e3a03000 	mov	r3, #0
  105c80:	e50b302c 	str	r3, [fp, #-44]	; 0xffffffd4
  105c84:	ea000009 	b	105cb0 <alt_dma_qspi_to_memory_segment+0x554>
  105c88:	e51b3008 	ldr	r3, [fp, #-8]
  105c8c:	e3530000 	cmp	r3, #0
  105c90:	1a000003 	bne	105ca4 <alt_dma_qspi_to_memory_segment+0x548>
  105c94:	e51b0078 	ldr	r0, [fp, #-120]	; 0xffffff88
  105c98:	e3a01002 	mov	r1, #2
  105c9c:	eb000b84 	bl	108ab4 <alt_dma_program_DMAST>
  105ca0:	e50b0008 	str	r0, [fp, #-8]
  105ca4:	e51b302c 	ldr	r3, [fp, #-44]	; 0xffffffd4
  105ca8:	e2833001 	add	r3, r3, #1
  105cac:	e50b302c 	str	r3, [fp, #-44]	; 0xffffffd4
  105cb0:	e51b202c 	ldr	r2, [fp, #-44]	; 0xffffffd4
  105cb4:	e51b3018 	ldr	r3, [fp, #-24]	; 0xffffffe8
  105cb8:	e1520003 	cmp	r2, r3
  105cbc:	3afffff1 	bcc	105c88 <alt_dma_qspi_to_memory_segment+0x52c>
  105cc0:	e51b3008 	ldr	r3, [fp, #-8]
  105cc4:	e3530000 	cmp	r3, #0
  105cc8:	1a000006 	bne	105ce8 <alt_dma_qspi_to_memory_segment+0x58c>
  105ccc:	e51b3060 	ldr	r3, [fp, #-96]	; 0xffffffa0
  105cd0:	e3530001 	cmp	r3, #1
  105cd4:	9a000003 	bls	105ce8 <alt_dma_qspi_to_memory_segment+0x58c>
  105cd8:	e51b0078 	ldr	r0, [fp, #-120]	; 0xffffff88
  105cdc:	e3a01000 	mov	r1, #0
  105ce0:	eb0009b5 	bl	1083bc <alt_dma_program_DMALPEND>
  105ce4:	e50b0008 	str	r0, [fp, #-8]
  105ce8:	e51b3010 	ldr	r3, [fp, #-16]
  105cec:	e3530000 	cmp	r3, #0
  105cf0:	1affffaa 	bne	105ba0 <alt_dma_qspi_to_memory_segment+0x444>
  105cf4:	ea000003 	b	105d08 <alt_dma_qspi_to_memory_segment+0x5ac>
  105cf8:	e51b307c 	ldr	r3, [fp, #-124]	; 0xffffff84
  105cfc:	e59b2004 	ldr	r2, [fp, #4]
  105d00:	e1a03332 	lsr	r3, r2, r3
  105d04:	e50b300c 	str	r3, [fp, #-12]
  105d08:	e51b300c 	ldr	r3, [fp, #-12]
  105d0c:	e3530000 	cmp	r3, #0
  105d10:	0a0000f7 	beq	1060f4 <alt_dma_qspi_to_memory_segment+0x998>
  105d14:	e51b307c 	ldr	r3, [fp, #-124]	; 0xffffff84
  105d18:	e3530003 	cmp	r3, #3
  105d1c:	31a03003 	movcc	r3, r3
  105d20:	23a03003 	movcs	r3, #3
  105d24:	e50b3064 	str	r3, [fp, #-100]	; 0xffffff9c
  105d28:	e3a03000 	mov	r3, #0
  105d2c:	e50b3030 	str	r3, [fp, #-48]	; 0xffffffd0
  105d30:	e3a03000 	mov	r3, #0
  105d34:	e50b3034 	str	r3, [fp, #-52]	; 0xffffffcc
  105d38:	e51b3064 	ldr	r3, [fp, #-100]	; 0xffffff9c
  105d3c:	e51b204c 	ldr	r2, [fp, #-76]	; 0xffffffb4
  105d40:	e1a03332 	lsr	r3, r2, r3
  105d44:	e3530010 	cmp	r3, #16
  105d48:	8a000006 	bhi	105d68 <alt_dma_qspi_to_memory_segment+0x60c>
  105d4c:	e51b3064 	ldr	r3, [fp, #-100]	; 0xffffff9c
  105d50:	e51b204c 	ldr	r2, [fp, #-76]	; 0xffffffb4
  105d54:	e1a03332 	lsr	r3, r2, r3
  105d58:	e50b3030 	str	r3, [fp, #-48]	; 0xffffffd0
  105d5c:	e3a03001 	mov	r3, #1
  105d60:	e50b3034 	str	r3, [fp, #-52]	; 0xffffffcc
  105d64:	ea00000b 	b	105d98 <alt_dma_qspi_to_memory_segment+0x63c>
  105d68:	e3a03010 	mov	r3, #16
  105d6c:	e50b3030 	str	r3, [fp, #-48]	; 0xffffffd0
  105d70:	e51b3064 	ldr	r3, [fp, #-100]	; 0xffffff9c
  105d74:	e51b204c 	ldr	r2, [fp, #-76]	; 0xffffffb4
  105d78:	e1a03332 	lsr	r3, r2, r3
  105d7c:	e1a03223 	lsr	r3, r3, #4
  105d80:	e50b3034 	str	r3, [fp, #-52]	; 0xffffffcc
  105d84:	e51b3034 	ldr	r3, [fp, #-52]	; 0xffffffcc
  105d88:	e3530000 	cmp	r3, #0
  105d8c:	1a000001 	bne	105d98 <alt_dma_qspi_to_memory_segment+0x63c>
  105d90:	e3e03000 	mvn	r3, #0
  105d94:	e50b3008 	str	r3, [fp, #-8]
  105d98:	e51b304c 	ldr	r3, [fp, #-76]	; 0xffffffb4
  105d9c:	e1a03123 	lsr	r3, r3, #2
  105da0:	e50b3068 	str	r3, [fp, #-104]	; 0xffffff98
  105da4:	e51b3008 	ldr	r3, [fp, #-8]
  105da8:	e3530000 	cmp	r3, #0
  105dac:	1a00000c 	bne	105de4 <alt_dma_qspi_to_memory_segment+0x688>
  105db0:	e51b3064 	ldr	r3, [fp, #-100]	; 0xffffff9c
  105db4:	e1a02783 	lsl	r2, r3, #15
  105db8:	e51b3030 	ldr	r3, [fp, #-48]	; 0xffffffd0
  105dbc:	e2433001 	sub	r3, r3, #1
  105dc0:	e1a03903 	lsl	r3, r3, #18
  105dc4:	e1823003 	orr	r3, r2, r3
  105dc8:	e3833901 	orr	r3, r3, #16384	; 0x4000
  105dcc:	e3833004 	orr	r3, r3, #4
  105dd0:	e51b0078 	ldr	r0, [fp, #-120]	; 0xffffff88
  105dd4:	e3a01001 	mov	r1, #1
  105dd8:	e1a02003 	mov	r2, r3
  105ddc:	eb000a45 	bl	1086f8 <alt_dma_program_DMAMOV>
  105de0:	e50b0008 	str	r0, [fp, #-8]
  105de4:	e51b300c 	ldr	r3, [fp, #-12]
  105de8:	e1a03423 	lsr	r3, r3, #8
  105dec:	e3530000 	cmp	r3, #0
  105df0:	0a000069 	beq	105f9c <alt_dma_qspi_to_memory_segment+0x840>
  105df4:	e51b300c 	ldr	r3, [fp, #-12]
  105df8:	e1a03423 	lsr	r3, r3, #8
  105dfc:	e50b3038 	str	r3, [fp, #-56]	; 0xffffffc8
  105e00:	e51b300c 	ldr	r3, [fp, #-12]
  105e04:	e6ef3073 	uxtb	r3, r3
  105e08:	e50b300c 	str	r3, [fp, #-12]
  105e0c:	ea00005f 	b	105f90 <alt_dma_qspi_to_memory_segment+0x834>
  105e10:	e51b3008 	ldr	r3, [fp, #-8]
  105e14:	e3530000 	cmp	r3, #0
  105e18:	0a000000 	beq	105e20 <alt_dma_qspi_to_memory_segment+0x6c4>
  105e1c:	ea00005e 	b	105f9c <alt_dma_qspi_to_memory_segment+0x840>
  105e20:	e51b3038 	ldr	r3, [fp, #-56]	; 0xffffffc8
  105e24:	e3530c01 	cmp	r3, #256	; 0x100
  105e28:	31a03003 	movcc	r3, r3
  105e2c:	23a03c01 	movcs	r3, #256	; 0x100
  105e30:	e50b306c 	str	r3, [fp, #-108]	; 0xffffff94
  105e34:	e51b2038 	ldr	r2, [fp, #-56]	; 0xffffffc8
  105e38:	e51b306c 	ldr	r3, [fp, #-108]	; 0xffffff94
  105e3c:	e0633002 	rsb	r3, r3, r2
  105e40:	e50b3038 	str	r3, [fp, #-56]	; 0xffffffc8
  105e44:	e51b3008 	ldr	r3, [fp, #-8]
  105e48:	e3530000 	cmp	r3, #0
  105e4c:	1a000006 	bne	105e6c <alt_dma_qspi_to_memory_segment+0x710>
  105e50:	e51b306c 	ldr	r3, [fp, #-108]	; 0xffffff94
  105e54:	e3530001 	cmp	r3, #1
  105e58:	9a000003 	bls	105e6c <alt_dma_qspi_to_memory_segment+0x710>
  105e5c:	e51b0078 	ldr	r0, [fp, #-120]	; 0xffffff88
  105e60:	e51b106c 	ldr	r1, [fp, #-108]	; 0xffffff94
  105e64:	eb0008f4 	bl	10823c <alt_dma_program_DMALP>
  105e68:	e50b0008 	str	r0, [fp, #-8]
  105e6c:	e51b3008 	ldr	r3, [fp, #-8]
  105e70:	e3530000 	cmp	r3, #0
  105e74:	1a000003 	bne	105e88 <alt_dma_qspi_to_memory_segment+0x72c>
  105e78:	e51b0078 	ldr	r0, [fp, #-120]	; 0xffffff88
  105e7c:	e3a01c01 	mov	r1, #256	; 0x100
  105e80:	eb0008ed 	bl	10823c <alt_dma_program_DMALP>
  105e84:	e50b0008 	str	r0, [fp, #-8]
  105e88:	e51b3008 	ldr	r3, [fp, #-8]
  105e8c:	e3530000 	cmp	r3, #0
  105e90:	1a000003 	bne	105ea4 <alt_dma_qspi_to_memory_segment+0x748>
  105e94:	e51b0078 	ldr	r0, [fp, #-120]	; 0xffffff88
  105e98:	e3a01019 	mov	r1, #25
  105e9c:	eb0007b3 	bl	107d70 <alt_dma_program_DMAFLUSHP>
  105ea0:	e50b0008 	str	r0, [fp, #-8]
  105ea4:	e51b3008 	ldr	r3, [fp, #-8]
  105ea8:	e3530000 	cmp	r3, #0
  105eac:	1a000004 	bne	105ec4 <alt_dma_qspi_to_memory_segment+0x768>
  105eb0:	e51b0078 	ldr	r0, [fp, #-120]	; 0xffffff88
  105eb4:	e3a01019 	mov	r1, #25
  105eb8:	e3a02001 	mov	r2, #1
  105ebc:	eb000bdd 	bl	108e38 <alt_dma_program_DMAWFP>
  105ec0:	e50b0008 	str	r0, [fp, #-8]
  105ec4:	e3a03000 	mov	r3, #0
  105ec8:	e50b303c 	str	r3, [fp, #-60]	; 0xffffffc4
  105ecc:	ea000009 	b	105ef8 <alt_dma_qspi_to_memory_segment+0x79c>
  105ed0:	e51b3008 	ldr	r3, [fp, #-8]
  105ed4:	e3530000 	cmp	r3, #0
  105ed8:	1a000003 	bne	105eec <alt_dma_qspi_to_memory_segment+0x790>
  105edc:	e51b0078 	ldr	r0, [fp, #-120]	; 0xffffff88
  105ee0:	e3a01001 	mov	r1, #1
  105ee4:	eb000855 	bl	108040 <alt_dma_program_DMALD>
  105ee8:	e50b0008 	str	r0, [fp, #-8]
  105eec:	e51b303c 	ldr	r3, [fp, #-60]	; 0xffffffc4
  105ef0:	e2833001 	add	r3, r3, #1
  105ef4:	e50b303c 	str	r3, [fp, #-60]	; 0xffffffc4
  105ef8:	e51b203c 	ldr	r2, [fp, #-60]	; 0xffffffc4
  105efc:	e51b3068 	ldr	r3, [fp, #-104]	; 0xffffff98
  105f00:	e1520003 	cmp	r2, r3
  105f04:	3afffff1 	bcc	105ed0 <alt_dma_qspi_to_memory_segment+0x774>
  105f08:	e3a03000 	mov	r3, #0
  105f0c:	e50b3040 	str	r3, [fp, #-64]	; 0xffffffc0
  105f10:	ea000009 	b	105f3c <alt_dma_qspi_to_memory_segment+0x7e0>
  105f14:	e51b3008 	ldr	r3, [fp, #-8]
  105f18:	e3530000 	cmp	r3, #0
  105f1c:	1a000003 	bne	105f30 <alt_dma_qspi_to_memory_segment+0x7d4>
  105f20:	e51b0078 	ldr	r0, [fp, #-120]	; 0xffffff88
  105f24:	e3a01001 	mov	r1, #1
  105f28:	eb000ae1 	bl	108ab4 <alt_dma_program_DMAST>
  105f2c:	e50b0008 	str	r0, [fp, #-8]
  105f30:	e51b3040 	ldr	r3, [fp, #-64]	; 0xffffffc0
  105f34:	e2833001 	add	r3, r3, #1
  105f38:	e50b3040 	str	r3, [fp, #-64]	; 0xffffffc0
  105f3c:	e51b2040 	ldr	r2, [fp, #-64]	; 0xffffffc0
  105f40:	e51b3034 	ldr	r3, [fp, #-52]	; 0xffffffcc
  105f44:	e1520003 	cmp	r2, r3
  105f48:	3afffff1 	bcc	105f14 <alt_dma_qspi_to_memory_segment+0x7b8>
  105f4c:	e51b3008 	ldr	r3, [fp, #-8]
  105f50:	e3530000 	cmp	r3, #0
  105f54:	1a000003 	bne	105f68 <alt_dma_qspi_to_memory_segment+0x80c>
  105f58:	e51b0078 	ldr	r0, [fp, #-120]	; 0xffffff88
  105f5c:	e3a01000 	mov	r1, #0
  105f60:	eb000915 	bl	1083bc <alt_dma_program_DMALPEND>
  105f64:	e50b0008 	str	r0, [fp, #-8]
  105f68:	e51b3008 	ldr	r3, [fp, #-8]
  105f6c:	e3530000 	cmp	r3, #0
  105f70:	1a000006 	bne	105f90 <alt_dma_qspi_to_memory_segment+0x834>
  105f74:	e51b306c 	ldr	r3, [fp, #-108]	; 0xffffff94
  105f78:	e3530001 	cmp	r3, #1
  105f7c:	9a000003 	bls	105f90 <alt_dma_qspi_to_memory_segment+0x834>
  105f80:	e51b0078 	ldr	r0, [fp, #-120]	; 0xffffff88
  105f84:	e3a01000 	mov	r1, #0
  105f88:	eb00090b 	bl	1083bc <alt_dma_program_DMALPEND>
  105f8c:	e50b0008 	str	r0, [fp, #-8]
  105f90:	e51b3038 	ldr	r3, [fp, #-56]	; 0xffffffc8
  105f94:	e3530000 	cmp	r3, #0
  105f98:	1affff9c 	bne	105e10 <alt_dma_qspi_to_memory_segment+0x6b4>
  105f9c:	ea000051 	b	1060e8 <alt_dma_qspi_to_memory_segment+0x98c>
  105fa0:	e51b3008 	ldr	r3, [fp, #-8]
  105fa4:	e3530000 	cmp	r3, #0
  105fa8:	0a000000 	beq	105fb0 <alt_dma_qspi_to_memory_segment+0x854>
  105fac:	ea000050 	b	1060f4 <alt_dma_qspi_to_memory_segment+0x998>
  105fb0:	e51b300c 	ldr	r3, [fp, #-12]
  105fb4:	e3530c01 	cmp	r3, #256	; 0x100
  105fb8:	31a03003 	movcc	r3, r3
  105fbc:	23a03c01 	movcs	r3, #256	; 0x100
  105fc0:	e50b3070 	str	r3, [fp, #-112]	; 0xffffff90
  105fc4:	e51b200c 	ldr	r2, [fp, #-12]
  105fc8:	e51b3070 	ldr	r3, [fp, #-112]	; 0xffffff90
  105fcc:	e0633002 	rsb	r3, r3, r2
  105fd0:	e50b300c 	str	r3, [fp, #-12]
  105fd4:	e51b3008 	ldr	r3, [fp, #-8]
  105fd8:	e3530000 	cmp	r3, #0
  105fdc:	1a000006 	bne	105ffc <alt_dma_qspi_to_memory_segment+0x8a0>
  105fe0:	e51b3070 	ldr	r3, [fp, #-112]	; 0xffffff90
  105fe4:	e3530001 	cmp	r3, #1
  105fe8:	9a000003 	bls	105ffc <alt_dma_qspi_to_memory_segment+0x8a0>
  105fec:	e51b0078 	ldr	r0, [fp, #-120]	; 0xffffff88
  105ff0:	e51b1070 	ldr	r1, [fp, #-112]	; 0xffffff90
  105ff4:	eb000890 	bl	10823c <alt_dma_program_DMALP>
  105ff8:	e50b0008 	str	r0, [fp, #-8]
  105ffc:	e51b3008 	ldr	r3, [fp, #-8]
  106000:	e3530000 	cmp	r3, #0
  106004:	1a000003 	bne	106018 <alt_dma_qspi_to_memory_segment+0x8bc>
  106008:	e51b0078 	ldr	r0, [fp, #-120]	; 0xffffff88
  10600c:	e3a01019 	mov	r1, #25
  106010:	eb000756 	bl	107d70 <alt_dma_program_DMAFLUSHP>
  106014:	e50b0008 	str	r0, [fp, #-8]
  106018:	e51b3008 	ldr	r3, [fp, #-8]
  10601c:	e3530000 	cmp	r3, #0
  106020:	1a000004 	bne	106038 <alt_dma_qspi_to_memory_segment+0x8dc>
  106024:	e51b0078 	ldr	r0, [fp, #-120]	; 0xffffff88
  106028:	e3a01019 	mov	r1, #25
  10602c:	e3a02001 	mov	r2, #1
  106030:	eb000b80 	bl	108e38 <alt_dma_program_DMAWFP>
  106034:	e50b0008 	str	r0, [fp, #-8]
  106038:	e3a03000 	mov	r3, #0
  10603c:	e50b3044 	str	r3, [fp, #-68]	; 0xffffffbc
  106040:	ea000009 	b	10606c <alt_dma_qspi_to_memory_segment+0x910>
  106044:	e51b3008 	ldr	r3, [fp, #-8]
  106048:	e3530000 	cmp	r3, #0
  10604c:	1a000003 	bne	106060 <alt_dma_qspi_to_memory_segment+0x904>
  106050:	e51b0078 	ldr	r0, [fp, #-120]	; 0xffffff88
  106054:	e3a01001 	mov	r1, #1
  106058:	eb0007f8 	bl	108040 <alt_dma_program_DMALD>
  10605c:	e50b0008 	str	r0, [fp, #-8]
  106060:	e51b3044 	ldr	r3, [fp, #-68]	; 0xffffffbc
  106064:	e2833001 	add	r3, r3, #1
  106068:	e50b3044 	str	r3, [fp, #-68]	; 0xffffffbc
  10606c:	e51b2044 	ldr	r2, [fp, #-68]	; 0xffffffbc
  106070:	e51b3068 	ldr	r3, [fp, #-104]	; 0xffffff98
  106074:	e1520003 	cmp	r2, r3
  106078:	3afffff1 	bcc	106044 <alt_dma_qspi_to_memory_segment+0x8e8>
  10607c:	e3a03000 	mov	r3, #0
  106080:	e50b3048 	str	r3, [fp, #-72]	; 0xffffffb8
  106084:	ea000009 	b	1060b0 <alt_dma_qspi_to_memory_segment+0x954>
  106088:	e51b3008 	ldr	r3, [fp, #-8]
  10608c:	e3530000 	cmp	r3, #0
  106090:	1a000003 	bne	1060a4 <alt_dma_qspi_to_memory_segment+0x948>
  106094:	e51b0078 	ldr	r0, [fp, #-120]	; 0xffffff88
  106098:	e3a01001 	mov	r1, #1
  10609c:	eb000a84 	bl	108ab4 <alt_dma_program_DMAST>
  1060a0:	e50b0008 	str	r0, [fp, #-8]
  1060a4:	e51b3048 	ldr	r3, [fp, #-72]	; 0xffffffb8
  1060a8:	e2833001 	add	r3, r3, #1
  1060ac:	e50b3048 	str	r3, [fp, #-72]	; 0xffffffb8
  1060b0:	e51b2048 	ldr	r2, [fp, #-72]	; 0xffffffb8
  1060b4:	e51b3034 	ldr	r3, [fp, #-52]	; 0xffffffcc
  1060b8:	e1520003 	cmp	r2, r3
  1060bc:	3afffff1 	bcc	106088 <alt_dma_qspi_to_memory_segment+0x92c>
  1060c0:	e51b3008 	ldr	r3, [fp, #-8]
  1060c4:	e3530000 	cmp	r3, #0
  1060c8:	1a000006 	bne	1060e8 <alt_dma_qspi_to_memory_segment+0x98c>
  1060cc:	e51b3070 	ldr	r3, [fp, #-112]	; 0xffffff90
  1060d0:	e3530001 	cmp	r3, #1
  1060d4:	9a000003 	bls	1060e8 <alt_dma_qspi_to_memory_segment+0x98c>
  1060d8:	e51b0078 	ldr	r0, [fp, #-120]	; 0xffffff88
  1060dc:	e3a01000 	mov	r1, #0
  1060e0:	eb0008b5 	bl	1083bc <alt_dma_program_DMALPEND>
  1060e4:	e50b0008 	str	r0, [fp, #-8]
  1060e8:	e51b300c 	ldr	r3, [fp, #-12]
  1060ec:	e3530000 	cmp	r3, #0
  1060f0:	1affffaa 	bne	105fa0 <alt_dma_qspi_to_memory_segment+0x844>
  1060f4:	e51b3008 	ldr	r3, [fp, #-8]
  1060f8:	e1a00003 	mov	r0, r3
  1060fc:	e24bd004 	sub	sp, fp, #4
  106100:	e8bd8800 	pop	{fp, pc}

00106104 <alt_dma_qspi_to_memory>:
  106104:	e92d4800 	push	{fp, lr}
  106108:	e28db004 	add	fp, sp, #4
  10610c:	e24dd040 	sub	sp, sp, #64	; 0x40
  106110:	e50b0030 	str	r0, [fp, #-48]	; 0xffffffd0
  106114:	e50b1034 	str	r1, [fp, #-52]	; 0xffffffcc
  106118:	e50b2038 	str	r2, [fp, #-56]	; 0xffffffc8
  10611c:	e3a03000 	mov	r3, #0
  106120:	e50b3008 	str	r3, [fp, #-8]
  106124:	e51b3008 	ldr	r3, [fp, #-8]
  106128:	e3530000 	cmp	r3, #0
  10612c:	1a000005 	bne	106148 <alt_dma_qspi_to_memory+0x44>
  106130:	e51b0030 	ldr	r0, [fp, #-48]	; 0xffffffd0
  106134:	e3a01000 	mov	r1, #0
  106138:	e3a02000 	mov	r2, #0
  10613c:	e34f2fa0 	movt	r2, #65440	; 0xffa0
  106140:	eb00096c 	bl	1086f8 <alt_dma_program_DMAMOV>
  106144:	e50b0008 	str	r0, [fp, #-8]
  106148:	e3053020 	movw	r3, #20512	; 0x5020
  10614c:	e34f3f70 	movt	r3, #65392	; 0xff70
  106150:	e5933000 	ldr	r3, [r3]
  106154:	e50b300c 	str	r3, [fp, #-12]
  106158:	e51b300c 	ldr	r3, [fp, #-12]
  10615c:	e203300f 	and	r3, r3, #15
  106160:	e50b3010 	str	r3, [fp, #-16]
  106164:	e51b300c 	ldr	r3, [fp, #-12]
  106168:	e2033c0f 	and	r3, r3, #3840	; 0xf00
  10616c:	e1a03423 	lsr	r3, r3, #8
  106170:	e50b3014 	str	r3, [fp, #-20]	; 0xffffffec
  106174:	e51b3008 	ldr	r3, [fp, #-8]
  106178:	e3530000 	cmp	r3, #0
  10617c:	1a000005 	bne	106198 <alt_dma_qspi_to_memory+0x94>
  106180:	e24b3024 	sub	r3, fp, #36	; 0x24
  106184:	e1a00003 	mov	r0, r3
  106188:	e51b1034 	ldr	r1, [fp, #-52]	; 0xffffffcc
  10618c:	e51b2038 	ldr	r2, [fp, #-56]	; 0xffffffc8
  106190:	ebffef8a 	bl	101fc0 <alt_mmu_va_to_pa_coalesce_begin>
  106194:	e50b0008 	str	r0, [fp, #-8]
  106198:	ea000021 	b	106224 <alt_dma_qspi_to_memory+0x120>
  10619c:	e51b3008 	ldr	r3, [fp, #-8]
  1061a0:	e3530000 	cmp	r3, #0
  1061a4:	1a000021 	bne	106230 <alt_dma_qspi_to_memory+0x12c>
  1061a8:	e3a03000 	mov	r3, #0
  1061ac:	e50b3028 	str	r3, [fp, #-40]	; 0xffffffd8
  1061b0:	e3a03000 	mov	r3, #0
  1061b4:	e50b302c 	str	r3, [fp, #-44]	; 0xffffffd4
  1061b8:	e51b3008 	ldr	r3, [fp, #-8]
  1061bc:	e3530000 	cmp	r3, #0
  1061c0:	1a000007 	bne	1061e4 <alt_dma_qspi_to_memory+0xe0>
  1061c4:	e24b1024 	sub	r1, fp, #36	; 0x24
  1061c8:	e24b2028 	sub	r2, fp, #40	; 0x28
  1061cc:	e24b302c 	sub	r3, fp, #44	; 0x2c
  1061d0:	e1a00001 	mov	r0, r1
  1061d4:	e1a01002 	mov	r1, r2
  1061d8:	e1a02003 	mov	r2, r3
  1061dc:	ebffefa7 	bl	102080 <alt_mmu_va_to_pa_coalesce_next>
  1061e0:	e50b0008 	str	r0, [fp, #-8]
  1061e4:	e51b302c 	ldr	r3, [fp, #-44]	; 0xffffffd4
  1061e8:	e51b2038 	ldr	r2, [fp, #-56]	; 0xffffffc8
  1061ec:	e0633002 	rsb	r3, r3, r2
  1061f0:	e50b3038 	str	r3, [fp, #-56]	; 0xffffffc8
  1061f4:	e51b3008 	ldr	r3, [fp, #-8]
  1061f8:	e3530000 	cmp	r3, #0
  1061fc:	1a000008 	bne	106224 <alt_dma_qspi_to_memory+0x120>
  106200:	e51bc028 	ldr	ip, [fp, #-40]	; 0xffffffd8
  106204:	e51b302c 	ldr	r3, [fp, #-44]	; 0xffffffd4
  106208:	e58d3000 	str	r3, [sp]
  10620c:	e51b0030 	ldr	r0, [fp, #-48]	; 0xffffffd0
  106210:	e51b1010 	ldr	r1, [fp, #-16]
  106214:	e51b2014 	ldr	r2, [fp, #-20]	; 0xffffffec
  106218:	e1a0300c 	mov	r3, ip
  10621c:	ebfffd4e 	bl	10575c <alt_dma_qspi_to_memory_segment>
  106220:	e50b0008 	str	r0, [fp, #-8]
  106224:	e51b3038 	ldr	r3, [fp, #-56]	; 0xffffffc8
  106228:	e3530000 	cmp	r3, #0
  10622c:	1affffda 	bne	10619c <alt_dma_qspi_to_memory+0x98>
  106230:	e51b3008 	ldr	r3, [fp, #-8]
  106234:	e3530000 	cmp	r3, #0
  106238:	1a000003 	bne	10624c <alt_dma_qspi_to_memory+0x148>
  10623c:	e24b3024 	sub	r3, fp, #36	; 0x24
  106240:	e1a00003 	mov	r0, r3
  106244:	ebffefee 	bl	102204 <alt_mmu_va_to_pa_coalesce_end>
  106248:	e50b0008 	str	r0, [fp, #-8]
  10624c:	e51b3008 	ldr	r3, [fp, #-8]
  106250:	e1a00003 	mov	r0, r3
  106254:	e24bd004 	sub	sp, fp, #4
  106258:	e8bd8800 	pop	{fp, pc}

0010625c <alt_dma_memory_to_16550_single_segment>:
  10625c:	e92d4800 	push	{fp, lr}
  106260:	e28db004 	add	fp, sp, #4
  106264:	e24dd020 	sub	sp, sp, #32
  106268:	e50b0018 	str	r0, [fp, #-24]	; 0xffffffe8
  10626c:	e1a03001 	mov	r3, r1
  106270:	e50b2020 	str	r2, [fp, #-32]	; 0xffffffe0
  106274:	e54b3019 	strb	r3, [fp, #-25]	; 0xffffffe7
  106278:	e3a03000 	mov	r3, #0
  10627c:	e50b3008 	str	r3, [fp, #-8]
  106280:	e51b3008 	ldr	r3, [fp, #-8]
  106284:	e3530000 	cmp	r3, #0
  106288:	1a000004 	bne	1062a0 <alt_dma_memory_to_16550_single_segment+0x44>
  10628c:	e51b0018 	ldr	r0, [fp, #-24]	; 0xffffffe8
  106290:	e3a01001 	mov	r1, #1
  106294:	e3a02001 	mov	r2, #1
  106298:	eb000916 	bl	1086f8 <alt_dma_program_DMAMOV>
  10629c:	e50b0008 	str	r0, [fp, #-8]
  1062a0:	e51b3020 	ldr	r3, [fp, #-32]	; 0xffffffe0
  1062a4:	e50b300c 	str	r3, [fp, #-12]
  1062a8:	ea00003f 	b	1063ac <alt_dma_memory_to_16550_single_segment+0x150>
  1062ac:	e51b3008 	ldr	r3, [fp, #-8]
  1062b0:	e3530000 	cmp	r3, #0
  1062b4:	0a000000 	beq	1062bc <alt_dma_memory_to_16550_single_segment+0x60>
  1062b8:	ea00003e 	b	1063b8 <alt_dma_memory_to_16550_single_segment+0x15c>
  1062bc:	e51b300c 	ldr	r3, [fp, #-12]
  1062c0:	e3530c01 	cmp	r3, #256	; 0x100
  1062c4:	31a03003 	movcc	r3, r3
  1062c8:	23a03c01 	movcs	r3, #256	; 0x100
  1062cc:	e50b3010 	str	r3, [fp, #-16]
  1062d0:	e51b200c 	ldr	r2, [fp, #-12]
  1062d4:	e51b3010 	ldr	r3, [fp, #-16]
  1062d8:	e0633002 	rsb	r3, r3, r2
  1062dc:	e50b300c 	str	r3, [fp, #-12]
  1062e0:	e51b3008 	ldr	r3, [fp, #-8]
  1062e4:	e3530000 	cmp	r3, #0
  1062e8:	1a000006 	bne	106308 <alt_dma_memory_to_16550_single_segment+0xac>
  1062ec:	e51b3010 	ldr	r3, [fp, #-16]
  1062f0:	e3530001 	cmp	r3, #1
  1062f4:	9a000003 	bls	106308 <alt_dma_memory_to_16550_single_segment+0xac>
  1062f8:	e51b0018 	ldr	r0, [fp, #-24]	; 0xffffffe8
  1062fc:	e51b1010 	ldr	r1, [fp, #-16]
  106300:	eb0007cd 	bl	10823c <alt_dma_program_DMALP>
  106304:	e50b0008 	str	r0, [fp, #-8]
  106308:	e51b3008 	ldr	r3, [fp, #-8]
  10630c:	e3530000 	cmp	r3, #0
  106310:	1a000004 	bne	106328 <alt_dma_memory_to_16550_single_segment+0xcc>
  106314:	e55b3019 	ldrb	r3, [fp, #-25]	; 0xffffffe7
  106318:	e51b0018 	ldr	r0, [fp, #-24]	; 0xffffffe8
  10631c:	e1a01003 	mov	r1, r3
  106320:	eb000692 	bl	107d70 <alt_dma_program_DMAFLUSHP>
  106324:	e50b0008 	str	r0, [fp, #-8]
  106328:	e51b3008 	ldr	r3, [fp, #-8]
  10632c:	e3530000 	cmp	r3, #0
  106330:	1a000005 	bne	10634c <alt_dma_memory_to_16550_single_segment+0xf0>
  106334:	e55b3019 	ldrb	r3, [fp, #-25]	; 0xffffffe7
  106338:	e51b0018 	ldr	r0, [fp, #-24]	; 0xffffffe8
  10633c:	e1a01003 	mov	r1, r3
  106340:	e3a02001 	mov	r2, #1
  106344:	eb000abb 	bl	108e38 <alt_dma_program_DMAWFP>
  106348:	e50b0008 	str	r0, [fp, #-8]
  10634c:	e51b3008 	ldr	r3, [fp, #-8]
  106350:	e3530000 	cmp	r3, #0
  106354:	1a000003 	bne	106368 <alt_dma_memory_to_16550_single_segment+0x10c>
  106358:	e51b0018 	ldr	r0, [fp, #-24]	; 0xffffffe8
  10635c:	e3a01001 	mov	r1, #1
  106360:	eb000736 	bl	108040 <alt_dma_program_DMALD>
  106364:	e50b0008 	str	r0, [fp, #-8]
  106368:	e51b3008 	ldr	r3, [fp, #-8]
  10636c:	e3530000 	cmp	r3, #0
  106370:	1a000003 	bne	106384 <alt_dma_memory_to_16550_single_segment+0x128>
  106374:	e51b0018 	ldr	r0, [fp, #-24]	; 0xffffffe8
  106378:	e3a01001 	mov	r1, #1
  10637c:	eb0009cc 	bl	108ab4 <alt_dma_program_DMAST>
  106380:	e50b0008 	str	r0, [fp, #-8]
  106384:	e51b3008 	ldr	r3, [fp, #-8]
  106388:	e3530000 	cmp	r3, #0
  10638c:	1a000006 	bne	1063ac <alt_dma_memory_to_16550_single_segment+0x150>
  106390:	e51b3010 	ldr	r3, [fp, #-16]
  106394:	e3530001 	cmp	r3, #1
  106398:	9a000003 	bls	1063ac <alt_dma_memory_to_16550_single_segment+0x150>
  10639c:	e51b0018 	ldr	r0, [fp, #-24]	; 0xffffffe8
  1063a0:	e3a01001 	mov	r1, #1
  1063a4:	eb000804 	bl	1083bc <alt_dma_program_DMALPEND>
  1063a8:	e50b0008 	str	r0, [fp, #-8]
  1063ac:	e51b300c 	ldr	r3, [fp, #-12]
  1063b0:	e3530000 	cmp	r3, #0
  1063b4:	1affffbc 	bne	1062ac <alt_dma_memory_to_16550_single_segment+0x50>
  1063b8:	e51b3008 	ldr	r3, [fp, #-8]
  1063bc:	e1a00003 	mov	r0, r3
  1063c0:	e24bd004 	sub	sp, fp, #4
  1063c4:	e8bd8800 	pop	{fp, pc}

001063c8 <alt_dma_memory_to_16550_burst_segment>:
  1063c8:	e92d4800 	push	{fp, lr}
  1063cc:	e28db004 	add	fp, sp, #4
  1063d0:	e24dd018 	sub	sp, sp, #24
  1063d4:	e50b0010 	str	r0, [fp, #-16]
  1063d8:	e50b2018 	str	r2, [fp, #-24]	; 0xffffffe8
  1063dc:	e50b301c 	str	r3, [fp, #-28]	; 0xffffffe4
  1063e0:	e1a03001 	mov	r3, r1
  1063e4:	e54b3011 	strb	r3, [fp, #-17]	; 0xffffffef
  1063e8:	e3a03000 	mov	r3, #0
  1063ec:	e50b3008 	str	r3, [fp, #-8]
  1063f0:	e51b3008 	ldr	r3, [fp, #-8]
  1063f4:	e3530000 	cmp	r3, #0
  1063f8:	1a000005 	bne	106414 <alt_dma_memory_to_16550_burst_segment+0x4c>
  1063fc:	e51b0010 	ldr	r0, [fp, #-16]
  106400:	e3a01001 	mov	r1, #1
  106404:	e3a020f1 	mov	r2, #241	; 0xf1
  106408:	e340203c 	movt	r2, #60	; 0x3c
  10640c:	eb0008b9 	bl	1086f8 <alt_dma_program_DMAMOV>
  106410:	e50b0008 	str	r0, [fp, #-8]
  106414:	ea00004f 	b	106558 <alt_dma_memory_to_16550_burst_segment+0x190>
  106418:	e51b3008 	ldr	r3, [fp, #-8]
  10641c:	e3530000 	cmp	r3, #0
  106420:	0a000000 	beq	106428 <alt_dma_memory_to_16550_burst_segment+0x60>
  106424:	ea00004e 	b	106564 <alt_dma_memory_to_16550_burst_segment+0x19c>
  106428:	e51b301c 	ldr	r3, [fp, #-28]	; 0xffffffe4
  10642c:	e3530c01 	cmp	r3, #256	; 0x100
  106430:	31a03003 	movcc	r3, r3
  106434:	23a03c01 	movcs	r3, #256	; 0x100
  106438:	e50b300c 	str	r3, [fp, #-12]
  10643c:	e51b201c 	ldr	r2, [fp, #-28]	; 0xffffffe4
  106440:	e51b300c 	ldr	r3, [fp, #-12]
  106444:	e0633002 	rsb	r3, r3, r2
  106448:	e50b301c 	str	r3, [fp, #-28]	; 0xffffffe4
  10644c:	e51b3008 	ldr	r3, [fp, #-8]
  106450:	e3530000 	cmp	r3, #0
  106454:	1a000006 	bne	106474 <alt_dma_memory_to_16550_burst_segment+0xac>
  106458:	e51b300c 	ldr	r3, [fp, #-12]
  10645c:	e3530001 	cmp	r3, #1
  106460:	9a000003 	bls	106474 <alt_dma_memory_to_16550_burst_segment+0xac>
  106464:	e51b0010 	ldr	r0, [fp, #-16]
  106468:	e51b100c 	ldr	r1, [fp, #-12]
  10646c:	eb000772 	bl	10823c <alt_dma_program_DMALP>
  106470:	e50b0008 	str	r0, [fp, #-8]
  106474:	e51b3008 	ldr	r3, [fp, #-8]
  106478:	e3530000 	cmp	r3, #0
  10647c:	1a000004 	bne	106494 <alt_dma_memory_to_16550_burst_segment+0xcc>
  106480:	e55b3011 	ldrb	r3, [fp, #-17]	; 0xffffffef
  106484:	e51b0010 	ldr	r0, [fp, #-16]
  106488:	e1a01003 	mov	r1, r3
  10648c:	eb000637 	bl	107d70 <alt_dma_program_DMAFLUSHP>
  106490:	e50b0008 	str	r0, [fp, #-8]
  106494:	e51b3008 	ldr	r3, [fp, #-8]
  106498:	e3530000 	cmp	r3, #0
  10649c:	1a000005 	bne	1064b8 <alt_dma_memory_to_16550_burst_segment+0xf0>
  1064a0:	e55b3011 	ldrb	r3, [fp, #-17]	; 0xffffffef
  1064a4:	e51b0010 	ldr	r0, [fp, #-16]
  1064a8:	e1a01003 	mov	r1, r3
  1064ac:	e3a02002 	mov	r2, #2
  1064b0:	eb000a60 	bl	108e38 <alt_dma_program_DMAWFP>
  1064b4:	e50b0008 	str	r0, [fp, #-8]
  1064b8:	e51b3008 	ldr	r3, [fp, #-8]
  1064bc:	e3530000 	cmp	r3, #0
  1064c0:	1a000005 	bne	1064dc <alt_dma_memory_to_16550_burst_segment+0x114>
  1064c4:	e51b3018 	ldr	r3, [fp, #-24]	; 0xffffffe8
  1064c8:	e1a03223 	lsr	r3, r3, #4
  1064cc:	e51b0010 	ldr	r0, [fp, #-16]
  1064d0:	e1a01003 	mov	r1, r3
  1064d4:	eb000758 	bl	10823c <alt_dma_program_DMALP>
  1064d8:	e50b0008 	str	r0, [fp, #-8]
  1064dc:	e51b3008 	ldr	r3, [fp, #-8]
  1064e0:	e3530000 	cmp	r3, #0
  1064e4:	1a000003 	bne	1064f8 <alt_dma_memory_to_16550_burst_segment+0x130>
  1064e8:	e51b0010 	ldr	r0, [fp, #-16]
  1064ec:	e3a01002 	mov	r1, #2
  1064f0:	eb0006d2 	bl	108040 <alt_dma_program_DMALD>
  1064f4:	e50b0008 	str	r0, [fp, #-8]
  1064f8:	e51b3008 	ldr	r3, [fp, #-8]
  1064fc:	e3530000 	cmp	r3, #0
  106500:	1a000003 	bne	106514 <alt_dma_memory_to_16550_burst_segment+0x14c>
  106504:	e51b0010 	ldr	r0, [fp, #-16]
  106508:	e3a01002 	mov	r1, #2
  10650c:	eb000968 	bl	108ab4 <alt_dma_program_DMAST>
  106510:	e50b0008 	str	r0, [fp, #-8]
  106514:	e51b3008 	ldr	r3, [fp, #-8]
  106518:	e3530000 	cmp	r3, #0
  10651c:	1a000003 	bne	106530 <alt_dma_memory_to_16550_burst_segment+0x168>
  106520:	e51b0010 	ldr	r0, [fp, #-16]
  106524:	e3a01002 	mov	r1, #2
  106528:	eb0007a3 	bl	1083bc <alt_dma_program_DMALPEND>
  10652c:	e50b0008 	str	r0, [fp, #-8]
  106530:	e51b3008 	ldr	r3, [fp, #-8]
  106534:	e3530000 	cmp	r3, #0
  106538:	1a000006 	bne	106558 <alt_dma_memory_to_16550_burst_segment+0x190>
  10653c:	e51b300c 	ldr	r3, [fp, #-12]
  106540:	e3530001 	cmp	r3, #1
  106544:	9a000003 	bls	106558 <alt_dma_memory_to_16550_burst_segment+0x190>
  106548:	e51b0010 	ldr	r0, [fp, #-16]
  10654c:	e3a01002 	mov	r1, #2
  106550:	eb000799 	bl	1083bc <alt_dma_program_DMALPEND>
  106554:	e50b0008 	str	r0, [fp, #-8]
  106558:	e51b301c 	ldr	r3, [fp, #-28]	; 0xffffffe4
  10655c:	e3530000 	cmp	r3, #0
  106560:	1affffac 	bne	106418 <alt_dma_memory_to_16550_burst_segment+0x50>
  106564:	e51b3008 	ldr	r3, [fp, #-8]
  106568:	e1a00003 	mov	r0, r3
  10656c:	e24bd004 	sub	sp, fp, #4
  106570:	e8bd8800 	pop	{fp, pc}

00106574 <alt_dma_memory_to_16550_single>:
  106574:	e92d4800 	push	{fp, lr}
  106578:	e28db004 	add	fp, sp, #4
  10657c:	e24dd030 	sub	sp, sp, #48	; 0x30
  106580:	e50b0028 	str	r0, [fp, #-40]	; 0xffffffd8
  106584:	e50b2030 	str	r2, [fp, #-48]	; 0xffffffd0
  106588:	e50b3034 	str	r3, [fp, #-52]	; 0xffffffcc
  10658c:	e1a03001 	mov	r3, r1
  106590:	e54b3029 	strb	r3, [fp, #-41]	; 0xffffffd7
  106594:	e3a03000 	mov	r3, #0
  106598:	e50b3008 	str	r3, [fp, #-8]
  10659c:	e51b3008 	ldr	r3, [fp, #-8]
  1065a0:	e3530000 	cmp	r3, #0
  1065a4:	1a000005 	bne	1065c0 <alt_dma_memory_to_16550_single+0x4c>
  1065a8:	e24b3018 	sub	r3, fp, #24
  1065ac:	e1a00003 	mov	r0, r3
  1065b0:	e51b1030 	ldr	r1, [fp, #-48]	; 0xffffffd0
  1065b4:	e51b2034 	ldr	r2, [fp, #-52]	; 0xffffffcc
  1065b8:	ebffee80 	bl	101fc0 <alt_mmu_va_to_pa_coalesce_begin>
  1065bc:	e50b0008 	str	r0, [fp, #-8]
  1065c0:	ea000028 	b	106668 <alt_dma_memory_to_16550_single+0xf4>
  1065c4:	e51b3008 	ldr	r3, [fp, #-8]
  1065c8:	e3530000 	cmp	r3, #0
  1065cc:	1a000028 	bne	106674 <alt_dma_memory_to_16550_single+0x100>
  1065d0:	e3a03000 	mov	r3, #0
  1065d4:	e50b301c 	str	r3, [fp, #-28]	; 0xffffffe4
  1065d8:	e3a03000 	mov	r3, #0
  1065dc:	e50b3020 	str	r3, [fp, #-32]	; 0xffffffe0
  1065e0:	e51b3008 	ldr	r3, [fp, #-8]
  1065e4:	e3530000 	cmp	r3, #0
  1065e8:	1a000007 	bne	10660c <alt_dma_memory_to_16550_single+0x98>
  1065ec:	e24b1018 	sub	r1, fp, #24
  1065f0:	e24b201c 	sub	r2, fp, #28
  1065f4:	e24b3020 	sub	r3, fp, #32
  1065f8:	e1a00001 	mov	r0, r1
  1065fc:	e1a01002 	mov	r1, r2
  106600:	e1a02003 	mov	r2, r3
  106604:	ebffee9d 	bl	102080 <alt_mmu_va_to_pa_coalesce_next>
  106608:	e50b0008 	str	r0, [fp, #-8]
  10660c:	e51b3020 	ldr	r3, [fp, #-32]	; 0xffffffe0
  106610:	e51b2034 	ldr	r2, [fp, #-52]	; 0xffffffcc
  106614:	e0633002 	rsb	r3, r3, r2
  106618:	e50b3034 	str	r3, [fp, #-52]	; 0xffffffcc
  10661c:	e51b3008 	ldr	r3, [fp, #-8]
  106620:	e3530000 	cmp	r3, #0
  106624:	1a000005 	bne	106640 <alt_dma_memory_to_16550_single+0xcc>
  106628:	e51b301c 	ldr	r3, [fp, #-28]	; 0xffffffe4
  10662c:	e51b0028 	ldr	r0, [fp, #-40]	; 0xffffffd8
  106630:	e3a01000 	mov	r1, #0
  106634:	e1a02003 	mov	r2, r3
  106638:	eb00082e 	bl	1086f8 <alt_dma_program_DMAMOV>
  10663c:	e50b0008 	str	r0, [fp, #-8]
  106640:	e51b3008 	ldr	r3, [fp, #-8]
  106644:	e3530000 	cmp	r3, #0
  106648:	1a000006 	bne	106668 <alt_dma_memory_to_16550_single+0xf4>
  10664c:	e51b3020 	ldr	r3, [fp, #-32]	; 0xffffffe0
  106650:	e55b2029 	ldrb	r2, [fp, #-41]	; 0xffffffd7
  106654:	e51b0028 	ldr	r0, [fp, #-40]	; 0xffffffd8
  106658:	e1a01002 	mov	r1, r2
  10665c:	e1a02003 	mov	r2, r3
  106660:	ebfffefd 	bl	10625c <alt_dma_memory_to_16550_single_segment>
  106664:	e50b0008 	str	r0, [fp, #-8]
  106668:	e51b3034 	ldr	r3, [fp, #-52]	; 0xffffffcc
  10666c:	e3530000 	cmp	r3, #0
  106670:	1affffd3 	bne	1065c4 <alt_dma_memory_to_16550_single+0x50>
  106674:	e51b3008 	ldr	r3, [fp, #-8]
  106678:	e3530000 	cmp	r3, #0
  10667c:	1a000003 	bne	106690 <alt_dma_memory_to_16550_single+0x11c>
  106680:	e24b3018 	sub	r3, fp, #24
  106684:	e1a00003 	mov	r0, r3
  106688:	ebffeedd 	bl	102204 <alt_mmu_va_to_pa_coalesce_end>
  10668c:	e50b0008 	str	r0, [fp, #-8]
  106690:	e51b3008 	ldr	r3, [fp, #-8]
  106694:	e1a00003 	mov	r0, r3
  106698:	e24bd004 	sub	sp, fp, #4
  10669c:	e8bd8800 	pop	{fp, pc}

001066a0 <alt_dma_memory_to_16550_burst>:
  1066a0:	e92d4800 	push	{fp, lr}
  1066a4:	e28db004 	add	fp, sp, #4
  1066a8:	e24dd040 	sub	sp, sp, #64	; 0x40
  1066ac:	e50b0038 	str	r0, [fp, #-56]	; 0xffffffc8
  1066b0:	e50b2040 	str	r2, [fp, #-64]	; 0xffffffc0
  1066b4:	e50b3044 	str	r3, [fp, #-68]	; 0xffffffbc
  1066b8:	e1a03001 	mov	r3, r1
  1066bc:	e54b3039 	strb	r3, [fp, #-57]	; 0xffffffc7
  1066c0:	e3a03000 	mov	r3, #0
  1066c4:	e50b3008 	str	r3, [fp, #-8]
  1066c8:	e51b3008 	ldr	r3, [fp, #-8]
  1066cc:	e3530000 	cmp	r3, #0
  1066d0:	1a000005 	bne	1066ec <alt_dma_memory_to_16550_burst+0x4c>
  1066d4:	e24b3020 	sub	r3, fp, #32
  1066d8:	e1a00003 	mov	r0, r3
  1066dc:	e51b1044 	ldr	r1, [fp, #-68]	; 0xffffffbc
  1066e0:	e59b2004 	ldr	r2, [fp, #4]
  1066e4:	ebffee35 	bl	101fc0 <alt_mmu_va_to_pa_coalesce_begin>
  1066e8:	e50b0008 	str	r0, [fp, #-8]
  1066ec:	ea000046 	b	10680c <alt_dma_memory_to_16550_burst+0x16c>
  1066f0:	e51b3008 	ldr	r3, [fp, #-8]
  1066f4:	e3530000 	cmp	r3, #0
  1066f8:	1a000046 	bne	106818 <alt_dma_memory_to_16550_burst+0x178>
  1066fc:	e3a03000 	mov	r3, #0
  106700:	e50b3024 	str	r3, [fp, #-36]	; 0xffffffdc
  106704:	e3a03000 	mov	r3, #0
  106708:	e50b3028 	str	r3, [fp, #-40]	; 0xffffffd8
  10670c:	e51b3008 	ldr	r3, [fp, #-8]
  106710:	e3530000 	cmp	r3, #0
  106714:	1a000007 	bne	106738 <alt_dma_memory_to_16550_burst+0x98>
  106718:	e24b1020 	sub	r1, fp, #32
  10671c:	e24b2024 	sub	r2, fp, #36	; 0x24
  106720:	e24b3028 	sub	r3, fp, #40	; 0x28
  106724:	e1a00001 	mov	r0, r1
  106728:	e1a01002 	mov	r1, r2
  10672c:	e1a02003 	mov	r2, r3
  106730:	ebffee52 	bl	102080 <alt_mmu_va_to_pa_coalesce_next>
  106734:	e50b0008 	str	r0, [fp, #-8]
  106738:	e51b3028 	ldr	r3, [fp, #-40]	; 0xffffffd8
  10673c:	e59b2004 	ldr	r2, [fp, #4]
  106740:	e0633002 	rsb	r3, r3, r2
  106744:	e58b3004 	str	r3, [fp, #4]
  106748:	e51b3028 	ldr	r3, [fp, #-40]	; 0xffffffd8
  10674c:	e50b300c 	str	r3, [fp, #-12]
  106750:	e3a03000 	mov	r3, #0
  106754:	e50b3010 	str	r3, [fp, #-16]
  106758:	e51b200c 	ldr	r2, [fp, #-12]
  10675c:	e51b3040 	ldr	r3, [fp, #-64]	; 0xffffffc0
  106760:	e24b1030 	sub	r1, fp, #48	; 0x30
  106764:	e1a00001 	mov	r0, r1
  106768:	e1a01002 	mov	r1, r2
  10676c:	e1a02003 	mov	r2, r3
  106770:	eb000a1b 	bl	108fe4 <ldiv>
  106774:	e51b3030 	ldr	r3, [fp, #-48]	; 0xffffffd0
  106778:	e50b3010 	str	r3, [fp, #-16]
  10677c:	e51b302c 	ldr	r3, [fp, #-44]	; 0xffffffd4
  106780:	e50b300c 	str	r3, [fp, #-12]
  106784:	e51b3008 	ldr	r3, [fp, #-8]
  106788:	e3530000 	cmp	r3, #0
  10678c:	1a000005 	bne	1067a8 <alt_dma_memory_to_16550_burst+0x108>
  106790:	e51b3024 	ldr	r3, [fp, #-36]	; 0xffffffdc
  106794:	e51b0038 	ldr	r0, [fp, #-56]	; 0xffffffc8
  106798:	e3a01000 	mov	r1, #0
  10679c:	e1a02003 	mov	r2, r3
  1067a0:	eb0007d4 	bl	1086f8 <alt_dma_program_DMAMOV>
  1067a4:	e50b0008 	str	r0, [fp, #-8]
  1067a8:	e51b3008 	ldr	r3, [fp, #-8]
  1067ac:	e3530000 	cmp	r3, #0
  1067b0:	1a000009 	bne	1067dc <alt_dma_memory_to_16550_burst+0x13c>
  1067b4:	e51b3010 	ldr	r3, [fp, #-16]
  1067b8:	e3530000 	cmp	r3, #0
  1067bc:	0a000006 	beq	1067dc <alt_dma_memory_to_16550_burst+0x13c>
  1067c0:	e55b3039 	ldrb	r3, [fp, #-57]	; 0xffffffc7
  1067c4:	e51b0038 	ldr	r0, [fp, #-56]	; 0xffffffc8
  1067c8:	e1a01003 	mov	r1, r3
  1067cc:	e51b2040 	ldr	r2, [fp, #-64]	; 0xffffffc0
  1067d0:	e51b3010 	ldr	r3, [fp, #-16]
  1067d4:	ebfffefb 	bl	1063c8 <alt_dma_memory_to_16550_burst_segment>
  1067d8:	e50b0008 	str	r0, [fp, #-8]
  1067dc:	e51b3008 	ldr	r3, [fp, #-8]
  1067e0:	e3530000 	cmp	r3, #0
  1067e4:	1a000008 	bne	10680c <alt_dma_memory_to_16550_burst+0x16c>
  1067e8:	e51b300c 	ldr	r3, [fp, #-12]
  1067ec:	e3530000 	cmp	r3, #0
  1067f0:	0a000005 	beq	10680c <alt_dma_memory_to_16550_burst+0x16c>
  1067f4:	e55b3039 	ldrb	r3, [fp, #-57]	; 0xffffffc7
  1067f8:	e51b0038 	ldr	r0, [fp, #-56]	; 0xffffffc8
  1067fc:	e1a01003 	mov	r1, r3
  106800:	e51b200c 	ldr	r2, [fp, #-12]
  106804:	ebfffe94 	bl	10625c <alt_dma_memory_to_16550_single_segment>
  106808:	e50b0008 	str	r0, [fp, #-8]
  10680c:	e59b3004 	ldr	r3, [fp, #4]
  106810:	e3530000 	cmp	r3, #0
  106814:	1affffb5 	bne	1066f0 <alt_dma_memory_to_16550_burst+0x50>
  106818:	e51b3008 	ldr	r3, [fp, #-8]
  10681c:	e3530000 	cmp	r3, #0
  106820:	1a000003 	bne	106834 <alt_dma_memory_to_16550_burst+0x194>
  106824:	e24b3020 	sub	r3, fp, #32
  106828:	e1a00003 	mov	r0, r3
  10682c:	ebffee74 	bl	102204 <alt_mmu_va_to_pa_coalesce_end>
  106830:	e50b0008 	str	r0, [fp, #-8]
  106834:	e51b3008 	ldr	r3, [fp, #-8]
  106838:	e1a00003 	mov	r0, r3
  10683c:	e24bd004 	sub	sp, fp, #4
  106840:	e8bd8800 	pop	{fp, pc}

00106844 <alt_dma_memory_to_16550>:
  106844:	e92d4800 	push	{fp, lr}
  106848:	e28db004 	add	fp, sp, #4
  10684c:	e24dd028 	sub	sp, sp, #40	; 0x28
  106850:	e50b0018 	str	r0, [fp, #-24]	; 0xffffffe8
  106854:	e50b2020 	str	r2, [fp, #-32]	; 0xffffffe0
  106858:	e50b3024 	str	r3, [fp, #-36]	; 0xffffffdc
  10685c:	e1a03001 	mov	r3, r1
  106860:	e54b3019 	strb	r3, [fp, #-25]	; 0xffffffe7
  106864:	e3a03000 	mov	r3, #0
  106868:	e50b3008 	str	r3, [fp, #-8]
  10686c:	e51b3008 	ldr	r3, [fp, #-8]
  106870:	e3530000 	cmp	r3, #0
  106874:	1a000006 	bne	106894 <alt_dma_memory_to_16550+0x50>
  106878:	e51b3020 	ldr	r3, [fp, #-32]	; 0xffffffe0
  10687c:	e5933004 	ldr	r3, [r3, #4]
  106880:	e51b0018 	ldr	r0, [fp, #-24]	; 0xffffffe8
  106884:	e3a01002 	mov	r1, #2
  106888:	e1a02003 	mov	r2, r3
  10688c:	eb000799 	bl	1086f8 <alt_dma_program_DMAMOV>
  106890:	e50b0008 	str	r0, [fp, #-8]
  106894:	e51b3020 	ldr	r3, [fp, #-32]	; 0xffffffe0
  106898:	e5933010 	ldr	r3, [r3, #16]
  10689c:	e2033001 	and	r3, r3, #1
  1068a0:	e3530000 	cmp	r3, #0
  1068a4:	0a000046 	beq	1069c4 <alt_dma_memory_to_16550+0x180>
  1068a8:	e51b3020 	ldr	r3, [fp, #-32]	; 0xffffffe0
  1068ac:	e5933004 	ldr	r3, [r3, #4]
  1068b0:	e28330f4 	add	r3, r3, #244	; 0xf4
  1068b4:	e5933000 	ldr	r3, [r3]
  1068b8:	e20338ff 	and	r3, r3, #16711680	; 0xff0000
  1068bc:	e1a03823 	lsr	r3, r3, #16
  1068c0:	e1a03203 	lsl	r3, r3, #4
  1068c4:	e50b3010 	str	r3, [fp, #-16]
  1068c8:	e51b3020 	ldr	r3, [fp, #-32]	; 0xffffffe0
  1068cc:	e5933010 	ldr	r3, [r3, #16]
  1068d0:	e2033030 	and	r3, r3, #48	; 0x30
  1068d4:	e1a03223 	lsr	r3, r3, #4
  1068d8:	e6ef3073 	uxtb	r3, r3
  1068dc:	e3530003 	cmp	r3, #3
  1068e0:	979ff103 	ldrls	pc, [pc, r3, lsl #2]
  1068e4:	ea000015 	b	106940 <alt_dma_memory_to_16550+0xfc>
  1068e8:	001068f8 	.word	0x001068f8
  1068ec:	00106904 	.word	0x00106904
  1068f0:	00106914 	.word	0x00106914
  1068f4:	00106930 	.word	0x00106930
  1068f8:	e51b3010 	ldr	r3, [fp, #-16]
  1068fc:	e50b300c 	str	r3, [fp, #-12]
  106900:	ea000010 	b	106948 <alt_dma_memory_to_16550+0x104>
  106904:	e51b3010 	ldr	r3, [fp, #-16]
  106908:	e2433002 	sub	r3, r3, #2
  10690c:	e50b300c 	str	r3, [fp, #-12]
  106910:	ea00000c 	b	106948 <alt_dma_memory_to_16550+0x104>
  106914:	e51b3010 	ldr	r3, [fp, #-16]
  106918:	e1a02123 	lsr	r2, r3, #2
  10691c:	e1a03002 	mov	r3, r2
  106920:	e1a03083 	lsl	r3, r3, #1
  106924:	e0833002 	add	r3, r3, r2
  106928:	e50b300c 	str	r3, [fp, #-12]
  10692c:	ea000005 	b	106948 <alt_dma_memory_to_16550+0x104>
  106930:	e51b3010 	ldr	r3, [fp, #-16]
  106934:	e1a030a3 	lsr	r3, r3, #1
  106938:	e50b300c 	str	r3, [fp, #-12]
  10693c:	ea000001 	b	106948 <alt_dma_memory_to_16550+0x104>
  106940:	e3e03000 	mvn	r3, #0
  106944:	ea000029 	b	1069f0 <alt_dma_memory_to_16550+0x1ac>
  106948:	e51b300c 	ldr	r3, [fp, #-12]
  10694c:	e353000f 	cmp	r3, #15
  106950:	8a00000a 	bhi	106980 <alt_dma_memory_to_16550+0x13c>
  106954:	e51b3008 	ldr	r3, [fp, #-8]
  106958:	e3530000 	cmp	r3, #0
  10695c:	1a000017 	bne	1069c0 <alt_dma_memory_to_16550+0x17c>
  106960:	e55b3019 	ldrb	r3, [fp, #-25]	; 0xffffffe7
  106964:	e51b0018 	ldr	r0, [fp, #-24]	; 0xffffffe8
  106968:	e1a01003 	mov	r1, r3
  10696c:	e51b2024 	ldr	r2, [fp, #-36]	; 0xffffffdc
  106970:	e59b3004 	ldr	r3, [fp, #4]
  106974:	ebfffefe 	bl	106574 <alt_dma_memory_to_16550_single>
  106978:	e50b0008 	str	r0, [fp, #-8]
  10697c:	ea00001a 	b	1069ec <alt_dma_memory_to_16550+0x1a8>
  106980:	e51b300c 	ldr	r3, [fp, #-12]
  106984:	e3c3300f 	bic	r3, r3, #15
  106988:	e50b300c 	str	r3, [fp, #-12]
  10698c:	e51b3008 	ldr	r3, [fp, #-8]
  106990:	e3530000 	cmp	r3, #0
  106994:	1a000009 	bne	1069c0 <alt_dma_memory_to_16550+0x17c>
  106998:	e55b2019 	ldrb	r2, [fp, #-25]	; 0xffffffe7
  10699c:	e59b3004 	ldr	r3, [fp, #4]
  1069a0:	e58d3000 	str	r3, [sp]
  1069a4:	e51b0018 	ldr	r0, [fp, #-24]	; 0xffffffe8
  1069a8:	e1a01002 	mov	r1, r2
  1069ac:	e51b200c 	ldr	r2, [fp, #-12]
  1069b0:	e51b3024 	ldr	r3, [fp, #-36]	; 0xffffffdc
  1069b4:	ebffff39 	bl	1066a0 <alt_dma_memory_to_16550_burst>
  1069b8:	e50b0008 	str	r0, [fp, #-8]
  1069bc:	ea00000a 	b	1069ec <alt_dma_memory_to_16550+0x1a8>
  1069c0:	ea000009 	b	1069ec <alt_dma_memory_to_16550+0x1a8>
  1069c4:	e51b3008 	ldr	r3, [fp, #-8]
  1069c8:	e3530000 	cmp	r3, #0
  1069cc:	1a000006 	bne	1069ec <alt_dma_memory_to_16550+0x1a8>
  1069d0:	e55b3019 	ldrb	r3, [fp, #-25]	; 0xffffffe7
  1069d4:	e51b0018 	ldr	r0, [fp, #-24]	; 0xffffffe8
  1069d8:	e1a01003 	mov	r1, r3
  1069dc:	e51b2024 	ldr	r2, [fp, #-36]	; 0xffffffdc
  1069e0:	e59b3004 	ldr	r3, [fp, #4]
  1069e4:	ebfffee2 	bl	106574 <alt_dma_memory_to_16550_single>
  1069e8:	e50b0008 	str	r0, [fp, #-8]
  1069ec:	e51b3008 	ldr	r3, [fp, #-8]
  1069f0:	e1a00003 	mov	r0, r3
  1069f4:	e24bd004 	sub	sp, fp, #4
  1069f8:	e8bd8800 	pop	{fp, pc}

001069fc <alt_dma_16550_to_memory_single_segment>:
  1069fc:	e92d4800 	push	{fp, lr}
  106a00:	e28db004 	add	fp, sp, #4
  106a04:	e24dd020 	sub	sp, sp, #32
  106a08:	e50b0018 	str	r0, [fp, #-24]	; 0xffffffe8
  106a0c:	e1a03001 	mov	r3, r1
  106a10:	e50b2020 	str	r2, [fp, #-32]	; 0xffffffe0
  106a14:	e54b3019 	strb	r3, [fp, #-25]	; 0xffffffe7
  106a18:	e3a03000 	mov	r3, #0
  106a1c:	e50b3008 	str	r3, [fp, #-8]
  106a20:	e51b3008 	ldr	r3, [fp, #-8]
  106a24:	e3530000 	cmp	r3, #0
  106a28:	1a000004 	bne	106a40 <alt_dma_16550_to_memory_single_segment+0x44>
  106a2c:	e51b0018 	ldr	r0, [fp, #-24]	; 0xffffffe8
  106a30:	e3a01001 	mov	r1, #1
  106a34:	e3a02901 	mov	r2, #16384	; 0x4000
  106a38:	eb00072e 	bl	1086f8 <alt_dma_program_DMAMOV>
  106a3c:	e50b0008 	str	r0, [fp, #-8]
  106a40:	e51b3020 	ldr	r3, [fp, #-32]	; 0xffffffe0
  106a44:	e50b300c 	str	r3, [fp, #-12]
  106a48:	ea00003f 	b	106b4c <alt_dma_16550_to_memory_single_segment+0x150>
  106a4c:	e51b3008 	ldr	r3, [fp, #-8]
  106a50:	e3530000 	cmp	r3, #0
  106a54:	0a000000 	beq	106a5c <alt_dma_16550_to_memory_single_segment+0x60>
  106a58:	ea00003e 	b	106b58 <alt_dma_16550_to_memory_single_segment+0x15c>
  106a5c:	e51b300c 	ldr	r3, [fp, #-12]
  106a60:	e3530c01 	cmp	r3, #256	; 0x100
  106a64:	31a03003 	movcc	r3, r3
  106a68:	23a03c01 	movcs	r3, #256	; 0x100
  106a6c:	e50b3010 	str	r3, [fp, #-16]
  106a70:	e51b200c 	ldr	r2, [fp, #-12]
  106a74:	e51b3010 	ldr	r3, [fp, #-16]
  106a78:	e0633002 	rsb	r3, r3, r2
  106a7c:	e50b300c 	str	r3, [fp, #-12]
  106a80:	e51b3008 	ldr	r3, [fp, #-8]
  106a84:	e3530000 	cmp	r3, #0
  106a88:	1a000006 	bne	106aa8 <alt_dma_16550_to_memory_single_segment+0xac>
  106a8c:	e51b3010 	ldr	r3, [fp, #-16]
  106a90:	e3530001 	cmp	r3, #1
  106a94:	9a000003 	bls	106aa8 <alt_dma_16550_to_memory_single_segment+0xac>
  106a98:	e51b0018 	ldr	r0, [fp, #-24]	; 0xffffffe8
  106a9c:	e51b1010 	ldr	r1, [fp, #-16]
  106aa0:	eb0005e5 	bl	10823c <alt_dma_program_DMALP>
  106aa4:	e50b0008 	str	r0, [fp, #-8]
  106aa8:	e51b3008 	ldr	r3, [fp, #-8]
  106aac:	e3530000 	cmp	r3, #0
  106ab0:	1a000004 	bne	106ac8 <alt_dma_16550_to_memory_single_segment+0xcc>
  106ab4:	e55b3019 	ldrb	r3, [fp, #-25]	; 0xffffffe7
  106ab8:	e51b0018 	ldr	r0, [fp, #-24]	; 0xffffffe8
  106abc:	e1a01003 	mov	r1, r3
  106ac0:	eb0004aa 	bl	107d70 <alt_dma_program_DMAFLUSHP>
  106ac4:	e50b0008 	str	r0, [fp, #-8]
  106ac8:	e51b3008 	ldr	r3, [fp, #-8]
  106acc:	e3530000 	cmp	r3, #0
  106ad0:	1a000005 	bne	106aec <alt_dma_16550_to_memory_single_segment+0xf0>
  106ad4:	e55b3019 	ldrb	r3, [fp, #-25]	; 0xffffffe7
  106ad8:	e51b0018 	ldr	r0, [fp, #-24]	; 0xffffffe8
  106adc:	e1a01003 	mov	r1, r3
  106ae0:	e3a02001 	mov	r2, #1
  106ae4:	eb0008d3 	bl	108e38 <alt_dma_program_DMAWFP>
  106ae8:	e50b0008 	str	r0, [fp, #-8]
  106aec:	e51b3008 	ldr	r3, [fp, #-8]
  106af0:	e3530000 	cmp	r3, #0
  106af4:	1a000003 	bne	106b08 <alt_dma_16550_to_memory_single_segment+0x10c>
  106af8:	e51b0018 	ldr	r0, [fp, #-24]	; 0xffffffe8
  106afc:	e3a01001 	mov	r1, #1
  106b00:	eb00054e 	bl	108040 <alt_dma_program_DMALD>
  106b04:	e50b0008 	str	r0, [fp, #-8]
  106b08:	e51b3008 	ldr	r3, [fp, #-8]
  106b0c:	e3530000 	cmp	r3, #0
  106b10:	1a000003 	bne	106b24 <alt_dma_16550_to_memory_single_segment+0x128>
  106b14:	e51b0018 	ldr	r0, [fp, #-24]	; 0xffffffe8
  106b18:	e3a01001 	mov	r1, #1
  106b1c:	eb0007e4 	bl	108ab4 <alt_dma_program_DMAST>
  106b20:	e50b0008 	str	r0, [fp, #-8]
  106b24:	e51b3008 	ldr	r3, [fp, #-8]
  106b28:	e3530000 	cmp	r3, #0
  106b2c:	1a000006 	bne	106b4c <alt_dma_16550_to_memory_single_segment+0x150>
  106b30:	e51b3010 	ldr	r3, [fp, #-16]
  106b34:	e3530001 	cmp	r3, #1
  106b38:	9a000003 	bls	106b4c <alt_dma_16550_to_memory_single_segment+0x150>
  106b3c:	e51b0018 	ldr	r0, [fp, #-24]	; 0xffffffe8
  106b40:	e3a01001 	mov	r1, #1
  106b44:	eb00061c 	bl	1083bc <alt_dma_program_DMALPEND>
  106b48:	e50b0008 	str	r0, [fp, #-8]
  106b4c:	e51b300c 	ldr	r3, [fp, #-12]
  106b50:	e3530000 	cmp	r3, #0
  106b54:	1affffbc 	bne	106a4c <alt_dma_16550_to_memory_single_segment+0x50>
  106b58:	e51b3008 	ldr	r3, [fp, #-8]
  106b5c:	e1a00003 	mov	r0, r3
  106b60:	e24bd004 	sub	sp, fp, #4
  106b64:	e8bd8800 	pop	{fp, pc}

00106b68 <alt_dma_16550_to_memory_burst_segment>:
  106b68:	e92d4800 	push	{fp, lr}
  106b6c:	e28db004 	add	fp, sp, #4
  106b70:	e24dd018 	sub	sp, sp, #24
  106b74:	e50b0010 	str	r0, [fp, #-16]
  106b78:	e50b2018 	str	r2, [fp, #-24]	; 0xffffffe8
  106b7c:	e50b301c 	str	r3, [fp, #-28]	; 0xffffffe4
  106b80:	e1a03001 	mov	r3, r1
  106b84:	e54b3011 	strb	r3, [fp, #-17]	; 0xffffffef
  106b88:	e3a03000 	mov	r3, #0
  106b8c:	e50b3008 	str	r3, [fp, #-8]
  106b90:	e51b3008 	ldr	r3, [fp, #-8]
  106b94:	e3530000 	cmp	r3, #0
  106b98:	1a000005 	bne	106bb4 <alt_dma_16550_to_memory_burst_segment+0x4c>
  106b9c:	e51b0010 	ldr	r0, [fp, #-16]
  106ba0:	e3a01001 	mov	r1, #1
  106ba4:	e30420f0 	movw	r2, #16624	; 0x40f0
  106ba8:	e340203c 	movt	r2, #60	; 0x3c
  106bac:	eb0006d1 	bl	1086f8 <alt_dma_program_DMAMOV>
  106bb0:	e50b0008 	str	r0, [fp, #-8]
  106bb4:	ea00004f 	b	106cf8 <alt_dma_16550_to_memory_burst_segment+0x190>
  106bb8:	e51b3008 	ldr	r3, [fp, #-8]
  106bbc:	e3530000 	cmp	r3, #0
  106bc0:	0a000000 	beq	106bc8 <alt_dma_16550_to_memory_burst_segment+0x60>
  106bc4:	ea00004e 	b	106d04 <alt_dma_16550_to_memory_burst_segment+0x19c>
  106bc8:	e51b301c 	ldr	r3, [fp, #-28]	; 0xffffffe4
  106bcc:	e3530c01 	cmp	r3, #256	; 0x100
  106bd0:	31a03003 	movcc	r3, r3
  106bd4:	23a03c01 	movcs	r3, #256	; 0x100
  106bd8:	e50b300c 	str	r3, [fp, #-12]
  106bdc:	e51b201c 	ldr	r2, [fp, #-28]	; 0xffffffe4
  106be0:	e51b300c 	ldr	r3, [fp, #-12]
  106be4:	e0633002 	rsb	r3, r3, r2
  106be8:	e50b301c 	str	r3, [fp, #-28]	; 0xffffffe4
  106bec:	e51b3008 	ldr	r3, [fp, #-8]
  106bf0:	e3530000 	cmp	r3, #0
  106bf4:	1a000006 	bne	106c14 <alt_dma_16550_to_memory_burst_segment+0xac>
  106bf8:	e51b300c 	ldr	r3, [fp, #-12]
  106bfc:	e3530001 	cmp	r3, #1
  106c00:	9a000003 	bls	106c14 <alt_dma_16550_to_memory_burst_segment+0xac>
  106c04:	e51b0010 	ldr	r0, [fp, #-16]
  106c08:	e51b100c 	ldr	r1, [fp, #-12]
  106c0c:	eb00058a 	bl	10823c <alt_dma_program_DMALP>
  106c10:	e50b0008 	str	r0, [fp, #-8]
  106c14:	e51b3008 	ldr	r3, [fp, #-8]
  106c18:	e3530000 	cmp	r3, #0
  106c1c:	1a000004 	bne	106c34 <alt_dma_16550_to_memory_burst_segment+0xcc>
  106c20:	e55b3011 	ldrb	r3, [fp, #-17]	; 0xffffffef
  106c24:	e51b0010 	ldr	r0, [fp, #-16]
  106c28:	e1a01003 	mov	r1, r3
  106c2c:	eb00044f 	bl	107d70 <alt_dma_program_DMAFLUSHP>
  106c30:	e50b0008 	str	r0, [fp, #-8]
  106c34:	e51b3008 	ldr	r3, [fp, #-8]
  106c38:	e3530000 	cmp	r3, #0
  106c3c:	1a000005 	bne	106c58 <alt_dma_16550_to_memory_burst_segment+0xf0>
  106c40:	e55b3011 	ldrb	r3, [fp, #-17]	; 0xffffffef
  106c44:	e51b0010 	ldr	r0, [fp, #-16]
  106c48:	e1a01003 	mov	r1, r3
  106c4c:	e3a02002 	mov	r2, #2
  106c50:	eb000878 	bl	108e38 <alt_dma_program_DMAWFP>
  106c54:	e50b0008 	str	r0, [fp, #-8]
  106c58:	e51b3008 	ldr	r3, [fp, #-8]
  106c5c:	e3530000 	cmp	r3, #0
  106c60:	1a000005 	bne	106c7c <alt_dma_16550_to_memory_burst_segment+0x114>
  106c64:	e51b3018 	ldr	r3, [fp, #-24]	; 0xffffffe8
  106c68:	e1a03223 	lsr	r3, r3, #4
  106c6c:	e51b0010 	ldr	r0, [fp, #-16]
  106c70:	e1a01003 	mov	r1, r3
  106c74:	eb000570 	bl	10823c <alt_dma_program_DMALP>
  106c78:	e50b0008 	str	r0, [fp, #-8]
  106c7c:	e51b3008 	ldr	r3, [fp, #-8]
  106c80:	e3530000 	cmp	r3, #0
  106c84:	1a000003 	bne	106c98 <alt_dma_16550_to_memory_burst_segment+0x130>
  106c88:	e51b0010 	ldr	r0, [fp, #-16]
  106c8c:	e3a01002 	mov	r1, #2
  106c90:	eb0004ea 	bl	108040 <alt_dma_program_DMALD>
  106c94:	e50b0008 	str	r0, [fp, #-8]
  106c98:	e51b3008 	ldr	r3, [fp, #-8]
  106c9c:	e3530000 	cmp	r3, #0
  106ca0:	1a000003 	bne	106cb4 <alt_dma_16550_to_memory_burst_segment+0x14c>
  106ca4:	e51b0010 	ldr	r0, [fp, #-16]
  106ca8:	e3a01002 	mov	r1, #2
  106cac:	eb000780 	bl	108ab4 <alt_dma_program_DMAST>
  106cb0:	e50b0008 	str	r0, [fp, #-8]
  106cb4:	e51b3008 	ldr	r3, [fp, #-8]
  106cb8:	e3530000 	cmp	r3, #0
  106cbc:	1a000003 	bne	106cd0 <alt_dma_16550_to_memory_burst_segment+0x168>
  106cc0:	e51b0010 	ldr	r0, [fp, #-16]
  106cc4:	e3a01002 	mov	r1, #2
  106cc8:	eb0005bb 	bl	1083bc <alt_dma_program_DMALPEND>
  106ccc:	e50b0008 	str	r0, [fp, #-8]
  106cd0:	e51b3008 	ldr	r3, [fp, #-8]
  106cd4:	e3530000 	cmp	r3, #0
  106cd8:	1a000006 	bne	106cf8 <alt_dma_16550_to_memory_burst_segment+0x190>
  106cdc:	e51b300c 	ldr	r3, [fp, #-12]
  106ce0:	e3530001 	cmp	r3, #1
  106ce4:	9a000003 	bls	106cf8 <alt_dma_16550_to_memory_burst_segment+0x190>
  106ce8:	e51b0010 	ldr	r0, [fp, #-16]
  106cec:	e3a01002 	mov	r1, #2
  106cf0:	eb0005b1 	bl	1083bc <alt_dma_program_DMALPEND>
  106cf4:	e50b0008 	str	r0, [fp, #-8]
  106cf8:	e51b301c 	ldr	r3, [fp, #-28]	; 0xffffffe4
  106cfc:	e3530000 	cmp	r3, #0
  106d00:	1affffac 	bne	106bb8 <alt_dma_16550_to_memory_burst_segment+0x50>
  106d04:	e51b3008 	ldr	r3, [fp, #-8]
  106d08:	e1a00003 	mov	r0, r3
  106d0c:	e24bd004 	sub	sp, fp, #4
  106d10:	e8bd8800 	pop	{fp, pc}

00106d14 <alt_dma_16550_to_memory_single>:
  106d14:	e92d4800 	push	{fp, lr}
  106d18:	e28db004 	add	fp, sp, #4
  106d1c:	e24dd030 	sub	sp, sp, #48	; 0x30
  106d20:	e50b0028 	str	r0, [fp, #-40]	; 0xffffffd8
  106d24:	e50b2030 	str	r2, [fp, #-48]	; 0xffffffd0
  106d28:	e50b3034 	str	r3, [fp, #-52]	; 0xffffffcc
  106d2c:	e1a03001 	mov	r3, r1
  106d30:	e54b3029 	strb	r3, [fp, #-41]	; 0xffffffd7
  106d34:	e3a03000 	mov	r3, #0
  106d38:	e50b3008 	str	r3, [fp, #-8]
  106d3c:	e51b3008 	ldr	r3, [fp, #-8]
  106d40:	e3530000 	cmp	r3, #0
  106d44:	1a000005 	bne	106d60 <alt_dma_16550_to_memory_single+0x4c>
  106d48:	e24b3018 	sub	r3, fp, #24
  106d4c:	e1a00003 	mov	r0, r3
  106d50:	e51b1030 	ldr	r1, [fp, #-48]	; 0xffffffd0
  106d54:	e51b2034 	ldr	r2, [fp, #-52]	; 0xffffffcc
  106d58:	ebffec98 	bl	101fc0 <alt_mmu_va_to_pa_coalesce_begin>
  106d5c:	e50b0008 	str	r0, [fp, #-8]
  106d60:	ea000028 	b	106e08 <alt_dma_16550_to_memory_single+0xf4>
  106d64:	e51b3008 	ldr	r3, [fp, #-8]
  106d68:	e3530000 	cmp	r3, #0
  106d6c:	1a000028 	bne	106e14 <alt_dma_16550_to_memory_single+0x100>
  106d70:	e3a03000 	mov	r3, #0
  106d74:	e50b301c 	str	r3, [fp, #-28]	; 0xffffffe4
  106d78:	e3a03000 	mov	r3, #0
  106d7c:	e50b3020 	str	r3, [fp, #-32]	; 0xffffffe0
  106d80:	e51b3008 	ldr	r3, [fp, #-8]
  106d84:	e3530000 	cmp	r3, #0
  106d88:	1a000007 	bne	106dac <alt_dma_16550_to_memory_single+0x98>
  106d8c:	e24b1018 	sub	r1, fp, #24
  106d90:	e24b201c 	sub	r2, fp, #28
  106d94:	e24b3020 	sub	r3, fp, #32
  106d98:	e1a00001 	mov	r0, r1
  106d9c:	e1a01002 	mov	r1, r2
  106da0:	e1a02003 	mov	r2, r3
  106da4:	ebffecb5 	bl	102080 <alt_mmu_va_to_pa_coalesce_next>
  106da8:	e50b0008 	str	r0, [fp, #-8]
  106dac:	e51b3020 	ldr	r3, [fp, #-32]	; 0xffffffe0
  106db0:	e51b2034 	ldr	r2, [fp, #-52]	; 0xffffffcc
  106db4:	e0633002 	rsb	r3, r3, r2
  106db8:	e50b3034 	str	r3, [fp, #-52]	; 0xffffffcc
  106dbc:	e51b3008 	ldr	r3, [fp, #-8]
  106dc0:	e3530000 	cmp	r3, #0
  106dc4:	1a000005 	bne	106de0 <alt_dma_16550_to_memory_single+0xcc>
  106dc8:	e51b301c 	ldr	r3, [fp, #-28]	; 0xffffffe4
  106dcc:	e51b0028 	ldr	r0, [fp, #-40]	; 0xffffffd8
  106dd0:	e3a01002 	mov	r1, #2
  106dd4:	e1a02003 	mov	r2, r3
  106dd8:	eb000646 	bl	1086f8 <alt_dma_program_DMAMOV>
  106ddc:	e50b0008 	str	r0, [fp, #-8]
  106de0:	e51b3008 	ldr	r3, [fp, #-8]
  106de4:	e3530000 	cmp	r3, #0
  106de8:	1a000006 	bne	106e08 <alt_dma_16550_to_memory_single+0xf4>
  106dec:	e51b3020 	ldr	r3, [fp, #-32]	; 0xffffffe0
  106df0:	e55b2029 	ldrb	r2, [fp, #-41]	; 0xffffffd7
  106df4:	e51b0028 	ldr	r0, [fp, #-40]	; 0xffffffd8
  106df8:	e1a01002 	mov	r1, r2
  106dfc:	e1a02003 	mov	r2, r3
  106e00:	ebfffefd 	bl	1069fc <alt_dma_16550_to_memory_single_segment>
  106e04:	e50b0008 	str	r0, [fp, #-8]
  106e08:	e51b3034 	ldr	r3, [fp, #-52]	; 0xffffffcc
  106e0c:	e3530000 	cmp	r3, #0
  106e10:	1affffd3 	bne	106d64 <alt_dma_16550_to_memory_single+0x50>
  106e14:	e51b3008 	ldr	r3, [fp, #-8]
  106e18:	e3530000 	cmp	r3, #0
  106e1c:	1a000003 	bne	106e30 <alt_dma_16550_to_memory_single+0x11c>
  106e20:	e24b3018 	sub	r3, fp, #24
  106e24:	e1a00003 	mov	r0, r3
  106e28:	ebffecf5 	bl	102204 <alt_mmu_va_to_pa_coalesce_end>
  106e2c:	e50b0008 	str	r0, [fp, #-8]
  106e30:	e51b3008 	ldr	r3, [fp, #-8]
  106e34:	e1a00003 	mov	r0, r3
  106e38:	e24bd004 	sub	sp, fp, #4
  106e3c:	e8bd8800 	pop	{fp, pc}

00106e40 <alt_dma_16550_to_memory_burst>:
  106e40:	e92d4800 	push	{fp, lr}
  106e44:	e28db004 	add	fp, sp, #4
  106e48:	e24dd040 	sub	sp, sp, #64	; 0x40
  106e4c:	e50b0038 	str	r0, [fp, #-56]	; 0xffffffc8
  106e50:	e50b2040 	str	r2, [fp, #-64]	; 0xffffffc0
  106e54:	e50b3044 	str	r3, [fp, #-68]	; 0xffffffbc
  106e58:	e1a03001 	mov	r3, r1
  106e5c:	e54b3039 	strb	r3, [fp, #-57]	; 0xffffffc7
  106e60:	e3a03000 	mov	r3, #0
  106e64:	e50b3008 	str	r3, [fp, #-8]
  106e68:	e51b3008 	ldr	r3, [fp, #-8]
  106e6c:	e3530000 	cmp	r3, #0
  106e70:	1a000005 	bne	106e8c <alt_dma_16550_to_memory_burst+0x4c>
  106e74:	e24b3020 	sub	r3, fp, #32
  106e78:	e1a00003 	mov	r0, r3
  106e7c:	e51b1044 	ldr	r1, [fp, #-68]	; 0xffffffbc
  106e80:	e59b2004 	ldr	r2, [fp, #4]
  106e84:	ebffec4d 	bl	101fc0 <alt_mmu_va_to_pa_coalesce_begin>
  106e88:	e50b0008 	str	r0, [fp, #-8]
  106e8c:	ea000046 	b	106fac <alt_dma_16550_to_memory_burst+0x16c>
  106e90:	e51b3008 	ldr	r3, [fp, #-8]
  106e94:	e3530000 	cmp	r3, #0
  106e98:	1a000046 	bne	106fb8 <alt_dma_16550_to_memory_burst+0x178>
  106e9c:	e3a03000 	mov	r3, #0
  106ea0:	e50b3024 	str	r3, [fp, #-36]	; 0xffffffdc
  106ea4:	e3a03000 	mov	r3, #0
  106ea8:	e50b3028 	str	r3, [fp, #-40]	; 0xffffffd8
  106eac:	e51b3008 	ldr	r3, [fp, #-8]
  106eb0:	e3530000 	cmp	r3, #0
  106eb4:	1a000007 	bne	106ed8 <alt_dma_16550_to_memory_burst+0x98>
  106eb8:	e24b1020 	sub	r1, fp, #32
  106ebc:	e24b2024 	sub	r2, fp, #36	; 0x24
  106ec0:	e24b3028 	sub	r3, fp, #40	; 0x28
  106ec4:	e1a00001 	mov	r0, r1
  106ec8:	e1a01002 	mov	r1, r2
  106ecc:	e1a02003 	mov	r2, r3
  106ed0:	ebffec6a 	bl	102080 <alt_mmu_va_to_pa_coalesce_next>
  106ed4:	e50b0008 	str	r0, [fp, #-8]
  106ed8:	e51b3028 	ldr	r3, [fp, #-40]	; 0xffffffd8
  106edc:	e59b2004 	ldr	r2, [fp, #4]
  106ee0:	e0633002 	rsb	r3, r3, r2
  106ee4:	e58b3004 	str	r3, [fp, #4]
  106ee8:	e51b3028 	ldr	r3, [fp, #-40]	; 0xffffffd8
  106eec:	e50b300c 	str	r3, [fp, #-12]
  106ef0:	e3a03000 	mov	r3, #0
  106ef4:	e50b3010 	str	r3, [fp, #-16]
  106ef8:	e51b200c 	ldr	r2, [fp, #-12]
  106efc:	e51b3040 	ldr	r3, [fp, #-64]	; 0xffffffc0
  106f00:	e24b1030 	sub	r1, fp, #48	; 0x30
  106f04:	e1a00001 	mov	r0, r1
  106f08:	e1a01002 	mov	r1, r2
  106f0c:	e1a02003 	mov	r2, r3
  106f10:	eb000833 	bl	108fe4 <ldiv>
  106f14:	e51b3030 	ldr	r3, [fp, #-48]	; 0xffffffd0
  106f18:	e50b3010 	str	r3, [fp, #-16]
  106f1c:	e51b302c 	ldr	r3, [fp, #-44]	; 0xffffffd4
  106f20:	e50b300c 	str	r3, [fp, #-12]
  106f24:	e51b3008 	ldr	r3, [fp, #-8]
  106f28:	e3530000 	cmp	r3, #0
  106f2c:	1a000005 	bne	106f48 <alt_dma_16550_to_memory_burst+0x108>
  106f30:	e51b3024 	ldr	r3, [fp, #-36]	; 0xffffffdc
  106f34:	e51b0038 	ldr	r0, [fp, #-56]	; 0xffffffc8
  106f38:	e3a01002 	mov	r1, #2
  106f3c:	e1a02003 	mov	r2, r3
  106f40:	eb0005ec 	bl	1086f8 <alt_dma_program_DMAMOV>
  106f44:	e50b0008 	str	r0, [fp, #-8]
  106f48:	e51b3008 	ldr	r3, [fp, #-8]
  106f4c:	e3530000 	cmp	r3, #0
  106f50:	1a000009 	bne	106f7c <alt_dma_16550_to_memory_burst+0x13c>
  106f54:	e51b3010 	ldr	r3, [fp, #-16]
  106f58:	e3530000 	cmp	r3, #0
  106f5c:	0a000006 	beq	106f7c <alt_dma_16550_to_memory_burst+0x13c>
  106f60:	e55b3039 	ldrb	r3, [fp, #-57]	; 0xffffffc7
  106f64:	e51b0038 	ldr	r0, [fp, #-56]	; 0xffffffc8
  106f68:	e1a01003 	mov	r1, r3
  106f6c:	e51b2040 	ldr	r2, [fp, #-64]	; 0xffffffc0
  106f70:	e51b3010 	ldr	r3, [fp, #-16]
  106f74:	ebfffefb 	bl	106b68 <alt_dma_16550_to_memory_burst_segment>
  106f78:	e50b0008 	str	r0, [fp, #-8]
  106f7c:	e51b3008 	ldr	r3, [fp, #-8]
  106f80:	e3530000 	cmp	r3, #0
  106f84:	1a000008 	bne	106fac <alt_dma_16550_to_memory_burst+0x16c>
  106f88:	e51b300c 	ldr	r3, [fp, #-12]
  106f8c:	e3530000 	cmp	r3, #0
  106f90:	0a000005 	beq	106fac <alt_dma_16550_to_memory_burst+0x16c>
  106f94:	e55b3039 	ldrb	r3, [fp, #-57]	; 0xffffffc7
  106f98:	e51b0038 	ldr	r0, [fp, #-56]	; 0xffffffc8
  106f9c:	e1a01003 	mov	r1, r3
  106fa0:	e51b200c 	ldr	r2, [fp, #-12]
  106fa4:	ebfffe94 	bl	1069fc <alt_dma_16550_to_memory_single_segment>
  106fa8:	e50b0008 	str	r0, [fp, #-8]
  106fac:	e59b3004 	ldr	r3, [fp, #4]
  106fb0:	e3530000 	cmp	r3, #0
  106fb4:	1affffb5 	bne	106e90 <alt_dma_16550_to_memory_burst+0x50>
  106fb8:	e51b3008 	ldr	r3, [fp, #-8]
  106fbc:	e3530000 	cmp	r3, #0
  106fc0:	1a000003 	bne	106fd4 <alt_dma_16550_to_memory_burst+0x194>
  106fc4:	e24b3020 	sub	r3, fp, #32
  106fc8:	e1a00003 	mov	r0, r3
  106fcc:	ebffec8c 	bl	102204 <alt_mmu_va_to_pa_coalesce_end>
  106fd0:	e50b0008 	str	r0, [fp, #-8]
  106fd4:	e51b3008 	ldr	r3, [fp, #-8]
  106fd8:	e1a00003 	mov	r0, r3
  106fdc:	e24bd004 	sub	sp, fp, #4
  106fe0:	e8bd8800 	pop	{fp, pc}

00106fe4 <alt_dma_16550_to_memory>:
  106fe4:	e92d4800 	push	{fp, lr}
  106fe8:	e28db004 	add	fp, sp, #4
  106fec:	e24dd028 	sub	sp, sp, #40	; 0x28
  106ff0:	e50b0018 	str	r0, [fp, #-24]	; 0xffffffe8
  106ff4:	e50b2020 	str	r2, [fp, #-32]	; 0xffffffe0
  106ff8:	e50b3024 	str	r3, [fp, #-36]	; 0xffffffdc
  106ffc:	e1a03001 	mov	r3, r1
  107000:	e54b3019 	strb	r3, [fp, #-25]	; 0xffffffe7
  107004:	e3a03000 	mov	r3, #0
  107008:	e50b3008 	str	r3, [fp, #-8]
  10700c:	e51b3008 	ldr	r3, [fp, #-8]
  107010:	e3530000 	cmp	r3, #0
  107014:	1a000006 	bne	107034 <alt_dma_16550_to_memory+0x50>
  107018:	e51b3020 	ldr	r3, [fp, #-32]	; 0xffffffe0
  10701c:	e5933004 	ldr	r3, [r3, #4]
  107020:	e51b0018 	ldr	r0, [fp, #-24]	; 0xffffffe8
  107024:	e3a01000 	mov	r1, #0
  107028:	e1a02003 	mov	r2, r3
  10702c:	eb0005b1 	bl	1086f8 <alt_dma_program_DMAMOV>
  107030:	e50b0008 	str	r0, [fp, #-8]
  107034:	e51b3020 	ldr	r3, [fp, #-32]	; 0xffffffe0
  107038:	e5933010 	ldr	r3, [r3, #16]
  10703c:	e2033001 	and	r3, r3, #1
  107040:	e3530000 	cmp	r3, #0
  107044:	0a000043 	beq	107158 <alt_dma_16550_to_memory+0x174>
  107048:	e51b3020 	ldr	r3, [fp, #-32]	; 0xffffffe0
  10704c:	e5933004 	ldr	r3, [r3, #4]
  107050:	e28330f4 	add	r3, r3, #244	; 0xf4
  107054:	e5933000 	ldr	r3, [r3]
  107058:	e20338ff 	and	r3, r3, #16711680	; 0xff0000
  10705c:	e1a03823 	lsr	r3, r3, #16
  107060:	e1a03203 	lsl	r3, r3, #4
  107064:	e50b3010 	str	r3, [fp, #-16]
  107068:	e51b3020 	ldr	r3, [fp, #-32]	; 0xffffffe0
  10706c:	e5933010 	ldr	r3, [r3, #16]
  107070:	e20330c0 	and	r3, r3, #192	; 0xc0
  107074:	e1a03323 	lsr	r3, r3, #6
  107078:	e6ef3073 	uxtb	r3, r3
  10707c:	e3530003 	cmp	r3, #3
  107080:	979ff103 	ldrls	pc, [pc, r3, lsl #2]
  107084:	ea000012 	b	1070d4 <alt_dma_16550_to_memory+0xf0>
  107088:	00107098 	.word	0x00107098
  10708c:	001070a4 	.word	0x001070a4
  107090:	001070b4 	.word	0x001070b4
  107094:	001070c4 	.word	0x001070c4
  107098:	e3a03001 	mov	r3, #1
  10709c:	e50b300c 	str	r3, [fp, #-12]
  1070a0:	ea00000d 	b	1070dc <alt_dma_16550_to_memory+0xf8>
  1070a4:	e51b3010 	ldr	r3, [fp, #-16]
  1070a8:	e1a03123 	lsr	r3, r3, #2
  1070ac:	e50b300c 	str	r3, [fp, #-12]
  1070b0:	ea000009 	b	1070dc <alt_dma_16550_to_memory+0xf8>
  1070b4:	e51b3010 	ldr	r3, [fp, #-16]
  1070b8:	e1a030a3 	lsr	r3, r3, #1
  1070bc:	e50b300c 	str	r3, [fp, #-12]
  1070c0:	ea000005 	b	1070dc <alt_dma_16550_to_memory+0xf8>
  1070c4:	e51b3010 	ldr	r3, [fp, #-16]
  1070c8:	e2433002 	sub	r3, r3, #2
  1070cc:	e50b300c 	str	r3, [fp, #-12]
  1070d0:	ea000001 	b	1070dc <alt_dma_16550_to_memory+0xf8>
  1070d4:	e3e03000 	mvn	r3, #0
  1070d8:	ea000029 	b	107184 <alt_dma_16550_to_memory+0x1a0>
  1070dc:	e51b300c 	ldr	r3, [fp, #-12]
  1070e0:	e353000f 	cmp	r3, #15
  1070e4:	8a00000a 	bhi	107114 <alt_dma_16550_to_memory+0x130>
  1070e8:	e51b3008 	ldr	r3, [fp, #-8]
  1070ec:	e3530000 	cmp	r3, #0
  1070f0:	1a000017 	bne	107154 <alt_dma_16550_to_memory+0x170>
  1070f4:	e55b3019 	ldrb	r3, [fp, #-25]	; 0xffffffe7
  1070f8:	e51b0018 	ldr	r0, [fp, #-24]	; 0xffffffe8
  1070fc:	e1a01003 	mov	r1, r3
  107100:	e51b2024 	ldr	r2, [fp, #-36]	; 0xffffffdc
  107104:	e59b3004 	ldr	r3, [fp, #4]
  107108:	ebffff01 	bl	106d14 <alt_dma_16550_to_memory_single>
  10710c:	e50b0008 	str	r0, [fp, #-8]
  107110:	ea00001a 	b	107180 <alt_dma_16550_to_memory+0x19c>
  107114:	e51b300c 	ldr	r3, [fp, #-12]
  107118:	e3c3300f 	bic	r3, r3, #15
  10711c:	e50b300c 	str	r3, [fp, #-12]
  107120:	e51b3008 	ldr	r3, [fp, #-8]
  107124:	e3530000 	cmp	r3, #0
  107128:	1a000009 	bne	107154 <alt_dma_16550_to_memory+0x170>
  10712c:	e55b2019 	ldrb	r2, [fp, #-25]	; 0xffffffe7
  107130:	e59b3004 	ldr	r3, [fp, #4]
  107134:	e58d3000 	str	r3, [sp]
  107138:	e51b0018 	ldr	r0, [fp, #-24]	; 0xffffffe8
  10713c:	e1a01002 	mov	r1, r2
  107140:	e51b200c 	ldr	r2, [fp, #-12]
  107144:	e51b3024 	ldr	r3, [fp, #-36]	; 0xffffffdc
  107148:	ebffff3c 	bl	106e40 <alt_dma_16550_to_memory_burst>
  10714c:	e50b0008 	str	r0, [fp, #-8]
  107150:	ea00000a 	b	107180 <alt_dma_16550_to_memory+0x19c>
  107154:	ea000009 	b	107180 <alt_dma_16550_to_memory+0x19c>
  107158:	e51b3008 	ldr	r3, [fp, #-8]
  10715c:	e3530000 	cmp	r3, #0
  107160:	1a000006 	bne	107180 <alt_dma_16550_to_memory+0x19c>
  107164:	e55b3019 	ldrb	r3, [fp, #-25]	; 0xffffffe7
  107168:	e51b0018 	ldr	r0, [fp, #-24]	; 0xffffffe8
  10716c:	e1a01003 	mov	r1, r3
  107170:	e51b2024 	ldr	r2, [fp, #-36]	; 0xffffffdc
  107174:	e59b3004 	ldr	r3, [fp, #4]
  107178:	ebfffee5 	bl	106d14 <alt_dma_16550_to_memory_single>
  10717c:	e50b0008 	str	r0, [fp, #-8]
  107180:	e51b3008 	ldr	r3, [fp, #-8]
  107184:	e1a00003 	mov	r0, r3
  107188:	e24bd004 	sub	sp, fp, #4
  10718c:	e8bd8800 	pop	{fp, pc}

00107190 <alt_dma_memory_to_periph>:
  107190:	e92d4800 	push	{fp, lr}
  107194:	e28db004 	add	fp, sp, #4
  107198:	e24dd020 	sub	sp, sp, #32
  10719c:	e50b1014 	str	r1, [fp, #-20]	; 0xffffffec
  1071a0:	e50b3018 	str	r3, [fp, #-24]	; 0xffffffe8
  1071a4:	e1a03000 	mov	r3, r0
  1071a8:	e54b300d 	strb	r3, [fp, #-13]
  1071ac:	e1a03002 	mov	r3, r2
  1071b0:	e54b300e 	strb	r3, [fp, #-14]
  1071b4:	e59b3004 	ldr	r3, [fp, #4]
  1071b8:	e3530000 	cmp	r3, #0
  1071bc:	1a000006 	bne	1071dc <alt_dma_memory_to_periph+0x4c>
  1071c0:	e5db300c 	ldrb	r3, [fp, #12]
  1071c4:	e2233001 	eor	r3, r3, #1
  1071c8:	e6ef3073 	uxtb	r3, r3
  1071cc:	e3530000 	cmp	r3, #0
  1071d0:	0a000001 	beq	1071dc <alt_dma_memory_to_periph+0x4c>
  1071d4:	e3a03000 	mov	r3, #0
  1071d8:	ea00006c 	b	107390 <alt_dma_memory_to_periph+0x200>
  1071dc:	e3a03000 	mov	r3, #0
  1071e0:	e50b3008 	str	r3, [fp, #-8]
  1071e4:	e51b3008 	ldr	r3, [fp, #-8]
  1071e8:	e3530000 	cmp	r3, #0
  1071ec:	1a000002 	bne	1071fc <alt_dma_memory_to_periph+0x6c>
  1071f0:	e51b0014 	ldr	r0, [fp, #-20]	; 0xffffffec
  1071f4:	eb000139 	bl	1076e0 <alt_dma_program_init>
  1071f8:	e50b0008 	str	r0, [fp, #-8]
  1071fc:	e51b3008 	ldr	r3, [fp, #-8]
  107200:	e3530000 	cmp	r3, #0
  107204:	1a000044 	bne	10731c <alt_dma_memory_to_periph+0x18c>
  107208:	e59b3004 	ldr	r3, [fp, #4]
  10720c:	e3530000 	cmp	r3, #0
  107210:	0a000041 	beq	10731c <alt_dma_memory_to_periph+0x18c>
  107214:	e51b2018 	ldr	r2, [fp, #-24]	; 0xffffffe8
  107218:	e59b3004 	ldr	r3, [fp, #4]
  10721c:	e0823003 	add	r3, r2, r3
  107220:	e2432001 	sub	r2, r3, #1
  107224:	e51b3018 	ldr	r3, [fp, #-24]	; 0xffffffe8
  107228:	e1520003 	cmp	r2, r3
  10722c:	2a000001 	bcs	107238 <alt_dma_memory_to_periph+0xa8>
  107230:	e3e03008 	mvn	r3, #8
  107234:	ea000055 	b	107390 <alt_dma_memory_to_periph+0x200>
  107238:	e55b300e 	ldrb	r3, [fp, #-14]
  10723c:	e2433008 	sub	r3, r3, #8
  107240:	e3530016 	cmp	r3, #22
  107244:	979ff103 	ldrls	pc, [pc, r3, lsl #2]
  107248:	ea000030 	b	107310 <alt_dma_memory_to_periph+0x180>
  10724c:	001072a8 	.word	0x001072a8
  107250:	00107310 	.word	0x00107310
  107254:	001072a8 	.word	0x001072a8
  107258:	00107310 	.word	0x00107310
  10725c:	001072a8 	.word	0x001072a8
  107260:	00107310 	.word	0x00107310
  107264:	001072a8 	.word	0x001072a8
  107268:	00107310 	.word	0x00107310
  10726c:	00107310 	.word	0x00107310
  107270:	00107310 	.word	0x00107310
  107274:	00107310 	.word	0x00107310
  107278:	00107310 	.word	0x00107310
  10727c:	00107310 	.word	0x00107310
  107280:	00107310 	.word	0x00107310
  107284:	00107310 	.word	0x00107310
  107288:	00107310 	.word	0x00107310
  10728c:	001072d0 	.word	0x001072d0
  107290:	00107310 	.word	0x00107310
  107294:	00107310 	.word	0x00107310
  107298:	00107310 	.word	0x00107310
  10729c:	001072e8 	.word	0x001072e8
  1072a0:	00107310 	.word	0x00107310
  1072a4:	001072e8 	.word	0x001072e8
  1072a8:	e55b200e 	ldrb	r2, [fp, #-14]
  1072ac:	e59b3004 	ldr	r3, [fp, #4]
  1072b0:	e58d3000 	str	r3, [sp]
  1072b4:	e51b0014 	ldr	r0, [fp, #-20]	; 0xffffffec
  1072b8:	e1a01002 	mov	r1, r2
  1072bc:	e59b2008 	ldr	r2, [fp, #8]
  1072c0:	e51b3018 	ldr	r3, [fp, #-24]	; 0xffffffe8
  1072c4:	ebfff46d 	bl	104480 <alt_dma_memory_to_i2c>
  1072c8:	e50b0008 	str	r0, [fp, #-8]
  1072cc:	ea000012 	b	10731c <alt_dma_memory_to_periph+0x18c>
  1072d0:	e51b0014 	ldr	r0, [fp, #-20]	; 0xffffffec
  1072d4:	e51b1018 	ldr	r1, [fp, #-24]	; 0xffffffe8
  1072d8:	e59b2004 	ldr	r2, [fp, #4]
  1072dc:	ebfff8c8 	bl	105604 <alt_dma_memory_to_qspi>
  1072e0:	e50b0008 	str	r0, [fp, #-8]
  1072e4:	ea00000c 	b	10731c <alt_dma_memory_to_periph+0x18c>
  1072e8:	e55b200e 	ldrb	r2, [fp, #-14]
  1072ec:	e59b3004 	ldr	r3, [fp, #4]
  1072f0:	e58d3000 	str	r3, [sp]
  1072f4:	e51b0014 	ldr	r0, [fp, #-20]	; 0xffffffec
  1072f8:	e1a01002 	mov	r1, r2
  1072fc:	e59b2008 	ldr	r2, [fp, #8]
  107300:	e51b3018 	ldr	r3, [fp, #-24]	; 0xffffffe8
  107304:	ebfffd4e 	bl	106844 <alt_dma_memory_to_16550>
  107308:	e50b0008 	str	r0, [fp, #-8]
  10730c:	ea000002 	b	10731c <alt_dma_memory_to_periph+0x18c>
  107310:	e3e03008 	mvn	r3, #8
  107314:	e50b3008 	str	r3, [fp, #-8]
  107318:	e1a00000 	nop			; (mov r0, r0)
  10731c:	e5db300c 	ldrb	r3, [fp, #12]
  107320:	e3530000 	cmp	r3, #0
  107324:	0a000007 	beq	107348 <alt_dma_memory_to_periph+0x1b8>
  107328:	e51b3008 	ldr	r3, [fp, #-8]
  10732c:	e3530000 	cmp	r3, #0
  107330:	1a000004 	bne	107348 <alt_dma_memory_to_periph+0x1b8>
  107334:	e5db3010 	ldrb	r3, [fp, #16]
  107338:	e51b0014 	ldr	r0, [fp, #-20]	; 0xffffffec
  10733c:	e1a01003 	mov	r1, r3
  107340:	eb0005a9 	bl	1089ec <alt_dma_program_DMASEV>
  107344:	e50b0008 	str	r0, [fp, #-8]
  107348:	e51b3008 	ldr	r3, [fp, #-8]
  10734c:	e3530000 	cmp	r3, #0
  107350:	1a000002 	bne	107360 <alt_dma_memory_to_periph+0x1d0>
  107354:	e51b0014 	ldr	r0, [fp, #-20]	; 0xffffffec
  107358:	eb00025c 	bl	107cd0 <alt_dma_program_DMAEND>
  10735c:	e50b0008 	str	r0, [fp, #-8]
  107360:	e51b3008 	ldr	r3, [fp, #-8]
  107364:	e3530000 	cmp	r3, #0
  107368:	0a000003 	beq	10737c <alt_dma_memory_to_periph+0x1ec>
  10736c:	e51b0014 	ldr	r0, [fp, #-20]	; 0xffffffec
  107370:	eb0000ff 	bl	107774 <alt_dma_program_clear>
  107374:	e51b3008 	ldr	r3, [fp, #-8]
  107378:	ea000004 	b	107390 <alt_dma_memory_to_periph+0x200>
  10737c:	e55b300d 	ldrb	r3, [fp, #-13]
  107380:	e1a00003 	mov	r0, r3
  107384:	e51b1014 	ldr	r1, [fp, #-20]	; 0xffffffec
  107388:	ebffe91a 	bl	1017f8 <alt_dma_channel_exec>
  10738c:	e1a03000 	mov	r3, r0
  107390:	e1a00003 	mov	r0, r3
  107394:	e24bd004 	sub	sp, fp, #4
  107398:	e8bd8800 	pop	{fp, pc}

0010739c <alt_dma_periph_to_memory>:
  10739c:	e92d4800 	push	{fp, lr}
  1073a0:	e28db004 	add	fp, sp, #4
  1073a4:	e24dd020 	sub	sp, sp, #32
  1073a8:	e50b1014 	str	r1, [fp, #-20]	; 0xffffffec
  1073ac:	e50b2018 	str	r2, [fp, #-24]	; 0xffffffe8
  1073b0:	e1a02003 	mov	r2, r3
  1073b4:	e1a03000 	mov	r3, r0
  1073b8:	e54b300d 	strb	r3, [fp, #-13]
  1073bc:	e1a03002 	mov	r3, r2
  1073c0:	e54b300e 	strb	r3, [fp, #-14]
  1073c4:	e59b3004 	ldr	r3, [fp, #4]
  1073c8:	e3530000 	cmp	r3, #0
  1073cc:	1a000006 	bne	1073ec <alt_dma_periph_to_memory+0x50>
  1073d0:	e5db300c 	ldrb	r3, [fp, #12]
  1073d4:	e2233001 	eor	r3, r3, #1
  1073d8:	e6ef3073 	uxtb	r3, r3
  1073dc:	e3530000 	cmp	r3, #0
  1073e0:	0a000001 	beq	1073ec <alt_dma_periph_to_memory+0x50>
  1073e4:	e3a03000 	mov	r3, #0
  1073e8:	ea00006c 	b	1075a0 <alt_dma_periph_to_memory+0x204>
  1073ec:	e3a03000 	mov	r3, #0
  1073f0:	e50b3008 	str	r3, [fp, #-8]
  1073f4:	e51b3008 	ldr	r3, [fp, #-8]
  1073f8:	e3530000 	cmp	r3, #0
  1073fc:	1a000002 	bne	10740c <alt_dma_periph_to_memory+0x70>
  107400:	e51b0014 	ldr	r0, [fp, #-20]	; 0xffffffec
  107404:	eb0000b5 	bl	1076e0 <alt_dma_program_init>
  107408:	e50b0008 	str	r0, [fp, #-8]
  10740c:	e51b3008 	ldr	r3, [fp, #-8]
  107410:	e3530000 	cmp	r3, #0
  107414:	1a000044 	bne	10752c <alt_dma_periph_to_memory+0x190>
  107418:	e59b3004 	ldr	r3, [fp, #4]
  10741c:	e3530000 	cmp	r3, #0
  107420:	0a000041 	beq	10752c <alt_dma_periph_to_memory+0x190>
  107424:	e51b2018 	ldr	r2, [fp, #-24]	; 0xffffffe8
  107428:	e59b3004 	ldr	r3, [fp, #4]
  10742c:	e0823003 	add	r3, r2, r3
  107430:	e2432001 	sub	r2, r3, #1
  107434:	e51b3018 	ldr	r3, [fp, #-24]	; 0xffffffe8
  107438:	e1520003 	cmp	r2, r3
  10743c:	2a000001 	bcs	107448 <alt_dma_periph_to_memory+0xac>
  107440:	e3e03008 	mvn	r3, #8
  107444:	ea000055 	b	1075a0 <alt_dma_periph_to_memory+0x204>
  107448:	e55b300e 	ldrb	r3, [fp, #-14]
  10744c:	e2433009 	sub	r3, r3, #9
  107450:	e3530016 	cmp	r3, #22
  107454:	979ff103 	ldrls	pc, [pc, r3, lsl #2]
  107458:	ea000030 	b	107520 <alt_dma_periph_to_memory+0x184>
  10745c:	001074b8 	.word	0x001074b8
  107460:	00107520 	.word	0x00107520
  107464:	001074b8 	.word	0x001074b8
  107468:	00107520 	.word	0x00107520
  10746c:	001074b8 	.word	0x001074b8
  107470:	00107520 	.word	0x00107520
  107474:	001074b8 	.word	0x001074b8
  107478:	00107520 	.word	0x00107520
  10747c:	00107520 	.word	0x00107520
  107480:	00107520 	.word	0x00107520
  107484:	00107520 	.word	0x00107520
  107488:	00107520 	.word	0x00107520
  10748c:	00107520 	.word	0x00107520
  107490:	00107520 	.word	0x00107520
  107494:	00107520 	.word	0x00107520
  107498:	00107520 	.word	0x00107520
  10749c:	001074e0 	.word	0x001074e0
  1074a0:	00107520 	.word	0x00107520
  1074a4:	00107520 	.word	0x00107520
  1074a8:	00107520 	.word	0x00107520
  1074ac:	001074f8 	.word	0x001074f8
  1074b0:	00107520 	.word	0x00107520
  1074b4:	001074f8 	.word	0x001074f8
  1074b8:	e55b200e 	ldrb	r2, [fp, #-14]
  1074bc:	e59b3004 	ldr	r3, [fp, #4]
  1074c0:	e58d3000 	str	r3, [sp]
  1074c4:	e51b0014 	ldr	r0, [fp, #-20]	; 0xffffffec
  1074c8:	e1a01002 	mov	r1, r2
  1074cc:	e59b2008 	ldr	r2, [fp, #8]
  1074d0:	e51b3018 	ldr	r3, [fp, #-24]	; 0xffffffe8
  1074d4:	ebfff68b 	bl	104f08 <alt_dma_i2c_to_memory>
  1074d8:	e50b0008 	str	r0, [fp, #-8]
  1074dc:	ea000012 	b	10752c <alt_dma_periph_to_memory+0x190>
  1074e0:	e51b0014 	ldr	r0, [fp, #-20]	; 0xffffffec
  1074e4:	e51b1018 	ldr	r1, [fp, #-24]	; 0xffffffe8
  1074e8:	e59b2004 	ldr	r2, [fp, #4]
  1074ec:	ebfffb04 	bl	106104 <alt_dma_qspi_to_memory>
  1074f0:	e50b0008 	str	r0, [fp, #-8]
  1074f4:	ea00000c 	b	10752c <alt_dma_periph_to_memory+0x190>
  1074f8:	e55b200e 	ldrb	r2, [fp, #-14]
  1074fc:	e59b3004 	ldr	r3, [fp, #4]
  107500:	e58d3000 	str	r3, [sp]
  107504:	e51b0014 	ldr	r0, [fp, #-20]	; 0xffffffec
  107508:	e1a01002 	mov	r1, r2
  10750c:	e59b2008 	ldr	r2, [fp, #8]
  107510:	e51b3018 	ldr	r3, [fp, #-24]	; 0xffffffe8
  107514:	ebfffeb2 	bl	106fe4 <alt_dma_16550_to_memory>
  107518:	e50b0008 	str	r0, [fp, #-8]
  10751c:	ea000002 	b	10752c <alt_dma_periph_to_memory+0x190>
  107520:	e3e03008 	mvn	r3, #8
  107524:	e50b3008 	str	r3, [fp, #-8]
  107528:	e1a00000 	nop			; (mov r0, r0)
  10752c:	e5db300c 	ldrb	r3, [fp, #12]
  107530:	e3530000 	cmp	r3, #0
  107534:	0a000007 	beq	107558 <alt_dma_periph_to_memory+0x1bc>
  107538:	e51b3008 	ldr	r3, [fp, #-8]
  10753c:	e3530000 	cmp	r3, #0
  107540:	1a000004 	bne	107558 <alt_dma_periph_to_memory+0x1bc>
  107544:	e5db3010 	ldrb	r3, [fp, #16]
  107548:	e51b0014 	ldr	r0, [fp, #-20]	; 0xffffffec
  10754c:	e1a01003 	mov	r1, r3
  107550:	eb000525 	bl	1089ec <alt_dma_program_DMASEV>
  107554:	e50b0008 	str	r0, [fp, #-8]
  107558:	e51b3008 	ldr	r3, [fp, #-8]
  10755c:	e3530000 	cmp	r3, #0
  107560:	1a000002 	bne	107570 <alt_dma_periph_to_memory+0x1d4>
  107564:	e51b0014 	ldr	r0, [fp, #-20]	; 0xffffffec
  107568:	eb0001d8 	bl	107cd0 <alt_dma_program_DMAEND>
  10756c:	e50b0008 	str	r0, [fp, #-8]
  107570:	e51b3008 	ldr	r3, [fp, #-8]
  107574:	e3530000 	cmp	r3, #0
  107578:	0a000003 	beq	10758c <alt_dma_periph_to_memory+0x1f0>
  10757c:	e51b0014 	ldr	r0, [fp, #-20]	; 0xffffffec
  107580:	eb00007b 	bl	107774 <alt_dma_program_clear>
  107584:	e51b3008 	ldr	r3, [fp, #-8]
  107588:	ea000004 	b	1075a0 <alt_dma_periph_to_memory+0x204>
  10758c:	e55b300d 	ldrb	r3, [fp, #-13]
  107590:	e1a00003 	mov	r0, r3
  107594:	e51b1014 	ldr	r1, [fp, #-20]	; 0xffffffec
  107598:	ebffe896 	bl	1017f8 <alt_dma_channel_exec>
  10759c:	e1a03000 	mov	r3, r0
  1075a0:	e1a00003 	mov	r0, r3
  1075a4:	e24bd004 	sub	sp, fp, #4
  1075a8:	e8bd8800 	pop	{fp, pc}

001075ac <alt_dma_is_init>:
  1075ac:	e52db004 	push	{fp}		; (str fp, [sp, #-4]!)
  1075b0:	e28db000 	add	fp, sp, #0
  1075b4:	e24dd00c 	sub	sp, sp, #12
  1075b8:	e3053014 	movw	r3, #20500	; 0x5014
  1075bc:	e34f3fd0 	movt	r3, #65488	; 0xffd0
  1075c0:	e5933000 	ldr	r3, [r3]
  1075c4:	e50b3008 	str	r3, [fp, #-8]
  1075c8:	e51b3008 	ldr	r3, [fp, #-8]
  1075cc:	e2033201 	and	r3, r3, #268435456	; 0x10000000
  1075d0:	e3530000 	cmp	r3, #0
  1075d4:	0a000001 	beq	1075e0 <alt_dma_is_init+0x34>
  1075d8:	e3a03000 	mov	r3, #0
  1075dc:	ea000000 	b	1075e4 <alt_dma_is_init+0x38>
  1075e0:	e3a03001 	mov	r3, #1
  1075e4:	e1a00003 	mov	r0, r3
  1075e8:	e24bd000 	sub	sp, fp, #0
  1075ec:	e49db004 	pop	{fp}		; (ldr fp, [sp], #4)
  1075f0:	e12fff1e 	bx	lr

001075f4 <alt_dma_ecc_start>:
  1075f4:	e92d4800 	push	{fp, lr}
  1075f8:	e28db004 	add	fp, sp, #4
  1075fc:	e24dd010 	sub	sp, sp, #16
  107600:	e50b0010 	str	r0, [fp, #-16]
  107604:	e50b1014 	str	r1, [fp, #-20]	; 0xffffffec
  107608:	ebffffe7 	bl	1075ac <alt_dma_is_init>
  10760c:	e1a03000 	mov	r3, r0
  107610:	e2233001 	eor	r3, r3, #1
  107614:	e6ef3073 	uxtb	r3, r3
  107618:	e3530000 	cmp	r3, #0
  10761c:	0a000001 	beq	107628 <alt_dma_ecc_start+0x34>
  107620:	e3e03000 	mvn	r3, #0
  107624:	ea00002a 	b	1076d4 <alt_dma_ecc_start+0xe0>
  107628:	e51b3010 	ldr	r3, [fp, #-16]
  10762c:	e2033007 	and	r3, r3, #7
  107630:	e3530000 	cmp	r3, #0
  107634:	0a000001 	beq	107640 <alt_dma_ecc_start+0x4c>
  107638:	e3e03000 	mvn	r3, #0
  10763c:	ea000024 	b	1076d4 <alt_dma_ecc_start+0xe0>
  107640:	e3a03000 	mov	r3, #0
  107644:	e50b3008 	str	r3, [fp, #-8]
  107648:	ea000015 	b	1076a4 <alt_dma_ecc_start+0xb0>
  10764c:	e30333ec 	movw	r3, #13292	; 0x33ec
  107650:	e3403011 	movt	r3, #17
  107654:	e51b2008 	ldr	r2, [fp, #-8]
  107658:	e0833002 	add	r3, r3, r2
  10765c:	e5d33000 	ldrb	r3, [r3]
  107660:	e2033001 	and	r3, r3, #1
  107664:	e3530000 	cmp	r3, #0
  107668:	0a00000a 	beq	107698 <alt_dma_ecc_start+0xa4>
  10766c:	e51b3008 	ldr	r3, [fp, #-8]
  107670:	e6ef2073 	uxtb	r2, r3
  107674:	e24b3009 	sub	r3, fp, #9
  107678:	e1a00002 	mov	r0, r2
  10767c:	e1a01003 	mov	r1, r3
  107680:	ebffe97e 	bl	101c80 <alt_dma_channel_state_get>
  107684:	e55b3009 	ldrb	r3, [fp, #-9]
  107688:	e3530000 	cmp	r3, #0
  10768c:	0a000001 	beq	107698 <alt_dma_ecc_start+0xa4>
  107690:	e3e03000 	mvn	r3, #0
  107694:	ea00000e 	b	1076d4 <alt_dma_ecc_start+0xe0>
  107698:	e51b3008 	ldr	r3, [fp, #-8]
  10769c:	e2833001 	add	r3, r3, #1
  1076a0:	e50b3008 	str	r3, [fp, #-8]
  1076a4:	e51b3008 	ldr	r3, [fp, #-8]
  1076a8:	e3530007 	cmp	r3, #7
  1076ac:	9affffe6 	bls	10764c <alt_dma_ecc_start+0x58>
  1076b0:	e3083158 	movw	r3, #33112	; 0x8158
  1076b4:	e34f3fd0 	movt	r3, #65488	; 0xffd0
  1076b8:	e3a02001 	mov	r2, #1
  1076bc:	e5832000 	str	r2, [r3]
  1076c0:	e3083158 	movw	r3, #33112	; 0x8158
  1076c4:	e34f3fd0 	movt	r3, #65488	; 0xffd0
  1076c8:	e3a02019 	mov	r2, #25
  1076cc:	e5832000 	str	r2, [r3]
  1076d0:	e3a03000 	mov	r3, #0
  1076d4:	e1a00003 	mov	r0, r3
  1076d8:	e24bd004 	sub	sp, fp, #4
  1076dc:	e8bd8800 	pop	{fp, pc}

001076e0 <alt_dma_program_init>:
  1076e0:	e52db004 	push	{fp}		; (str fp, [sp, #-4]!)
  1076e4:	e28db000 	add	fp, sp, #0
  1076e8:	e24dd014 	sub	sp, sp, #20
  1076ec:	e50b0010 	str	r0, [fp, #-16]
  1076f0:	e51b3010 	ldr	r3, [fp, #-16]
  1076f4:	e3a02000 	mov	r2, #0
  1076f8:	e5832000 	str	r2, [r3]
  1076fc:	e51b3010 	ldr	r3, [fp, #-16]
  107700:	e3a02000 	mov	r2, #0
  107704:	e1c320b6 	strh	r2, [r3, #6]
  107708:	e51b3010 	ldr	r3, [fp, #-16]
  10770c:	e2833010 	add	r3, r3, #16
  107710:	e50b3008 	str	r3, [fp, #-8]
  107714:	e51b3008 	ldr	r3, [fp, #-8]
  107718:	e283301f 	add	r3, r3, #31
  10771c:	e3c3201f 	bic	r2, r3, #31
  107720:	e51b3008 	ldr	r3, [fp, #-8]
  107724:	e0633002 	rsb	r3, r3, r2
  107728:	e50b300c 	str	r3, [fp, #-12]
  10772c:	e51b300c 	ldr	r3, [fp, #-12]
  107730:	e6ff2073 	uxth	r2, r3
  107734:	e51b3010 	ldr	r3, [fp, #-16]
  107738:	e1c320b4 	strh	r2, [r3, #4]
  10773c:	e3a03000 	mov	r3, #0
  107740:	e1a00003 	mov	r0, r3
  107744:	e24bd000 	sub	sp, fp, #0
  107748:	e49db004 	pop	{fp}		; (ldr fp, [sp], #4)
  10774c:	e12fff1e 	bx	lr

00107750 <alt_dma_program_uninit>:
  107750:	e52db004 	push	{fp}		; (str fp, [sp, #-4]!)
  107754:	e28db000 	add	fp, sp, #0
  107758:	e24dd00c 	sub	sp, sp, #12
  10775c:	e50b0008 	str	r0, [fp, #-8]
  107760:	e3a03000 	mov	r3, #0
  107764:	e1a00003 	mov	r0, r3
  107768:	e24bd000 	sub	sp, fp, #0
  10776c:	e49db004 	pop	{fp}		; (ldr fp, [sp], #4)
  107770:	e12fff1e 	bx	lr

00107774 <alt_dma_program_clear>:
  107774:	e52db004 	push	{fp}		; (str fp, [sp, #-4]!)
  107778:	e28db000 	add	fp, sp, #0
  10777c:	e24dd00c 	sub	sp, sp, #12
  107780:	e50b0008 	str	r0, [fp, #-8]
  107784:	e51b3008 	ldr	r3, [fp, #-8]
  107788:	e3a02000 	mov	r2, #0
  10778c:	e5832000 	str	r2, [r3]
  107790:	e51b3008 	ldr	r3, [fp, #-8]
  107794:	e3a02000 	mov	r2, #0
  107798:	e1c320b6 	strh	r2, [r3, #6]
  10779c:	e3a03000 	mov	r3, #0
  1077a0:	e1a00003 	mov	r0, r3
  1077a4:	e24bd000 	sub	sp, fp, #0
  1077a8:	e49db004 	pop	{fp}		; (ldr fp, [sp], #4)
  1077ac:	e12fff1e 	bx	lr

001077b0 <alt_dma_program_validate>:
  1077b0:	e52db004 	push	{fp}		; (str fp, [sp, #-4]!)
  1077b4:	e28db000 	add	fp, sp, #0
  1077b8:	e24dd00c 	sub	sp, sp, #12
  1077bc:	e50b0008 	str	r0, [fp, #-8]
  1077c0:	e51b3008 	ldr	r3, [fp, #-8]
  1077c4:	e1d330b6 	ldrh	r3, [r3, #6]
  1077c8:	e3530000 	cmp	r3, #0
  1077cc:	1a000001 	bne	1077d8 <alt_dma_program_validate+0x28>
  1077d0:	e3e03000 	mvn	r3, #0
  1077d4:	ea00000d 	b	107810 <alt_dma_program_validate+0x60>
  1077d8:	e51b3008 	ldr	r3, [fp, #-8]
  1077dc:	e5933000 	ldr	r3, [r3]
  1077e0:	e2033803 	and	r3, r3, #196608	; 0x30000
  1077e4:	e3530000 	cmp	r3, #0
  1077e8:	0a000001 	beq	1077f4 <alt_dma_program_validate+0x44>
  1077ec:	e3e03000 	mvn	r3, #0
  1077f0:	ea000006 	b	107810 <alt_dma_program_validate+0x60>
  1077f4:	e51b3008 	ldr	r3, [fp, #-8]
  1077f8:	e5933000 	ldr	r3, [r3]
  1077fc:	e3530000 	cmp	r3, #0
  107800:	ba000001 	blt	10780c <alt_dma_program_validate+0x5c>
  107804:	e3e03000 	mvn	r3, #0
  107808:	ea000000 	b	107810 <alt_dma_program_validate+0x60>
  10780c:	e3a03000 	mov	r3, #0
  107810:	e1a00003 	mov	r0, r3
  107814:	e24bd000 	sub	sp, fp, #0
  107818:	e49db004 	pop	{fp}		; (ldr fp, [sp], #4)
  10781c:	e12fff1e 	bx	lr

00107820 <alt_dma_program_progress_reg>:
  107820:	e52db004 	push	{fp}		; (str fp, [sp, #-4]!)
  107824:	e28db000 	add	fp, sp, #0
  107828:	e24dd01c 	sub	sp, sp, #28
  10782c:	e50b0010 	str	r0, [fp, #-16]
  107830:	e50b2018 	str	r2, [fp, #-24]	; 0xffffffe8
  107834:	e50b301c 	str	r3, [fp, #-28]	; 0xffffffe4
  107838:	e1a03001 	mov	r3, r1
  10783c:	e54b3011 	strb	r3, [fp, #-17]	; 0xffffffef
  107840:	e3a03000 	mov	r3, #0
  107844:	e50b3008 	str	r3, [fp, #-8]
  107848:	e55b3011 	ldrb	r3, [fp, #-17]	; 0xffffffef
  10784c:	e3530000 	cmp	r3, #0
  107850:	0a000002 	beq	107860 <alt_dma_program_progress_reg+0x40>
  107854:	e3530002 	cmp	r3, #2
  107858:	0a000012 	beq	1078a8 <alt_dma_program_progress_reg+0x88>
  10785c:	ea000023 	b	1078f0 <alt_dma_program_progress_reg+0xd0>
  107860:	e51b3010 	ldr	r3, [fp, #-16]
  107864:	e5933000 	ldr	r3, [r3]
  107868:	e2033401 	and	r3, r3, #16777216	; 0x1000000
  10786c:	e3530000 	cmp	r3, #0
  107870:	1a000001 	bne	10787c <alt_dma_program_progress_reg+0x5c>
  107874:	e3e03008 	mvn	r3, #8
  107878:	ea000036 	b	107958 <alt_dma_program_progress_reg+0x138>
  10787c:	e51b3010 	ldr	r3, [fp, #-16]
  107880:	e1d330b4 	ldrh	r3, [r3, #4]
  107884:	e1a02003 	mov	r2, r3
  107888:	e51b3010 	ldr	r3, [fp, #-16]
  10788c:	e1d330bc 	ldrh	r3, [r3, #12]
  107890:	e0823003 	add	r3, r2, r3
  107894:	e2833010 	add	r3, r3, #16
  107898:	e51b2010 	ldr	r2, [fp, #-16]
  10789c:	e0823003 	add	r3, r2, r3
  1078a0:	e50b3008 	str	r3, [fp, #-8]
  1078a4:	ea000013 	b	1078f8 <alt_dma_program_progress_reg+0xd8>
  1078a8:	e51b3010 	ldr	r3, [fp, #-16]
  1078ac:	e5933000 	ldr	r3, [r3]
  1078b0:	e2033402 	and	r3, r3, #33554432	; 0x2000000
  1078b4:	e3530000 	cmp	r3, #0
  1078b8:	1a000001 	bne	1078c4 <alt_dma_program_progress_reg+0xa4>
  1078bc:	e3e03008 	mvn	r3, #8
  1078c0:	ea000024 	b	107958 <alt_dma_program_progress_reg+0x138>
  1078c4:	e51b3010 	ldr	r3, [fp, #-16]
  1078c8:	e1d330b4 	ldrh	r3, [r3, #4]
  1078cc:	e1a02003 	mov	r2, r3
  1078d0:	e51b3010 	ldr	r3, [fp, #-16]
  1078d4:	e1d330be 	ldrh	r3, [r3, #14]
  1078d8:	e0823003 	add	r3, r2, r3
  1078dc:	e2833010 	add	r3, r3, #16
  1078e0:	e51b2010 	ldr	r2, [fp, #-16]
  1078e4:	e0823003 	add	r3, r2, r3
  1078e8:	e50b3008 	str	r3, [fp, #-8]
  1078ec:	ea000001 	b	1078f8 <alt_dma_program_progress_reg+0xd8>
  1078f0:	e3e03008 	mvn	r3, #8
  1078f4:	ea000017 	b	107958 <alt_dma_program_progress_reg+0x138>
  1078f8:	e51b3008 	ldr	r3, [fp, #-8]
  1078fc:	e2833003 	add	r3, r3, #3
  107900:	e5d33000 	ldrb	r3, [r3]
  107904:	e1a02c03 	lsl	r2, r3, #24
  107908:	e51b3008 	ldr	r3, [fp, #-8]
  10790c:	e2833002 	add	r3, r3, #2
  107910:	e5d33000 	ldrb	r3, [r3]
  107914:	e1a03803 	lsl	r3, r3, #16
  107918:	e1822003 	orr	r2, r2, r3
  10791c:	e51b3008 	ldr	r3, [fp, #-8]
  107920:	e2833001 	add	r3, r3, #1
  107924:	e5d33000 	ldrb	r3, [r3]
  107928:	e1a03403 	lsl	r3, r3, #8
  10792c:	e1823003 	orr	r3, r2, r3
  107930:	e51b2008 	ldr	r2, [fp, #-8]
  107934:	e5d22000 	ldrb	r2, [r2]
  107938:	e1833002 	orr	r3, r3, r2
  10793c:	e50b300c 	str	r3, [fp, #-12]
  107940:	e51b2018 	ldr	r2, [fp, #-24]	; 0xffffffe8
  107944:	e51b300c 	ldr	r3, [fp, #-12]
  107948:	e0632002 	rsb	r2, r3, r2
  10794c:	e51b301c 	ldr	r3, [fp, #-28]	; 0xffffffe4
  107950:	e5832000 	str	r2, [r3]
  107954:	e3a03000 	mov	r3, #0
  107958:	e1a00003 	mov	r0, r3
  10795c:	e24bd000 	sub	sp, fp, #0
  107960:	e49db004 	pop	{fp}		; (ldr fp, [sp], #4)
  107964:	e12fff1e 	bx	lr

00107968 <alt_dma_program_update_reg>:
  107968:	e52db004 	push	{fp}		; (str fp, [sp, #-4]!)
  10796c:	e28db000 	add	fp, sp, #0
  107970:	e24dd01c 	sub	sp, sp, #28
  107974:	e50b0010 	str	r0, [fp, #-16]
  107978:	e1a03001 	mov	r3, r1
  10797c:	e50b2018 	str	r2, [fp, #-24]	; 0xffffffe8
  107980:	e54b3011 	strb	r3, [fp, #-17]	; 0xffffffef
  107984:	e3a03000 	mov	r3, #0
  107988:	e50b3008 	str	r3, [fp, #-8]
  10798c:	e55b3011 	ldrb	r3, [fp, #-17]	; 0xffffffef
  107990:	e3530000 	cmp	r3, #0
  107994:	0a000002 	beq	1079a4 <alt_dma_program_update_reg+0x3c>
  107998:	e3530002 	cmp	r3, #2
  10799c:	0a000012 	beq	1079ec <alt_dma_program_update_reg+0x84>
  1079a0:	ea000023 	b	107a34 <alt_dma_program_update_reg+0xcc>
  1079a4:	e51b3010 	ldr	r3, [fp, #-16]
  1079a8:	e5933000 	ldr	r3, [r3]
  1079ac:	e2033401 	and	r3, r3, #16777216	; 0x1000000
  1079b0:	e3530000 	cmp	r3, #0
  1079b4:	1a000001 	bne	1079c0 <alt_dma_program_update_reg+0x58>
  1079b8:	e3e03008 	mvn	r3, #8
  1079bc:	ea000035 	b	107a98 <alt_dma_program_update_reg+0x130>
  1079c0:	e51b3010 	ldr	r3, [fp, #-16]
  1079c4:	e1d330b4 	ldrh	r3, [r3, #4]
  1079c8:	e1a02003 	mov	r2, r3
  1079cc:	e51b3010 	ldr	r3, [fp, #-16]
  1079d0:	e1d330bc 	ldrh	r3, [r3, #12]
  1079d4:	e0823003 	add	r3, r2, r3
  1079d8:	e2833010 	add	r3, r3, #16
  1079dc:	e51b2010 	ldr	r2, [fp, #-16]
  1079e0:	e0823003 	add	r3, r2, r3
  1079e4:	e50b3008 	str	r3, [fp, #-8]
  1079e8:	ea000013 	b	107a3c <alt_dma_program_update_reg+0xd4>
  1079ec:	e51b3010 	ldr	r3, [fp, #-16]
  1079f0:	e5933000 	ldr	r3, [r3]
  1079f4:	e2033402 	and	r3, r3, #33554432	; 0x2000000
  1079f8:	e3530000 	cmp	r3, #0
  1079fc:	1a000001 	bne	107a08 <alt_dma_program_update_reg+0xa0>
  107a00:	e3e03008 	mvn	r3, #8
  107a04:	ea000023 	b	107a98 <alt_dma_program_update_reg+0x130>
  107a08:	e51b3010 	ldr	r3, [fp, #-16]
  107a0c:	e1d330b4 	ldrh	r3, [r3, #4]
  107a10:	e1a02003 	mov	r2, r3
  107a14:	e51b3010 	ldr	r3, [fp, #-16]
  107a18:	e1d330be 	ldrh	r3, [r3, #14]
  107a1c:	e0823003 	add	r3, r2, r3
  107a20:	e2833010 	add	r3, r3, #16
  107a24:	e51b2010 	ldr	r2, [fp, #-16]
  107a28:	e0823003 	add	r3, r2, r3
  107a2c:	e50b3008 	str	r3, [fp, #-8]
  107a30:	ea000001 	b	107a3c <alt_dma_program_update_reg+0xd4>
  107a34:	e3e03008 	mvn	r3, #8
  107a38:	ea000016 	b	107a98 <alt_dma_program_update_reg+0x130>
  107a3c:	e51b3018 	ldr	r3, [fp, #-24]	; 0xffffffe8
  107a40:	e6ef2073 	uxtb	r2, r3
  107a44:	e51b3008 	ldr	r3, [fp, #-8]
  107a48:	e5c32000 	strb	r2, [r3]
  107a4c:	e51b3008 	ldr	r3, [fp, #-8]
  107a50:	e2833001 	add	r3, r3, #1
  107a54:	e51b2018 	ldr	r2, [fp, #-24]	; 0xffffffe8
  107a58:	e1a02422 	lsr	r2, r2, #8
  107a5c:	e6ef2072 	uxtb	r2, r2
  107a60:	e5c32000 	strb	r2, [r3]
  107a64:	e51b3008 	ldr	r3, [fp, #-8]
  107a68:	e2833002 	add	r3, r3, #2
  107a6c:	e51b2018 	ldr	r2, [fp, #-24]	; 0xffffffe8
  107a70:	e1a02822 	lsr	r2, r2, #16
  107a74:	e6ef2072 	uxtb	r2, r2
  107a78:	e5c32000 	strb	r2, [r3]
  107a7c:	e51b3008 	ldr	r3, [fp, #-8]
  107a80:	e2833003 	add	r3, r3, #3
  107a84:	e51b2018 	ldr	r2, [fp, #-24]	; 0xffffffe8
  107a88:	e1a02c22 	lsr	r2, r2, #24
  107a8c:	e6ef2072 	uxtb	r2, r2
  107a90:	e5c32000 	strb	r2, [r3]
  107a94:	e3a03000 	mov	r3, #0
  107a98:	e1a00003 	mov	r0, r3
  107a9c:	e24bd000 	sub	sp, fp, #0
  107aa0:	e49db004 	pop	{fp}		; (ldr fp, [sp], #4)
  107aa4:	e12fff1e 	bx	lr

00107aa8 <alt_dma_program_DMAADDH>:
  107aa8:	e52db004 	push	{fp}		; (str fp, [sp, #-4]!)
  107aac:	e28db000 	add	fp, sp, #0
  107ab0:	e24dd014 	sub	sp, sp, #20
  107ab4:	e50b0010 	str	r0, [fp, #-16]
  107ab8:	e1a03002 	mov	r3, r2
  107abc:	e1a02001 	mov	r2, r1
  107ac0:	e54b2011 	strb	r2, [fp, #-17]	; 0xffffffef
  107ac4:	e14b31b4 	strh	r3, [fp, #-20]	; 0xffffffec
  107ac8:	e51b3010 	ldr	r3, [fp, #-16]
  107acc:	e1d330b6 	ldrh	r3, [r3, #6]
  107ad0:	e2833003 	add	r3, r3, #3
  107ad4:	e3530c02 	cmp	r3, #512	; 0x200
  107ad8:	da000001 	ble	107ae4 <alt_dma_program_DMAADDH+0x3c>
  107adc:	e3e03013 	mvn	r3, #19
  107ae0:	ea000031 	b	107bac <alt_dma_program_DMAADDH+0x104>
  107ae4:	e3a03000 	mov	r3, #0
  107ae8:	e54b3005 	strb	r3, [fp, #-5]
  107aec:	e55b3011 	ldrb	r3, [fp, #-17]	; 0xffffffef
  107af0:	e3530000 	cmp	r3, #0
  107af4:	0a000002 	beq	107b04 <alt_dma_program_DMAADDH+0x5c>
  107af8:	e3530002 	cmp	r3, #2
  107afc:	0a000003 	beq	107b10 <alt_dma_program_DMAADDH+0x68>
  107b00:	ea000005 	b	107b1c <alt_dma_program_DMAADDH+0x74>
  107b04:	e3a03000 	mov	r3, #0
  107b08:	e54b3005 	strb	r3, [fp, #-5]
  107b0c:	ea000004 	b	107b24 <alt_dma_program_DMAADDH+0x7c>
  107b10:	e3a03002 	mov	r3, #2
  107b14:	e54b3005 	strb	r3, [fp, #-5]
  107b18:	ea000001 	b	107b24 <alt_dma_program_DMAADDH+0x7c>
  107b1c:	e3e03008 	mvn	r3, #8
  107b20:	ea000021 	b	107bac <alt_dma_program_DMAADDH+0x104>
  107b24:	e51b3010 	ldr	r3, [fp, #-16]
  107b28:	e1d330b4 	ldrh	r3, [r3, #4]
  107b2c:	e1a02003 	mov	r2, r3
  107b30:	e51b3010 	ldr	r3, [fp, #-16]
  107b34:	e1d330b6 	ldrh	r3, [r3, #6]
  107b38:	e0823003 	add	r3, r2, r3
  107b3c:	e2833010 	add	r3, r3, #16
  107b40:	e51b2010 	ldr	r2, [fp, #-16]
  107b44:	e0823003 	add	r3, r2, r3
  107b48:	e50b300c 	str	r3, [fp, #-12]
  107b4c:	e55b3005 	ldrb	r3, [fp, #-5]
  107b50:	e3833054 	orr	r3, r3, #84	; 0x54
  107b54:	e6ef2073 	uxtb	r2, r3
  107b58:	e51b300c 	ldr	r3, [fp, #-12]
  107b5c:	e5c32000 	strb	r2, [r3]
  107b60:	e51b300c 	ldr	r3, [fp, #-12]
  107b64:	e2833001 	add	r3, r3, #1
  107b68:	e15b21b4 	ldrh	r2, [fp, #-20]	; 0xffffffec
  107b6c:	e6ef2072 	uxtb	r2, r2
  107b70:	e5c32000 	strb	r2, [r3]
  107b74:	e51b300c 	ldr	r3, [fp, #-12]
  107b78:	e2833002 	add	r3, r3, #2
  107b7c:	e15b21b4 	ldrh	r2, [fp, #-20]	; 0xffffffec
  107b80:	e1a02422 	lsr	r2, r2, #8
  107b84:	e6ff2072 	uxth	r2, r2
  107b88:	e6ef2072 	uxtb	r2, r2
  107b8c:	e5c32000 	strb	r2, [r3]
  107b90:	e51b3010 	ldr	r3, [fp, #-16]
  107b94:	e1d330b6 	ldrh	r3, [r3, #6]
  107b98:	e2833003 	add	r3, r3, #3
  107b9c:	e6ff2073 	uxth	r2, r3
  107ba0:	e51b3010 	ldr	r3, [fp, #-16]
  107ba4:	e1c320b6 	strh	r2, [r3, #6]
  107ba8:	e3a03000 	mov	r3, #0
  107bac:	e1a00003 	mov	r0, r3
  107bb0:	e24bd000 	sub	sp, fp, #0
  107bb4:	e49db004 	pop	{fp}		; (ldr fp, [sp], #4)
  107bb8:	e12fff1e 	bx	lr

00107bbc <alt_dma_program_DMAADNH>:
  107bbc:	e52db004 	push	{fp}		; (str fp, [sp, #-4]!)
  107bc0:	e28db000 	add	fp, sp, #0
  107bc4:	e24dd014 	sub	sp, sp, #20
  107bc8:	e50b0010 	str	r0, [fp, #-16]
  107bcc:	e1a03002 	mov	r3, r2
  107bd0:	e1a02001 	mov	r2, r1
  107bd4:	e54b2011 	strb	r2, [fp, #-17]	; 0xffffffef
  107bd8:	e14b31b4 	strh	r3, [fp, #-20]	; 0xffffffec
  107bdc:	e51b3010 	ldr	r3, [fp, #-16]
  107be0:	e1d330b6 	ldrh	r3, [r3, #6]
  107be4:	e2833003 	add	r3, r3, #3
  107be8:	e3530c02 	cmp	r3, #512	; 0x200
  107bec:	da000001 	ble	107bf8 <alt_dma_program_DMAADNH+0x3c>
  107bf0:	e3e03013 	mvn	r3, #19
  107bf4:	ea000031 	b	107cc0 <alt_dma_program_DMAADNH+0x104>
  107bf8:	e3a03000 	mov	r3, #0
  107bfc:	e54b3005 	strb	r3, [fp, #-5]
  107c00:	e55b3011 	ldrb	r3, [fp, #-17]	; 0xffffffef
  107c04:	e3530000 	cmp	r3, #0
  107c08:	0a000002 	beq	107c18 <alt_dma_program_DMAADNH+0x5c>
  107c0c:	e3530002 	cmp	r3, #2
  107c10:	0a000003 	beq	107c24 <alt_dma_program_DMAADNH+0x68>
  107c14:	ea000005 	b	107c30 <alt_dma_program_DMAADNH+0x74>
  107c18:	e3a03000 	mov	r3, #0
  107c1c:	e54b3005 	strb	r3, [fp, #-5]
  107c20:	ea000004 	b	107c38 <alt_dma_program_DMAADNH+0x7c>
  107c24:	e3a03002 	mov	r3, #2
  107c28:	e54b3005 	strb	r3, [fp, #-5]
  107c2c:	ea000001 	b	107c38 <alt_dma_program_DMAADNH+0x7c>
  107c30:	e3e03008 	mvn	r3, #8
  107c34:	ea000021 	b	107cc0 <alt_dma_program_DMAADNH+0x104>
  107c38:	e51b3010 	ldr	r3, [fp, #-16]
  107c3c:	e1d330b4 	ldrh	r3, [r3, #4]
  107c40:	e1a02003 	mov	r2, r3
  107c44:	e51b3010 	ldr	r3, [fp, #-16]
  107c48:	e1d330b6 	ldrh	r3, [r3, #6]
  107c4c:	e0823003 	add	r3, r2, r3
  107c50:	e2833010 	add	r3, r3, #16
  107c54:	e51b2010 	ldr	r2, [fp, #-16]
  107c58:	e0823003 	add	r3, r2, r3
  107c5c:	e50b300c 	str	r3, [fp, #-12]
  107c60:	e55b3005 	ldrb	r3, [fp, #-5]
  107c64:	e383305c 	orr	r3, r3, #92	; 0x5c
  107c68:	e6ef2073 	uxtb	r2, r3
  107c6c:	e51b300c 	ldr	r3, [fp, #-12]
  107c70:	e5c32000 	strb	r2, [r3]
  107c74:	e51b300c 	ldr	r3, [fp, #-12]
  107c78:	e2833001 	add	r3, r3, #1
  107c7c:	e15b21b4 	ldrh	r2, [fp, #-20]	; 0xffffffec
  107c80:	e6ef2072 	uxtb	r2, r2
  107c84:	e5c32000 	strb	r2, [r3]
  107c88:	e51b300c 	ldr	r3, [fp, #-12]
  107c8c:	e2833002 	add	r3, r3, #2
  107c90:	e15b21b4 	ldrh	r2, [fp, #-20]	; 0xffffffec
  107c94:	e1a02422 	lsr	r2, r2, #8
  107c98:	e6ff2072 	uxth	r2, r2
  107c9c:	e6ef2072 	uxtb	r2, r2
  107ca0:	e5c32000 	strb	r2, [r3]
  107ca4:	e51b3010 	ldr	r3, [fp, #-16]
  107ca8:	e1d330b6 	ldrh	r3, [r3, #6]
  107cac:	e2833003 	add	r3, r3, #3
  107cb0:	e6ff2073 	uxth	r2, r3
  107cb4:	e51b3010 	ldr	r3, [fp, #-16]
  107cb8:	e1c320b6 	strh	r2, [r3, #6]
  107cbc:	e3a03000 	mov	r3, #0
  107cc0:	e1a00003 	mov	r0, r3
  107cc4:	e24bd000 	sub	sp, fp, #0
  107cc8:	e49db004 	pop	{fp}		; (ldr fp, [sp], #4)
  107ccc:	e12fff1e 	bx	lr

00107cd0 <alt_dma_program_DMAEND>:
  107cd0:	e52db004 	push	{fp}		; (str fp, [sp, #-4]!)
  107cd4:	e28db000 	add	fp, sp, #0
  107cd8:	e24dd014 	sub	sp, sp, #20
  107cdc:	e50b0010 	str	r0, [fp, #-16]
  107ce0:	e51b3010 	ldr	r3, [fp, #-16]
  107ce4:	e1d330b6 	ldrh	r3, [r3, #6]
  107ce8:	e2833001 	add	r3, r3, #1
  107cec:	e3530c02 	cmp	r3, #512	; 0x200
  107cf0:	da000001 	ble	107cfc <alt_dma_program_DMAEND+0x2c>
  107cf4:	e3e03013 	mvn	r3, #19
  107cf8:	ea000018 	b	107d60 <alt_dma_program_DMAEND+0x90>
  107cfc:	e51b3010 	ldr	r3, [fp, #-16]
  107d00:	e1d330b4 	ldrh	r3, [r3, #4]
  107d04:	e1a02003 	mov	r2, r3
  107d08:	e51b3010 	ldr	r3, [fp, #-16]
  107d0c:	e1d330b6 	ldrh	r3, [r3, #6]
  107d10:	e0823003 	add	r3, r2, r3
  107d14:	e2833010 	add	r3, r3, #16
  107d18:	e51b2010 	ldr	r2, [fp, #-16]
  107d1c:	e0823003 	add	r3, r2, r3
  107d20:	e50b3008 	str	r3, [fp, #-8]
  107d24:	e51b3008 	ldr	r3, [fp, #-8]
  107d28:	e3a02000 	mov	r2, #0
  107d2c:	e5c32000 	strb	r2, [r3]
  107d30:	e51b3010 	ldr	r3, [fp, #-16]
  107d34:	e1d330b6 	ldrh	r3, [r3, #6]
  107d38:	e2833001 	add	r3, r3, #1
  107d3c:	e6ff2073 	uxth	r2, r3
  107d40:	e51b3010 	ldr	r3, [fp, #-16]
  107d44:	e1c320b6 	strh	r2, [r3, #6]
  107d48:	e51b3010 	ldr	r3, [fp, #-16]
  107d4c:	e5933000 	ldr	r3, [r3]
  107d50:	e3832102 	orr	r2, r3, #-2147483648	; 0x80000000
  107d54:	e51b3010 	ldr	r3, [fp, #-16]
  107d58:	e5832000 	str	r2, [r3]
  107d5c:	e3a03000 	mov	r3, #0
  107d60:	e1a00003 	mov	r0, r3
  107d64:	e24bd000 	sub	sp, fp, #0
  107d68:	e49db004 	pop	{fp}		; (ldr fp, [sp], #4)
  107d6c:	e12fff1e 	bx	lr

00107d70 <alt_dma_program_DMAFLUSHP>:
  107d70:	e52db004 	push	{fp}		; (str fp, [sp, #-4]!)
  107d74:	e28db000 	add	fp, sp, #0
  107d78:	e24dd014 	sub	sp, sp, #20
  107d7c:	e50b0010 	str	r0, [fp, #-16]
  107d80:	e1a03001 	mov	r3, r1
  107d84:	e54b3011 	strb	r3, [fp, #-17]	; 0xffffffef
  107d88:	e51b3010 	ldr	r3, [fp, #-16]
  107d8c:	e1d330b6 	ldrh	r3, [r3, #6]
  107d90:	e2833002 	add	r3, r3, #2
  107d94:	e3530c02 	cmp	r3, #512	; 0x200
  107d98:	da000001 	ble	107da4 <alt_dma_program_DMAFLUSHP+0x34>
  107d9c:	e3e03013 	mvn	r3, #19
  107da0:	ea00001e 	b	107e20 <alt_dma_program_DMAFLUSHP+0xb0>
  107da4:	e55b3011 	ldrb	r3, [fp, #-17]	; 0xffffffef
  107da8:	e353001f 	cmp	r3, #31
  107dac:	9a000001 	bls	107db8 <alt_dma_program_DMAFLUSHP+0x48>
  107db0:	e3e03008 	mvn	r3, #8
  107db4:	ea000019 	b	107e20 <alt_dma_program_DMAFLUSHP+0xb0>
  107db8:	e51b3010 	ldr	r3, [fp, #-16]
  107dbc:	e1d330b4 	ldrh	r3, [r3, #4]
  107dc0:	e1a02003 	mov	r2, r3
  107dc4:	e51b3010 	ldr	r3, [fp, #-16]
  107dc8:	e1d330b6 	ldrh	r3, [r3, #6]
  107dcc:	e0823003 	add	r3, r2, r3
  107dd0:	e2833010 	add	r3, r3, #16
  107dd4:	e51b2010 	ldr	r2, [fp, #-16]
  107dd8:	e0823003 	add	r3, r2, r3
  107ddc:	e50b3008 	str	r3, [fp, #-8]
  107de0:	e51b3008 	ldr	r3, [fp, #-8]
  107de4:	e3a02035 	mov	r2, #53	; 0x35
  107de8:	e5c32000 	strb	r2, [r3]
  107dec:	e51b3008 	ldr	r3, [fp, #-8]
  107df0:	e2833001 	add	r3, r3, #1
  107df4:	e55b2011 	ldrb	r2, [fp, #-17]	; 0xffffffef
  107df8:	e1a02182 	lsl	r2, r2, #3
  107dfc:	e6ef2072 	uxtb	r2, r2
  107e00:	e5c32000 	strb	r2, [r3]
  107e04:	e51b3010 	ldr	r3, [fp, #-16]
  107e08:	e1d330b6 	ldrh	r3, [r3, #6]
  107e0c:	e2833002 	add	r3, r3, #2
  107e10:	e6ff2073 	uxth	r2, r3
  107e14:	e51b3010 	ldr	r3, [fp, #-16]
  107e18:	e1c320b6 	strh	r2, [r3, #6]
  107e1c:	e3a03000 	mov	r3, #0
  107e20:	e1a00003 	mov	r0, r3
  107e24:	e24bd000 	sub	sp, fp, #0
  107e28:	e49db004 	pop	{fp}		; (ldr fp, [sp], #4)
  107e2c:	e12fff1e 	bx	lr

00107e30 <alt_dma_program_DMAGO>:
  107e30:	e52db004 	push	{fp}		; (str fp, [sp, #-4]!)
  107e34:	e28db000 	add	fp, sp, #0
  107e38:	e24dd01c 	sub	sp, sp, #28
  107e3c:	e50b0010 	str	r0, [fp, #-16]
  107e40:	e50b2018 	str	r2, [fp, #-24]	; 0xffffffe8
  107e44:	e1a02003 	mov	r2, r3
  107e48:	e1a03001 	mov	r3, r1
  107e4c:	e54b3011 	strb	r3, [fp, #-17]	; 0xffffffef
  107e50:	e1a03002 	mov	r3, r2
  107e54:	e54b3012 	strb	r3, [fp, #-18]	; 0xffffffee
  107e58:	e51b3010 	ldr	r3, [fp, #-16]
  107e5c:	e1d330b6 	ldrh	r3, [r3, #6]
  107e60:	e2833006 	add	r3, r3, #6
  107e64:	e3530c02 	cmp	r3, #512	; 0x200
  107e68:	da000001 	ble	107e74 <alt_dma_program_DMAGO+0x44>
  107e6c:	e3e03013 	mvn	r3, #19
  107e70:	ea00004b 	b	107fa4 <alt_dma_program_DMAGO+0x174>
  107e74:	e55b3011 	ldrb	r3, [fp, #-17]	; 0xffffffef
  107e78:	e2833000 	add	r3, r3, #0
  107e7c:	e3530007 	cmp	r3, #7
  107e80:	9a000001 	bls	107e8c <alt_dma_program_DMAGO+0x5c>
  107e84:	e3e03008 	mvn	r3, #8
  107e88:	ea000045 	b	107fa4 <alt_dma_program_DMAGO+0x174>
  107e8c:	e1a00000 	nop			; (mov r0, r0)
  107e90:	e3a03000 	mov	r3, #0
  107e94:	e54b3005 	strb	r3, [fp, #-5]
  107e98:	e55b3012 	ldrb	r3, [fp, #-18]	; 0xffffffee
  107e9c:	e3530000 	cmp	r3, #0
  107ea0:	ba00000a 	blt	107ed0 <alt_dma_program_DMAGO+0xa0>
  107ea4:	e3530001 	cmp	r3, #1
  107ea8:	da000002 	ble	107eb8 <alt_dma_program_DMAGO+0x88>
  107eac:	e3530002 	cmp	r3, #2
  107eb0:	0a000003 	beq	107ec4 <alt_dma_program_DMAGO+0x94>
  107eb4:	ea000005 	b	107ed0 <alt_dma_program_DMAGO+0xa0>
  107eb8:	e3a03000 	mov	r3, #0
  107ebc:	e54b3005 	strb	r3, [fp, #-5]
  107ec0:	ea000004 	b	107ed8 <alt_dma_program_DMAGO+0xa8>
  107ec4:	e3a03002 	mov	r3, #2
  107ec8:	e54b3005 	strb	r3, [fp, #-5]
  107ecc:	ea000001 	b	107ed8 <alt_dma_program_DMAGO+0xa8>
  107ed0:	e3e03008 	mvn	r3, #8
  107ed4:	ea000032 	b	107fa4 <alt_dma_program_DMAGO+0x174>
  107ed8:	e51b3010 	ldr	r3, [fp, #-16]
  107edc:	e1d330b4 	ldrh	r3, [r3, #4]
  107ee0:	e1a02003 	mov	r2, r3
  107ee4:	e51b3010 	ldr	r3, [fp, #-16]
  107ee8:	e1d330b6 	ldrh	r3, [r3, #6]
  107eec:	e0823003 	add	r3, r2, r3
  107ef0:	e2833010 	add	r3, r3, #16
  107ef4:	e51b2010 	ldr	r2, [fp, #-16]
  107ef8:	e0823003 	add	r3, r2, r3
  107efc:	e50b300c 	str	r3, [fp, #-12]
  107f00:	e55b3005 	ldrb	r3, [fp, #-5]
  107f04:	e1e03003 	mvn	r3, r3
  107f08:	e203305f 	and	r3, r3, #95	; 0x5f
  107f0c:	e1e03003 	mvn	r3, r3
  107f10:	e6ef2073 	uxtb	r2, r3
  107f14:	e51b300c 	ldr	r3, [fp, #-12]
  107f18:	e5c32000 	strb	r2, [r3]
  107f1c:	e51b300c 	ldr	r3, [fp, #-12]
  107f20:	e2833001 	add	r3, r3, #1
  107f24:	e55b2011 	ldrb	r2, [fp, #-17]	; 0xffffffef
  107f28:	e5c32000 	strb	r2, [r3]
  107f2c:	e51b300c 	ldr	r3, [fp, #-12]
  107f30:	e2833002 	add	r3, r3, #2
  107f34:	e51b2018 	ldr	r2, [fp, #-24]	; 0xffffffe8
  107f38:	e6ef2072 	uxtb	r2, r2
  107f3c:	e5c32000 	strb	r2, [r3]
  107f40:	e51b300c 	ldr	r3, [fp, #-12]
  107f44:	e2833003 	add	r3, r3, #3
  107f48:	e51b2018 	ldr	r2, [fp, #-24]	; 0xffffffe8
  107f4c:	e1a02422 	lsr	r2, r2, #8
  107f50:	e6ef2072 	uxtb	r2, r2
  107f54:	e5c32000 	strb	r2, [r3]
  107f58:	e51b300c 	ldr	r3, [fp, #-12]
  107f5c:	e2833004 	add	r3, r3, #4
  107f60:	e51b2018 	ldr	r2, [fp, #-24]	; 0xffffffe8
  107f64:	e1a02822 	lsr	r2, r2, #16
  107f68:	e6ef2072 	uxtb	r2, r2
  107f6c:	e5c32000 	strb	r2, [r3]
  107f70:	e51b300c 	ldr	r3, [fp, #-12]
  107f74:	e2833005 	add	r3, r3, #5
  107f78:	e51b2018 	ldr	r2, [fp, #-24]	; 0xffffffe8
  107f7c:	e1a02c22 	lsr	r2, r2, #24
  107f80:	e6ef2072 	uxtb	r2, r2
  107f84:	e5c32000 	strb	r2, [r3]
  107f88:	e51b3010 	ldr	r3, [fp, #-16]
  107f8c:	e1d330b6 	ldrh	r3, [r3, #6]
  107f90:	e2833006 	add	r3, r3, #6
  107f94:	e6ff2073 	uxth	r2, r3
  107f98:	e51b3010 	ldr	r3, [fp, #-16]
  107f9c:	e1c320b6 	strh	r2, [r3, #6]
  107fa0:	e3a03000 	mov	r3, #0
  107fa4:	e1a00003 	mov	r0, r3
  107fa8:	e24bd000 	sub	sp, fp, #0
  107fac:	e49db004 	pop	{fp}		; (ldr fp, [sp], #4)
  107fb0:	e12fff1e 	bx	lr

00107fb4 <alt_dma_program_DMAKILL>:
  107fb4:	e52db004 	push	{fp}		; (str fp, [sp, #-4]!)
  107fb8:	e28db000 	add	fp, sp, #0
  107fbc:	e24dd014 	sub	sp, sp, #20
  107fc0:	e50b0010 	str	r0, [fp, #-16]
  107fc4:	e51b3010 	ldr	r3, [fp, #-16]
  107fc8:	e1d330b6 	ldrh	r3, [r3, #6]
  107fcc:	e2833001 	add	r3, r3, #1
  107fd0:	e3530c02 	cmp	r3, #512	; 0x200
  107fd4:	da000001 	ble	107fe0 <alt_dma_program_DMAKILL+0x2c>
  107fd8:	e3e03013 	mvn	r3, #19
  107fdc:	ea000013 	b	108030 <alt_dma_program_DMAKILL+0x7c>
  107fe0:	e51b3010 	ldr	r3, [fp, #-16]
  107fe4:	e1d330b4 	ldrh	r3, [r3, #4]
  107fe8:	e1a02003 	mov	r2, r3
  107fec:	e51b3010 	ldr	r3, [fp, #-16]
  107ff0:	e1d330b6 	ldrh	r3, [r3, #6]
  107ff4:	e0823003 	add	r3, r2, r3
  107ff8:	e2833010 	add	r3, r3, #16
  107ffc:	e51b2010 	ldr	r2, [fp, #-16]
  108000:	e0823003 	add	r3, r2, r3
  108004:	e50b3008 	str	r3, [fp, #-8]
  108008:	e51b3008 	ldr	r3, [fp, #-8]
  10800c:	e3a02001 	mov	r2, #1
  108010:	e5c32000 	strb	r2, [r3]
  108014:	e51b3010 	ldr	r3, [fp, #-16]
  108018:	e1d330b6 	ldrh	r3, [r3, #6]
  10801c:	e2833001 	add	r3, r3, #1
  108020:	e6ff2073 	uxth	r2, r3
  108024:	e51b3010 	ldr	r3, [fp, #-16]
  108028:	e1c320b6 	strh	r2, [r3, #6]
  10802c:	e3a03000 	mov	r3, #0
  108030:	e1a00003 	mov	r0, r3
  108034:	e24bd000 	sub	sp, fp, #0
  108038:	e49db004 	pop	{fp}		; (ldr fp, [sp], #4)
  10803c:	e12fff1e 	bx	lr

00108040 <alt_dma_program_DMALD>:
  108040:	e52db004 	push	{fp}		; (str fp, [sp, #-4]!)
  108044:	e28db000 	add	fp, sp, #0
  108048:	e24dd014 	sub	sp, sp, #20
  10804c:	e50b0010 	str	r0, [fp, #-16]
  108050:	e1a03001 	mov	r3, r1
  108054:	e54b3011 	strb	r3, [fp, #-17]	; 0xffffffef
  108058:	e51b3010 	ldr	r3, [fp, #-16]
  10805c:	e1d330b6 	ldrh	r3, [r3, #6]
  108060:	e2833001 	add	r3, r3, #1
  108064:	e3530c02 	cmp	r3, #512	; 0x200
  108068:	da000001 	ble	108074 <alt_dma_program_DMALD+0x34>
  10806c:	e3e03013 	mvn	r3, #19
  108070:	ea000029 	b	10811c <alt_dma_program_DMALD+0xdc>
  108074:	e3a03000 	mov	r3, #0
  108078:	e54b3005 	strb	r3, [fp, #-5]
  10807c:	e55b3011 	ldrb	r3, [fp, #-17]	; 0xffffffef
  108080:	e3530001 	cmp	r3, #1
  108084:	0a000006 	beq	1080a4 <alt_dma_program_DMALD+0x64>
  108088:	e3530002 	cmp	r3, #2
  10808c:	0a000007 	beq	1080b0 <alt_dma_program_DMALD+0x70>
  108090:	e3530000 	cmp	r3, #0
  108094:	1a000008 	bne	1080bc <alt_dma_program_DMALD+0x7c>
  108098:	e3a03000 	mov	r3, #0
  10809c:	e54b3005 	strb	r3, [fp, #-5]
  1080a0:	ea000007 	b	1080c4 <alt_dma_program_DMALD+0x84>
  1080a4:	e3a03001 	mov	r3, #1
  1080a8:	e54b3005 	strb	r3, [fp, #-5]
  1080ac:	ea000004 	b	1080c4 <alt_dma_program_DMALD+0x84>
  1080b0:	e3a03003 	mov	r3, #3
  1080b4:	e54b3005 	strb	r3, [fp, #-5]
  1080b8:	ea000001 	b	1080c4 <alt_dma_program_DMALD+0x84>
  1080bc:	e3e03008 	mvn	r3, #8
  1080c0:	ea000015 	b	10811c <alt_dma_program_DMALD+0xdc>
  1080c4:	e51b3010 	ldr	r3, [fp, #-16]
  1080c8:	e1d330b4 	ldrh	r3, [r3, #4]
  1080cc:	e1a02003 	mov	r2, r3
  1080d0:	e51b3010 	ldr	r3, [fp, #-16]
  1080d4:	e1d330b6 	ldrh	r3, [r3, #6]
  1080d8:	e0823003 	add	r3, r2, r3
  1080dc:	e2833010 	add	r3, r3, #16
  1080e0:	e51b2010 	ldr	r2, [fp, #-16]
  1080e4:	e0823003 	add	r3, r2, r3
  1080e8:	e50b300c 	str	r3, [fp, #-12]
  1080ec:	e55b3005 	ldrb	r3, [fp, #-5]
  1080f0:	e3833004 	orr	r3, r3, #4
  1080f4:	e6ef2073 	uxtb	r2, r3
  1080f8:	e51b300c 	ldr	r3, [fp, #-12]
  1080fc:	e5c32000 	strb	r2, [r3]
  108100:	e51b3010 	ldr	r3, [fp, #-16]
  108104:	e1d330b6 	ldrh	r3, [r3, #6]
  108108:	e2833001 	add	r3, r3, #1
  10810c:	e6ff2073 	uxth	r2, r3
  108110:	e51b3010 	ldr	r3, [fp, #-16]
  108114:	e1c320b6 	strh	r2, [r3, #6]
  108118:	e3a03000 	mov	r3, #0
  10811c:	e1a00003 	mov	r0, r3
  108120:	e24bd000 	sub	sp, fp, #0
  108124:	e49db004 	pop	{fp}		; (ldr fp, [sp], #4)
  108128:	e12fff1e 	bx	lr

0010812c <alt_dma_program_DMALDP>:
  10812c:	e52db004 	push	{fp}		; (str fp, [sp, #-4]!)
  108130:	e28db000 	add	fp, sp, #0
  108134:	e24dd014 	sub	sp, sp, #20
  108138:	e50b0010 	str	r0, [fp, #-16]
  10813c:	e1a03001 	mov	r3, r1
  108140:	e54b3011 	strb	r3, [fp, #-17]	; 0xffffffef
  108144:	e1a03002 	mov	r3, r2
  108148:	e54b3012 	strb	r3, [fp, #-18]	; 0xffffffee
  10814c:	e51b3010 	ldr	r3, [fp, #-16]
  108150:	e1d330b6 	ldrh	r3, [r3, #6]
  108154:	e2833002 	add	r3, r3, #2
  108158:	e3530c02 	cmp	r3, #512	; 0x200
  10815c:	da000001 	ble	108168 <alt_dma_program_DMALDP+0x3c>
  108160:	e3e03013 	mvn	r3, #19
  108164:	ea000030 	b	10822c <alt_dma_program_DMALDP+0x100>
  108168:	e3a03000 	mov	r3, #0
  10816c:	e54b3005 	strb	r3, [fp, #-5]
  108170:	e55b3011 	ldrb	r3, [fp, #-17]	; 0xffffffef
  108174:	e3530001 	cmp	r3, #1
  108178:	0a000002 	beq	108188 <alt_dma_program_DMALDP+0x5c>
  10817c:	e3530002 	cmp	r3, #2
  108180:	0a000003 	beq	108194 <alt_dma_program_DMALDP+0x68>
  108184:	ea000005 	b	1081a0 <alt_dma_program_DMALDP+0x74>
  108188:	e3a03000 	mov	r3, #0
  10818c:	e54b3005 	strb	r3, [fp, #-5]
  108190:	ea000004 	b	1081a8 <alt_dma_program_DMALDP+0x7c>
  108194:	e3a03002 	mov	r3, #2
  108198:	e54b3005 	strb	r3, [fp, #-5]
  10819c:	ea000001 	b	1081a8 <alt_dma_program_DMALDP+0x7c>
  1081a0:	e3e03008 	mvn	r3, #8
  1081a4:	ea000020 	b	10822c <alt_dma_program_DMALDP+0x100>
  1081a8:	e55b3012 	ldrb	r3, [fp, #-18]	; 0xffffffee
  1081ac:	e353001f 	cmp	r3, #31
  1081b0:	9a000001 	bls	1081bc <alt_dma_program_DMALDP+0x90>
  1081b4:	e3e03008 	mvn	r3, #8
  1081b8:	ea00001b 	b	10822c <alt_dma_program_DMALDP+0x100>
  1081bc:	e51b3010 	ldr	r3, [fp, #-16]
  1081c0:	e1d330b4 	ldrh	r3, [r3, #4]
  1081c4:	e1a02003 	mov	r2, r3
  1081c8:	e51b3010 	ldr	r3, [fp, #-16]
  1081cc:	e1d330b6 	ldrh	r3, [r3, #6]
  1081d0:	e0823003 	add	r3, r2, r3
  1081d4:	e2833010 	add	r3, r3, #16
  1081d8:	e51b2010 	ldr	r2, [fp, #-16]
  1081dc:	e0823003 	add	r3, r2, r3
  1081e0:	e50b300c 	str	r3, [fp, #-12]
  1081e4:	e55b3005 	ldrb	r3, [fp, #-5]
  1081e8:	e3833025 	orr	r3, r3, #37	; 0x25
  1081ec:	e6ef2073 	uxtb	r2, r3
  1081f0:	e51b300c 	ldr	r3, [fp, #-12]
  1081f4:	e5c32000 	strb	r2, [r3]
  1081f8:	e51b300c 	ldr	r3, [fp, #-12]
  1081fc:	e2833001 	add	r3, r3, #1
  108200:	e55b2012 	ldrb	r2, [fp, #-18]	; 0xffffffee
  108204:	e1a02182 	lsl	r2, r2, #3
  108208:	e6ef2072 	uxtb	r2, r2
  10820c:	e5c32000 	strb	r2, [r3]
  108210:	e51b3010 	ldr	r3, [fp, #-16]
  108214:	e1d330b6 	ldrh	r3, [r3, #6]
  108218:	e2833002 	add	r3, r3, #2
  10821c:	e6ff2073 	uxth	r2, r3
  108220:	e51b3010 	ldr	r3, [fp, #-16]
  108224:	e1c320b6 	strh	r2, [r3, #6]
  108228:	e3a03000 	mov	r3, #0
  10822c:	e1a00003 	mov	r0, r3
  108230:	e24bd000 	sub	sp, fp, #0
  108234:	e49db004 	pop	{fp}		; (ldr fp, [sp], #4)
  108238:	e12fff1e 	bx	lr

0010823c <alt_dma_program_DMALP>:
  10823c:	e52db004 	push	{fp}		; (str fp, [sp, #-4]!)
  108240:	e28db000 	add	fp, sp, #0
  108244:	e24dd014 	sub	sp, sp, #20
  108248:	e50b0010 	str	r0, [fp, #-16]
  10824c:	e50b1014 	str	r1, [fp, #-20]	; 0xffffffec
  108250:	e51b3010 	ldr	r3, [fp, #-16]
  108254:	e1d330b6 	ldrh	r3, [r3, #6]
  108258:	e2833002 	add	r3, r3, #2
  10825c:	e3530c02 	cmp	r3, #512	; 0x200
  108260:	da000001 	ble	10826c <alt_dma_program_DMALP+0x30>
  108264:	e3e03013 	mvn	r3, #19
  108268:	ea00004f 	b	1083ac <alt_dma_program_DMALP+0x170>
  10826c:	e51b3014 	ldr	r3, [fp, #-20]	; 0xffffffec
  108270:	e3530000 	cmp	r3, #0
  108274:	0a000002 	beq	108284 <alt_dma_program_DMALP+0x48>
  108278:	e51b3014 	ldr	r3, [fp, #-20]	; 0xffffffec
  10827c:	e3530c01 	cmp	r3, #256	; 0x100
  108280:	9a000001 	bls	10828c <alt_dma_program_DMALP+0x50>
  108284:	e3e03008 	mvn	r3, #8
  108288:	ea000047 	b	1083ac <alt_dma_program_DMALP+0x170>
  10828c:	e3a03000 	mov	r3, #0
  108290:	e54b3005 	strb	r3, [fp, #-5]
  108294:	e51b3010 	ldr	r3, [fp, #-16]
  108298:	e5933000 	ldr	r3, [r3]
  10829c:	e2033803 	and	r3, r3, #196608	; 0x30000
  1082a0:	e3530801 	cmp	r3, #65536	; 0x10000
  1082a4:	0a000011 	beq	1082f0 <alt_dma_program_DMALP+0xb4>
  1082a8:	e3530803 	cmp	r3, #196608	; 0x30000
  1082ac:	0a00001d 	beq	108328 <alt_dma_program_DMALP+0xec>
  1082b0:	e3530000 	cmp	r3, #0
  1082b4:	1a00001d 	bne	108330 <alt_dma_program_DMALP+0xf4>
  1082b8:	e51b3010 	ldr	r3, [fp, #-16]
  1082bc:	e5933000 	ldr	r3, [r3]
  1082c0:	e3832801 	orr	r2, r3, #65536	; 0x10000
  1082c4:	e51b3010 	ldr	r3, [fp, #-16]
  1082c8:	e5832000 	str	r2, [r3]
  1082cc:	e51b3010 	ldr	r3, [fp, #-16]
  1082d0:	e1d330b6 	ldrh	r3, [r3, #6]
  1082d4:	e2833002 	add	r3, r3, #2
  1082d8:	e6ff2073 	uxth	r2, r3
  1082dc:	e51b3010 	ldr	r3, [fp, #-16]
  1082e0:	e1c320b8 	strh	r2, [r3, #8]
  1082e4:	e3a03000 	mov	r3, #0
  1082e8:	e54b3005 	strb	r3, [fp, #-5]
  1082ec:	ea000011 	b	108338 <alt_dma_program_DMALP+0xfc>
  1082f0:	e51b3010 	ldr	r3, [fp, #-16]
  1082f4:	e5933000 	ldr	r3, [r3]
  1082f8:	e3832802 	orr	r2, r3, #131072	; 0x20000
  1082fc:	e51b3010 	ldr	r3, [fp, #-16]
  108300:	e5832000 	str	r2, [r3]
  108304:	e51b3010 	ldr	r3, [fp, #-16]
  108308:	e1d330b6 	ldrh	r3, [r3, #6]
  10830c:	e2833002 	add	r3, r3, #2
  108310:	e6ff2073 	uxth	r2, r3
  108314:	e51b3010 	ldr	r3, [fp, #-16]
  108318:	e1c320ba 	strh	r2, [r3, #10]
  10831c:	e3a03002 	mov	r3, #2
  108320:	e54b3005 	strb	r3, [fp, #-5]
  108324:	ea000003 	b	108338 <alt_dma_program_DMALP+0xfc>
  108328:	e3e03009 	mvn	r3, #9
  10832c:	ea00001e 	b	1083ac <alt_dma_program_DMALP+0x170>
  108330:	e3e03000 	mvn	r3, #0
  108334:	ea00001c 	b	1083ac <alt_dma_program_DMALP+0x170>
  108338:	e51b3010 	ldr	r3, [fp, #-16]
  10833c:	e1d330b4 	ldrh	r3, [r3, #4]
  108340:	e1a02003 	mov	r2, r3
  108344:	e51b3010 	ldr	r3, [fp, #-16]
  108348:	e1d330b6 	ldrh	r3, [r3, #6]
  10834c:	e0823003 	add	r3, r2, r3
  108350:	e2833010 	add	r3, r3, #16
  108354:	e51b2010 	ldr	r2, [fp, #-16]
  108358:	e0823003 	add	r3, r2, r3
  10835c:	e50b300c 	str	r3, [fp, #-12]
  108360:	e55b3005 	ldrb	r3, [fp, #-5]
  108364:	e3833020 	orr	r3, r3, #32
  108368:	e6ef2073 	uxtb	r2, r3
  10836c:	e51b300c 	ldr	r3, [fp, #-12]
  108370:	e5c32000 	strb	r2, [r3]
  108374:	e51b300c 	ldr	r3, [fp, #-12]
  108378:	e2833001 	add	r3, r3, #1
  10837c:	e51b2014 	ldr	r2, [fp, #-20]	; 0xffffffec
  108380:	e6ef2072 	uxtb	r2, r2
  108384:	e2422001 	sub	r2, r2, #1
  108388:	e6ef2072 	uxtb	r2, r2
  10838c:	e5c32000 	strb	r2, [r3]
  108390:	e51b3010 	ldr	r3, [fp, #-16]
  108394:	e1d330b6 	ldrh	r3, [r3, #6]
  108398:	e2833002 	add	r3, r3, #2
  10839c:	e6ff2073 	uxth	r2, r3
  1083a0:	e51b3010 	ldr	r3, [fp, #-16]
  1083a4:	e1c320b6 	strh	r2, [r3, #6]
  1083a8:	e3a03000 	mov	r3, #0
  1083ac:	e1a00003 	mov	r0, r3
  1083b0:	e24bd000 	sub	sp, fp, #0
  1083b4:	e49db004 	pop	{fp}		; (ldr fp, [sp], #4)
  1083b8:	e12fff1e 	bx	lr

001083bc <alt_dma_program_DMALPEND>:
  1083bc:	e52db004 	push	{fp}		; (str fp, [sp, #-4]!)
  1083c0:	e28db000 	add	fp, sp, #0
  1083c4:	e24dd01c 	sub	sp, sp, #28
  1083c8:	e50b0018 	str	r0, [fp, #-24]	; 0xffffffe8
  1083cc:	e1a03001 	mov	r3, r1
  1083d0:	e54b3019 	strb	r3, [fp, #-25]	; 0xffffffe7
  1083d4:	e51b3018 	ldr	r3, [fp, #-24]	; 0xffffffe8
  1083d8:	e1d330b6 	ldrh	r3, [r3, #6]
  1083dc:	e2833002 	add	r3, r3, #2
  1083e0:	e3530c02 	cmp	r3, #512	; 0x200
  1083e4:	da000001 	ble	1083f0 <alt_dma_program_DMALPEND+0x34>
  1083e8:	e3e03013 	mvn	r3, #19
  1083ec:	ea000089 	b	108618 <alt_dma_program_DMALPEND+0x25c>
  1083f0:	e3a03000 	mov	r3, #0
  1083f4:	e54b3005 	strb	r3, [fp, #-5]
  1083f8:	e55b3019 	ldrb	r3, [fp, #-25]	; 0xffffffe7
  1083fc:	e3530001 	cmp	r3, #1
  108400:	0a000006 	beq	108420 <alt_dma_program_DMALPEND+0x64>
  108404:	e3530002 	cmp	r3, #2
  108408:	0a000007 	beq	10842c <alt_dma_program_DMALPEND+0x70>
  10840c:	e3530000 	cmp	r3, #0
  108410:	1a000008 	bne	108438 <alt_dma_program_DMALPEND+0x7c>
  108414:	e3a03000 	mov	r3, #0
  108418:	e54b3005 	strb	r3, [fp, #-5]
  10841c:	ea000007 	b	108440 <alt_dma_program_DMALPEND+0x84>
  108420:	e3a03001 	mov	r3, #1
  108424:	e54b3005 	strb	r3, [fp, #-5]
  108428:	ea000004 	b	108440 <alt_dma_program_DMALPEND+0x84>
  10842c:	e3a03003 	mov	r3, #3
  108430:	e54b3005 	strb	r3, [fp, #-5]
  108434:	ea000001 	b	108440 <alt_dma_program_DMALPEND+0x84>
  108438:	e3e03008 	mvn	r3, #8
  10843c:	ea000075 	b	108618 <alt_dma_program_DMALPEND+0x25c>
  108440:	e3a03000 	mov	r3, #0
  108444:	e54b3006 	strb	r3, [fp, #-6]
  108448:	e3a03000 	mov	r3, #0
  10844c:	e54b3007 	strb	r3, [fp, #-7]
  108450:	e3a03000 	mov	r3, #0
  108454:	e14b30ba 	strh	r3, [fp, #-10]
  108458:	e51b3018 	ldr	r3, [fp, #-24]	; 0xffffffe8
  10845c:	e5933000 	ldr	r3, [r3]
  108460:	e2033803 	and	r3, r3, #196608	; 0x30000
  108464:	e3530801 	cmp	r3, #65536	; 0x10000
  108468:	0a000004 	beq	108480 <alt_dma_program_DMALPEND+0xc4>
  10846c:	e3530803 	cmp	r3, #196608	; 0x30000
  108470:	0a000020 	beq	1084f8 <alt_dma_program_DMALPEND+0x13c>
  108474:	e3530000 	cmp	r3, #0
  108478:	0a00003c 	beq	108570 <alt_dma_program_DMALPEND+0x1b4>
  10847c:	ea00003d 	b	108578 <alt_dma_program_DMALPEND+0x1bc>
  108480:	e51b3018 	ldr	r3, [fp, #-24]	; 0xffffffe8
  108484:	e1d320b6 	ldrh	r2, [r3, #6]
  108488:	e51b3018 	ldr	r3, [fp, #-24]	; 0xffffffe8
  10848c:	e1d330b8 	ldrh	r3, [r3, #8]
  108490:	e0633002 	rsb	r3, r3, r2
  108494:	e14b30ba 	strh	r3, [fp, #-10]
  108498:	e51b3018 	ldr	r3, [fp, #-24]	; 0xffffffe8
  10849c:	e5933000 	ldr	r3, [r3]
  1084a0:	e3c32801 	bic	r2, r3, #65536	; 0x10000
  1084a4:	e51b3018 	ldr	r3, [fp, #-24]	; 0xffffffe8
  1084a8:	e5832000 	str	r2, [r3]
  1084ac:	e51b3018 	ldr	r3, [fp, #-24]	; 0xffffffe8
  1084b0:	e3a02000 	mov	r2, #0
  1084b4:	e1c320b8 	strh	r2, [r3, #8]
  1084b8:	e3a03000 	mov	r3, #0
  1084bc:	e54b3006 	strb	r3, [fp, #-6]
  1084c0:	e51b3018 	ldr	r3, [fp, #-24]	; 0xffffffe8
  1084c4:	e5933000 	ldr	r3, [r3]
  1084c8:	e2033701 	and	r3, r3, #262144	; 0x40000
  1084cc:	e3530000 	cmp	r3, #0
  1084d0:	0a000005 	beq	1084ec <alt_dma_program_DMALPEND+0x130>
  1084d4:	e51b3018 	ldr	r3, [fp, #-24]	; 0xffffffe8
  1084d8:	e5933000 	ldr	r3, [r3]
  1084dc:	e3c32701 	bic	r2, r3, #262144	; 0x40000
  1084e0:	e51b3018 	ldr	r3, [fp, #-24]	; 0xffffffe8
  1084e4:	e5832000 	str	r2, [r3]
  1084e8:	ea000024 	b	108580 <alt_dma_program_DMALPEND+0x1c4>
  1084ec:	e3a03010 	mov	r3, #16
  1084f0:	e54b3007 	strb	r3, [fp, #-7]
  1084f4:	ea000021 	b	108580 <alt_dma_program_DMALPEND+0x1c4>
  1084f8:	e51b3018 	ldr	r3, [fp, #-24]	; 0xffffffe8
  1084fc:	e1d320b6 	ldrh	r2, [r3, #6]
  108500:	e51b3018 	ldr	r3, [fp, #-24]	; 0xffffffe8
  108504:	e1d330ba 	ldrh	r3, [r3, #10]
  108508:	e0633002 	rsb	r3, r3, r2
  10850c:	e14b30ba 	strh	r3, [fp, #-10]
  108510:	e51b3018 	ldr	r3, [fp, #-24]	; 0xffffffe8
  108514:	e5933000 	ldr	r3, [r3]
  108518:	e3c32802 	bic	r2, r3, #131072	; 0x20000
  10851c:	e51b3018 	ldr	r3, [fp, #-24]	; 0xffffffe8
  108520:	e5832000 	str	r2, [r3]
  108524:	e51b3018 	ldr	r3, [fp, #-24]	; 0xffffffe8
  108528:	e3a02000 	mov	r2, #0
  10852c:	e1c320ba 	strh	r2, [r3, #10]
  108530:	e3a03004 	mov	r3, #4
  108534:	e54b3006 	strb	r3, [fp, #-6]
  108538:	e51b3018 	ldr	r3, [fp, #-24]	; 0xffffffe8
  10853c:	e5933000 	ldr	r3, [r3]
  108540:	e2033702 	and	r3, r3, #524288	; 0x80000
  108544:	e3530000 	cmp	r3, #0
  108548:	0a000005 	beq	108564 <alt_dma_program_DMALPEND+0x1a8>
  10854c:	e51b3018 	ldr	r3, [fp, #-24]	; 0xffffffe8
  108550:	e5933000 	ldr	r3, [r3]
  108554:	e3c32702 	bic	r2, r3, #524288	; 0x80000
  108558:	e51b3018 	ldr	r3, [fp, #-24]	; 0xffffffe8
  10855c:	e5832000 	str	r2, [r3]
  108560:	ea000006 	b	108580 <alt_dma_program_DMALPEND+0x1c4>
  108564:	e3a03010 	mov	r3, #16
  108568:	e54b3007 	strb	r3, [fp, #-7]
  10856c:	ea000003 	b	108580 <alt_dma_program_DMALPEND+0x1c4>
  108570:	e3e03009 	mvn	r3, #9
  108574:	ea000027 	b	108618 <alt_dma_program_DMALPEND+0x25c>
  108578:	e3e03000 	mvn	r3, #0
  10857c:	ea000025 	b	108618 <alt_dma_program_DMALPEND+0x25c>
  108580:	e15b30ba 	ldrh	r3, [fp, #-10]
  108584:	e35300ff 	cmp	r3, #255	; 0xff
  108588:	9a000001 	bls	108594 <alt_dma_program_DMALPEND+0x1d8>
  10858c:	e3e03007 	mvn	r3, #7
  108590:	ea000020 	b	108618 <alt_dma_program_DMALPEND+0x25c>
  108594:	e51b3018 	ldr	r3, [fp, #-24]	; 0xffffffe8
  108598:	e1d330b4 	ldrh	r3, [r3, #4]
  10859c:	e1a02003 	mov	r2, r3
  1085a0:	e51b3018 	ldr	r3, [fp, #-24]	; 0xffffffe8
  1085a4:	e1d330b6 	ldrh	r3, [r3, #6]
  1085a8:	e0823003 	add	r3, r2, r3
  1085ac:	e2833010 	add	r3, r3, #16
  1085b0:	e51b2018 	ldr	r2, [fp, #-24]	; 0xffffffe8
  1085b4:	e0823003 	add	r3, r2, r3
  1085b8:	e50b3010 	str	r3, [fp, #-16]
  1085bc:	e55b2007 	ldrb	r2, [fp, #-7]
  1085c0:	e55b3006 	ldrb	r3, [fp, #-6]
  1085c4:	e1823003 	orr	r3, r2, r3
  1085c8:	e6ef2073 	uxtb	r2, r3
  1085cc:	e55b3005 	ldrb	r3, [fp, #-5]
  1085d0:	e1823003 	orr	r3, r2, r3
  1085d4:	e6ef3073 	uxtb	r3, r3
  1085d8:	e3833028 	orr	r3, r3, #40	; 0x28
  1085dc:	e6ef2073 	uxtb	r2, r3
  1085e0:	e51b3010 	ldr	r3, [fp, #-16]
  1085e4:	e5c32000 	strb	r2, [r3]
  1085e8:	e51b3010 	ldr	r3, [fp, #-16]
  1085ec:	e2833001 	add	r3, r3, #1
  1085f0:	e15b20ba 	ldrh	r2, [fp, #-10]
  1085f4:	e6ef2072 	uxtb	r2, r2
  1085f8:	e5c32000 	strb	r2, [r3]
  1085fc:	e51b3018 	ldr	r3, [fp, #-24]	; 0xffffffe8
  108600:	e1d330b6 	ldrh	r3, [r3, #6]
  108604:	e2833002 	add	r3, r3, #2
  108608:	e6ff2073 	uxth	r2, r3
  10860c:	e51b3018 	ldr	r3, [fp, #-24]	; 0xffffffe8
  108610:	e1c320b6 	strh	r2, [r3, #6]
  108614:	e3a03000 	mov	r3, #0
  108618:	e1a00003 	mov	r0, r3
  10861c:	e24bd000 	sub	sp, fp, #0
  108620:	e49db004 	pop	{fp}		; (ldr fp, [sp], #4)
  108624:	e12fff1e 	bx	lr

00108628 <alt_dma_program_DMALPFE>:
  108628:	e52db004 	push	{fp}		; (str fp, [sp, #-4]!)
  10862c:	e28db000 	add	fp, sp, #0
  108630:	e24dd00c 	sub	sp, sp, #12
  108634:	e50b0008 	str	r0, [fp, #-8]
  108638:	e51b3008 	ldr	r3, [fp, #-8]
  10863c:	e5933000 	ldr	r3, [r3]
  108640:	e2033803 	and	r3, r3, #196608	; 0x30000
  108644:	e3530801 	cmp	r3, #65536	; 0x10000
  108648:	0a000012 	beq	108698 <alt_dma_program_DMALPFE+0x70>
  10864c:	e3530803 	cmp	r3, #196608	; 0x30000
  108650:	0a00001f 	beq	1086d4 <alt_dma_program_DMALPFE+0xac>
  108654:	e3530000 	cmp	r3, #0
  108658:	1a00001f 	bne	1086dc <alt_dma_program_DMALPFE+0xb4>
  10865c:	e51b3008 	ldr	r3, [fp, #-8]
  108660:	e5933000 	ldr	r3, [r3]
  108664:	e3832801 	orr	r2, r3, #65536	; 0x10000
  108668:	e51b3008 	ldr	r3, [fp, #-8]
  10866c:	e5832000 	str	r2, [r3]
  108670:	e51b3008 	ldr	r3, [fp, #-8]
  108674:	e5933000 	ldr	r3, [r3]
  108678:	e3832701 	orr	r2, r3, #262144	; 0x40000
  10867c:	e51b3008 	ldr	r3, [fp, #-8]
  108680:	e5832000 	str	r2, [r3]
  108684:	e51b3008 	ldr	r3, [fp, #-8]
  108688:	e1d320b6 	ldrh	r2, [r3, #6]
  10868c:	e51b3008 	ldr	r3, [fp, #-8]
  108690:	e1c320b8 	strh	r2, [r3, #8]
  108694:	ea000012 	b	1086e4 <alt_dma_program_DMALPFE+0xbc>
  108698:	e51b3008 	ldr	r3, [fp, #-8]
  10869c:	e5933000 	ldr	r3, [r3]
  1086a0:	e3832802 	orr	r2, r3, #131072	; 0x20000
  1086a4:	e51b3008 	ldr	r3, [fp, #-8]
  1086a8:	e5832000 	str	r2, [r3]
  1086ac:	e51b3008 	ldr	r3, [fp, #-8]
  1086b0:	e5933000 	ldr	r3, [r3]
  1086b4:	e3832702 	orr	r2, r3, #524288	; 0x80000
  1086b8:	e51b3008 	ldr	r3, [fp, #-8]
  1086bc:	e5832000 	str	r2, [r3]
  1086c0:	e51b3008 	ldr	r3, [fp, #-8]
  1086c4:	e1d320b6 	ldrh	r2, [r3, #6]
  1086c8:	e51b3008 	ldr	r3, [fp, #-8]
  1086cc:	e1c320ba 	strh	r2, [r3, #10]
  1086d0:	ea000003 	b	1086e4 <alt_dma_program_DMALPFE+0xbc>
  1086d4:	e3e03009 	mvn	r3, #9
  1086d8:	ea000002 	b	1086e8 <alt_dma_program_DMALPFE+0xc0>
  1086dc:	e3e03000 	mvn	r3, #0
  1086e0:	ea000000 	b	1086e8 <alt_dma_program_DMALPFE+0xc0>
  1086e4:	e3a03000 	mov	r3, #0
  1086e8:	e1a00003 	mov	r0, r3
  1086ec:	e24bd000 	sub	sp, fp, #0
  1086f0:	e49db004 	pop	{fp}		; (ldr fp, [sp], #4)
  1086f4:	e12fff1e 	bx	lr

001086f8 <alt_dma_program_DMAMOV>:
  1086f8:	e52db004 	push	{fp}		; (str fp, [sp, #-4]!)
  1086fc:	e28db000 	add	fp, sp, #0
  108700:	e24dd01c 	sub	sp, sp, #28
  108704:	e50b0010 	str	r0, [fp, #-16]
  108708:	e1a03001 	mov	r3, r1
  10870c:	e50b2018 	str	r2, [fp, #-24]	; 0xffffffe8
  108710:	e54b3011 	strb	r3, [fp, #-17]	; 0xffffffef
  108714:	e51b3010 	ldr	r3, [fp, #-16]
  108718:	e1d330b6 	ldrh	r3, [r3, #6]
  10871c:	e2833006 	add	r3, r3, #6
  108720:	e3530c02 	cmp	r3, #512	; 0x200
  108724:	da000001 	ble	108730 <alt_dma_program_DMAMOV+0x38>
  108728:	e3e03013 	mvn	r3, #19
  10872c:	ea000064 	b	1088c4 <alt_dma_program_DMAMOV+0x1cc>
  108730:	e3a03000 	mov	r3, #0
  108734:	e54b3005 	strb	r3, [fp, #-5]
  108738:	e55b3011 	ldrb	r3, [fp, #-17]	; 0xffffffef
  10873c:	e3530001 	cmp	r3, #1
  108740:	0a000017 	beq	1087a4 <alt_dma_program_DMAMOV+0xac>
  108744:	e3530002 	cmp	r3, #2
  108748:	0a000018 	beq	1087b0 <alt_dma_program_DMAMOV+0xb8>
  10874c:	e3530000 	cmp	r3, #0
  108750:	1a00002a 	bne	108800 <alt_dma_program_DMAMOV+0x108>
  108754:	e3a03000 	mov	r3, #0
  108758:	e54b3005 	strb	r3, [fp, #-5]
  10875c:	e51b3010 	ldr	r3, [fp, #-16]
  108760:	e5933000 	ldr	r3, [r3]
  108764:	e2033401 	and	r3, r3, #16777216	; 0x1000000
  108768:	e3530000 	cmp	r3, #0
  10876c:	1a00000b 	bne	1087a0 <alt_dma_program_DMAMOV+0xa8>
  108770:	e51b3010 	ldr	r3, [fp, #-16]
  108774:	e5933000 	ldr	r3, [r3]
  108778:	e3832401 	orr	r2, r3, #16777216	; 0x1000000
  10877c:	e51b3010 	ldr	r3, [fp, #-16]
  108780:	e5832000 	str	r2, [r3]
  108784:	e51b3010 	ldr	r3, [fp, #-16]
  108788:	e1d330b6 	ldrh	r3, [r3, #6]
  10878c:	e2833002 	add	r3, r3, #2
  108790:	e6ff2073 	uxth	r2, r3
  108794:	e51b3010 	ldr	r3, [fp, #-16]
  108798:	e1c320bc 	strh	r2, [r3, #12]
  10879c:	ea000019 	b	108808 <alt_dma_program_DMAMOV+0x110>
  1087a0:	ea000018 	b	108808 <alt_dma_program_DMAMOV+0x110>
  1087a4:	e3a03001 	mov	r3, #1
  1087a8:	e54b3005 	strb	r3, [fp, #-5]
  1087ac:	ea000015 	b	108808 <alt_dma_program_DMAMOV+0x110>
  1087b0:	e3a03002 	mov	r3, #2
  1087b4:	e54b3005 	strb	r3, [fp, #-5]
  1087b8:	e51b3010 	ldr	r3, [fp, #-16]
  1087bc:	e5933000 	ldr	r3, [r3]
  1087c0:	e2033402 	and	r3, r3, #33554432	; 0x2000000
  1087c4:	e3530000 	cmp	r3, #0
  1087c8:	1a00000b 	bne	1087fc <alt_dma_program_DMAMOV+0x104>
  1087cc:	e51b3010 	ldr	r3, [fp, #-16]
  1087d0:	e5933000 	ldr	r3, [r3]
  1087d4:	e3832402 	orr	r2, r3, #33554432	; 0x2000000
  1087d8:	e51b3010 	ldr	r3, [fp, #-16]
  1087dc:	e5832000 	str	r2, [r3]
  1087e0:	e51b3010 	ldr	r3, [fp, #-16]
  1087e4:	e1d330b6 	ldrh	r3, [r3, #6]
  1087e8:	e2833002 	add	r3, r3, #2
  1087ec:	e6ff2073 	uxth	r2, r3
  1087f0:	e51b3010 	ldr	r3, [fp, #-16]
  1087f4:	e1c320be 	strh	r2, [r3, #14]
  1087f8:	ea000002 	b	108808 <alt_dma_program_DMAMOV+0x110>
  1087fc:	ea000001 	b	108808 <alt_dma_program_DMAMOV+0x110>
  108800:	e3e03008 	mvn	r3, #8
  108804:	ea00002e 	b	1088c4 <alt_dma_program_DMAMOV+0x1cc>
  108808:	e51b3010 	ldr	r3, [fp, #-16]
  10880c:	e1d330b4 	ldrh	r3, [r3, #4]
  108810:	e1a02003 	mov	r2, r3
  108814:	e51b3010 	ldr	r3, [fp, #-16]
  108818:	e1d330b6 	ldrh	r3, [r3, #6]
  10881c:	e0823003 	add	r3, r2, r3
  108820:	e2833010 	add	r3, r3, #16
  108824:	e51b2010 	ldr	r2, [fp, #-16]
  108828:	e0823003 	add	r3, r2, r3
  10882c:	e50b300c 	str	r3, [fp, #-12]
  108830:	e51b300c 	ldr	r3, [fp, #-12]
  108834:	e3e02043 	mvn	r2, #67	; 0x43
  108838:	e5c32000 	strb	r2, [r3]
  10883c:	e51b300c 	ldr	r3, [fp, #-12]
  108840:	e2833001 	add	r3, r3, #1
  108844:	e55b2005 	ldrb	r2, [fp, #-5]
  108848:	e5c32000 	strb	r2, [r3]
  10884c:	e51b300c 	ldr	r3, [fp, #-12]
  108850:	e2833002 	add	r3, r3, #2
  108854:	e51b2018 	ldr	r2, [fp, #-24]	; 0xffffffe8
  108858:	e6ef2072 	uxtb	r2, r2
  10885c:	e5c32000 	strb	r2, [r3]
  108860:	e51b300c 	ldr	r3, [fp, #-12]
  108864:	e2833003 	add	r3, r3, #3
  108868:	e51b2018 	ldr	r2, [fp, #-24]	; 0xffffffe8
  10886c:	e1a02422 	lsr	r2, r2, #8
  108870:	e6ef2072 	uxtb	r2, r2
  108874:	e5c32000 	strb	r2, [r3]
  108878:	e51b300c 	ldr	r3, [fp, #-12]
  10887c:	e2833004 	add	r3, r3, #4
  108880:	e51b2018 	ldr	r2, [fp, #-24]	; 0xffffffe8
  108884:	e1a02822 	lsr	r2, r2, #16
  108888:	e6ef2072 	uxtb	r2, r2
  10888c:	e5c32000 	strb	r2, [r3]
  108890:	e51b300c 	ldr	r3, [fp, #-12]
  108894:	e2833005 	add	r3, r3, #5
  108898:	e51b2018 	ldr	r2, [fp, #-24]	; 0xffffffe8
  10889c:	e1a02c22 	lsr	r2, r2, #24
  1088a0:	e6ef2072 	uxtb	r2, r2
  1088a4:	e5c32000 	strb	r2, [r3]
  1088a8:	e51b3010 	ldr	r3, [fp, #-16]
  1088ac:	e1d330b6 	ldrh	r3, [r3, #6]
  1088b0:	e2833006 	add	r3, r3, #6
  1088b4:	e6ff2073 	uxth	r2, r3
  1088b8:	e51b3010 	ldr	r3, [fp, #-16]
  1088bc:	e1c320b6 	strh	r2, [r3, #6]
  1088c0:	e3a03000 	mov	r3, #0
  1088c4:	e1a00003 	mov	r0, r3
  1088c8:	e24bd000 	sub	sp, fp, #0
  1088cc:	e49db004 	pop	{fp}		; (ldr fp, [sp], #4)
  1088d0:	e12fff1e 	bx	lr

001088d4 <alt_dma_program_DMANOP>:
  1088d4:	e52db004 	push	{fp}		; (str fp, [sp, #-4]!)
  1088d8:	e28db000 	add	fp, sp, #0
  1088dc:	e24dd014 	sub	sp, sp, #20
  1088e0:	e50b0010 	str	r0, [fp, #-16]
  1088e4:	e51b3010 	ldr	r3, [fp, #-16]
  1088e8:	e1d330b6 	ldrh	r3, [r3, #6]
  1088ec:	e2833001 	add	r3, r3, #1
  1088f0:	e3530c02 	cmp	r3, #512	; 0x200
  1088f4:	da000001 	ble	108900 <alt_dma_program_DMANOP+0x2c>
  1088f8:	e3e03013 	mvn	r3, #19
  1088fc:	ea000013 	b	108950 <alt_dma_program_DMANOP+0x7c>
  108900:	e51b3010 	ldr	r3, [fp, #-16]
  108904:	e1d330b4 	ldrh	r3, [r3, #4]
  108908:	e1a02003 	mov	r2, r3
  10890c:	e51b3010 	ldr	r3, [fp, #-16]
  108910:	e1d330b6 	ldrh	r3, [r3, #6]
  108914:	e0823003 	add	r3, r2, r3
  108918:	e2833010 	add	r3, r3, #16
  10891c:	e51b2010 	ldr	r2, [fp, #-16]
  108920:	e0823003 	add	r3, r2, r3
  108924:	e50b3008 	str	r3, [fp, #-8]
  108928:	e51b3008 	ldr	r3, [fp, #-8]
  10892c:	e3a02018 	mov	r2, #24
  108930:	e5c32000 	strb	r2, [r3]
  108934:	e51b3010 	ldr	r3, [fp, #-16]
  108938:	e1d330b6 	ldrh	r3, [r3, #6]
  10893c:	e2833001 	add	r3, r3, #1
  108940:	e6ff2073 	uxth	r2, r3
  108944:	e51b3010 	ldr	r3, [fp, #-16]
  108948:	e1c320b6 	strh	r2, [r3, #6]
  10894c:	e3a03000 	mov	r3, #0
  108950:	e1a00003 	mov	r0, r3
  108954:	e24bd000 	sub	sp, fp, #0
  108958:	e49db004 	pop	{fp}		; (ldr fp, [sp], #4)
  10895c:	e12fff1e 	bx	lr

00108960 <alt_dma_program_DMARMB>:
  108960:	e52db004 	push	{fp}		; (str fp, [sp, #-4]!)
  108964:	e28db000 	add	fp, sp, #0
  108968:	e24dd014 	sub	sp, sp, #20
  10896c:	e50b0010 	str	r0, [fp, #-16]
  108970:	e51b3010 	ldr	r3, [fp, #-16]
  108974:	e1d330b6 	ldrh	r3, [r3, #6]
  108978:	e2833001 	add	r3, r3, #1
  10897c:	e3530c02 	cmp	r3, #512	; 0x200
  108980:	da000001 	ble	10898c <alt_dma_program_DMARMB+0x2c>
  108984:	e3e03013 	mvn	r3, #19
  108988:	ea000013 	b	1089dc <alt_dma_program_DMARMB+0x7c>
  10898c:	e51b3010 	ldr	r3, [fp, #-16]
  108990:	e1d330b4 	ldrh	r3, [r3, #4]
  108994:	e1a02003 	mov	r2, r3
  108998:	e51b3010 	ldr	r3, [fp, #-16]
  10899c:	e1d330b6 	ldrh	r3, [r3, #6]
  1089a0:	e0823003 	add	r3, r2, r3
  1089a4:	e2833010 	add	r3, r3, #16
  1089a8:	e51b2010 	ldr	r2, [fp, #-16]
  1089ac:	e0823003 	add	r3, r2, r3
  1089b0:	e50b3008 	str	r3, [fp, #-8]
  1089b4:	e51b3008 	ldr	r3, [fp, #-8]
  1089b8:	e3a02012 	mov	r2, #18
  1089bc:	e5c32000 	strb	r2, [r3]
  1089c0:	e51b3010 	ldr	r3, [fp, #-16]
  1089c4:	e1d330b6 	ldrh	r3, [r3, #6]
  1089c8:	e2833001 	add	r3, r3, #1
  1089cc:	e6ff2073 	uxth	r2, r3
  1089d0:	e51b3010 	ldr	r3, [fp, #-16]
  1089d4:	e1c320b6 	strh	r2, [r3, #6]
  1089d8:	e3a03000 	mov	r3, #0
  1089dc:	e1a00003 	mov	r0, r3
  1089e0:	e24bd000 	sub	sp, fp, #0
  1089e4:	e49db004 	pop	{fp}		; (ldr fp, [sp], #4)
  1089e8:	e12fff1e 	bx	lr

001089ec <alt_dma_program_DMASEV>:
  1089ec:	e52db004 	push	{fp}		; (str fp, [sp, #-4]!)
  1089f0:	e28db000 	add	fp, sp, #0
  1089f4:	e24dd014 	sub	sp, sp, #20
  1089f8:	e50b0010 	str	r0, [fp, #-16]
  1089fc:	e1a03001 	mov	r3, r1
  108a00:	e54b3011 	strb	r3, [fp, #-17]	; 0xffffffef
  108a04:	e51b3010 	ldr	r3, [fp, #-16]
  108a08:	e1d330b6 	ldrh	r3, [r3, #6]
  108a0c:	e2833002 	add	r3, r3, #2
  108a10:	e3530c02 	cmp	r3, #512	; 0x200
  108a14:	da000001 	ble	108a20 <alt_dma_program_DMASEV+0x34>
  108a18:	e3e03013 	mvn	r3, #19
  108a1c:	ea000020 	b	108aa4 <alt_dma_program_DMASEV+0xb8>
  108a20:	e55b3011 	ldrb	r3, [fp, #-17]	; 0xffffffef
  108a24:	e2833000 	add	r3, r3, #0
  108a28:	e3530008 	cmp	r3, #8
  108a2c:	9a000001 	bls	108a38 <alt_dma_program_DMASEV+0x4c>
  108a30:	e3e03008 	mvn	r3, #8
  108a34:	ea00001a 	b	108aa4 <alt_dma_program_DMASEV+0xb8>
  108a38:	e1a00000 	nop			; (mov r0, r0)
  108a3c:	e51b3010 	ldr	r3, [fp, #-16]
  108a40:	e1d330b4 	ldrh	r3, [r3, #4]
  108a44:	e1a02003 	mov	r2, r3
  108a48:	e51b3010 	ldr	r3, [fp, #-16]
  108a4c:	e1d330b6 	ldrh	r3, [r3, #6]
  108a50:	e0823003 	add	r3, r2, r3
  108a54:	e2833010 	add	r3, r3, #16
  108a58:	e51b2010 	ldr	r2, [fp, #-16]
  108a5c:	e0823003 	add	r3, r2, r3
  108a60:	e50b3008 	str	r3, [fp, #-8]
  108a64:	e51b3008 	ldr	r3, [fp, #-8]
  108a68:	e3a02034 	mov	r2, #52	; 0x34
  108a6c:	e5c32000 	strb	r2, [r3]
  108a70:	e51b3008 	ldr	r3, [fp, #-8]
  108a74:	e2833001 	add	r3, r3, #1
  108a78:	e55b2011 	ldrb	r2, [fp, #-17]	; 0xffffffef
  108a7c:	e1a02182 	lsl	r2, r2, #3
  108a80:	e6ef2072 	uxtb	r2, r2
  108a84:	e5c32000 	strb	r2, [r3]
  108a88:	e51b3010 	ldr	r3, [fp, #-16]
  108a8c:	e1d330b6 	ldrh	r3, [r3, #6]
  108a90:	e2833002 	add	r3, r3, #2
  108a94:	e6ff2073 	uxth	r2, r3
  108a98:	e51b3010 	ldr	r3, [fp, #-16]
  108a9c:	e1c320b6 	strh	r2, [r3, #6]
  108aa0:	e3a03000 	mov	r3, #0
  108aa4:	e1a00003 	mov	r0, r3
  108aa8:	e24bd000 	sub	sp, fp, #0
  108aac:	e49db004 	pop	{fp}		; (ldr fp, [sp], #4)
  108ab0:	e12fff1e 	bx	lr

00108ab4 <alt_dma_program_DMAST>:
  108ab4:	e52db004 	push	{fp}		; (str fp, [sp, #-4]!)
  108ab8:	e28db000 	add	fp, sp, #0
  108abc:	e24dd014 	sub	sp, sp, #20
  108ac0:	e50b0010 	str	r0, [fp, #-16]
  108ac4:	e1a03001 	mov	r3, r1
  108ac8:	e54b3011 	strb	r3, [fp, #-17]	; 0xffffffef
  108acc:	e51b3010 	ldr	r3, [fp, #-16]
  108ad0:	e1d330b6 	ldrh	r3, [r3, #6]
  108ad4:	e2833001 	add	r3, r3, #1
  108ad8:	e3530c02 	cmp	r3, #512	; 0x200
  108adc:	da000001 	ble	108ae8 <alt_dma_program_DMAST+0x34>
  108ae0:	e3e03013 	mvn	r3, #19
  108ae4:	ea000029 	b	108b90 <alt_dma_program_DMAST+0xdc>
  108ae8:	e3a03000 	mov	r3, #0
  108aec:	e54b3005 	strb	r3, [fp, #-5]
  108af0:	e55b3011 	ldrb	r3, [fp, #-17]	; 0xffffffef
  108af4:	e3530001 	cmp	r3, #1
  108af8:	0a000006 	beq	108b18 <alt_dma_program_DMAST+0x64>
  108afc:	e3530002 	cmp	r3, #2
  108b00:	0a000007 	beq	108b24 <alt_dma_program_DMAST+0x70>
  108b04:	e3530000 	cmp	r3, #0
  108b08:	1a000008 	bne	108b30 <alt_dma_program_DMAST+0x7c>
  108b0c:	e3a03000 	mov	r3, #0
  108b10:	e54b3005 	strb	r3, [fp, #-5]
  108b14:	ea000007 	b	108b38 <alt_dma_program_DMAST+0x84>
  108b18:	e3a03001 	mov	r3, #1
  108b1c:	e54b3005 	strb	r3, [fp, #-5]
  108b20:	ea000004 	b	108b38 <alt_dma_program_DMAST+0x84>
  108b24:	e3a03003 	mov	r3, #3
  108b28:	e54b3005 	strb	r3, [fp, #-5]
  108b2c:	ea000001 	b	108b38 <alt_dma_program_DMAST+0x84>
  108b30:	e3e03008 	mvn	r3, #8
  108b34:	ea000015 	b	108b90 <alt_dma_program_DMAST+0xdc>
  108b38:	e51b3010 	ldr	r3, [fp, #-16]
  108b3c:	e1d330b4 	ldrh	r3, [r3, #4]
  108b40:	e1a02003 	mov	r2, r3
  108b44:	e51b3010 	ldr	r3, [fp, #-16]
  108b48:	e1d330b6 	ldrh	r3, [r3, #6]
  108b4c:	e0823003 	add	r3, r2, r3
  108b50:	e2833010 	add	r3, r3, #16
  108b54:	e51b2010 	ldr	r2, [fp, #-16]
  108b58:	e0823003 	add	r3, r2, r3
  108b5c:	e50b300c 	str	r3, [fp, #-12]
  108b60:	e55b3005 	ldrb	r3, [fp, #-5]
  108b64:	e3833008 	orr	r3, r3, #8
  108b68:	e6ef2073 	uxtb	r2, r3
  108b6c:	e51b300c 	ldr	r3, [fp, #-12]
  108b70:	e5c32000 	strb	r2, [r3]
  108b74:	e51b3010 	ldr	r3, [fp, #-16]
  108b78:	e1d330b6 	ldrh	r3, [r3, #6]
  108b7c:	e2833001 	add	r3, r3, #1
  108b80:	e6ff2073 	uxth	r2, r3
  108b84:	e51b3010 	ldr	r3, [fp, #-16]
  108b88:	e1c320b6 	strh	r2, [r3, #6]
  108b8c:	e3a03000 	mov	r3, #0
  108b90:	e1a00003 	mov	r0, r3
  108b94:	e24bd000 	sub	sp, fp, #0
  108b98:	e49db004 	pop	{fp}		; (ldr fp, [sp], #4)
  108b9c:	e12fff1e 	bx	lr

00108ba0 <alt_dma_program_DMASTP>:
  108ba0:	e52db004 	push	{fp}		; (str fp, [sp, #-4]!)
  108ba4:	e28db000 	add	fp, sp, #0
  108ba8:	e24dd014 	sub	sp, sp, #20
  108bac:	e50b0010 	str	r0, [fp, #-16]
  108bb0:	e1a03001 	mov	r3, r1
  108bb4:	e54b3011 	strb	r3, [fp, #-17]	; 0xffffffef
  108bb8:	e1a03002 	mov	r3, r2
  108bbc:	e54b3012 	strb	r3, [fp, #-18]	; 0xffffffee
  108bc0:	e51b3010 	ldr	r3, [fp, #-16]
  108bc4:	e1d330b6 	ldrh	r3, [r3, #6]
  108bc8:	e2833002 	add	r3, r3, #2
  108bcc:	e3530c02 	cmp	r3, #512	; 0x200
  108bd0:	da000001 	ble	108bdc <alt_dma_program_DMASTP+0x3c>
  108bd4:	e3e03013 	mvn	r3, #19
  108bd8:	ea000030 	b	108ca0 <alt_dma_program_DMASTP+0x100>
  108bdc:	e3a03000 	mov	r3, #0
  108be0:	e54b3005 	strb	r3, [fp, #-5]
  108be4:	e55b3011 	ldrb	r3, [fp, #-17]	; 0xffffffef
  108be8:	e3530001 	cmp	r3, #1
  108bec:	0a000002 	beq	108bfc <alt_dma_program_DMASTP+0x5c>
  108bf0:	e3530002 	cmp	r3, #2
  108bf4:	0a000003 	beq	108c08 <alt_dma_program_DMASTP+0x68>
  108bf8:	ea000005 	b	108c14 <alt_dma_program_DMASTP+0x74>
  108bfc:	e3a03000 	mov	r3, #0
  108c00:	e54b3005 	strb	r3, [fp, #-5]
  108c04:	ea000004 	b	108c1c <alt_dma_program_DMASTP+0x7c>
  108c08:	e3a03002 	mov	r3, #2
  108c0c:	e54b3005 	strb	r3, [fp, #-5]
  108c10:	ea000001 	b	108c1c <alt_dma_program_DMASTP+0x7c>
  108c14:	e3e03008 	mvn	r3, #8
  108c18:	ea000020 	b	108ca0 <alt_dma_program_DMASTP+0x100>
  108c1c:	e55b3012 	ldrb	r3, [fp, #-18]	; 0xffffffee
  108c20:	e353001f 	cmp	r3, #31
  108c24:	9a000001 	bls	108c30 <alt_dma_program_DMASTP+0x90>
  108c28:	e3e03008 	mvn	r3, #8
  108c2c:	ea00001b 	b	108ca0 <alt_dma_program_DMASTP+0x100>
  108c30:	e51b3010 	ldr	r3, [fp, #-16]
  108c34:	e1d330b4 	ldrh	r3, [r3, #4]
  108c38:	e1a02003 	mov	r2, r3
  108c3c:	e51b3010 	ldr	r3, [fp, #-16]
  108c40:	e1d330b6 	ldrh	r3, [r3, #6]
  108c44:	e0823003 	add	r3, r2, r3
  108c48:	e2833010 	add	r3, r3, #16
  108c4c:	e51b2010 	ldr	r2, [fp, #-16]
  108c50:	e0823003 	add	r3, r2, r3
  108c54:	e50b300c 	str	r3, [fp, #-12]
  108c58:	e55b3005 	ldrb	r3, [fp, #-5]
  108c5c:	e3833029 	orr	r3, r3, #41	; 0x29
  108c60:	e6ef2073 	uxtb	r2, r3
  108c64:	e51b300c 	ldr	r3, [fp, #-12]
  108c68:	e5c32000 	strb	r2, [r3]
  108c6c:	e51b300c 	ldr	r3, [fp, #-12]
  108c70:	e2833001 	add	r3, r3, #1
  108c74:	e55b2012 	ldrb	r2, [fp, #-18]	; 0xffffffee
  108c78:	e1a02182 	lsl	r2, r2, #3
  108c7c:	e6ef2072 	uxtb	r2, r2
  108c80:	e5c32000 	strb	r2, [r3]
  108c84:	e51b3010 	ldr	r3, [fp, #-16]
  108c88:	e1d330b6 	ldrh	r3, [r3, #6]
  108c8c:	e2833002 	add	r3, r3, #2
  108c90:	e6ff2073 	uxth	r2, r3
  108c94:	e51b3010 	ldr	r3, [fp, #-16]
  108c98:	e1c320b6 	strh	r2, [r3, #6]
  108c9c:	e3a03000 	mov	r3, #0
  108ca0:	e1a00003 	mov	r0, r3
  108ca4:	e24bd000 	sub	sp, fp, #0
  108ca8:	e49db004 	pop	{fp}		; (ldr fp, [sp], #4)
  108cac:	e12fff1e 	bx	lr

00108cb0 <alt_dma_program_DMASTZ>:
  108cb0:	e52db004 	push	{fp}		; (str fp, [sp, #-4]!)
  108cb4:	e28db000 	add	fp, sp, #0
  108cb8:	e24dd014 	sub	sp, sp, #20
  108cbc:	e50b0010 	str	r0, [fp, #-16]
  108cc0:	e51b3010 	ldr	r3, [fp, #-16]
  108cc4:	e1d330b6 	ldrh	r3, [r3, #6]
  108cc8:	e2833001 	add	r3, r3, #1
  108ccc:	e3530c02 	cmp	r3, #512	; 0x200
  108cd0:	da000001 	ble	108cdc <alt_dma_program_DMASTZ+0x2c>
  108cd4:	e3e03013 	mvn	r3, #19
  108cd8:	ea000013 	b	108d2c <alt_dma_program_DMASTZ+0x7c>
  108cdc:	e51b3010 	ldr	r3, [fp, #-16]
  108ce0:	e1d330b4 	ldrh	r3, [r3, #4]
  108ce4:	e1a02003 	mov	r2, r3
  108ce8:	e51b3010 	ldr	r3, [fp, #-16]
  108cec:	e1d330b6 	ldrh	r3, [r3, #6]
  108cf0:	e0823003 	add	r3, r2, r3
  108cf4:	e2833010 	add	r3, r3, #16
  108cf8:	e51b2010 	ldr	r2, [fp, #-16]
  108cfc:	e0823003 	add	r3, r2, r3
  108d00:	e50b3008 	str	r3, [fp, #-8]
  108d04:	e51b3008 	ldr	r3, [fp, #-8]
  108d08:	e3a0200c 	mov	r2, #12
  108d0c:	e5c32000 	strb	r2, [r3]
  108d10:	e51b3010 	ldr	r3, [fp, #-16]
  108d14:	e1d330b6 	ldrh	r3, [r3, #6]
  108d18:	e2833001 	add	r3, r3, #1
  108d1c:	e6ff2073 	uxth	r2, r3
  108d20:	e51b3010 	ldr	r3, [fp, #-16]
  108d24:	e1c320b6 	strh	r2, [r3, #6]
  108d28:	e3a03000 	mov	r3, #0
  108d2c:	e1a00003 	mov	r0, r3
  108d30:	e24bd000 	sub	sp, fp, #0
  108d34:	e49db004 	pop	{fp}		; (ldr fp, [sp], #4)
  108d38:	e12fff1e 	bx	lr

00108d3c <alt_dma_program_DMAWFE>:
  108d3c:	e52db004 	push	{fp}		; (str fp, [sp, #-4]!)
  108d40:	e28db000 	add	fp, sp, #0
  108d44:	e24dd014 	sub	sp, sp, #20
  108d48:	e50b0010 	str	r0, [fp, #-16]
  108d4c:	e1a03001 	mov	r3, r1
  108d50:	e54b3011 	strb	r3, [fp, #-17]	; 0xffffffef
  108d54:	e1a03002 	mov	r3, r2
  108d58:	e54b3012 	strb	r3, [fp, #-18]	; 0xffffffee
  108d5c:	e51b3010 	ldr	r3, [fp, #-16]
  108d60:	e1d330b6 	ldrh	r3, [r3, #6]
  108d64:	e2833002 	add	r3, r3, #2
  108d68:	e3530c02 	cmp	r3, #512	; 0x200
  108d6c:	da000001 	ble	108d78 <alt_dma_program_DMAWFE+0x3c>
  108d70:	e3e03013 	mvn	r3, #19
  108d74:	ea00002b 	b	108e28 <alt_dma_program_DMAWFE+0xec>
  108d78:	e55b3011 	ldrb	r3, [fp, #-17]	; 0xffffffef
  108d7c:	e2833000 	add	r3, r3, #0
  108d80:	e3530008 	cmp	r3, #8
  108d84:	9a000001 	bls	108d90 <alt_dma_program_DMAWFE+0x54>
  108d88:	e3e03008 	mvn	r3, #8
  108d8c:	ea000025 	b	108e28 <alt_dma_program_DMAWFE+0xec>
  108d90:	e1a00000 	nop			; (mov r0, r0)
  108d94:	e3a03000 	mov	r3, #0
  108d98:	e54b3005 	strb	r3, [fp, #-5]
  108d9c:	e55b3012 	ldrb	r3, [fp, #-18]	; 0xffffffee
  108da0:	e3530000 	cmp	r3, #0
  108da4:	0a000001 	beq	108db0 <alt_dma_program_DMAWFE+0x74>
  108da8:	e3a03002 	mov	r3, #2
  108dac:	e54b3005 	strb	r3, [fp, #-5]
  108db0:	e51b3010 	ldr	r3, [fp, #-16]
  108db4:	e1d330b4 	ldrh	r3, [r3, #4]
  108db8:	e1a02003 	mov	r2, r3
  108dbc:	e51b3010 	ldr	r3, [fp, #-16]
  108dc0:	e1d330b6 	ldrh	r3, [r3, #6]
  108dc4:	e0823003 	add	r3, r2, r3
  108dc8:	e2833010 	add	r3, r3, #16
  108dcc:	e51b2010 	ldr	r2, [fp, #-16]
  108dd0:	e0823003 	add	r3, r2, r3
  108dd4:	e50b300c 	str	r3, [fp, #-12]
  108dd8:	e51b300c 	ldr	r3, [fp, #-12]
  108ddc:	e3a02036 	mov	r2, #54	; 0x36
  108de0:	e5c32000 	strb	r2, [r3]
  108de4:	e51b300c 	ldr	r3, [fp, #-12]
  108de8:	e2833001 	add	r3, r3, #1
  108dec:	e55b2011 	ldrb	r2, [fp, #-17]	; 0xffffffef
  108df0:	e1a02182 	lsl	r2, r2, #3
  108df4:	e6ef1072 	uxtb	r1, r2
  108df8:	e55b2005 	ldrb	r2, [fp, #-5]
  108dfc:	e1812002 	orr	r2, r1, r2
  108e00:	e6ef2072 	uxtb	r2, r2
  108e04:	e6ef2072 	uxtb	r2, r2
  108e08:	e5c32000 	strb	r2, [r3]
  108e0c:	e51b3010 	ldr	r3, [fp, #-16]
  108e10:	e1d330b6 	ldrh	r3, [r3, #6]
  108e14:	e2833002 	add	r3, r3, #2
  108e18:	e6ff2073 	uxth	r2, r3
  108e1c:	e51b3010 	ldr	r3, [fp, #-16]
  108e20:	e1c320b6 	strh	r2, [r3, #6]
  108e24:	e3a03000 	mov	r3, #0
  108e28:	e1a00003 	mov	r0, r3
  108e2c:	e24bd000 	sub	sp, fp, #0
  108e30:	e49db004 	pop	{fp}		; (ldr fp, [sp], #4)
  108e34:	e12fff1e 	bx	lr

00108e38 <alt_dma_program_DMAWFP>:
  108e38:	e52db004 	push	{fp}		; (str fp, [sp, #-4]!)
  108e3c:	e28db000 	add	fp, sp, #0
  108e40:	e24dd014 	sub	sp, sp, #20
  108e44:	e50b0010 	str	r0, [fp, #-16]
  108e48:	e1a03001 	mov	r3, r1
  108e4c:	e54b3011 	strb	r3, [fp, #-17]	; 0xffffffef
  108e50:	e1a03002 	mov	r3, r2
  108e54:	e54b3012 	strb	r3, [fp, #-18]	; 0xffffffee
  108e58:	e51b3010 	ldr	r3, [fp, #-16]
  108e5c:	e1d330b6 	ldrh	r3, [r3, #6]
  108e60:	e2833002 	add	r3, r3, #2
  108e64:	e3530c02 	cmp	r3, #512	; 0x200
  108e68:	da000001 	ble	108e74 <alt_dma_program_DMAWFP+0x3c>
  108e6c:	e3e03013 	mvn	r3, #19
  108e70:	ea000034 	b	108f48 <alt_dma_program_DMAWFP+0x110>
  108e74:	e55b3011 	ldrb	r3, [fp, #-17]	; 0xffffffef
  108e78:	e353001f 	cmp	r3, #31
  108e7c:	9a000001 	bls	108e88 <alt_dma_program_DMAWFP+0x50>
  108e80:	e3e03008 	mvn	r3, #8
  108e84:	ea00002f 	b	108f48 <alt_dma_program_DMAWFP+0x110>
  108e88:	e3a03000 	mov	r3, #0
  108e8c:	e54b3005 	strb	r3, [fp, #-5]
  108e90:	e55b3012 	ldrb	r3, [fp, #-18]	; 0xffffffee
  108e94:	e3530002 	cmp	r3, #2
  108e98:	0a000006 	beq	108eb8 <alt_dma_program_DMAWFP+0x80>
  108e9c:	e3530003 	cmp	r3, #3
  108ea0:	0a000007 	beq	108ec4 <alt_dma_program_DMAWFP+0x8c>
  108ea4:	e3530001 	cmp	r3, #1
  108ea8:	1a000008 	bne	108ed0 <alt_dma_program_DMAWFP+0x98>
  108eac:	e3a03000 	mov	r3, #0
  108eb0:	e54b3005 	strb	r3, [fp, #-5]
  108eb4:	ea000007 	b	108ed8 <alt_dma_program_DMAWFP+0xa0>
  108eb8:	e3a03002 	mov	r3, #2
  108ebc:	e54b3005 	strb	r3, [fp, #-5]
  108ec0:	ea000004 	b	108ed8 <alt_dma_program_DMAWFP+0xa0>
  108ec4:	e3a03001 	mov	r3, #1
  108ec8:	e54b3005 	strb	r3, [fp, #-5]
  108ecc:	ea000001 	b	108ed8 <alt_dma_program_DMAWFP+0xa0>
  108ed0:	e3e03008 	mvn	r3, #8
  108ed4:	ea00001b 	b	108f48 <alt_dma_program_DMAWFP+0x110>
  108ed8:	e51b3010 	ldr	r3, [fp, #-16]
  108edc:	e1d330b4 	ldrh	r3, [r3, #4]
  108ee0:	e1a02003 	mov	r2, r3
  108ee4:	e51b3010 	ldr	r3, [fp, #-16]
  108ee8:	e1d330b6 	ldrh	r3, [r3, #6]
  108eec:	e0823003 	add	r3, r2, r3
  108ef0:	e2833010 	add	r3, r3, #16
  108ef4:	e51b2010 	ldr	r2, [fp, #-16]
  108ef8:	e0823003 	add	r3, r2, r3
  108efc:	e50b300c 	str	r3, [fp, #-12]
  108f00:	e55b3005 	ldrb	r3, [fp, #-5]
  108f04:	e3833030 	orr	r3, r3, #48	; 0x30
  108f08:	e6ef2073 	uxtb	r2, r3
  108f0c:	e51b300c 	ldr	r3, [fp, #-12]
  108f10:	e5c32000 	strb	r2, [r3]
  108f14:	e51b300c 	ldr	r3, [fp, #-12]
  108f18:	e2833001 	add	r3, r3, #1
  108f1c:	e55b2011 	ldrb	r2, [fp, #-17]	; 0xffffffef
  108f20:	e1a02182 	lsl	r2, r2, #3
  108f24:	e6ef2072 	uxtb	r2, r2
  108f28:	e5c32000 	strb	r2, [r3]
  108f2c:	e51b3010 	ldr	r3, [fp, #-16]
  108f30:	e1d330b6 	ldrh	r3, [r3, #6]
  108f34:	e2833002 	add	r3, r3, #2
  108f38:	e6ff2073 	uxth	r2, r3
  108f3c:	e51b3010 	ldr	r3, [fp, #-16]
  108f40:	e1c320b6 	strh	r2, [r3, #6]
  108f44:	e3a03000 	mov	r3, #0
  108f48:	e1a00003 	mov	r0, r3
  108f4c:	e24bd000 	sub	sp, fp, #0
  108f50:	e49db004 	pop	{fp}		; (ldr fp, [sp], #4)
  108f54:	e12fff1e 	bx	lr

00108f58 <alt_dma_program_DMAWMB>:
  108f58:	e52db004 	push	{fp}		; (str fp, [sp, #-4]!)
  108f5c:	e28db000 	add	fp, sp, #0
  108f60:	e24dd014 	sub	sp, sp, #20
  108f64:	e50b0010 	str	r0, [fp, #-16]
  108f68:	e51b3010 	ldr	r3, [fp, #-16]
  108f6c:	e1d330b6 	ldrh	r3, [r3, #6]
  108f70:	e2833001 	add	r3, r3, #1
  108f74:	e3530c02 	cmp	r3, #512	; 0x200
  108f78:	da000001 	ble	108f84 <alt_dma_program_DMAWMB+0x2c>
  108f7c:	e3e03013 	mvn	r3, #19
  108f80:	ea000013 	b	108fd4 <alt_dma_program_DMAWMB+0x7c>
  108f84:	e51b3010 	ldr	r3, [fp, #-16]
  108f88:	e1d330b4 	ldrh	r3, [r3, #4]
  108f8c:	e1a02003 	mov	r2, r3
  108f90:	e51b3010 	ldr	r3, [fp, #-16]
  108f94:	e1d330b6 	ldrh	r3, [r3, #6]
  108f98:	e0823003 	add	r3, r2, r3
  108f9c:	e2833010 	add	r3, r3, #16
  108fa0:	e51b2010 	ldr	r2, [fp, #-16]
  108fa4:	e0823003 	add	r3, r2, r3
  108fa8:	e50b3008 	str	r3, [fp, #-8]
  108fac:	e51b3008 	ldr	r3, [fp, #-8]
  108fb0:	e3a02013 	mov	r2, #19
  108fb4:	e5c32000 	strb	r2, [r3]
  108fb8:	e51b3010 	ldr	r3, [fp, #-16]
  108fbc:	e1d330b6 	ldrh	r3, [r3, #6]
  108fc0:	e2833001 	add	r3, r3, #1
  108fc4:	e6ff2073 	uxth	r2, r3
  108fc8:	e51b3010 	ldr	r3, [fp, #-16]
  108fcc:	e1c320b6 	strh	r2, [r3, #6]
  108fd0:	e3a03000 	mov	r3, #0
  108fd4:	e1a00003 	mov	r0, r3
  108fd8:	e24bd000 	sub	sp, fp, #0
  108fdc:	e49db004 	pop	{fp}		; (ldr fp, [sp], #4)
  108fe0:	e12fff1e 	bx	lr

00108fe4 <ldiv>:
  108fe4:	e92d40f8 	push	{r3, r4, r5, r6, r7, lr}
  108fe8:	e1a05001 	mov	r5, r1
  108fec:	e1a06002 	mov	r6, r2
  108ff0:	e1a01002 	mov	r1, r2
  108ff4:	e1a04000 	mov	r4, r0
  108ff8:	e1a00005 	mov	r0, r5
  108ffc:	eb0023a0 	bl	111e84 <__aeabi_idiv>
  109000:	e1a01006 	mov	r1, r6
  109004:	e1a07000 	mov	r7, r0
  109008:	e1a00005 	mov	r0, r5
  10900c:	eb002424 	bl	1120a4 <__aeabi_idivmod>
  109010:	e3550000 	cmp	r5, #0
  109014:	ba000006 	blt	109034 <ldiv+0x50>
  109018:	e3510000 	cmp	r1, #0
  10901c:	b2877001 	addlt	r7, r7, #1
  109020:	b0661001 	rsblt	r1, r6, r1
  109024:	e5847000 	str	r7, [r4]
  109028:	e1a00004 	mov	r0, r4
  10902c:	e5841004 	str	r1, [r4, #4]
  109030:	e8bd80f8 	pop	{r3, r4, r5, r6, r7, pc}
  109034:	e3510000 	cmp	r1, #0
  109038:	c2477001 	subgt	r7, r7, #1
  10903c:	c0811006 	addgt	r1, r1, r6
  109040:	eafffff7 	b	109024 <ldiv+0x40>

00109044 <memcmp>:
  109044:	e3520003 	cmp	r2, #3
  109048:	e92d4010 	push	{r4, lr}
  10904c:	9a000011 	bls	109098 <memcmp+0x54>
  109050:	e1803001 	orr	r3, r0, r1
  109054:	e3130003 	tst	r3, #3
  109058:	1a000010 	bne	1090a0 <memcmp+0x5c>
  10905c:	e1a0c001 	mov	ip, r1
  109060:	e1a03000 	mov	r3, r0
  109064:	e5934000 	ldr	r4, [r3]
  109068:	e1a00003 	mov	r0, r3
  10906c:	e59ce000 	ldr	lr, [ip]
  109070:	e1a0100c 	mov	r1, ip
  109074:	e2833004 	add	r3, r3, #4
  109078:	e28cc004 	add	ip, ip, #4
  10907c:	e154000e 	cmp	r4, lr
  109080:	1a000004 	bne	109098 <memcmp+0x54>
  109084:	e2422004 	sub	r2, r2, #4
  109088:	e1a00003 	mov	r0, r3
  10908c:	e3520003 	cmp	r2, #3
  109090:	e1a0100c 	mov	r1, ip
  109094:	8afffff2 	bhi	109064 <memcmp+0x20>
  109098:	e3520000 	cmp	r2, #0
  10909c:	0a000010 	beq	1090e4 <memcmp+0xa0>
  1090a0:	e5d0c000 	ldrb	ip, [r0]
  1090a4:	e5d1e000 	ldrb	lr, [r1]
  1090a8:	e15c000e 	cmp	ip, lr
  1090ac:	00802002 	addeq	r2, r0, r2
  1090b0:	02803001 	addeq	r3, r0, #1
  1090b4:	0a000004 	beq	1090cc <memcmp+0x88>
  1090b8:	ea000007 	b	1090dc <memcmp+0x98>
  1090bc:	e4d3c001 	ldrb	ip, [r3], #1
  1090c0:	e5f1e001 	ldrb	lr, [r1, #1]!
  1090c4:	e15c000e 	cmp	ip, lr
  1090c8:	1a000003 	bne	1090dc <memcmp+0x98>
  1090cc:	e1530002 	cmp	r3, r2
  1090d0:	1afffff9 	bne	1090bc <memcmp+0x78>
  1090d4:	e3a00000 	mov	r0, #0
  1090d8:	e8bd8010 	pop	{r4, pc}
  1090dc:	e06e000c 	rsb	r0, lr, ip
  1090e0:	e8bd8010 	pop	{r4, pc}
  1090e4:	e1a00002 	mov	r0, r2
  1090e8:	e8bd8010 	pop	{r4, pc}

001090ec <_printf_r>:
  1090ec:	e92d000e 	push	{r1, r2, r3}
  1090f0:	e52de004 	push	{lr}		; (str lr, [sp, #-4]!)
  1090f4:	e24dd008 	sub	sp, sp, #8
  1090f8:	e28dc010 	add	ip, sp, #16
  1090fc:	e1a0300c 	mov	r3, ip
  109100:	e5901008 	ldr	r1, [r0, #8]
  109104:	e59d200c 	ldr	r2, [sp, #12]
  109108:	e58dc004 	str	ip, [sp, #4]
  10910c:	eb00009b 	bl	109380 <_vfprintf_r>
  109110:	e28dd008 	add	sp, sp, #8
  109114:	e49de004 	pop	{lr}		; (ldr lr, [sp], #4)
  109118:	e28dd00c 	add	sp, sp, #12
  10911c:	e12fff1e 	bx	lr

00109120 <printf>:
  109120:	e92d000f 	push	{r0, r1, r2, r3}
  109124:	e3022b08 	movw	r2, #11016	; 0x2b08
  109128:	e3402011 	movt	r2, #17
  10912c:	e52de004 	push	{lr}		; (str lr, [sp, #-4]!)
  109130:	e24dd00c 	sub	sp, sp, #12
  109134:	e28d1014 	add	r1, sp, #20
  109138:	e5920000 	ldr	r0, [r2]
  10913c:	e1a03001 	mov	r3, r1
  109140:	e58d1004 	str	r1, [sp, #4]
  109144:	e59d2010 	ldr	r2, [sp, #16]
  109148:	e5901008 	ldr	r1, [r0, #8]
  10914c:	eb00008b 	bl	109380 <_vfprintf_r>
  109150:	e28dd00c 	add	sp, sp, #12
  109154:	e49de004 	pop	{lr}		; (ldr lr, [sp], #4)
  109158:	e28dd010 	add	sp, sp, #16
  10915c:	e12fff1e 	bx	lr

00109160 <_puts_r>:
  109160:	e92d40f0 	push	{r4, r5, r6, r7, lr}
  109164:	e1a04000 	mov	r4, r0
  109168:	e24dd024 	sub	sp, sp, #36	; 0x24
  10916c:	e1a00001 	mov	r0, r1
  109170:	e1a05001 	mov	r5, r1
  109174:	e3a06001 	mov	r6, #1
  109178:	fa000040 	blx	109280 <strlen>
  10917c:	e5943008 	ldr	r3, [r4, #8]
  109180:	e30228c4 	movw	r2, #10436	; 0x28c4
  109184:	e3402011 	movt	r2, #17
  109188:	e3a01002 	mov	r1, #2
  10918c:	e58d2018 	str	r2, [sp, #24]
  109190:	e2807001 	add	r7, r0, #1
  109194:	e1d3c0bc 	ldrh	ip, [r3, #12]
  109198:	e28de010 	add	lr, sp, #16
  10919c:	e58d0014 	str	r0, [sp, #20]
  1091a0:	e1a00004 	mov	r0, r4
  1091a4:	e58d601c 	str	r6, [sp, #28]
  1091a8:	e31c0a02 	tst	ip, #8192	; 0x2000
  1091ac:	e58d1008 	str	r1, [sp, #8]
  1091b0:	05932064 	ldreq	r2, [r3, #100]	; 0x64
  1091b4:	038cca02 	orreq	ip, ip, #8192	; 0x2000
  1091b8:	01c3c0bc 	strheq	ip, [r3, #12]
  1091bc:	e1a01003 	mov	r1, r3
  1091c0:	e58d5010 	str	r5, [sp, #16]
  1091c4:	03c22a02 	biceq	r2, r2, #8192	; 0x2000
  1091c8:	e58d700c 	str	r7, [sp, #12]
  1091cc:	05832064 	streq	r2, [r3, #100]	; 0x64
  1091d0:	e28d2004 	add	r2, sp, #4
  1091d4:	e58de004 	str	lr, [sp, #4]
  1091d8:	eb00102d 	bl	10d294 <__sfvwrite_r>
  1091dc:	e3500000 	cmp	r0, #0
  1091e0:	13e00000 	mvnne	r0, #0
  1091e4:	03a0000a 	moveq	r0, #10
  1091e8:	e28dd024 	add	sp, sp, #36	; 0x24
  1091ec:	e8bd80f0 	pop	{r4, r5, r6, r7, pc}

001091f0 <puts>:
  1091f0:	e3023b08 	movw	r3, #11016	; 0x2b08
  1091f4:	e1a01000 	mov	r1, r0
  1091f8:	e3403011 	movt	r3, #17
  1091fc:	e5930000 	ldr	r0, [r3]
  109200:	eaffffd6 	b	109160 <_puts_r>

00109204 <srand>:
  109204:	e3023b08 	movw	r3, #11016	; 0x2b08
  109208:	e3a02000 	mov	r2, #0
  10920c:	e3403011 	movt	r3, #17
  109210:	e5933000 	ldr	r3, [r3]
  109214:	e58300a8 	str	r0, [r3, #168]	; 0xa8
  109218:	e58320ac 	str	r2, [r3, #172]	; 0xac
  10921c:	e12fff1e 	bx	lr

00109220 <rand>:
  109220:	e3022b08 	movw	r2, #11016	; 0x2b08
  109224:	e52de004 	push	{lr}		; (str lr, [sp, #-4]!)
  109228:	e3402011 	movt	r2, #17
  10922c:	e30f342d 	movw	r3, #62509	; 0xf42d
  109230:	e3453851 	movt	r3, #22609	; 0x5851
  109234:	e307ef2d 	movw	lr, #32557	; 0x7f2d
  109238:	e5920000 	ldr	r0, [r2]
  10923c:	e344ec95 	movt	lr, #19605	; 0x4c95
  109240:	e59020a8 	ldr	r2, [r0, #168]	; 0xa8
  109244:	e590c0ac 	ldr	ip, [r0, #172]	; 0xac
  109248:	e0010293 	mul	r1, r3, r2
  10924c:	e0832e92 	umull	r2, r3, r2, lr
  109250:	e0211c9e 	mla	r1, lr, ip, r1
  109254:	e2922001 	adds	r2, r2, #1
  109258:	e0813003 	add	r3, r1, r3
  10925c:	e2a33000 	adc	r3, r3, #0
  109260:	e1c02af8 	strd	r2, [r0, #168]	; 0xa8
  109264:	e3c30102 	bic	r0, r3, #-2147483648	; 0x80000000
  109268:	e49df004 	pop	{pc}		; (ldr pc, [sp], #4)
	...

00109280 <strlen>:
  109280:	f890 f000 	pld	[r0]
  109284:	e96d 4502 	strd	r4, r5, [sp, #-8]!
  109288:	f020 0107 	bic.w	r1, r0, #7
  10928c:	f06f 0c00 	mvn.w	ip, #0
  109290:	f010 0407 	ands.w	r4, r0, #7
  109294:	f891 f020 	pld	[r1, #32]
  109298:	f040 8049 	bne.w	10932e <strlen+0xae>
  10929c:	f04f 0400 	mov.w	r4, #0
  1092a0:	f06f 0007 	mvn.w	r0, #7
  1092a4:	e9d1 2300 	ldrd	r2, r3, [r1]
  1092a8:	f891 f040 	pld	[r1, #64]	; 0x40
  1092ac:	f100 0008 	add.w	r0, r0, #8
  1092b0:	fa82 f24c 	uadd8	r2, r2, ip
  1092b4:	faa4 f28c 	sel	r2, r4, ip
  1092b8:	fa83 f34c 	uadd8	r3, r3, ip
  1092bc:	faa2 f38c 	sel	r3, r2, ip
  1092c0:	bb4b      	cbnz	r3, 109316 <strlen+0x96>
  1092c2:	e9d1 2302 	ldrd	r2, r3, [r1, #8]
  1092c6:	fa82 f24c 	uadd8	r2, r2, ip
  1092ca:	f100 0008 	add.w	r0, r0, #8
  1092ce:	faa4 f28c 	sel	r2, r4, ip
  1092d2:	fa83 f34c 	uadd8	r3, r3, ip
  1092d6:	faa2 f38c 	sel	r3, r2, ip
  1092da:	b9e3      	cbnz	r3, 109316 <strlen+0x96>
  1092dc:	e9d1 2304 	ldrd	r2, r3, [r1, #16]
  1092e0:	fa82 f24c 	uadd8	r2, r2, ip
  1092e4:	f100 0008 	add.w	r0, r0, #8
  1092e8:	faa4 f28c 	sel	r2, r4, ip
  1092ec:	fa83 f34c 	uadd8	r3, r3, ip
  1092f0:	faa2 f38c 	sel	r3, r2, ip
  1092f4:	b97b      	cbnz	r3, 109316 <strlen+0x96>
  1092f6:	e9d1 2306 	ldrd	r2, r3, [r1, #24]
  1092fa:	f101 0120 	add.w	r1, r1, #32
  1092fe:	fa82 f24c 	uadd8	r2, r2, ip
  109302:	f100 0008 	add.w	r0, r0, #8
  109306:	faa4 f28c 	sel	r2, r4, ip
  10930a:	fa83 f34c 	uadd8	r3, r3, ip
  10930e:	faa2 f38c 	sel	r3, r2, ip
  109312:	2b00      	cmp	r3, #0
  109314:	d0c6      	beq.n	1092a4 <strlen+0x24>
  109316:	2a00      	cmp	r2, #0
  109318:	bf04      	itt	eq
  10931a:	3004      	addeq	r0, #4
  10931c:	461a      	moveq	r2, r3
  10931e:	ba12      	rev	r2, r2
  109320:	fab2 f282 	clz	r2, r2
  109324:	e8fd 4502 	ldrd	r4, r5, [sp], #8
  109328:	eb00 00d2 	add.w	r0, r0, r2, lsr #3
  10932c:	4770      	bx	lr
  10932e:	e9d1 2300 	ldrd	r2, r3, [r1]
  109332:	f004 0503 	and.w	r5, r4, #3
  109336:	f1c4 0000 	rsb	r0, r4, #0
  10933a:	ea4f 05c5 	mov.w	r5, r5, lsl #3
  10933e:	f014 0f04 	tst.w	r4, #4
  109342:	f891 f040 	pld	[r1, #64]	; 0x40
  109346:	fa0c f505 	lsl.w	r5, ip, r5
  10934a:	ea62 0205 	orn	r2, r2, r5
  10934e:	bf1c      	itt	ne
  109350:	ea63 0305 	ornne	r3, r3, r5
  109354:	4662      	movne	r2, ip
  109356:	f04f 0400 	mov.w	r4, #0
  10935a:	e7a9      	b.n	1092b0 <strlen+0x30>
  10935c:	f3af 8000 	nop.w
  109360:	f3af 8000 	nop.w
  109364:	f3af 8000 	nop.w
  109368:	f3af 8000 	nop.w
  10936c:	f3af 8000 	nop.w
  109370:	f3af 8000 	nop.w
  109374:	f3af 8000 	nop.w
  109378:	f3af 8000 	nop.w
  10937c:	f3af 8000 	nop.w

00109380 <_vfprintf_r>:
  109380:	e92d4ff0 	push	{r4, r5, r6, r7, r8, r9, sl, fp, lr}
  109384:	e1a04003 	mov	r4, r3
  109388:	ed2d8b04 	vpush	{d8-d9}
  10938c:	e24ddf43 	sub	sp, sp, #268	; 0x10c
  109390:	e1a0b001 	mov	fp, r1
  109394:	e1a05000 	mov	r5, r0
  109398:	e58d2024 	str	r2, [sp, #36]	; 0x24
  10939c:	e58d0028 	str	r0, [sp, #40]	; 0x28
  1093a0:	eb00114e 	bl	10d8e0 <_localeconv_r>
  1093a4:	e5903000 	ldr	r3, [r0]
  1093a8:	e58d4034 	str	r4, [sp, #52]	; 0x34
  1093ac:	e1a00003 	mov	r0, r3
  1093b0:	e58d3054 	str	r3, [sp, #84]	; 0x54
  1093b4:	faffffb1 	blx	109280 <strlen>
  1093b8:	e3550000 	cmp	r5, #0
  1093bc:	e58d0058 	str	r0, [sp, #88]	; 0x58
  1093c0:	0a000002 	beq	1093d0 <_vfprintf_r+0x50>
  1093c4:	e5953038 	ldr	r3, [r5, #56]	; 0x38
  1093c8:	e3530000 	cmp	r3, #0
  1093cc:	0a0000d0 	beq	109714 <_vfprintf_r+0x394>
  1093d0:	e1db30bc 	ldrh	r3, [fp, #12]
  1093d4:	e6ff2073 	uxth	r2, r3
  1093d8:	e3120a02 	tst	r2, #8192	; 0x2000
  1093dc:	1a000005 	bne	1093f8 <_vfprintf_r+0x78>
  1093e0:	e59b1064 	ldr	r1, [fp, #100]	; 0x64
  1093e4:	e3833a02 	orr	r3, r3, #8192	; 0x2000
  1093e8:	e6ff2073 	uxth	r2, r3
  1093ec:	e1cb30bc 	strh	r3, [fp, #12]
  1093f0:	e3c13a02 	bic	r3, r1, #8192	; 0x2000
  1093f4:	e58b3064 	str	r3, [fp, #100]	; 0x64
  1093f8:	e3120008 	tst	r2, #8
  1093fc:	0a000099 	beq	109668 <_vfprintf_r+0x2e8>
  109400:	e59b3010 	ldr	r3, [fp, #16]
  109404:	e3530000 	cmp	r3, #0
  109408:	0a000096 	beq	109668 <_vfprintf_r+0x2e8>
  10940c:	e202201a 	and	r2, r2, #26
  109410:	e352000a 	cmp	r2, #10
  109414:	0a0000b3 	beq	1096e8 <_vfprintf_r+0x368>
  109418:	ed9f8bee 	vldr	d8, [pc, #952]	; 1097d8 <_vfprintf_r+0x458>
  10941c:	e28d80c8 	add	r8, sp, #200	; 0xc8
  109420:	e30218c8 	movw	r1, #10440	; 0x28c8
  109424:	e3060667 	movw	r0, #26215	; 0x6667
  109428:	e1a09008 	mov	r9, r8
  10942c:	e3a03000 	mov	r3, #0
  109430:	e3401011 	movt	r1, #17
  109434:	e3460666 	movt	r0, #26214	; 0x6666
  109438:	e58d304c 	str	r3, [sp, #76]	; 0x4c
  10943c:	e58d305c 	str	r3, [sp, #92]	; 0x5c
  109440:	e58d3068 	str	r3, [sp, #104]	; 0x68
  109444:	e58d302c 	str	r3, [sp, #44]	; 0x2c
  109448:	e58d1050 	str	r1, [sp, #80]	; 0x50
  10944c:	e58d006c 	str	r0, [sp, #108]	; 0x6c
  109450:	e58d309c 	str	r3, [sp, #156]	; 0x9c
  109454:	e58d3098 	str	r3, [sp, #152]	; 0x98
  109458:	e58d8094 	str	r8, [sp, #148]	; 0x94
  10945c:	e59d4024 	ldr	r4, [sp, #36]	; 0x24
  109460:	e5d43000 	ldrb	r3, [r4]
  109464:	e3530025 	cmp	r3, #37	; 0x25
  109468:	13530000 	cmpne	r3, #0
  10946c:	0a0000ab 	beq	109720 <_vfprintf_r+0x3a0>
  109470:	e5f43001 	ldrb	r3, [r4, #1]!
  109474:	e3530025 	cmp	r3, #37	; 0x25
  109478:	13530000 	cmpne	r3, #0
  10947c:	1afffffb 	bne	109470 <_vfprintf_r+0xf0>
  109480:	e59d1024 	ldr	r1, [sp, #36]	; 0x24
  109484:	e0545001 	subs	r5, r4, r1
  109488:	0a00000d 	beq	1094c4 <_vfprintf_r+0x144>
  10948c:	e59d3098 	ldr	r3, [sp, #152]	; 0x98
  109490:	e59d209c 	ldr	r2, [sp, #156]	; 0x9c
  109494:	e5891000 	str	r1, [r9]
  109498:	e2833001 	add	r3, r3, #1
  10949c:	e5895004 	str	r5, [r9, #4]
  1094a0:	e3530007 	cmp	r3, #7
  1094a4:	e0822005 	add	r2, r2, r5
  1094a8:	e58d3098 	str	r3, [sp, #152]	; 0x98
  1094ac:	d2899008 	addle	r9, r9, #8
  1094b0:	e58d209c 	str	r2, [sp, #156]	; 0x9c
  1094b4:	ca000075 	bgt	109690 <_vfprintf_r+0x310>
  1094b8:	e59d302c 	ldr	r3, [sp, #44]	; 0x2c
  1094bc:	e0833005 	add	r3, r3, r5
  1094c0:	e58d302c 	str	r3, [sp, #44]	; 0x2c
  1094c4:	e5d43000 	ldrb	r3, [r4]
  1094c8:	e3530000 	cmp	r3, #0
  1094cc:	0a000077 	beq	1096b0 <_vfprintf_r+0x330>
  1094d0:	e5d46001 	ldrb	r6, [r4, #1]
  1094d4:	e3a01000 	mov	r1, #0
  1094d8:	e2843001 	add	r3, r4, #1
  1094dc:	e1a02001 	mov	r2, r1
  1094e0:	e5cd1077 	strb	r1, [sp, #119]	; 0x77
  1094e4:	e58d1030 	str	r1, [sp, #48]	; 0x30
  1094e8:	e58d101c 	str	r1, [sp, #28]
  1094ec:	e3e07000 	mvn	r7, #0
  1094f0:	e2831001 	add	r1, r3, #1
  1094f4:	e2463020 	sub	r3, r6, #32
  1094f8:	e3530058 	cmp	r3, #88	; 0x58
  1094fc:	979ff103 	ldrls	pc, [pc, r3, lsl #2]
  109500:	ea00026e 	b	109ec0 <_vfprintf_r+0xb40>
  109504:	00109a90 	.word	0x00109a90
  109508:	00109ec0 	.word	0x00109ec0
  10950c:	00109ec0 	.word	0x00109ec0
  109510:	00109aa4 	.word	0x00109aa4
  109514:	00109ec0 	.word	0x00109ec0
  109518:	00109ec0 	.word	0x00109ec0
  10951c:	00109ec0 	.word	0x00109ec0
  109520:	00109ec0 	.word	0x00109ec0
  109524:	00109ec0 	.word	0x00109ec0
  109528:	00109ec0 	.word	0x00109ec0
  10952c:	00109abc 	.word	0x00109abc
  109530:	00109ae4 	.word	0x00109ae4
  109534:	00109ec0 	.word	0x00109ec0
  109538:	00109968 	.word	0x00109968
  10953c:	00109d68 	.word	0x00109d68
  109540:	00109ec0 	.word	0x00109ec0
  109544:	00109af4 	.word	0x00109af4
  109548:	00109b0c 	.word	0x00109b0c
  10954c:	00109b0c 	.word	0x00109b0c
  109550:	00109b0c 	.word	0x00109b0c
  109554:	00109b0c 	.word	0x00109b0c
  109558:	00109b0c 	.word	0x00109b0c
  10955c:	00109b0c 	.word	0x00109b0c
  109560:	00109b0c 	.word	0x00109b0c
  109564:	00109b0c 	.word	0x00109b0c
  109568:	00109b0c 	.word	0x00109b0c
  10956c:	00109ec0 	.word	0x00109ec0
  109570:	00109ec0 	.word	0x00109ec0
  109574:	00109ec0 	.word	0x00109ec0
  109578:	00109ec0 	.word	0x00109ec0
  10957c:	00109ec0 	.word	0x00109ec0
  109580:	00109ec0 	.word	0x00109ec0
  109584:	00109ec0 	.word	0x00109ec0
  109588:	00109ec0 	.word	0x00109ec0
  10958c:	00109ec0 	.word	0x00109ec0
  109590:	00109ec0 	.word	0x00109ec0
  109594:	00109b98 	.word	0x00109b98
  109598:	00109bf4 	.word	0x00109bf4
  10959c:	00109ec0 	.word	0x00109ec0
  1095a0:	00109bf4 	.word	0x00109bf4
  1095a4:	00109ec0 	.word	0x00109ec0
  1095a8:	00109ec0 	.word	0x00109ec0
  1095ac:	00109ec0 	.word	0x00109ec0
  1095b0:	00109ec0 	.word	0x00109ec0
  1095b4:	00109c94 	.word	0x00109c94
  1095b8:	00109ec0 	.word	0x00109ec0
  1095bc:	00109ec0 	.word	0x00109ec0
  1095c0:	00109db0 	.word	0x00109db0
  1095c4:	00109ec0 	.word	0x00109ec0
  1095c8:	00109ec0 	.word	0x00109ec0
  1095cc:	00109ec0 	.word	0x00109ec0
  1095d0:	00109ec0 	.word	0x00109ec0
  1095d4:	00109ec0 	.word	0x00109ec0
  1095d8:	00109e7c 	.word	0x00109e7c
  1095dc:	00109ec0 	.word	0x00109ec0
  1095e0:	00109ec0 	.word	0x00109ec0
  1095e4:	00109df4 	.word	0x00109df4
  1095e8:	00109ec0 	.word	0x00109ec0
  1095ec:	00109ec0 	.word	0x00109ec0
  1095f0:	00109ec0 	.word	0x00109ec0
  1095f4:	00109ec0 	.word	0x00109ec0
  1095f8:	00109ec0 	.word	0x00109ec0
  1095fc:	00109ec0 	.word	0x00109ec0
  109600:	00109ec0 	.word	0x00109ec0
  109604:	00109ec0 	.word	0x00109ec0
  109608:	00109ec0 	.word	0x00109ec0
  10960c:	00109ec0 	.word	0x00109ec0
  109610:	00109e38 	.word	0x00109e38
  109614:	00109cac 	.word	0x00109cac
  109618:	00109bf4 	.word	0x00109bf4
  10961c:	00109bf4 	.word	0x00109bf4
  109620:	00109bf4 	.word	0x00109bf4
  109624:	00109cec 	.word	0x00109cec
  109628:	00109cac 	.word	0x00109cac
  10962c:	00109ec0 	.word	0x00109ec0
  109630:	00109ec0 	.word	0x00109ec0
  109634:	00109d04 	.word	0x00109d04
  109638:	00109ec0 	.word	0x00109ec0
  10963c:	00109d30 	.word	0x00109d30
  109640:	00109980 	.word	0x00109980
  109644:	00109b38 	.word	0x00109b38
  109648:	00109b80 	.word	0x00109b80
  10964c:	00109ec0 	.word	0x00109ec0
  109650:	001099b0 	.word	0x001099b0
  109654:	00109ec0 	.word	0x00109ec0
  109658:	00109728 	.word	0x00109728
  10965c:	00109ec0 	.word	0x00109ec0
  109660:	00109ec0 	.word	0x00109ec0
  109664:	00109a24 	.word	0x00109a24
  109668:	e59d0028 	ldr	r0, [sp, #40]	; 0x28
  10966c:	e1a0100b 	mov	r1, fp
  109670:	eb000732 	bl	10b340 <__swsetup_r>
  109674:	e3500000 	cmp	r0, #0
  109678:	01db20bc 	ldrheq	r2, [fp, #12]
  10967c:	0affff62 	beq	10940c <_vfprintf_r+0x8c>
  109680:	e3e00000 	mvn	r0, #0
  109684:	e28ddf43 	add	sp, sp, #268	; 0x10c
  109688:	ecbd8b04 	vpop	{d8-d9}
  10968c:	e8bd8ff0 	pop	{r4, r5, r6, r7, r8, r9, sl, fp, pc}
  109690:	e59d0028 	ldr	r0, [sp, #40]	; 0x28
  109694:	e1a0100b 	mov	r1, fp
  109698:	e28d2094 	add	r2, sp, #148	; 0x94
  10969c:	eb001a98 	bl	110104 <__sprint_r>
  1096a0:	e3500000 	cmp	r0, #0
  1096a4:	1a000008 	bne	1096cc <_vfprintf_r+0x34c>
  1096a8:	e1a09008 	mov	r9, r8
  1096ac:	eaffff81 	b	1094b8 <_vfprintf_r+0x138>
  1096b0:	e59d309c 	ldr	r3, [sp, #156]	; 0x9c
  1096b4:	e3530000 	cmp	r3, #0
  1096b8:	0a000003 	beq	1096cc <_vfprintf_r+0x34c>
  1096bc:	e59d0028 	ldr	r0, [sp, #40]	; 0x28
  1096c0:	e1a0100b 	mov	r1, fp
  1096c4:	e28d2094 	add	r2, sp, #148	; 0x94
  1096c8:	eb001a8d 	bl	110104 <__sprint_r>
  1096cc:	e1db30bc 	ldrh	r3, [fp, #12]
  1096d0:	e3130040 	tst	r3, #64	; 0x40
  1096d4:	1affffe9 	bne	109680 <_vfprintf_r+0x300>
  1096d8:	e59d002c 	ldr	r0, [sp, #44]	; 0x2c
  1096dc:	e28ddf43 	add	sp, sp, #268	; 0x10c
  1096e0:	ecbd8b04 	vpop	{d8-d9}
  1096e4:	e8bd8ff0 	pop	{r4, r5, r6, r7, r8, r9, sl, fp, pc}
  1096e8:	e1db30fe 	ldrsh	r3, [fp, #14]
  1096ec:	e3530000 	cmp	r3, #0
  1096f0:	baffff48 	blt	109418 <_vfprintf_r+0x98>
  1096f4:	e59d0028 	ldr	r0, [sp, #40]	; 0x28
  1096f8:	e1a0100b 	mov	r1, fp
  1096fc:	e59d2024 	ldr	r2, [sp, #36]	; 0x24
  109700:	e1a03004 	mov	r3, r4
  109704:	eb0006e3 	bl	10b298 <__sbprintf>
  109708:	e28ddf43 	add	sp, sp, #268	; 0x10c
  10970c:	ecbd8b04 	vpop	{d8-d9}
  109710:	e8bd8ff0 	pop	{r4, r5, r6, r7, r8, r9, sl, fp, pc}
  109714:	e59d0028 	ldr	r0, [sp, #40]	; 0x28
  109718:	eb000dde 	bl	10ce98 <__sinit>
  10971c:	eaffff2b 	b	1093d0 <_vfprintf_r+0x50>
  109720:	e59d4024 	ldr	r4, [sp, #36]	; 0x24
  109724:	eaffff66 	b	1094c4 <_vfprintf_r+0x144>
  109728:	e59d301c 	ldr	r3, [sp, #28]
  10972c:	e58d1024 	str	r1, [sp, #36]	; 0x24
  109730:	e3130020 	tst	r3, #32
  109734:	0a0001d7 	beq	109e98 <_vfprintf_r+0xb18>
  109738:	e59d3034 	ldr	r3, [sp, #52]	; 0x34
  10973c:	e3a02001 	mov	r2, #1
  109740:	e2833007 	add	r3, r3, #7
  109744:	e3c33007 	bic	r3, r3, #7
  109748:	e1c340d0 	ldrd	r4, [r3]
  10974c:	e2831008 	add	r1, r3, #8
  109750:	e58d1034 	str	r1, [sp, #52]	; 0x34
  109754:	e3a03000 	mov	r3, #0
  109758:	e58d7044 	str	r7, [sp, #68]	; 0x44
  10975c:	e1a0a003 	mov	sl, r3
  109760:	e5cd3077 	strb	r3, [sp, #119]	; 0x77
  109764:	e3570000 	cmp	r7, #0
  109768:	a59d301c 	ldrge	r3, [sp, #28]
  10976c:	a3c33080 	bicge	r3, r3, #128	; 0x80
  109770:	a58d301c 	strge	r3, [sp, #28]
  109774:	e1943005 	orrs	r3, r4, r5
  109778:	13a03001 	movne	r3, #1
  10977c:	03a03000 	moveq	r3, #0
  109780:	e3570000 	cmp	r7, #0
  109784:	13833001 	orrne	r3, r3, #1
  109788:	e3530000 	cmp	r3, #0
  10978c:	0a0002d5 	beq	10a2e8 <_vfprintf_r+0xf68>
  109790:	e3520001 	cmp	r2, #1
  109794:	0a0003ac 	beq	10a64c <_vfprintf_r+0x12cc>
  109798:	e3520002 	cmp	r2, #2
  10979c:	e1a02008 	mov	r2, r8
  1097a0:	1a00000f 	bne	1097e4 <_vfprintf_r+0x464>
  1097a4:	e59d105c 	ldr	r1, [sp, #92]	; 0x5c
  1097a8:	e204300f 	and	r3, r4, #15
  1097ac:	e1a04224 	lsr	r4, r4, #4
  1097b0:	e7d13003 	ldrb	r3, [r1, r3]
  1097b4:	e1844e05 	orr	r4, r4, r5, lsl #28
  1097b8:	e1a05225 	lsr	r5, r5, #4
  1097bc:	e1940005 	orrs	r0, r4, r5
  1097c0:	e5623001 	strb	r3, [r2, #-1]!
  1097c4:	1afffff7 	bne	1097a8 <_vfprintf_r+0x428>
  1097c8:	e1a03002 	mov	r3, r2
  1097cc:	e58d2040 	str	r2, [sp, #64]	; 0x40
  1097d0:	e0635008 	rsb	r5, r3, r8
  1097d4:	ea000019 	b	109840 <_vfprintf_r+0x4c0>
	...
  1097e0:	001128d8 	.word	0x001128d8
  1097e4:	e2043007 	and	r3, r4, #7
  1097e8:	e1a041a4 	lsr	r4, r4, #3
  1097ec:	e2833030 	add	r3, r3, #48	; 0x30
  1097f0:	e1844e85 	orr	r4, r4, r5, lsl #29
  1097f4:	e1a051a5 	lsr	r5, r5, #3
  1097f8:	e5623001 	strb	r3, [r2, #-1]!
  1097fc:	e1941005 	orrs	r1, r4, r5
  109800:	1afffff7 	bne	1097e4 <_vfprintf_r+0x464>
  109804:	e59d101c 	ldr	r1, [sp, #28]
  109808:	e58d2040 	str	r2, [sp, #64]	; 0x40
  10980c:	e3110001 	tst	r1, #1
  109810:	01a03002 	moveq	r3, r2
  109814:	00635008 	rsbeq	r5, r3, r8
  109818:	0a000008 	beq	109840 <_vfprintf_r+0x4c0>
  10981c:	e3530030 	cmp	r3, #48	; 0x30
  109820:	e59d3040 	ldr	r3, [sp, #64]	; 0x40
  109824:	0affffe9 	beq	1097d0 <_vfprintf_r+0x450>
  109828:	e2433001 	sub	r3, r3, #1
  10982c:	e1a01003 	mov	r1, r3
  109830:	e58d3040 	str	r3, [sp, #64]	; 0x40
  109834:	e0615008 	rsb	r5, r1, r8
  109838:	e3a03030 	mov	r3, #48	; 0x30
  10983c:	e5423001 	strb	r3, [r2, #-1]
  109840:	e3a03000 	mov	r3, #0
  109844:	e1550007 	cmp	r5, r7
  109848:	e58d3048 	str	r3, [sp, #72]	; 0x48
  10984c:	a1a03005 	movge	r3, r5
  109850:	b1a03007 	movlt	r3, r7
  109854:	e58d3020 	str	r3, [sp, #32]
  109858:	e35a0000 	cmp	sl, #0
  10985c:	0a000002 	beq	10986c <_vfprintf_r+0x4ec>
  109860:	e59d3020 	ldr	r3, [sp, #32]
  109864:	e2833001 	add	r3, r3, #1
  109868:	e58d3020 	str	r3, [sp, #32]
  10986c:	e59d301c 	ldr	r3, [sp, #28]
  109870:	e2133002 	ands	r3, r3, #2
  109874:	e58d3038 	str	r3, [sp, #56]	; 0x38
  109878:	159d3020 	ldrne	r3, [sp, #32]
  10987c:	12833002 	addne	r3, r3, #2
  109880:	158d3020 	strne	r3, [sp, #32]
  109884:	e59d301c 	ldr	r3, [sp, #28]
  109888:	e2133084 	ands	r3, r3, #132	; 0x84
  10988c:	e58d303c 	str	r3, [sp, #60]	; 0x3c
  109890:	1a0001a2 	bne	109f20 <_vfprintf_r+0xba0>
  109894:	e59d3030 	ldr	r3, [sp, #48]	; 0x30
  109898:	e59d2020 	ldr	r2, [sp, #32]
  10989c:	e0624003 	rsb	r4, r2, r3
  1098a0:	e3540000 	cmp	r4, #0
  1098a4:	da00019d 	ble	109f20 <_vfprintf_r+0xba0>
  1098a8:	e3540010 	cmp	r4, #16
  1098ac:	da000598 	ble	10af14 <_vfprintf_r+0x1b94>
  1098b0:	e302a8c8 	movw	sl, #10440	; 0x28c8
  1098b4:	e58d6060 	str	r6, [sp, #96]	; 0x60
  1098b8:	e58d5064 	str	r5, [sp, #100]	; 0x64
  1098bc:	e340a011 	movt	sl, #17
  1098c0:	e59d109c 	ldr	r1, [sp, #156]	; 0x9c
  1098c4:	e3a07010 	mov	r7, #16
  1098c8:	e59d2098 	ldr	r2, [sp, #152]	; 0x98
  1098cc:	e59d5028 	ldr	r5, [sp, #40]	; 0x28
  1098d0:	e59d6050 	ldr	r6, [sp, #80]	; 0x50
  1098d4:	ea000002 	b	1098e4 <_vfprintf_r+0x564>
  1098d8:	e2444010 	sub	r4, r4, #16
  1098dc:	e3540010 	cmp	r4, #16
  1098e0:	da000013 	ble	109934 <_vfprintf_r+0x5b4>
  1098e4:	e2822001 	add	r2, r2, #1
  1098e8:	e2811010 	add	r1, r1, #16
  1098ec:	e3520007 	cmp	r2, #7
  1098f0:	e88900c0 	stm	r9, {r6, r7}
  1098f4:	e58d2098 	str	r2, [sp, #152]	; 0x98
  1098f8:	d2899008 	addle	r9, r9, #8
  1098fc:	e58d109c 	str	r1, [sp, #156]	; 0x9c
  109900:	dafffff4 	ble	1098d8 <_vfprintf_r+0x558>
  109904:	e1a00005 	mov	r0, r5
  109908:	e1a0100b 	mov	r1, fp
  10990c:	e28d2094 	add	r2, sp, #148	; 0x94
  109910:	e1a09008 	mov	r9, r8
  109914:	eb0019fa 	bl	110104 <__sprint_r>
  109918:	e3500000 	cmp	r0, #0
  10991c:	1affff6a 	bne	1096cc <_vfprintf_r+0x34c>
  109920:	e2444010 	sub	r4, r4, #16
  109924:	e59d109c 	ldr	r1, [sp, #156]	; 0x9c
  109928:	e3540010 	cmp	r4, #16
  10992c:	e59d2098 	ldr	r2, [sp, #152]	; 0x98
  109930:	caffffeb 	bgt	1098e4 <_vfprintf_r+0x564>
  109934:	e59d6060 	ldr	r6, [sp, #96]	; 0x60
  109938:	e59d5064 	ldr	r5, [sp, #100]	; 0x64
  10993c:	e2822001 	add	r2, r2, #1
  109940:	e0843001 	add	r3, r4, r1
  109944:	e3520007 	cmp	r2, #7
  109948:	e58d2098 	str	r2, [sp, #152]	; 0x98
  10994c:	e58d309c 	str	r3, [sp, #156]	; 0x9c
  109950:	e589a000 	str	sl, [r9]
  109954:	e5894004 	str	r4, [r9, #4]
  109958:	ca000168 	bgt	109f00 <_vfprintf_r+0xb80>
  10995c:	e2899008 	add	r9, r9, #8
  109960:	e5dda077 	ldrb	sl, [sp, #119]	; 0x77
  109964:	ea00016e 	b	109f24 <_vfprintf_r+0xba4>
  109968:	e1a03001 	mov	r3, r1
  10996c:	e59d001c 	ldr	r0, [sp, #28]
  109970:	e5d16000 	ldrb	r6, [r1]
  109974:	e3800004 	orr	r0, r0, #4
  109978:	e58d001c 	str	r0, [sp, #28]
  10997c:	eafffedb 	b	1094f0 <_vfprintf_r+0x170>
  109980:	e59d301c 	ldr	r3, [sp, #28]
  109984:	e58d1024 	str	r1, [sp, #36]	; 0x24
  109988:	e2135020 	ands	r5, r3, #32
  10998c:	0a00010e 	beq	109dcc <_vfprintf_r+0xa4c>
  109990:	e59d3034 	ldr	r3, [sp, #52]	; 0x34
  109994:	e3a02000 	mov	r2, #0
  109998:	e2833007 	add	r3, r3, #7
  10999c:	e3c33007 	bic	r3, r3, #7
  1099a0:	e2831008 	add	r1, r3, #8
  1099a4:	e1c340d0 	ldrd	r4, [r3]
  1099a8:	e58d1034 	str	r1, [sp, #52]	; 0x34
  1099ac:	eaffff68 	b	109754 <_vfprintf_r+0x3d4>
  1099b0:	e59d3034 	ldr	r3, [sp, #52]	; 0x34
  1099b4:	e3a04000 	mov	r4, #0
  1099b8:	e1a05007 	mov	r5, r7
  1099bc:	e58d1024 	str	r1, [sp, #36]	; 0x24
  1099c0:	e5cd4077 	strb	r4, [sp, #119]	; 0x77
  1099c4:	e5932000 	ldr	r2, [r3]
  1099c8:	e2837004 	add	r7, r3, #4
  1099cc:	e1520004 	cmp	r2, r4
  1099d0:	e58d2040 	str	r2, [sp, #64]	; 0x40
  1099d4:	0a000568 	beq	10af7c <_vfprintf_r+0x1bfc>
  1099d8:	e3550000 	cmp	r5, #0
  1099dc:	e59d0040 	ldr	r0, [sp, #64]	; 0x40
  1099e0:	ba000542 	blt	10aef0 <_vfprintf_r+0x1b70>
  1099e4:	e1a01004 	mov	r1, r4
  1099e8:	e1a02005 	mov	r2, r5
  1099ec:	fa0011ff 	blx	10e1f0 <memchr>
  1099f0:	e3500000 	cmp	r0, #0
  1099f4:	0a0005a3 	beq	10b088 <_vfprintf_r+0x1d08>
  1099f8:	e59d3040 	ldr	r3, [sp, #64]	; 0x40
  1099fc:	e58d4044 	str	r4, [sp, #68]	; 0x44
  109a00:	e58d7034 	str	r7, [sp, #52]	; 0x34
  109a04:	e0633000 	rsb	r3, r3, r0
  109a08:	e58d4048 	str	r4, [sp, #72]	; 0x48
  109a0c:	e1530005 	cmp	r3, r5
  109a10:	e5dda077 	ldrb	sl, [sp, #119]	; 0x77
  109a14:	b1a05003 	movlt	r5, r3
  109a18:	e1c53fc5 	bic	r3, r5, r5, asr #31
  109a1c:	e58d3020 	str	r3, [sp, #32]
  109a20:	eaffff8c 	b	109858 <_vfprintf_r+0x4d8>
  109a24:	e302390c 	movw	r3, #10508	; 0x290c
  109a28:	e58d1024 	str	r1, [sp, #36]	; 0x24
  109a2c:	e3403011 	movt	r3, #17
  109a30:	e5cd2077 	strb	r2, [sp, #119]	; 0x77
  109a34:	e58d305c 	str	r3, [sp, #92]	; 0x5c
  109a38:	e59d301c 	ldr	r3, [sp, #28]
  109a3c:	e3130020 	tst	r3, #32
  109a40:	0a0000f3 	beq	109e14 <_vfprintf_r+0xa94>
  109a44:	e59d3034 	ldr	r3, [sp, #52]	; 0x34
  109a48:	e2833007 	add	r3, r3, #7
  109a4c:	e3c33007 	bic	r3, r3, #7
  109a50:	e1c340d0 	ldrd	r4, [r3]
  109a54:	e2832008 	add	r2, r3, #8
  109a58:	e58d2034 	str	r2, [sp, #52]	; 0x34
  109a5c:	e59d301c 	ldr	r3, [sp, #28]
  109a60:	e3130001 	tst	r3, #1
  109a64:	0a0002bd 	beq	10a560 <_vfprintf_r+0x11e0>
  109a68:	e1943005 	orrs	r3, r4, r5
  109a6c:	0a0002bb 	beq	10a560 <_vfprintf_r+0x11e0>
  109a70:	e59d201c 	ldr	r2, [sp, #28]
  109a74:	e3a03030 	mov	r3, #48	; 0x30
  109a78:	e5cd6079 	strb	r6, [sp, #121]	; 0x79
  109a7c:	e5cd3078 	strb	r3, [sp, #120]	; 0x78
  109a80:	e3822002 	orr	r2, r2, #2
  109a84:	e58d201c 	str	r2, [sp, #28]
  109a88:	e3a02002 	mov	r2, #2
  109a8c:	eaffff30 	b	109754 <_vfprintf_r+0x3d4>
  109a90:	e3520000 	cmp	r2, #0
  109a94:	e5d16000 	ldrb	r6, [r1]
  109a98:	e1a03001 	mov	r3, r1
  109a9c:	03a02020 	moveq	r2, #32
  109aa0:	eafffe92 	b	1094f0 <_vfprintf_r+0x170>
  109aa4:	e59d301c 	ldr	r3, [sp, #28]
  109aa8:	e3833001 	orr	r3, r3, #1
  109aac:	e58d301c 	str	r3, [sp, #28]
  109ab0:	e1a03001 	mov	r3, r1
  109ab4:	e5d16000 	ldrb	r6, [r1]
  109ab8:	eafffe8c 	b	1094f0 <_vfprintf_r+0x170>
  109abc:	e59d3034 	ldr	r3, [sp, #52]	; 0x34
  109ac0:	e5930000 	ldr	r0, [r3]
  109ac4:	e2833004 	add	r3, r3, #4
  109ac8:	e3500000 	cmp	r0, #0
  109acc:	e58d0030 	str	r0, [sp, #48]	; 0x30
  109ad0:	ba0004bf 	blt	10add4 <_vfprintf_r+0x1a54>
  109ad4:	e58d3034 	str	r3, [sp, #52]	; 0x34
  109ad8:	e1a03001 	mov	r3, r1
  109adc:	e5d16000 	ldrb	r6, [r1]
  109ae0:	eafffe82 	b	1094f0 <_vfprintf_r+0x170>
  109ae4:	e5d16000 	ldrb	r6, [r1]
  109ae8:	e1a03001 	mov	r3, r1
  109aec:	e3a0202b 	mov	r2, #43	; 0x2b
  109af0:	eafffe7e 	b	1094f0 <_vfprintf_r+0x170>
  109af4:	e59d301c 	ldr	r3, [sp, #28]
  109af8:	e3833080 	orr	r3, r3, #128	; 0x80
  109afc:	e58d301c 	str	r3, [sp, #28]
  109b00:	e1a03001 	mov	r3, r1
  109b04:	e5d16000 	ldrb	r6, [r1]
  109b08:	eafffe78 	b	1094f0 <_vfprintf_r+0x170>
  109b0c:	e2460030 	sub	r0, r6, #48	; 0x30
  109b10:	e3a03000 	mov	r3, #0
  109b14:	e1a0c183 	lsl	ip, r3, #3
  109b18:	e4d16001 	ldrb	r6, [r1], #1
  109b1c:	e08c3083 	add	r3, ip, r3, lsl #1
  109b20:	e0833000 	add	r3, r3, r0
  109b24:	e2460030 	sub	r0, r6, #48	; 0x30
  109b28:	e3500009 	cmp	r0, #9
  109b2c:	9afffff8 	bls	109b14 <_vfprintf_r+0x794>
  109b30:	e58d3030 	str	r3, [sp, #48]	; 0x30
  109b34:	eafffe6e 	b	1094f4 <_vfprintf_r+0x174>
  109b38:	e59d001c 	ldr	r0, [sp, #28]
  109b3c:	e302290c 	movw	r2, #10508	; 0x290c
  109b40:	e58d1024 	str	r1, [sp, #36]	; 0x24
  109b44:	e3402011 	movt	r2, #17
  109b48:	e59d1034 	ldr	r1, [sp, #52]	; 0x34
  109b4c:	e3a03030 	mov	r3, #48	; 0x30
  109b50:	e3a06078 	mov	r6, #120	; 0x78
  109b54:	e3800002 	orr	r0, r0, #2
  109b58:	e58d205c 	str	r2, [sp, #92]	; 0x5c
  109b5c:	e3a05000 	mov	r5, #0
  109b60:	e5914000 	ldr	r4, [r1]
  109b64:	e2811004 	add	r1, r1, #4
  109b68:	e58d001c 	str	r0, [sp, #28]
  109b6c:	e3a02002 	mov	r2, #2
  109b70:	e58d1034 	str	r1, [sp, #52]	; 0x34
  109b74:	e5cd3078 	strb	r3, [sp, #120]	; 0x78
  109b78:	e5cd6079 	strb	r6, [sp, #121]	; 0x79
  109b7c:	eafffef4 	b	109754 <_vfprintf_r+0x3d4>
  109b80:	e59d301c 	ldr	r3, [sp, #28]
  109b84:	e3833020 	orr	r3, r3, #32
  109b88:	e58d301c 	str	r3, [sp, #28]
  109b8c:	e1a03001 	mov	r3, r1
  109b90:	e5d16000 	ldrb	r6, [r1]
  109b94:	eafffe55 	b	1094f0 <_vfprintf_r+0x170>
  109b98:	e59d301c 	ldr	r3, [sp, #28]
  109b9c:	e58d1024 	str	r1, [sp, #36]	; 0x24
  109ba0:	e5cd2077 	strb	r2, [sp, #119]	; 0x77
  109ba4:	e3833010 	orr	r3, r3, #16
  109ba8:	e58d301c 	str	r3, [sp, #28]
  109bac:	e59d301c 	ldr	r3, [sp, #28]
  109bb0:	e3130020 	tst	r3, #32
  109bb4:	0a000041 	beq	109cc0 <_vfprintf_r+0x940>
  109bb8:	e59d3034 	ldr	r3, [sp, #52]	; 0x34
  109bbc:	e2833007 	add	r3, r3, #7
  109bc0:	e3c33007 	bic	r3, r3, #7
  109bc4:	e1c300d0 	ldrd	r0, [r3]
  109bc8:	e2833008 	add	r3, r3, #8
  109bcc:	e58d3034 	str	r3, [sp, #52]	; 0x34
  109bd0:	e1a04000 	mov	r4, r0
  109bd4:	e1a05001 	mov	r5, r1
  109bd8:	e3500000 	cmp	r0, #0
  109bdc:	e2d13000 	sbcs	r3, r1, #0
  109be0:	ba000377 	blt	10a9c4 <_vfprintf_r+0x1644>
  109be4:	e5dda077 	ldrb	sl, [sp, #119]	; 0x77
  109be8:	e3a02001 	mov	r2, #1
  109bec:	e58d7044 	str	r7, [sp, #68]	; 0x44
  109bf0:	eafffedb 	b	109764 <_vfprintf_r+0x3e4>
  109bf4:	e59d301c 	ldr	r3, [sp, #28]
  109bf8:	e58d1024 	str	r1, [sp, #36]	; 0x24
  109bfc:	e5cd2077 	strb	r2, [sp, #119]	; 0x77
  109c00:	e3130008 	tst	r3, #8
  109c04:	e59d3034 	ldr	r3, [sp, #52]	; 0x34
  109c08:	e2833007 	add	r3, r3, #7
  109c0c:	e3c33007 	bic	r3, r3, #7
  109c10:	0d938b00 	vldreq	d8, [r3]
  109c14:	12832008 	addne	r2, r3, #8
  109c18:	1d938b00 	vldrne	d8, [r3]
  109c1c:	02833008 	addeq	r3, r3, #8
  109c20:	158d2034 	strne	r2, [sp, #52]	; 0x34
  109c24:	058d3034 	streq	r3, [sp, #52]	; 0x34
  109c28:	ec510b18 	vmov	r0, r1, d8
  109c2c:	eb0017f8 	bl	10fc14 <__fpclassifyd>
  109c30:	e3500001 	cmp	r0, #1
  109c34:	1a000369 	bne	10a9e0 <_vfprintf_r+0x1660>
  109c38:	eeb58bc0 	vcmpe.f64	d8, #0.0
  109c3c:	e30228ec 	movw	r2, #10476	; 0x28ec
  109c40:	eef1fa10 	vmrs	APSR_nzcv, fpscr
  109c44:	e3402011 	movt	r2, #17
  109c48:	43a0302d 	movmi	r3, #45	; 0x2d
  109c4c:	e59dc01c 	ldr	ip, [sp, #28]
  109c50:	41a0a003 	movmi	sl, r3
  109c54:	45cd3077 	strbmi	r3, [sp, #119]	; 0x77
  109c58:	e30238e8 	movw	r3, #10472	; 0x28e8
  109c5c:	55dda077 	ldrbpl	sl, [sp, #119]	; 0x77
  109c60:	e3403011 	movt	r3, #17
  109c64:	e3560047 	cmp	r6, #71	; 0x47
  109c68:	e3a01003 	mov	r1, #3
  109c6c:	e3a00000 	mov	r0, #0
  109c70:	e3ccc080 	bic	ip, ip, #128	; 0x80
  109c74:	d1a02003 	movle	r2, r3
  109c78:	e58d1020 	str	r1, [sp, #32]
  109c7c:	e1a05001 	mov	r5, r1
  109c80:	e58d0044 	str	r0, [sp, #68]	; 0x44
  109c84:	e58dc01c 	str	ip, [sp, #28]
  109c88:	e58d2040 	str	r2, [sp, #64]	; 0x40
  109c8c:	e58d0048 	str	r0, [sp, #72]	; 0x48
  109c90:	eafffef0 	b	109858 <_vfprintf_r+0x4d8>
  109c94:	e59d301c 	ldr	r3, [sp, #28]
  109c98:	e3833008 	orr	r3, r3, #8
  109c9c:	e58d301c 	str	r3, [sp, #28]
  109ca0:	e1a03001 	mov	r3, r1
  109ca4:	e5d16000 	ldrb	r6, [r1]
  109ca8:	eafffe10 	b	1094f0 <_vfprintf_r+0x170>
  109cac:	e59d301c 	ldr	r3, [sp, #28]
  109cb0:	e58d1024 	str	r1, [sp, #36]	; 0x24
  109cb4:	e5cd2077 	strb	r2, [sp, #119]	; 0x77
  109cb8:	e3130020 	tst	r3, #32
  109cbc:	1affffbd 	bne	109bb8 <_vfprintf_r+0x838>
  109cc0:	e59d301c 	ldr	r3, [sp, #28]
  109cc4:	e3130010 	tst	r3, #16
  109cc8:	0a0003b0 	beq	10ab90 <_vfprintf_r+0x1810>
  109ccc:	e59d3034 	ldr	r3, [sp, #52]	; 0x34
  109cd0:	e5934000 	ldr	r4, [r3]
  109cd4:	e2833004 	add	r3, r3, #4
  109cd8:	e58d3034 	str	r3, [sp, #52]	; 0x34
  109cdc:	e1a00004 	mov	r0, r4
  109ce0:	e1a05fc4 	asr	r5, r4, #31
  109ce4:	e1a01005 	mov	r1, r5
  109ce8:	eaffffba 	b	109bd8 <_vfprintf_r+0x858>
  109cec:	e59d301c 	ldr	r3, [sp, #28]
  109cf0:	e3833040 	orr	r3, r3, #64	; 0x40
  109cf4:	e58d301c 	str	r3, [sp, #28]
  109cf8:	e1a03001 	mov	r3, r1
  109cfc:	e5d16000 	ldrb	r6, [r1]
  109d00:	eafffdfa 	b	1094f0 <_vfprintf_r+0x170>
  109d04:	e5d16000 	ldrb	r6, [r1]
  109d08:	e59d301c 	ldr	r3, [sp, #28]
  109d0c:	e356006c 	cmp	r6, #108	; 0x6c
  109d10:	03833020 	orreq	r3, r3, #32
  109d14:	13833010 	orrne	r3, r3, #16
  109d18:	058d301c 	streq	r3, [sp, #28]
  109d1c:	02813001 	addeq	r3, r1, #1
  109d20:	158d301c 	strne	r3, [sp, #28]
  109d24:	11a03001 	movne	r3, r1
  109d28:	05d16001 	ldrbeq	r6, [r1, #1]
  109d2c:	eafffdef 	b	1094f0 <_vfprintf_r+0x170>
  109d30:	e59d301c 	ldr	r3, [sp, #28]
  109d34:	e58d1024 	str	r1, [sp, #36]	; 0x24
  109d38:	e5cd2077 	strb	r2, [sp, #119]	; 0x77
  109d3c:	e3130020 	tst	r3, #32
  109d40:	0a00039d 	beq	10abbc <_vfprintf_r+0x183c>
  109d44:	e59d102c 	ldr	r1, [sp, #44]	; 0x2c
  109d48:	e59d2034 	ldr	r2, [sp, #52]	; 0x34
  109d4c:	ee801b90 	vdup.32	d16, r1
  109d50:	e2822004 	add	r2, r2, #4
  109d54:	e5123004 	ldr	r3, [r2, #-4]
  109d58:	f2e000b0 	vshr.s64	d16, d16, #32
  109d5c:	e58d2034 	str	r2, [sp, #52]	; 0x34
  109d60:	edc30b00 	vstr	d16, [r3]
  109d64:	eafffdbc 	b	10945c <_vfprintf_r+0xdc>
  109d68:	e5d16000 	ldrb	r6, [r1]
  109d6c:	e2813001 	add	r3, r1, #1
  109d70:	e356002a 	cmp	r6, #42	; 0x2a
  109d74:	0a00052c 	beq	10b22c <_vfprintf_r+0x1eac>
  109d78:	e2460030 	sub	r0, r6, #48	; 0x30
  109d7c:	e1a01003 	mov	r1, r3
  109d80:	e3500009 	cmp	r0, #9
  109d84:	e3a07000 	mov	r7, #0
  109d88:	8afffdd9 	bhi	1094f4 <_vfprintf_r+0x174>
  109d8c:	e1a03187 	lsl	r3, r7, #3
  109d90:	e4d16001 	ldrb	r6, [r1], #1
  109d94:	e0837087 	add	r7, r3, r7, lsl #1
  109d98:	e0807007 	add	r7, r0, r7
  109d9c:	e2460030 	sub	r0, r6, #48	; 0x30
  109da0:	e3500009 	cmp	r0, #9
  109da4:	9afffff8 	bls	109d8c <_vfprintf_r+0xa0c>
  109da8:	e1877fc7 	orr	r7, r7, r7, asr #31
  109dac:	eafffdd0 	b	1094f4 <_vfprintf_r+0x174>
  109db0:	e59d301c 	ldr	r3, [sp, #28]
  109db4:	e58d1024 	str	r1, [sp, #36]	; 0x24
  109db8:	e3833010 	orr	r3, r3, #16
  109dbc:	e58d301c 	str	r3, [sp, #28]
  109dc0:	e59d301c 	ldr	r3, [sp, #28]
  109dc4:	e2135020 	ands	r5, r3, #32
  109dc8:	1afffef0 	bne	109990 <_vfprintf_r+0x610>
  109dcc:	e59d301c 	ldr	r3, [sp, #28]
  109dd0:	e2133010 	ands	r3, r3, #16
  109dd4:	0a000357 	beq	10ab38 <_vfprintf_r+0x17b8>
  109dd8:	e59d3034 	ldr	r3, [sp, #52]	; 0x34
  109ddc:	e1a02005 	mov	r2, r5
  109de0:	e3a05000 	mov	r5, #0
  109de4:	e5934000 	ldr	r4, [r3]
  109de8:	e2833004 	add	r3, r3, #4
  109dec:	e58d3034 	str	r3, [sp, #52]	; 0x34
  109df0:	eafffe57 	b	109754 <_vfprintf_r+0x3d4>
  109df4:	e30238f8 	movw	r3, #10488	; 0x28f8
  109df8:	e58d1024 	str	r1, [sp, #36]	; 0x24
  109dfc:	e3403011 	movt	r3, #17
  109e00:	e5cd2077 	strb	r2, [sp, #119]	; 0x77
  109e04:	e58d305c 	str	r3, [sp, #92]	; 0x5c
  109e08:	e59d301c 	ldr	r3, [sp, #28]
  109e0c:	e3130020 	tst	r3, #32
  109e10:	1affff0b 	bne	109a44 <_vfprintf_r+0x6c4>
  109e14:	e59d301c 	ldr	r3, [sp, #28]
  109e18:	e3130010 	tst	r3, #16
  109e1c:	0a00034f 	beq	10ab60 <_vfprintf_r+0x17e0>
  109e20:	e59d3034 	ldr	r3, [sp, #52]	; 0x34
  109e24:	e3a05000 	mov	r5, #0
  109e28:	e5934000 	ldr	r4, [r3]
  109e2c:	e2833004 	add	r3, r3, #4
  109e30:	e58d3034 	str	r3, [sp, #52]	; 0x34
  109e34:	eaffff08 	b	109a5c <_vfprintf_r+0x6dc>
  109e38:	e59d0034 	ldr	r0, [sp, #52]	; 0x34
  109e3c:	e3a03000 	mov	r3, #0
  109e40:	e58d1024 	str	r1, [sp, #36]	; 0x24
  109e44:	e1a0a003 	mov	sl, r3
  109e48:	e3a01001 	mov	r1, #1
  109e4c:	e5cd3077 	strb	r3, [sp, #119]	; 0x77
  109e50:	e5902000 	ldr	r2, [r0]
  109e54:	e2800004 	add	r0, r0, #4
  109e58:	e58d3044 	str	r3, [sp, #68]	; 0x44
  109e5c:	e1a05001 	mov	r5, r1
  109e60:	e58d3048 	str	r3, [sp, #72]	; 0x48
  109e64:	e28d30a0 	add	r3, sp, #160	; 0xa0
  109e68:	e58d1020 	str	r1, [sp, #32]
  109e6c:	e58d0034 	str	r0, [sp, #52]	; 0x34
  109e70:	e5cd20a0 	strb	r2, [sp, #160]	; 0xa0
  109e74:	e58d3040 	str	r3, [sp, #64]	; 0x40
  109e78:	eafffe7b 	b	10986c <_vfprintf_r+0x4ec>
  109e7c:	e59d301c 	ldr	r3, [sp, #28]
  109e80:	e58d1024 	str	r1, [sp, #36]	; 0x24
  109e84:	e3833010 	orr	r3, r3, #16
  109e88:	e58d301c 	str	r3, [sp, #28]
  109e8c:	e59d301c 	ldr	r3, [sp, #28]
  109e90:	e3130020 	tst	r3, #32
  109e94:	1afffe27 	bne	109738 <_vfprintf_r+0x3b8>
  109e98:	e59d301c 	ldr	r3, [sp, #28]
  109e9c:	e3130010 	tst	r3, #16
  109ea0:	0a000359 	beq	10ac0c <_vfprintf_r+0x188c>
  109ea4:	e59d3034 	ldr	r3, [sp, #52]	; 0x34
  109ea8:	e5934000 	ldr	r4, [r3]
  109eac:	e2833004 	add	r3, r3, #4
  109eb0:	e3a02001 	mov	r2, #1
  109eb4:	e58d3034 	str	r3, [sp, #52]	; 0x34
  109eb8:	e3a05000 	mov	r5, #0
  109ebc:	eafffe24 	b	109754 <_vfprintf_r+0x3d4>
  109ec0:	e3560000 	cmp	r6, #0
  109ec4:	e58d1024 	str	r1, [sp, #36]	; 0x24
  109ec8:	e5cd2077 	strb	r2, [sp, #119]	; 0x77
  109ecc:	0afffdf7 	beq	1096b0 <_vfprintf_r+0x330>
  109ed0:	e3a03000 	mov	r3, #0
  109ed4:	e3a02001 	mov	r2, #1
  109ed8:	e1a0a003 	mov	sl, r3
  109edc:	e5cd3077 	strb	r3, [sp, #119]	; 0x77
  109ee0:	e58d3044 	str	r3, [sp, #68]	; 0x44
  109ee4:	e1a05002 	mov	r5, r2
  109ee8:	e58d3048 	str	r3, [sp, #72]	; 0x48
  109eec:	e28d30a0 	add	r3, sp, #160	; 0xa0
  109ef0:	e58d2020 	str	r2, [sp, #32]
  109ef4:	e5cd60a0 	strb	r6, [sp, #160]	; 0xa0
  109ef8:	e58d3040 	str	r3, [sp, #64]	; 0x40
  109efc:	eafffe5a 	b	10986c <_vfprintf_r+0x4ec>
  109f00:	e59d0028 	ldr	r0, [sp, #40]	; 0x28
  109f04:	e1a0100b 	mov	r1, fp
  109f08:	e28d2094 	add	r2, sp, #148	; 0x94
  109f0c:	eb00187c 	bl	110104 <__sprint_r>
  109f10:	e3500000 	cmp	r0, #0
  109f14:	1afffdec 	bne	1096cc <_vfprintf_r+0x34c>
  109f18:	e5dda077 	ldrb	sl, [sp, #119]	; 0x77
  109f1c:	e1a09008 	mov	r9, r8
  109f20:	e59d309c 	ldr	r3, [sp, #156]	; 0x9c
  109f24:	e35a0000 	cmp	sl, #0
  109f28:	0a00000b 	beq	109f5c <_vfprintf_r+0xbdc>
  109f2c:	e59d2098 	ldr	r2, [sp, #152]	; 0x98
  109f30:	e28d1077 	add	r1, sp, #119	; 0x77
  109f34:	e5891000 	str	r1, [r9]
  109f38:	e3a01001 	mov	r1, #1
  109f3c:	e2833001 	add	r3, r3, #1
  109f40:	e5891004 	str	r1, [r9, #4]
  109f44:	e0822001 	add	r2, r2, r1
  109f48:	e58d309c 	str	r3, [sp, #156]	; 0x9c
  109f4c:	e3520007 	cmp	r2, #7
  109f50:	e58d2098 	str	r2, [sp, #152]	; 0x98
  109f54:	d2899008 	addle	r9, r9, #8
  109f58:	ca00016e 	bgt	10a518 <_vfprintf_r+0x1198>
  109f5c:	e59d2038 	ldr	r2, [sp, #56]	; 0x38
  109f60:	e3520000 	cmp	r2, #0
  109f64:	0a00000b 	beq	109f98 <_vfprintf_r+0xc18>
  109f68:	e59d2098 	ldr	r2, [sp, #152]	; 0x98
  109f6c:	e28d1078 	add	r1, sp, #120	; 0x78
  109f70:	e5891000 	str	r1, [r9]
  109f74:	e2833002 	add	r3, r3, #2
  109f78:	e3a01002 	mov	r1, #2
  109f7c:	e58d309c 	str	r3, [sp, #156]	; 0x9c
  109f80:	e2822001 	add	r2, r2, #1
  109f84:	e5891004 	str	r1, [r9, #4]
  109f88:	e3520007 	cmp	r2, #7
  109f8c:	e58d2098 	str	r2, [sp, #152]	; 0x98
  109f90:	d2899008 	addle	r9, r9, #8
  109f94:	ca000168 	bgt	10a53c <_vfprintf_r+0x11bc>
  109f98:	e59d203c 	ldr	r2, [sp, #60]	; 0x3c
  109f9c:	e3520080 	cmp	r2, #128	; 0x80
  109fa0:	0a0000de 	beq	10a320 <_vfprintf_r+0xfa0>
  109fa4:	e59d2044 	ldr	r2, [sp, #68]	; 0x44
  109fa8:	e0657002 	rsb	r7, r5, r2
  109fac:	e3570000 	cmp	r7, #0
  109fb0:	da000034 	ble	10a088 <_vfprintf_r+0xd08>
  109fb4:	e3570010 	cmp	r7, #16
  109fb8:	e59d2098 	ldr	r2, [sp, #152]	; 0x98
  109fbc:	d51f47e4 	ldrle	r4, [pc, #-2020]	; 1097e0 <_vfprintf_r+0x460>
  109fc0:	da000020 	ble	10a048 <_vfprintf_r+0xcc8>
  109fc4:	e51f47ec 	ldr	r4, [pc, #-2028]	; 1097e0 <_vfprintf_r+0x460>
  109fc8:	e3a0a010 	mov	sl, #16
  109fcc:	e58d5038 	str	r5, [sp, #56]	; 0x38
  109fd0:	e1a01003 	mov	r1, r3
  109fd4:	e1a05004 	mov	r5, r4
  109fd8:	e59d4028 	ldr	r4, [sp, #40]	; 0x28
  109fdc:	ea000002 	b	109fec <_vfprintf_r+0xc6c>
  109fe0:	e2477010 	sub	r7, r7, #16
  109fe4:	e3570010 	cmp	r7, #16
  109fe8:	da000013 	ble	10a03c <_vfprintf_r+0xcbc>
  109fec:	e2822001 	add	r2, r2, #1
  109ff0:	e2811010 	add	r1, r1, #16
  109ff4:	e3520007 	cmp	r2, #7
  109ff8:	e8890420 	stm	r9, {r5, sl}
  109ffc:	e58d2098 	str	r2, [sp, #152]	; 0x98
  10a000:	d2899008 	addle	r9, r9, #8
  10a004:	e58d109c 	str	r1, [sp, #156]	; 0x9c
  10a008:	dafffff4 	ble	109fe0 <_vfprintf_r+0xc60>
  10a00c:	e1a00004 	mov	r0, r4
  10a010:	e1a0100b 	mov	r1, fp
  10a014:	e28d2094 	add	r2, sp, #148	; 0x94
  10a018:	e1a09008 	mov	r9, r8
  10a01c:	eb001838 	bl	110104 <__sprint_r>
  10a020:	e3500000 	cmp	r0, #0
  10a024:	1afffda8 	bne	1096cc <_vfprintf_r+0x34c>
  10a028:	e2477010 	sub	r7, r7, #16
  10a02c:	e59d109c 	ldr	r1, [sp, #156]	; 0x9c
  10a030:	e3570010 	cmp	r7, #16
  10a034:	e59d2098 	ldr	r2, [sp, #152]	; 0x98
  10a038:	caffffeb 	bgt	109fec <_vfprintf_r+0xc6c>
  10a03c:	e1a04005 	mov	r4, r5
  10a040:	e59d5038 	ldr	r5, [sp, #56]	; 0x38
  10a044:	e1a03001 	mov	r3, r1
  10a048:	e2822001 	add	r2, r2, #1
  10a04c:	e0833007 	add	r3, r3, r7
  10a050:	e3520007 	cmp	r2, #7
  10a054:	e8890090 	stm	r9, {r4, r7}
  10a058:	e58d2098 	str	r2, [sp, #152]	; 0x98
  10a05c:	d2899008 	addle	r9, r9, #8
  10a060:	e58d309c 	str	r3, [sp, #156]	; 0x9c
  10a064:	da000007 	ble	10a088 <_vfprintf_r+0xd08>
  10a068:	e59d0028 	ldr	r0, [sp, #40]	; 0x28
  10a06c:	e1a0100b 	mov	r1, fp
  10a070:	e28d2094 	add	r2, sp, #148	; 0x94
  10a074:	eb001822 	bl	110104 <__sprint_r>
  10a078:	e3500000 	cmp	r0, #0
  10a07c:	1afffd92 	bne	1096cc <_vfprintf_r+0x34c>
  10a080:	e59d309c 	ldr	r3, [sp, #156]	; 0x9c
  10a084:	e1a09008 	mov	r9, r8
  10a088:	e59d201c 	ldr	r2, [sp, #28]
  10a08c:	e3120c01 	tst	r2, #256	; 0x100
  10a090:	1a00004f 	bne	10a1d4 <_vfprintf_r+0xe54>
  10a094:	e59d2098 	ldr	r2, [sp, #152]	; 0x98
  10a098:	e0833005 	add	r3, r3, r5
  10a09c:	e59d1040 	ldr	r1, [sp, #64]	; 0x40
  10a0a0:	e58d309c 	str	r3, [sp, #156]	; 0x9c
  10a0a4:	e2822001 	add	r2, r2, #1
  10a0a8:	e5895004 	str	r5, [r9, #4]
  10a0ac:	e3520007 	cmp	r2, #7
  10a0b0:	e5891000 	str	r1, [r9]
  10a0b4:	e58d2098 	str	r2, [sp, #152]	; 0x98
  10a0b8:	ca000106 	bgt	10a4d8 <_vfprintf_r+0x1158>
  10a0bc:	e2899008 	add	r9, r9, #8
  10a0c0:	e59d201c 	ldr	r2, [sp, #28]
  10a0c4:	e3120004 	tst	r2, #4
  10a0c8:	0a000034 	beq	10a1a0 <_vfprintf_r+0xe20>
  10a0cc:	e59d2030 	ldr	r2, [sp, #48]	; 0x30
  10a0d0:	e59d1020 	ldr	r1, [sp, #32]
  10a0d4:	e0614002 	rsb	r4, r1, r2
  10a0d8:	e3540000 	cmp	r4, #0
  10a0dc:	da00002f 	ble	10a1a0 <_vfprintf_r+0xe20>
  10a0e0:	e3540010 	cmp	r4, #16
  10a0e4:	da0003b0 	ble	10afac <_vfprintf_r+0x1c2c>
  10a0e8:	e302a8c8 	movw	sl, #10440	; 0x28c8
  10a0ec:	e59d2098 	ldr	r2, [sp, #152]	; 0x98
  10a0f0:	e340a011 	movt	sl, #17
  10a0f4:	e3a05010 	mov	r5, #16
  10a0f8:	e59d6028 	ldr	r6, [sp, #40]	; 0x28
  10a0fc:	e59d7050 	ldr	r7, [sp, #80]	; 0x50
  10a100:	ea000002 	b	10a110 <_vfprintf_r+0xd90>
  10a104:	e2444010 	sub	r4, r4, #16
  10a108:	e3540010 	cmp	r4, #16
  10a10c:	da000014 	ble	10a164 <_vfprintf_r+0xde4>
  10a110:	e2822001 	add	r2, r2, #1
  10a114:	e2833010 	add	r3, r3, #16
  10a118:	e3520007 	cmp	r2, #7
  10a11c:	e5897000 	str	r7, [r9]
  10a120:	e5895004 	str	r5, [r9, #4]
  10a124:	d2899008 	addle	r9, r9, #8
  10a128:	e58d2098 	str	r2, [sp, #152]	; 0x98
  10a12c:	e58d309c 	str	r3, [sp, #156]	; 0x9c
  10a130:	dafffff3 	ble	10a104 <_vfprintf_r+0xd84>
  10a134:	e1a00006 	mov	r0, r6
  10a138:	e1a0100b 	mov	r1, fp
  10a13c:	e28d2094 	add	r2, sp, #148	; 0x94
  10a140:	e1a09008 	mov	r9, r8
  10a144:	eb0017ee 	bl	110104 <__sprint_r>
  10a148:	e3500000 	cmp	r0, #0
  10a14c:	1afffd5e 	bne	1096cc <_vfprintf_r+0x34c>
  10a150:	e2444010 	sub	r4, r4, #16
  10a154:	e59d309c 	ldr	r3, [sp, #156]	; 0x9c
  10a158:	e3540010 	cmp	r4, #16
  10a15c:	e59d2098 	ldr	r2, [sp, #152]	; 0x98
  10a160:	caffffea 	bgt	10a110 <_vfprintf_r+0xd90>
  10a164:	e2822001 	add	r2, r2, #1
  10a168:	e0833004 	add	r3, r3, r4
  10a16c:	e3520007 	cmp	r2, #7
  10a170:	e58d2098 	str	r2, [sp, #152]	; 0x98
  10a174:	e58d309c 	str	r3, [sp, #156]	; 0x9c
  10a178:	e589a000 	str	sl, [r9]
  10a17c:	e5894004 	str	r4, [r9, #4]
  10a180:	da000006 	ble	10a1a0 <_vfprintf_r+0xe20>
  10a184:	e59d0028 	ldr	r0, [sp, #40]	; 0x28
  10a188:	e1a0100b 	mov	r1, fp
  10a18c:	e28d2094 	add	r2, sp, #148	; 0x94
  10a190:	eb0017db 	bl	110104 <__sprint_r>
  10a194:	e3500000 	cmp	r0, #0
  10a198:	1afffd4b 	bne	1096cc <_vfprintf_r+0x34c>
  10a19c:	e59d309c 	ldr	r3, [sp, #156]	; 0x9c
  10a1a0:	e59d202c 	ldr	r2, [sp, #44]	; 0x2c
  10a1a4:	e59d1020 	ldr	r1, [sp, #32]
  10a1a8:	e59d0030 	ldr	r0, [sp, #48]	; 0x30
  10a1ac:	e1510000 	cmp	r1, r0
  10a1b0:	a0822001 	addge	r2, r2, r1
  10a1b4:	b0822000 	addlt	r2, r2, r0
  10a1b8:	e3530000 	cmp	r3, #0
  10a1bc:	e58d202c 	str	r2, [sp, #44]	; 0x2c
  10a1c0:	1a0000cd 	bne	10a4fc <_vfprintf_r+0x117c>
  10a1c4:	e3a03000 	mov	r3, #0
  10a1c8:	e1a09008 	mov	r9, r8
  10a1cc:	e58d3098 	str	r3, [sp, #152]	; 0x98
  10a1d0:	eafffca1 	b	10945c <_vfprintf_r+0xdc>
  10a1d4:	e3560065 	cmp	r6, #101	; 0x65
  10a1d8:	da00008b 	ble	10a40c <_vfprintf_r+0x108c>
  10a1dc:	eeb58b40 	vcmp.f64	d8, #0.0
  10a1e0:	eef1fa10 	vmrs	APSR_nzcv, fpscr
  10a1e4:	1a0000df 	bne	10a568 <_vfprintf_r+0x11e8>
  10a1e8:	e59d2098 	ldr	r2, [sp, #152]	; 0x98
  10a1ec:	e3021928 	movw	r1, #10536	; 0x2928
  10a1f0:	e3401011 	movt	r1, #17
  10a1f4:	e2833001 	add	r3, r3, #1
  10a1f8:	e5891000 	str	r1, [r9]
  10a1fc:	e3a01001 	mov	r1, #1
  10a200:	e2822001 	add	r2, r2, #1
  10a204:	e5891004 	str	r1, [r9, #4]
  10a208:	e3520007 	cmp	r2, #7
  10a20c:	e58d309c 	str	r3, [sp, #156]	; 0x9c
  10a210:	e58d2098 	str	r2, [sp, #152]	; 0x98
  10a214:	d2899008 	addle	r9, r9, #8
  10a218:	ca000285 	bgt	10ac34 <_vfprintf_r+0x18b4>
  10a21c:	e59d207c 	ldr	r2, [sp, #124]	; 0x7c
  10a220:	e59d104c 	ldr	r1, [sp, #76]	; 0x4c
  10a224:	e1520001 	cmp	r2, r1
  10a228:	ba000002 	blt	10a238 <_vfprintf_r+0xeb8>
  10a22c:	e59d201c 	ldr	r2, [sp, #28]
  10a230:	e3120001 	tst	r2, #1
  10a234:	0affffa1 	beq	10a0c0 <_vfprintf_r+0xd40>
  10a238:	e59d2098 	ldr	r2, [sp, #152]	; 0x98
  10a23c:	e59d1058 	ldr	r1, [sp, #88]	; 0x58
  10a240:	e59d0054 	ldr	r0, [sp, #84]	; 0x54
  10a244:	e2822001 	add	r2, r2, #1
  10a248:	e3520007 	cmp	r2, #7
  10a24c:	e0833001 	add	r3, r3, r1
  10a250:	e5890000 	str	r0, [r9]
  10a254:	e5891004 	str	r1, [r9, #4]
  10a258:	d2899008 	addle	r9, r9, #8
  10a25c:	e58d309c 	str	r3, [sp, #156]	; 0x9c
  10a260:	e58d2098 	str	r2, [sp, #152]	; 0x98
  10a264:	ca0002fc 	bgt	10ae5c <_vfprintf_r+0x1adc>
  10a268:	e59d204c 	ldr	r2, [sp, #76]	; 0x4c
  10a26c:	e2425001 	sub	r5, r2, #1
  10a270:	e3550000 	cmp	r5, #0
  10a274:	daffff91 	ble	10a0c0 <_vfprintf_r+0xd40>
  10a278:	e3550010 	cmp	r5, #16
  10a27c:	e59d2098 	ldr	r2, [sp, #152]	; 0x98
  10a280:	da000119 	ble	10a6ec <_vfprintf_r+0x136c>
  10a284:	e3a06010 	mov	r6, #16
  10a288:	e51f4ab0 	ldr	r4, [pc, #-2736]	; 1097e0 <_vfprintf_r+0x460>
  10a28c:	e59d7028 	ldr	r7, [sp, #40]	; 0x28
  10a290:	ea000002 	b	10a2a0 <_vfprintf_r+0xf20>
  10a294:	e2455010 	sub	r5, r5, #16
  10a298:	e3550010 	cmp	r5, #16
  10a29c:	da000113 	ble	10a6f0 <_vfprintf_r+0x1370>
  10a2a0:	e2822001 	add	r2, r2, #1
  10a2a4:	e2833010 	add	r3, r3, #16
  10a2a8:	e3520007 	cmp	r2, #7
  10a2ac:	e8890050 	stm	r9, {r4, r6}
  10a2b0:	e58d2098 	str	r2, [sp, #152]	; 0x98
  10a2b4:	d2899008 	addle	r9, r9, #8
  10a2b8:	e58d309c 	str	r3, [sp, #156]	; 0x9c
  10a2bc:	dafffff4 	ble	10a294 <_vfprintf_r+0xf14>
  10a2c0:	e1a00007 	mov	r0, r7
  10a2c4:	e1a0100b 	mov	r1, fp
  10a2c8:	e28d2094 	add	r2, sp, #148	; 0x94
  10a2cc:	e1a09008 	mov	r9, r8
  10a2d0:	eb00178b 	bl	110104 <__sprint_r>
  10a2d4:	e3500000 	cmp	r0, #0
  10a2d8:	1afffcfb 	bne	1096cc <_vfprintf_r+0x34c>
  10a2dc:	e59d309c 	ldr	r3, [sp, #156]	; 0x9c
  10a2e0:	e59d2098 	ldr	r2, [sp, #152]	; 0x98
  10a2e4:	eaffffea 	b	10a294 <_vfprintf_r+0xf14>
  10a2e8:	e3520000 	cmp	r2, #0
  10a2ec:	11a05003 	movne	r5, r3
  10a2f0:	158d8040 	strne	r8, [sp, #64]	; 0x40
  10a2f4:	1afffd51 	bne	109840 <_vfprintf_r+0x4c0>
  10a2f8:	e59d301c 	ldr	r3, [sp, #28]
  10a2fc:	e3130001 	tst	r3, #1
  10a300:	128d2f42 	addne	r2, sp, #264	; 0x108
  10a304:	13a03030 	movne	r3, #48	; 0x30
  10a308:	15623041 	strbne	r3, [r2, #-65]!	; 0xffffffbf
  10a30c:	01a05002 	moveq	r5, r2
  10a310:	10625008 	rsbne	r5, r2, r8
  10a314:	158d2040 	strne	r2, [sp, #64]	; 0x40
  10a318:	058d8040 	streq	r8, [sp, #64]	; 0x40
  10a31c:	eafffd47 	b	109840 <_vfprintf_r+0x4c0>
  10a320:	e59d2030 	ldr	r2, [sp, #48]	; 0x30
  10a324:	e59d1020 	ldr	r1, [sp, #32]
  10a328:	e0617002 	rsb	r7, r1, r2
  10a32c:	e3570000 	cmp	r7, #0
  10a330:	daffff1b 	ble	109fa4 <_vfprintf_r+0xc24>
  10a334:	e3570010 	cmp	r7, #16
  10a338:	e59d2098 	ldr	r2, [sp, #152]	; 0x98
  10a33c:	d51f4b64 	ldrle	r4, [pc, #-2916]	; 1097e0 <_vfprintf_r+0x460>
  10a340:	da000020 	ble	10a3c8 <_vfprintf_r+0x1048>
  10a344:	e51f4b6c 	ldr	r4, [pc, #-2924]	; 1097e0 <_vfprintf_r+0x460>
  10a348:	e3a0a010 	mov	sl, #16
  10a34c:	e58d5038 	str	r5, [sp, #56]	; 0x38
  10a350:	e1a01003 	mov	r1, r3
  10a354:	e1a05004 	mov	r5, r4
  10a358:	e59d4028 	ldr	r4, [sp, #40]	; 0x28
  10a35c:	ea000002 	b	10a36c <_vfprintf_r+0xfec>
  10a360:	e2477010 	sub	r7, r7, #16
  10a364:	e3570010 	cmp	r7, #16
  10a368:	da000013 	ble	10a3bc <_vfprintf_r+0x103c>
  10a36c:	e2822001 	add	r2, r2, #1
  10a370:	e2811010 	add	r1, r1, #16
  10a374:	e3520007 	cmp	r2, #7
  10a378:	e8890420 	stm	r9, {r5, sl}
  10a37c:	e58d2098 	str	r2, [sp, #152]	; 0x98
  10a380:	d2899008 	addle	r9, r9, #8
  10a384:	e58d109c 	str	r1, [sp, #156]	; 0x9c
  10a388:	dafffff4 	ble	10a360 <_vfprintf_r+0xfe0>
  10a38c:	e1a00004 	mov	r0, r4
  10a390:	e1a0100b 	mov	r1, fp
  10a394:	e28d2094 	add	r2, sp, #148	; 0x94
  10a398:	e1a09008 	mov	r9, r8
  10a39c:	eb001758 	bl	110104 <__sprint_r>
  10a3a0:	e3500000 	cmp	r0, #0
  10a3a4:	1afffcc8 	bne	1096cc <_vfprintf_r+0x34c>
  10a3a8:	e2477010 	sub	r7, r7, #16
  10a3ac:	e59d109c 	ldr	r1, [sp, #156]	; 0x9c
  10a3b0:	e3570010 	cmp	r7, #16
  10a3b4:	e59d2098 	ldr	r2, [sp, #152]	; 0x98
  10a3b8:	caffffeb 	bgt	10a36c <_vfprintf_r+0xfec>
  10a3bc:	e1a04005 	mov	r4, r5
  10a3c0:	e59d5038 	ldr	r5, [sp, #56]	; 0x38
  10a3c4:	e1a03001 	mov	r3, r1
  10a3c8:	e2822001 	add	r2, r2, #1
  10a3cc:	e0833007 	add	r3, r3, r7
  10a3d0:	e3520007 	cmp	r2, #7
  10a3d4:	e8890090 	stm	r9, {r4, r7}
  10a3d8:	e58d2098 	str	r2, [sp, #152]	; 0x98
  10a3dc:	d2899008 	addle	r9, r9, #8
  10a3e0:	e58d309c 	str	r3, [sp, #156]	; 0x9c
  10a3e4:	dafffeee 	ble	109fa4 <_vfprintf_r+0xc24>
  10a3e8:	e59d0028 	ldr	r0, [sp, #40]	; 0x28
  10a3ec:	e1a0100b 	mov	r1, fp
  10a3f0:	e28d2094 	add	r2, sp, #148	; 0x94
  10a3f4:	eb001742 	bl	110104 <__sprint_r>
  10a3f8:	e3500000 	cmp	r0, #0
  10a3fc:	1afffcb2 	bne	1096cc <_vfprintf_r+0x34c>
  10a400:	e59d309c 	ldr	r3, [sp, #156]	; 0x9c
  10a404:	e1a09008 	mov	r9, r8
  10a408:	eafffee5 	b	109fa4 <_vfprintf_r+0xc24>
  10a40c:	e59d204c 	ldr	r2, [sp, #76]	; 0x4c
  10a410:	e3520001 	cmp	r2, #1
  10a414:	da00011f 	ble	10a898 <_vfprintf_r+0x1518>
  10a418:	e59d2098 	ldr	r2, [sp, #152]	; 0x98
  10a41c:	e3a01001 	mov	r1, #1
  10a420:	e59d0040 	ldr	r0, [sp, #64]	; 0x40
  10a424:	e2833001 	add	r3, r3, #1
  10a428:	e5891004 	str	r1, [r9, #4]
  10a42c:	e0822001 	add	r2, r2, r1
  10a430:	e58d309c 	str	r3, [sp, #156]	; 0x9c
  10a434:	e3520007 	cmp	r2, #7
  10a438:	e5890000 	str	r0, [r9]
  10a43c:	e58d2098 	str	r2, [sp, #152]	; 0x98
  10a440:	d2899008 	addle	r9, r9, #8
  10a444:	ca00012b 	bgt	10a8f8 <_vfprintf_r+0x1578>
  10a448:	e59d1058 	ldr	r1, [sp, #88]	; 0x58
  10a44c:	e2822001 	add	r2, r2, #1
  10a450:	e59d0054 	ldr	r0, [sp, #84]	; 0x54
  10a454:	e3520007 	cmp	r2, #7
  10a458:	e58d2098 	str	r2, [sp, #152]	; 0x98
  10a45c:	e0833001 	add	r3, r3, r1
  10a460:	e8890003 	stm	r9, {r0, r1}
  10a464:	d2899008 	addle	r9, r9, #8
  10a468:	e58d309c 	str	r3, [sp, #156]	; 0x9c
  10a46c:	ca00012b 	bgt	10a920 <_vfprintf_r+0x15a0>
  10a470:	eeb58b40 	vcmp.f64	d8, #0.0
  10a474:	eef1fa10 	vmrs	APSR_nzcv, fpscr
  10a478:	0a00007c 	beq	10a670 <_vfprintf_r+0x12f0>
  10a47c:	e59d104c 	ldr	r1, [sp, #76]	; 0x4c
  10a480:	e2822001 	add	r2, r2, #1
  10a484:	e59d0040 	ldr	r0, [sp, #64]	; 0x40
  10a488:	e3520007 	cmp	r2, #7
  10a48c:	e58d2098 	str	r2, [sp, #152]	; 0x98
  10a490:	e2411001 	sub	r1, r1, #1
  10a494:	e2800001 	add	r0, r0, #1
  10a498:	e0833001 	add	r3, r3, r1
  10a49c:	e5890000 	str	r0, [r9]
  10a4a0:	e58d309c 	str	r3, [sp, #156]	; 0x9c
  10a4a4:	e5891004 	str	r1, [r9, #4]
  10a4a8:	ca000108 	bgt	10a8d0 <_vfprintf_r+0x1550>
  10a4ac:	e2899008 	add	r9, r9, #8
  10a4b0:	e59d0068 	ldr	r0, [sp, #104]	; 0x68
  10a4b4:	e2822001 	add	r2, r2, #1
  10a4b8:	e3520007 	cmp	r2, #7
  10a4bc:	e28d1084 	add	r1, sp, #132	; 0x84
  10a4c0:	e58d2098 	str	r2, [sp, #152]	; 0x98
  10a4c4:	e0833000 	add	r3, r3, r0
  10a4c8:	e1a02000 	mov	r2, r0
  10a4cc:	e58d309c 	str	r3, [sp, #156]	; 0x9c
  10a4d0:	e8890006 	stm	r9, {r1, r2}
  10a4d4:	dafffef8 	ble	10a0bc <_vfprintf_r+0xd3c>
  10a4d8:	e59d0028 	ldr	r0, [sp, #40]	; 0x28
  10a4dc:	e1a0100b 	mov	r1, fp
  10a4e0:	e28d2094 	add	r2, sp, #148	; 0x94
  10a4e4:	eb001706 	bl	110104 <__sprint_r>
  10a4e8:	e3500000 	cmp	r0, #0
  10a4ec:	1afffc76 	bne	1096cc <_vfprintf_r+0x34c>
  10a4f0:	e59d309c 	ldr	r3, [sp, #156]	; 0x9c
  10a4f4:	e1a09008 	mov	r9, r8
  10a4f8:	eafffef0 	b	10a0c0 <_vfprintf_r+0xd40>
  10a4fc:	e59d0028 	ldr	r0, [sp, #40]	; 0x28
  10a500:	e1a0100b 	mov	r1, fp
  10a504:	e28d2094 	add	r2, sp, #148	; 0x94
  10a508:	eb0016fd 	bl	110104 <__sprint_r>
  10a50c:	e3500000 	cmp	r0, #0
  10a510:	0affff2b 	beq	10a1c4 <_vfprintf_r+0xe44>
  10a514:	eafffc6c 	b	1096cc <_vfprintf_r+0x34c>
  10a518:	e59d0028 	ldr	r0, [sp, #40]	; 0x28
  10a51c:	e1a0100b 	mov	r1, fp
  10a520:	e28d2094 	add	r2, sp, #148	; 0x94
  10a524:	eb0016f6 	bl	110104 <__sprint_r>
  10a528:	e3500000 	cmp	r0, #0
  10a52c:	1afffc66 	bne	1096cc <_vfprintf_r+0x34c>
  10a530:	e59d309c 	ldr	r3, [sp, #156]	; 0x9c
  10a534:	e1a09008 	mov	r9, r8
  10a538:	eafffe87 	b	109f5c <_vfprintf_r+0xbdc>
  10a53c:	e59d0028 	ldr	r0, [sp, #40]	; 0x28
  10a540:	e1a0100b 	mov	r1, fp
  10a544:	e28d2094 	add	r2, sp, #148	; 0x94
  10a548:	eb0016ed 	bl	110104 <__sprint_r>
  10a54c:	e3500000 	cmp	r0, #0
  10a550:	1afffc5d 	bne	1096cc <_vfprintf_r+0x34c>
  10a554:	e59d309c 	ldr	r3, [sp, #156]	; 0x9c
  10a558:	e1a09008 	mov	r9, r8
  10a55c:	eafffe8d 	b	109f98 <_vfprintf_r+0xc18>
  10a560:	e3a02002 	mov	r2, #2
  10a564:	eafffc7a 	b	109754 <_vfprintf_r+0x3d4>
  10a568:	e59d507c 	ldr	r5, [sp, #124]	; 0x7c
  10a56c:	e3550000 	cmp	r5, #0
  10a570:	da0001b8 	ble	10ac58 <_vfprintf_r+0x18d8>
  10a574:	e59d204c 	ldr	r2, [sp, #76]	; 0x4c
  10a578:	e59d1048 	ldr	r1, [sp, #72]	; 0x48
  10a57c:	e59d0040 	ldr	r0, [sp, #64]	; 0x40
  10a580:	e1520001 	cmp	r2, r1
  10a584:	b1a05002 	movlt	r5, r2
  10a588:	a1a05001 	movge	r5, r1
  10a58c:	e3550000 	cmp	r5, #0
  10a590:	e0807002 	add	r7, r0, r2
  10a594:	da000009 	ble	10a5c0 <_vfprintf_r+0x1240>
  10a598:	e59d2098 	ldr	r2, [sp, #152]	; 0x98
  10a59c:	e0833005 	add	r3, r3, r5
  10a5a0:	e5890000 	str	r0, [r9]
  10a5a4:	e5895004 	str	r5, [r9, #4]
  10a5a8:	e2822001 	add	r2, r2, #1
  10a5ac:	e58d309c 	str	r3, [sp, #156]	; 0x9c
  10a5b0:	e3520007 	cmp	r2, #7
  10a5b4:	e58d2098 	str	r2, [sp, #152]	; 0x98
  10a5b8:	d2899008 	addle	r9, r9, #8
  10a5bc:	ca000259 	bgt	10af28 <_vfprintf_r+0x1ba8>
  10a5c0:	e59d2048 	ldr	r2, [sp, #72]	; 0x48
  10a5c4:	e3550000 	cmp	r5, #0
  10a5c8:	a0652002 	rsbge	r2, r5, r2
  10a5cc:	e3520000 	cmp	r2, #0
  10a5d0:	e1a05002 	mov	r5, r2
  10a5d4:	da00005d 	ble	10a750 <_vfprintf_r+0x13d0>
  10a5d8:	e3550010 	cmp	r5, #16
  10a5dc:	e59d2098 	ldr	r2, [sp, #152]	; 0x98
  10a5e0:	d51f4e08 	ldrle	r4, [pc, #-3592]	; 1097e0 <_vfprintf_r+0x460>
  10a5e4:	da000049 	ble	10a710 <_vfprintf_r+0x1390>
  10a5e8:	e3a06010 	mov	r6, #16
  10a5ec:	e51f4e14 	ldr	r4, [pc, #-3604]	; 1097e0 <_vfprintf_r+0x460>
  10a5f0:	e59da028 	ldr	sl, [sp, #40]	; 0x28
  10a5f4:	ea000002 	b	10a604 <_vfprintf_r+0x1284>
  10a5f8:	e2455010 	sub	r5, r5, #16
  10a5fc:	e3550010 	cmp	r5, #16
  10a600:	da000042 	ble	10a710 <_vfprintf_r+0x1390>
  10a604:	e2822001 	add	r2, r2, #1
  10a608:	e2833010 	add	r3, r3, #16
  10a60c:	e3520007 	cmp	r2, #7
  10a610:	e8890050 	stm	r9, {r4, r6}
  10a614:	e58d2098 	str	r2, [sp, #152]	; 0x98
  10a618:	d2899008 	addle	r9, r9, #8
  10a61c:	e58d309c 	str	r3, [sp, #156]	; 0x9c
  10a620:	dafffff4 	ble	10a5f8 <_vfprintf_r+0x1278>
  10a624:	e1a0000a 	mov	r0, sl
  10a628:	e1a0100b 	mov	r1, fp
  10a62c:	e28d2094 	add	r2, sp, #148	; 0x94
  10a630:	e1a09008 	mov	r9, r8
  10a634:	eb0016b2 	bl	110104 <__sprint_r>
  10a638:	e3500000 	cmp	r0, #0
  10a63c:	1afffc22 	bne	1096cc <_vfprintf_r+0x34c>
  10a640:	e59d309c 	ldr	r3, [sp, #156]	; 0x9c
  10a644:	e59d2098 	ldr	r2, [sp, #152]	; 0x98
  10a648:	eaffffea 	b	10a5f8 <_vfprintf_r+0x1278>
  10a64c:	e3550000 	cmp	r5, #0
  10a650:	03540009 	cmpeq	r4, #9
  10a654:	8a0000c3 	bhi	10a968 <_vfprintf_r+0x15e8>
  10a658:	e28d3f42 	add	r3, sp, #264	; 0x108
  10a65c:	e2844030 	add	r4, r4, #48	; 0x30
  10a660:	e5634041 	strb	r4, [r3, #-65]!	; 0xffffffbf
  10a664:	e0635008 	rsb	r5, r3, r8
  10a668:	e58d3040 	str	r3, [sp, #64]	; 0x40
  10a66c:	eafffc73 	b	109840 <_vfprintf_r+0x4c0>
  10a670:	e59d104c 	ldr	r1, [sp, #76]	; 0x4c
  10a674:	e2415001 	sub	r5, r1, #1
  10a678:	e3550000 	cmp	r5, #0
  10a67c:	daffff8b 	ble	10a4b0 <_vfprintf_r+0x1130>
  10a680:	e3550010 	cmp	r5, #16
  10a684:	e51f4eac 	ldr	r4, [pc, #-3756]	; 1097e0 <_vfprintf_r+0x460>
  10a688:	c3a06010 	movgt	r6, #16
  10a68c:	c59d7028 	ldrgt	r7, [sp, #40]	; 0x28
  10a690:	ca000003 	bgt	10a6a4 <_vfprintf_r+0x1324>
  10a694:	ea0000ab 	b	10a948 <_vfprintf_r+0x15c8>
  10a698:	e2455010 	sub	r5, r5, #16
  10a69c:	e3550010 	cmp	r5, #16
  10a6a0:	da0000a8 	ble	10a948 <_vfprintf_r+0x15c8>
  10a6a4:	e2822001 	add	r2, r2, #1
  10a6a8:	e2833010 	add	r3, r3, #16
  10a6ac:	e3520007 	cmp	r2, #7
  10a6b0:	e8890050 	stm	r9, {r4, r6}
  10a6b4:	e58d2098 	str	r2, [sp, #152]	; 0x98
  10a6b8:	d2899008 	addle	r9, r9, #8
  10a6bc:	e58d309c 	str	r3, [sp, #156]	; 0x9c
  10a6c0:	dafffff4 	ble	10a698 <_vfprintf_r+0x1318>
  10a6c4:	e1a00007 	mov	r0, r7
  10a6c8:	e1a0100b 	mov	r1, fp
  10a6cc:	e28d2094 	add	r2, sp, #148	; 0x94
  10a6d0:	e1a09008 	mov	r9, r8
  10a6d4:	eb00168a 	bl	110104 <__sprint_r>
  10a6d8:	e3500000 	cmp	r0, #0
  10a6dc:	1afffbfa 	bne	1096cc <_vfprintf_r+0x34c>
  10a6e0:	e59d309c 	ldr	r3, [sp, #156]	; 0x9c
  10a6e4:	e59d2098 	ldr	r2, [sp, #152]	; 0x98
  10a6e8:	eaffffea 	b	10a698 <_vfprintf_r+0x1318>
  10a6ec:	e51f4f14 	ldr	r4, [pc, #-3860]	; 1097e0 <_vfprintf_r+0x460>
  10a6f0:	e2822001 	add	r2, r2, #1
  10a6f4:	e0833005 	add	r3, r3, r5
  10a6f8:	e3520007 	cmp	r2, #7
  10a6fc:	e58d2098 	str	r2, [sp, #152]	; 0x98
  10a700:	e58d309c 	str	r3, [sp, #156]	; 0x9c
  10a704:	e8890030 	stm	r9, {r4, r5}
  10a708:	dafffe6b 	ble	10a0bc <_vfprintf_r+0xd3c>
  10a70c:	eaffff71 	b	10a4d8 <_vfprintf_r+0x1158>
  10a710:	e2822001 	add	r2, r2, #1
  10a714:	e0833005 	add	r3, r3, r5
  10a718:	e3520007 	cmp	r2, #7
  10a71c:	e8890030 	stm	r9, {r4, r5}
  10a720:	e58d2098 	str	r2, [sp, #152]	; 0x98
  10a724:	d2899008 	addle	r9, r9, #8
  10a728:	e58d309c 	str	r3, [sp, #156]	; 0x9c
  10a72c:	da000007 	ble	10a750 <_vfprintf_r+0x13d0>
  10a730:	e59d0028 	ldr	r0, [sp, #40]	; 0x28
  10a734:	e1a0100b 	mov	r1, fp
  10a738:	e28d2094 	add	r2, sp, #148	; 0x94
  10a73c:	eb001670 	bl	110104 <__sprint_r>
  10a740:	e3500000 	cmp	r0, #0
  10a744:	1afffbe0 	bne	1096cc <_vfprintf_r+0x34c>
  10a748:	e59d309c 	ldr	r3, [sp, #156]	; 0x9c
  10a74c:	e1a09008 	mov	r9, r8
  10a750:	e59d2040 	ldr	r2, [sp, #64]	; 0x40
  10a754:	e59d1048 	ldr	r1, [sp, #72]	; 0x48
  10a758:	e59d507c 	ldr	r5, [sp, #124]	; 0x7c
  10a75c:	e0826001 	add	r6, r2, r1
  10a760:	e59d204c 	ldr	r2, [sp, #76]	; 0x4c
  10a764:	e1550002 	cmp	r5, r2
  10a768:	ba000034 	blt	10a840 <_vfprintf_r+0x14c0>
  10a76c:	e59d201c 	ldr	r2, [sp, #28]
  10a770:	e3120001 	tst	r2, #1
  10a774:	1a000031 	bne	10a840 <_vfprintf_r+0x14c0>
  10a778:	e59d204c 	ldr	r2, [sp, #76]	; 0x4c
  10a77c:	e0667007 	rsb	r7, r6, r7
  10a780:	e0655002 	rsb	r5, r5, r2
  10a784:	e1550007 	cmp	r5, r7
  10a788:	b1a04005 	movlt	r4, r5
  10a78c:	a1a04007 	movge	r4, r7
  10a790:	e3540000 	cmp	r4, #0
  10a794:	da000009 	ble	10a7c0 <_vfprintf_r+0x1440>
  10a798:	e59d2098 	ldr	r2, [sp, #152]	; 0x98
  10a79c:	e0833004 	add	r3, r3, r4
  10a7a0:	e5896000 	str	r6, [r9]
  10a7a4:	e5894004 	str	r4, [r9, #4]
  10a7a8:	e2822001 	add	r2, r2, #1
  10a7ac:	e58d309c 	str	r3, [sp, #156]	; 0x9c
  10a7b0:	e3520007 	cmp	r2, #7
  10a7b4:	e58d2098 	str	r2, [sp, #152]	; 0x98
  10a7b8:	d2899008 	addle	r9, r9, #8
  10a7bc:	ca0001e2 	bgt	10af4c <_vfprintf_r+0x1bcc>
  10a7c0:	e3540000 	cmp	r4, #0
  10a7c4:	a0645005 	rsbge	r5, r4, r5
  10a7c8:	e3550000 	cmp	r5, #0
  10a7cc:	dafffe3b 	ble	10a0c0 <_vfprintf_r+0xd40>
  10a7d0:	e3550010 	cmp	r5, #16
  10a7d4:	e59d2098 	ldr	r2, [sp, #152]	; 0x98
  10a7d8:	daffffc3 	ble	10a6ec <_vfprintf_r+0x136c>
  10a7dc:	e3a06010 	mov	r6, #16
  10a7e0:	e59f4a84 	ldr	r4, [pc, #2692]	; 10b26c <_vfprintf_r+0x1eec>
  10a7e4:	e59d7028 	ldr	r7, [sp, #40]	; 0x28
  10a7e8:	ea000002 	b	10a7f8 <_vfprintf_r+0x1478>
  10a7ec:	e2455010 	sub	r5, r5, #16
  10a7f0:	e3550010 	cmp	r5, #16
  10a7f4:	daffffbd 	ble	10a6f0 <_vfprintf_r+0x1370>
  10a7f8:	e2822001 	add	r2, r2, #1
  10a7fc:	e2833010 	add	r3, r3, #16
  10a800:	e3520007 	cmp	r2, #7
  10a804:	e8890050 	stm	r9, {r4, r6}
  10a808:	e58d2098 	str	r2, [sp, #152]	; 0x98
  10a80c:	d2899008 	addle	r9, r9, #8
  10a810:	e58d309c 	str	r3, [sp, #156]	; 0x9c
  10a814:	dafffff4 	ble	10a7ec <_vfprintf_r+0x146c>
  10a818:	e1a00007 	mov	r0, r7
  10a81c:	e1a0100b 	mov	r1, fp
  10a820:	e28d2094 	add	r2, sp, #148	; 0x94
  10a824:	e1a09008 	mov	r9, r8
  10a828:	eb001635 	bl	110104 <__sprint_r>
  10a82c:	e3500000 	cmp	r0, #0
  10a830:	1afffba5 	bne	1096cc <_vfprintf_r+0x34c>
  10a834:	e59d309c 	ldr	r3, [sp, #156]	; 0x9c
  10a838:	e59d2098 	ldr	r2, [sp, #152]	; 0x98
  10a83c:	eaffffea 	b	10a7ec <_vfprintf_r+0x146c>
  10a840:	e59d2098 	ldr	r2, [sp, #152]	; 0x98
  10a844:	e59d1058 	ldr	r1, [sp, #88]	; 0x58
  10a848:	e59d0054 	ldr	r0, [sp, #84]	; 0x54
  10a84c:	e2822001 	add	r2, r2, #1
  10a850:	e3520007 	cmp	r2, #7
  10a854:	e0833001 	add	r3, r3, r1
  10a858:	e5890000 	str	r0, [r9]
  10a85c:	e5891004 	str	r1, [r9, #4]
  10a860:	d2899008 	addle	r9, r9, #8
  10a864:	e58d309c 	str	r3, [sp, #156]	; 0x9c
  10a868:	e58d2098 	str	r2, [sp, #152]	; 0x98
  10a86c:	daffffc1 	ble	10a778 <_vfprintf_r+0x13f8>
  10a870:	e59d0028 	ldr	r0, [sp, #40]	; 0x28
  10a874:	e1a0100b 	mov	r1, fp
  10a878:	e28d2094 	add	r2, sp, #148	; 0x94
  10a87c:	eb001620 	bl	110104 <__sprint_r>
  10a880:	e3500000 	cmp	r0, #0
  10a884:	1afffb90 	bne	1096cc <_vfprintf_r+0x34c>
  10a888:	e59d507c 	ldr	r5, [sp, #124]	; 0x7c
  10a88c:	e1a09008 	mov	r9, r8
  10a890:	e59d309c 	ldr	r3, [sp, #156]	; 0x9c
  10a894:	eaffffb7 	b	10a778 <_vfprintf_r+0x13f8>
  10a898:	e59d201c 	ldr	r2, [sp, #28]
  10a89c:	e3120001 	tst	r2, #1
  10a8a0:	1afffedc 	bne	10a418 <_vfprintf_r+0x1098>
  10a8a4:	e59d2098 	ldr	r2, [sp, #152]	; 0x98
  10a8a8:	e3a01001 	mov	r1, #1
  10a8ac:	e59d0040 	ldr	r0, [sp, #64]	; 0x40
  10a8b0:	e2833001 	add	r3, r3, #1
  10a8b4:	e58d309c 	str	r3, [sp, #156]	; 0x9c
  10a8b8:	e0822001 	add	r2, r2, r1
  10a8bc:	e5891004 	str	r1, [r9, #4]
  10a8c0:	e3520007 	cmp	r2, #7
  10a8c4:	e5890000 	str	r0, [r9]
  10a8c8:	e58d2098 	str	r2, [sp, #152]	; 0x98
  10a8cc:	dafffef6 	ble	10a4ac <_vfprintf_r+0x112c>
  10a8d0:	e59d0028 	ldr	r0, [sp, #40]	; 0x28
  10a8d4:	e1a0100b 	mov	r1, fp
  10a8d8:	e28d2094 	add	r2, sp, #148	; 0x94
  10a8dc:	eb001608 	bl	110104 <__sprint_r>
  10a8e0:	e3500000 	cmp	r0, #0
  10a8e4:	1afffb78 	bne	1096cc <_vfprintf_r+0x34c>
  10a8e8:	e59d309c 	ldr	r3, [sp, #156]	; 0x9c
  10a8ec:	e1a09008 	mov	r9, r8
  10a8f0:	e59d2098 	ldr	r2, [sp, #152]	; 0x98
  10a8f4:	eafffeed 	b	10a4b0 <_vfprintf_r+0x1130>
  10a8f8:	e59d0028 	ldr	r0, [sp, #40]	; 0x28
  10a8fc:	e1a0100b 	mov	r1, fp
  10a900:	e28d2094 	add	r2, sp, #148	; 0x94
  10a904:	eb0015fe 	bl	110104 <__sprint_r>
  10a908:	e3500000 	cmp	r0, #0
  10a90c:	1afffb6e 	bne	1096cc <_vfprintf_r+0x34c>
  10a910:	e59d309c 	ldr	r3, [sp, #156]	; 0x9c
  10a914:	e1a09008 	mov	r9, r8
  10a918:	e59d2098 	ldr	r2, [sp, #152]	; 0x98
  10a91c:	eafffec9 	b	10a448 <_vfprintf_r+0x10c8>
  10a920:	e59d0028 	ldr	r0, [sp, #40]	; 0x28
  10a924:	e1a0100b 	mov	r1, fp
  10a928:	e28d2094 	add	r2, sp, #148	; 0x94
  10a92c:	eb0015f4 	bl	110104 <__sprint_r>
  10a930:	e3500000 	cmp	r0, #0
  10a934:	1afffb64 	bne	1096cc <_vfprintf_r+0x34c>
  10a938:	e59d309c 	ldr	r3, [sp, #156]	; 0x9c
  10a93c:	e1a09008 	mov	r9, r8
  10a940:	e59d2098 	ldr	r2, [sp, #152]	; 0x98
  10a944:	eafffec9 	b	10a470 <_vfprintf_r+0x10f0>
  10a948:	e2822001 	add	r2, r2, #1
  10a94c:	e0833005 	add	r3, r3, r5
  10a950:	e3520007 	cmp	r2, #7
  10a954:	e58d2098 	str	r2, [sp, #152]	; 0x98
  10a958:	e58d309c 	str	r3, [sp, #156]	; 0x9c
  10a95c:	e8890030 	stm	r9, {r4, r5}
  10a960:	dafffed1 	ble	10a4ac <_vfprintf_r+0x112c>
  10a964:	eaffffd9 	b	10a8d0 <_vfprintf_r+0x1550>
  10a968:	e58d6020 	str	r6, [sp, #32]
  10a96c:	e1a06008 	mov	r6, r8
  10a970:	e1a00004 	mov	r0, r4
  10a974:	e1a01005 	mov	r1, r5
  10a978:	e3a0200a 	mov	r2, #10
  10a97c:	e3a03000 	mov	r3, #0
  10a980:	eb001dd0 	bl	1120c8 <__aeabi_uldivmod>
  10a984:	e2822030 	add	r2, r2, #48	; 0x30
  10a988:	e1a00004 	mov	r0, r4
  10a98c:	e1a01005 	mov	r1, r5
  10a990:	e5662001 	strb	r2, [r6, #-1]!
  10a994:	e3a03000 	mov	r3, #0
  10a998:	e3a0200a 	mov	r2, #10
  10a99c:	eb001dc9 	bl	1120c8 <__aeabi_uldivmod>
  10a9a0:	e1a04000 	mov	r4, r0
  10a9a4:	e1a05001 	mov	r5, r1
  10a9a8:	e1943005 	orrs	r3, r4, r5
  10a9ac:	1affffef 	bne	10a970 <_vfprintf_r+0x15f0>
  10a9b0:	e1a03006 	mov	r3, r6
  10a9b4:	e59d6020 	ldr	r6, [sp, #32]
  10a9b8:	e58d3040 	str	r3, [sp, #64]	; 0x40
  10a9bc:	e0635008 	rsb	r5, r3, r8
  10a9c0:	eafffb9e 	b	109840 <_vfprintf_r+0x4c0>
  10a9c4:	e3a0a02d 	mov	sl, #45	; 0x2d
  10a9c8:	e2744000 	rsbs	r4, r4, #0
  10a9cc:	e2e55000 	rsc	r5, r5, #0
  10a9d0:	e5cda077 	strb	sl, [sp, #119]	; 0x77
  10a9d4:	e58d7044 	str	r7, [sp, #68]	; 0x44
  10a9d8:	e3a02001 	mov	r2, #1
  10a9dc:	eafffb60 	b	109764 <_vfprintf_r+0x3e4>
  10a9e0:	ec510b18 	vmov	r0, r1, d8
  10a9e4:	eb00148a 	bl	10fc14 <__fpclassifyd>
  10a9e8:	e3500000 	cmp	r0, #0
  10a9ec:	0a0000d9 	beq	10ad58 <_vfprintf_r+0x19d8>
  10a9f0:	e3770001 	cmn	r7, #1
  10a9f4:	e3c65020 	bic	r5, r6, #32
  10a9f8:	03a07006 	moveq	r7, #6
  10a9fc:	0a0000fa 	beq	10adec <_vfprintf_r+0x1a6c>
  10aa00:	e3550047 	cmp	r5, #71	; 0x47
  10aa04:	03570000 	cmpeq	r7, #0
  10aa08:	1a0000f7 	bne	10adec <_vfprintf_r+0x1a6c>
  10aa0c:	ee183a90 	vmov	r3, s17
  10aa10:	e3a05047 	mov	r5, #71	; 0x47
  10aa14:	e3530000 	cmp	r3, #0
  10aa18:	e59d301c 	ldr	r3, [sp, #28]
  10aa1c:	e3a07001 	mov	r7, #1
  10aa20:	e3833c01 	orr	r3, r3, #256	; 0x100
  10aa24:	e58d3038 	str	r3, [sp, #56]	; 0x38
  10aa28:	ba0001dd 	blt	10b1a4 <_vfprintf_r+0x1e24>
  10aa2c:	eeb09b48 	vmov.f64	d9, d8
  10aa30:	e3a0a000 	mov	sl, #0
  10aa34:	e28d2080 	add	r2, sp, #128	; 0x80
  10aa38:	e28d308c 	add	r3, sp, #140	; 0x8c
  10aa3c:	e3a00002 	mov	r0, #2
  10aa40:	e28d107c 	add	r1, sp, #124	; 0x7c
  10aa44:	e88d0081 	stm	sp, {r0, r7}
  10aa48:	e58d200c 	str	r2, [sp, #12]
  10aa4c:	e58d3010 	str	r3, [sp, #16]
  10aa50:	e59d0028 	ldr	r0, [sp, #40]	; 0x28
  10aa54:	e58d1008 	str	r1, [sp, #8]
  10aa58:	ec532b19 	vmov	r2, r3, d9
  10aa5c:	eb000300 	bl	10b664 <_dtoa_r>
  10aa60:	e3550047 	cmp	r5, #71	; 0x47
  10aa64:	e58d0040 	str	r0, [sp, #64]	; 0x40
  10aa68:	1a0001fd 	bne	10b264 <_vfprintf_r+0x1ee4>
  10aa6c:	e59d301c 	ldr	r3, [sp, #28]
  10aa70:	e3130001 	tst	r3, #1
  10aa74:	0a0001d5 	beq	10b1d0 <_vfprintf_r+0x1e50>
  10aa78:	e59d3040 	ldr	r3, [sp, #64]	; 0x40
  10aa7c:	e0834007 	add	r4, r3, r7
  10aa80:	eeb59b40 	vcmp.f64	d9, #0.0
  10aa84:	eef1fa10 	vmrs	APSR_nzcv, fpscr
  10aa88:	01a03004 	moveq	r3, r4
  10aa8c:	0a000009 	beq	10aab8 <_vfprintf_r+0x1738>
  10aa90:	e59d308c 	ldr	r3, [sp, #140]	; 0x8c
  10aa94:	e1540003 	cmp	r4, r3
  10aa98:	9a000006 	bls	10aab8 <_vfprintf_r+0x1738>
  10aa9c:	e3a01030 	mov	r1, #48	; 0x30
  10aaa0:	e2832001 	add	r2, r3, #1
  10aaa4:	e58d208c 	str	r2, [sp, #140]	; 0x8c
  10aaa8:	e5c31000 	strb	r1, [r3]
  10aaac:	e59d308c 	ldr	r3, [sp, #140]	; 0x8c
  10aab0:	e1540003 	cmp	r4, r3
  10aab4:	8afffff9 	bhi	10aaa0 <_vfprintf_r+0x1720>
  10aab8:	e59d2040 	ldr	r2, [sp, #64]	; 0x40
  10aabc:	e3550047 	cmp	r5, #71	; 0x47
  10aac0:	e0623003 	rsb	r3, r2, r3
  10aac4:	e58d304c 	str	r3, [sp, #76]	; 0x4c
  10aac8:	e59d307c 	ldr	r3, [sp, #124]	; 0x7c
  10aacc:	1a00015e 	bne	10b04c <_vfprintf_r+0x1ccc>
  10aad0:	e3730003 	cmn	r3, #3
  10aad4:	a1570003 	cmpge	r7, r3
  10aad8:	b2466002 	sublt	r6, r6, #2
  10aadc:	ba000170 	blt	10b0a4 <_vfprintf_r+0x1d24>
  10aae0:	e3a06067 	mov	r6, #103	; 0x67
  10aae4:	e58d3048 	str	r3, [sp, #72]	; 0x48
  10aae8:	e59d304c 	ldr	r3, [sp, #76]	; 0x4c
  10aaec:	e59d2048 	ldr	r2, [sp, #72]	; 0x48
  10aaf0:	e1530002 	cmp	r3, r2
  10aaf4:	ca0001ad 	bgt	10b1b0 <_vfprintf_r+0x1e30>
  10aaf8:	e59d301c 	ldr	r3, [sp, #28]
  10aafc:	e3130001 	tst	r3, #1
  10ab00:	159d3048 	ldrne	r3, [sp, #72]	; 0x48
  10ab04:	01a05002 	moveq	r5, r2
  10ab08:	01a03005 	moveq	r3, r5
  10ab0c:	01c33fc3 	biceq	r3, r3, r3, asr #31
  10ab10:	12835001 	addne	r5, r3, #1
  10ab14:	11c53fc5 	bicne	r3, r5, r5, asr #31
  10ab18:	e35a0000 	cmp	sl, #0
  10ab1c:	1a000142 	bne	10b02c <_vfprintf_r+0x1cac>
  10ab20:	e58d3020 	str	r3, [sp, #32]
  10ab24:	e59d3038 	ldr	r3, [sp, #56]	; 0x38
  10ab28:	e58da044 	str	sl, [sp, #68]	; 0x44
  10ab2c:	e5dda077 	ldrb	sl, [sp, #119]	; 0x77
  10ab30:	e58d301c 	str	r3, [sp, #28]
  10ab34:	eafffb47 	b	109858 <_vfprintf_r+0x4d8>
  10ab38:	e59d201c 	ldr	r2, [sp, #28]
  10ab3c:	e2122040 	ands	r2, r2, #64	; 0x40
  10ab40:	0a00007e 	beq	10ad40 <_vfprintf_r+0x19c0>
  10ab44:	e1a02003 	mov	r2, r3
  10ab48:	e59d3034 	ldr	r3, [sp, #52]	; 0x34
  10ab4c:	e3a05000 	mov	r5, #0
  10ab50:	e1d340b0 	ldrh	r4, [r3]
  10ab54:	e2833004 	add	r3, r3, #4
  10ab58:	e58d3034 	str	r3, [sp, #52]	; 0x34
  10ab5c:	eafffafc 	b	109754 <_vfprintf_r+0x3d4>
  10ab60:	e59d301c 	ldr	r3, [sp, #28]
  10ab64:	e3130040 	tst	r3, #64	; 0x40
  10ab68:	e59d3034 	ldr	r3, [sp, #52]	; 0x34
  10ab6c:	13a05000 	movne	r5, #0
  10ab70:	03a05000 	moveq	r5, #0
  10ab74:	05934000 	ldreq	r4, [r3]
  10ab78:	02833004 	addeq	r3, r3, #4
  10ab7c:	11d340b0 	ldrhne	r4, [r3]
  10ab80:	12833004 	addne	r3, r3, #4
  10ab84:	158d3034 	strne	r3, [sp, #52]	; 0x34
  10ab88:	058d3034 	streq	r3, [sp, #52]	; 0x34
  10ab8c:	eafffbb2 	b	109a5c <_vfprintf_r+0x6dc>
  10ab90:	e59d301c 	ldr	r3, [sp, #28]
  10ab94:	e3130040 	tst	r3, #64	; 0x40
  10ab98:	e59d3034 	ldr	r3, [sp, #52]	; 0x34
  10ab9c:	0afffc4b 	beq	109cd0 <_vfprintf_r+0x950>
  10aba0:	e1d340f0 	ldrsh	r4, [r3]
  10aba4:	e2833004 	add	r3, r3, #4
  10aba8:	e58d3034 	str	r3, [sp, #52]	; 0x34
  10abac:	e1a00004 	mov	r0, r4
  10abb0:	e1a05fc4 	asr	r5, r4, #31
  10abb4:	e1a01005 	mov	r1, r5
  10abb8:	eafffc06 	b	109bd8 <_vfprintf_r+0x858>
  10abbc:	e59d301c 	ldr	r3, [sp, #28]
  10abc0:	e3130010 	tst	r3, #16
  10abc4:	1a000009 	bne	10abf0 <_vfprintf_r+0x1870>
  10abc8:	e59d301c 	ldr	r3, [sp, #28]
  10abcc:	e3130040 	tst	r3, #64	; 0x40
  10abd0:	0a000006 	beq	10abf0 <_vfprintf_r+0x1870>
  10abd4:	e59d2034 	ldr	r2, [sp, #52]	; 0x34
  10abd8:	e5923000 	ldr	r3, [r2]
  10abdc:	e2822004 	add	r2, r2, #4
  10abe0:	e58d2034 	str	r2, [sp, #52]	; 0x34
  10abe4:	e1dd22bc 	ldrh	r2, [sp, #44]	; 0x2c
  10abe8:	e1c320b0 	strh	r2, [r3]
  10abec:	eafffa1a 	b	10945c <_vfprintf_r+0xdc>
  10abf0:	e59d2034 	ldr	r2, [sp, #52]	; 0x34
  10abf4:	e5923000 	ldr	r3, [r2]
  10abf8:	e2822004 	add	r2, r2, #4
  10abfc:	e58d2034 	str	r2, [sp, #52]	; 0x34
  10ac00:	e59d202c 	ldr	r2, [sp, #44]	; 0x2c
  10ac04:	e5832000 	str	r2, [r3]
  10ac08:	eafffa13 	b	10945c <_vfprintf_r+0xdc>
  10ac0c:	e59d301c 	ldr	r3, [sp, #28]
  10ac10:	e3130040 	tst	r3, #64	; 0x40
  10ac14:	e59d3034 	ldr	r3, [sp, #52]	; 0x34
  10ac18:	0afffca2 	beq	109ea8 <_vfprintf_r+0xb28>
  10ac1c:	e1d340b0 	ldrh	r4, [r3]
  10ac20:	e2833004 	add	r3, r3, #4
  10ac24:	e3a05000 	mov	r5, #0
  10ac28:	e3a02001 	mov	r2, #1
  10ac2c:	e58d3034 	str	r3, [sp, #52]	; 0x34
  10ac30:	eafffac7 	b	109754 <_vfprintf_r+0x3d4>
  10ac34:	e59d0028 	ldr	r0, [sp, #40]	; 0x28
  10ac38:	e1a0100b 	mov	r1, fp
  10ac3c:	e28d2094 	add	r2, sp, #148	; 0x94
  10ac40:	eb00152f 	bl	110104 <__sprint_r>
  10ac44:	e3500000 	cmp	r0, #0
  10ac48:	1afffa9f 	bne	1096cc <_vfprintf_r+0x34c>
  10ac4c:	e59d309c 	ldr	r3, [sp, #156]	; 0x9c
  10ac50:	e1a09008 	mov	r9, r8
  10ac54:	eafffd70 	b	10a21c <_vfprintf_r+0xe9c>
  10ac58:	e59d2098 	ldr	r2, [sp, #152]	; 0x98
  10ac5c:	e3021928 	movw	r1, #10536	; 0x2928
  10ac60:	e3401011 	movt	r1, #17
  10ac64:	e2833001 	add	r3, r3, #1
  10ac68:	e5891000 	str	r1, [r9]
  10ac6c:	e3a01001 	mov	r1, #1
  10ac70:	e2822001 	add	r2, r2, #1
  10ac74:	e5891004 	str	r1, [r9, #4]
  10ac78:	e3520007 	cmp	r2, #7
  10ac7c:	e58d309c 	str	r3, [sp, #156]	; 0x9c
  10ac80:	e58d2098 	str	r2, [sp, #152]	; 0x98
  10ac84:	d2899008 	addle	r9, r9, #8
  10ac88:	ca000047 	bgt	10adac <_vfprintf_r+0x1a2c>
  10ac8c:	e59d204c 	ldr	r2, [sp, #76]	; 0x4c
  10ac90:	e1952002 	orrs	r2, r5, r2
  10ac94:	0a000040 	beq	10ad9c <_vfprintf_r+0x1a1c>
  10ac98:	e59d2098 	ldr	r2, [sp, #152]	; 0x98
  10ac9c:	e59d1058 	ldr	r1, [sp, #88]	; 0x58
  10aca0:	e59d0054 	ldr	r0, [sp, #84]	; 0x54
  10aca4:	e2822001 	add	r2, r2, #1
  10aca8:	e3520007 	cmp	r2, #7
  10acac:	e0833001 	add	r3, r3, r1
  10acb0:	e5890000 	str	r0, [r9]
  10acb4:	e5891004 	str	r1, [r9, #4]
  10acb8:	d2899008 	addle	r9, r9, #8
  10acbc:	e58d309c 	str	r3, [sp, #156]	; 0x9c
  10acc0:	e58d2098 	str	r2, [sp, #152]	; 0x98
  10acc4:	ca00012b 	bgt	10b178 <_vfprintf_r+0x1df8>
  10acc8:	e2655000 	rsb	r5, r5, #0
  10accc:	e3550000 	cmp	r5, #0
  10acd0:	da00007b 	ble	10aec4 <_vfprintf_r+0x1b44>
  10acd4:	e3550010 	cmp	r5, #16
  10acd8:	e59f458c 	ldr	r4, [pc, #1420]	; 10b26c <_vfprintf_r+0x1eec>
  10acdc:	c3a06010 	movgt	r6, #16
  10ace0:	c59d7028 	ldrgt	r7, [sp, #40]	; 0x28
  10ace4:	ca000003 	bgt	10acf8 <_vfprintf_r+0x1978>
  10ace8:	ea000064 	b	10ae80 <_vfprintf_r+0x1b00>
  10acec:	e2455010 	sub	r5, r5, #16
  10acf0:	e3550010 	cmp	r5, #16
  10acf4:	da000061 	ble	10ae80 <_vfprintf_r+0x1b00>
  10acf8:	e2822001 	add	r2, r2, #1
  10acfc:	e2833010 	add	r3, r3, #16
  10ad00:	e3520007 	cmp	r2, #7
  10ad04:	e8890050 	stm	r9, {r4, r6}
  10ad08:	e58d2098 	str	r2, [sp, #152]	; 0x98
  10ad0c:	d2899008 	addle	r9, r9, #8
  10ad10:	e58d309c 	str	r3, [sp, #156]	; 0x9c
  10ad14:	dafffff4 	ble	10acec <_vfprintf_r+0x196c>
  10ad18:	e1a00007 	mov	r0, r7
  10ad1c:	e1a0100b 	mov	r1, fp
  10ad20:	e28d2094 	add	r2, sp, #148	; 0x94
  10ad24:	e1a09008 	mov	r9, r8
  10ad28:	eb0014f5 	bl	110104 <__sprint_r>
  10ad2c:	e3500000 	cmp	r0, #0
  10ad30:	1afffa65 	bne	1096cc <_vfprintf_r+0x34c>
  10ad34:	e59d309c 	ldr	r3, [sp, #156]	; 0x9c
  10ad38:	e59d2098 	ldr	r2, [sp, #152]	; 0x98
  10ad3c:	eaffffea 	b	10acec <_vfprintf_r+0x196c>
  10ad40:	e59d3034 	ldr	r3, [sp, #52]	; 0x34
  10ad44:	e3a05000 	mov	r5, #0
  10ad48:	e5934000 	ldr	r4, [r3]
  10ad4c:	e2833004 	add	r3, r3, #4
  10ad50:	e58d3034 	str	r3, [sp, #52]	; 0x34
  10ad54:	eafffa7e 	b	109754 <_vfprintf_r+0x3d4>
  10ad58:	e59dc01c 	ldr	ip, [sp, #28]
  10ad5c:	e30238f0 	movw	r3, #10480	; 0x28f0
  10ad60:	e30228f4 	movw	r2, #10484	; 0x28f4
  10ad64:	e3403011 	movt	r3, #17
  10ad68:	e3560047 	cmp	r6, #71	; 0x47
  10ad6c:	e3402011 	movt	r2, #17
  10ad70:	e3a01003 	mov	r1, #3
  10ad74:	e3ccc080 	bic	ip, ip, #128	; 0x80
  10ad78:	d1a02003 	movle	r2, r3
  10ad7c:	e58d0044 	str	r0, [sp, #68]	; 0x44
  10ad80:	e58d1020 	str	r1, [sp, #32]
  10ad84:	e1a05001 	mov	r5, r1
  10ad88:	e58dc01c 	str	ip, [sp, #28]
  10ad8c:	e58d2040 	str	r2, [sp, #64]	; 0x40
  10ad90:	e58d0048 	str	r0, [sp, #72]	; 0x48
  10ad94:	e5dda077 	ldrb	sl, [sp, #119]	; 0x77
  10ad98:	eafffaae 	b	109858 <_vfprintf_r+0x4d8>
  10ad9c:	e59d201c 	ldr	r2, [sp, #28]
  10ada0:	e3120001 	tst	r2, #1
  10ada4:	0afffcc5 	beq	10a0c0 <_vfprintf_r+0xd40>
  10ada8:	eaffffba 	b	10ac98 <_vfprintf_r+0x1918>
  10adac:	e59d0028 	ldr	r0, [sp, #40]	; 0x28
  10adb0:	e1a0100b 	mov	r1, fp
  10adb4:	e28d2094 	add	r2, sp, #148	; 0x94
  10adb8:	eb0014d1 	bl	110104 <__sprint_r>
  10adbc:	e3500000 	cmp	r0, #0
  10adc0:	1afffa41 	bne	1096cc <_vfprintf_r+0x34c>
  10adc4:	e59d507c 	ldr	r5, [sp, #124]	; 0x7c
  10adc8:	e1a09008 	mov	r9, r8
  10adcc:	e59d309c 	ldr	r3, [sp, #156]	; 0x9c
  10add0:	eaffffad 	b	10ac8c <_vfprintf_r+0x190c>
  10add4:	e59d0030 	ldr	r0, [sp, #48]	; 0x30
  10add8:	e58d3034 	str	r3, [sp, #52]	; 0x34
  10addc:	e1a03001 	mov	r3, r1
  10ade0:	e2600000 	rsb	r0, r0, #0
  10ade4:	e58d0030 	str	r0, [sp, #48]	; 0x30
  10ade8:	eafffadf 	b	10996c <_vfprintf_r+0x5ec>
  10adec:	e59d201c 	ldr	r2, [sp, #28]
  10adf0:	ee183a90 	vmov	r3, s17
  10adf4:	e3530000 	cmp	r3, #0
  10adf8:	e3822c01 	orr	r2, r2, #256	; 0x100
  10adfc:	a3a0a000 	movge	sl, #0
  10ae00:	e58d2038 	str	r2, [sp, #56]	; 0x38
  10ae04:	aeb09b48 	vmovge.f64	d9, d8
  10ae08:	ba0000e5 	blt	10b1a4 <_vfprintf_r+0x1e24>
  10ae0c:	e3550046 	cmp	r5, #70	; 0x46
  10ae10:	0a000069 	beq	10afbc <_vfprintf_r+0x1c3c>
  10ae14:	e3550045 	cmp	r5, #69	; 0x45
  10ae18:	1affff05 	bne	10aa34 <_vfprintf_r+0x16b4>
  10ae1c:	e28d2080 	add	r2, sp, #128	; 0x80
  10ae20:	e28d308c 	add	r3, sp, #140	; 0x8c
  10ae24:	e3a00002 	mov	r0, #2
  10ae28:	e28d107c 	add	r1, sp, #124	; 0x7c
  10ae2c:	e2874001 	add	r4, r7, #1
  10ae30:	e58d200c 	str	r2, [sp, #12]
  10ae34:	e88d0011 	stm	sp, {r0, r4}
  10ae38:	e58d3010 	str	r3, [sp, #16]
  10ae3c:	e59d0028 	ldr	r0, [sp, #40]	; 0x28
  10ae40:	e58d1008 	str	r1, [sp, #8]
  10ae44:	ec532b19 	vmov	r2, r3, d9
  10ae48:	eb000205 	bl	10b664 <_dtoa_r>
  10ae4c:	e58d0040 	str	r0, [sp, #64]	; 0x40
  10ae50:	e59d3040 	ldr	r3, [sp, #64]	; 0x40
  10ae54:	e0834004 	add	r4, r3, r4
  10ae58:	eaffff08 	b	10aa80 <_vfprintf_r+0x1700>
  10ae5c:	e59d0028 	ldr	r0, [sp, #40]	; 0x28
  10ae60:	e1a0100b 	mov	r1, fp
  10ae64:	e28d2094 	add	r2, sp, #148	; 0x94
  10ae68:	eb0014a5 	bl	110104 <__sprint_r>
  10ae6c:	e3500000 	cmp	r0, #0
  10ae70:	1afffa15 	bne	1096cc <_vfprintf_r+0x34c>
  10ae74:	e59d309c 	ldr	r3, [sp, #156]	; 0x9c
  10ae78:	e1a09008 	mov	r9, r8
  10ae7c:	eafffcf9 	b	10a268 <_vfprintf_r+0xee8>
  10ae80:	e2822001 	add	r2, r2, #1
  10ae84:	e0833005 	add	r3, r3, r5
  10ae88:	e3520007 	cmp	r2, #7
  10ae8c:	e8890030 	stm	r9, {r4, r5}
  10ae90:	e58d2098 	str	r2, [sp, #152]	; 0x98
  10ae94:	d2899008 	addle	r9, r9, #8
  10ae98:	e58d309c 	str	r3, [sp, #156]	; 0x9c
  10ae9c:	da000008 	ble	10aec4 <_vfprintf_r+0x1b44>
  10aea0:	e59d0028 	ldr	r0, [sp, #40]	; 0x28
  10aea4:	e1a0100b 	mov	r1, fp
  10aea8:	e28d2094 	add	r2, sp, #148	; 0x94
  10aeac:	eb001494 	bl	110104 <__sprint_r>
  10aeb0:	e3500000 	cmp	r0, #0
  10aeb4:	1afffa04 	bne	1096cc <_vfprintf_r+0x34c>
  10aeb8:	e59d309c 	ldr	r3, [sp, #156]	; 0x9c
  10aebc:	e1a09008 	mov	r9, r8
  10aec0:	e59d2098 	ldr	r2, [sp, #152]	; 0x98
  10aec4:	e2822001 	add	r2, r2, #1
  10aec8:	e59d104c 	ldr	r1, [sp, #76]	; 0x4c
  10aecc:	e3520007 	cmp	r2, #7
  10aed0:	e58d2098 	str	r2, [sp, #152]	; 0x98
  10aed4:	e59d2040 	ldr	r2, [sp, #64]	; 0x40
  10aed8:	e0833001 	add	r3, r3, r1
  10aedc:	e5891004 	str	r1, [r9, #4]
  10aee0:	e58d309c 	str	r3, [sp, #156]	; 0x9c
  10aee4:	e5892000 	str	r2, [r9]
  10aee8:	dafffc73 	ble	10a0bc <_vfprintf_r+0xd3c>
  10aeec:	eafffd79 	b	10a4d8 <_vfprintf_r+0x1158>
  10aef0:	e58d4044 	str	r4, [sp, #68]	; 0x44
  10aef4:	fafff8e1 	blx	109280 <strlen>
  10aef8:	e1c03fc0 	bic	r3, r0, r0, asr #31
  10aefc:	e1a05000 	mov	r5, r0
  10af00:	e58d7034 	str	r7, [sp, #52]	; 0x34
  10af04:	e58d3020 	str	r3, [sp, #32]
  10af08:	e58d4048 	str	r4, [sp, #72]	; 0x48
  10af0c:	e5dda077 	ldrb	sl, [sp, #119]	; 0x77
  10af10:	eafffa50 	b	109858 <_vfprintf_r+0x4d8>
  10af14:	e302a8c8 	movw	sl, #10440	; 0x28c8
  10af18:	e59d109c 	ldr	r1, [sp, #156]	; 0x9c
  10af1c:	e340a011 	movt	sl, #17
  10af20:	e59d2098 	ldr	r2, [sp, #152]	; 0x98
  10af24:	eafffa84 	b	10993c <_vfprintf_r+0x5bc>
  10af28:	e59d0028 	ldr	r0, [sp, #40]	; 0x28
  10af2c:	e1a0100b 	mov	r1, fp
  10af30:	e28d2094 	add	r2, sp, #148	; 0x94
  10af34:	eb001472 	bl	110104 <__sprint_r>
  10af38:	e3500000 	cmp	r0, #0
  10af3c:	1afff9e2 	bne	1096cc <_vfprintf_r+0x34c>
  10af40:	e59d309c 	ldr	r3, [sp, #156]	; 0x9c
  10af44:	e1a09008 	mov	r9, r8
  10af48:	eafffd9c 	b	10a5c0 <_vfprintf_r+0x1240>
  10af4c:	e59d0028 	ldr	r0, [sp, #40]	; 0x28
  10af50:	e1a0100b 	mov	r1, fp
  10af54:	e28d2094 	add	r2, sp, #148	; 0x94
  10af58:	eb001469 	bl	110104 <__sprint_r>
  10af5c:	e3500000 	cmp	r0, #0
  10af60:	1afff9d9 	bne	1096cc <_vfprintf_r+0x34c>
  10af64:	e59d507c 	ldr	r5, [sp, #124]	; 0x7c
  10af68:	e1a09008 	mov	r9, r8
  10af6c:	e59d204c 	ldr	r2, [sp, #76]	; 0x4c
  10af70:	e59d309c 	ldr	r3, [sp, #156]	; 0x9c
  10af74:	e0655002 	rsb	r5, r5, r2
  10af78:	eafffe10 	b	10a7c0 <_vfprintf_r+0x1440>
  10af7c:	e3550006 	cmp	r5, #6
  10af80:	e1a0a002 	mov	sl, r2
  10af84:	23a05006 	movcs	r5, #6
  10af88:	e58d2044 	str	r2, [sp, #68]	; 0x44
  10af8c:	e58d2048 	str	r2, [sp, #72]	; 0x48
  10af90:	e3023920 	movw	r3, #10528	; 0x2920
  10af94:	e1c52fc5 	bic	r2, r5, r5, asr #31
  10af98:	e3403011 	movt	r3, #17
  10af9c:	e58d7034 	str	r7, [sp, #52]	; 0x34
  10afa0:	e58d2020 	str	r2, [sp, #32]
  10afa4:	e58d3040 	str	r3, [sp, #64]	; 0x40
  10afa8:	eafffa2a 	b	109858 <_vfprintf_r+0x4d8>
  10afac:	e302a8c8 	movw	sl, #10440	; 0x28c8
  10afb0:	e59d2098 	ldr	r2, [sp, #152]	; 0x98
  10afb4:	e340a011 	movt	sl, #17
  10afb8:	eafffc69 	b	10a164 <_vfprintf_r+0xde4>
  10afbc:	e28d2080 	add	r2, sp, #128	; 0x80
  10afc0:	e28d308c 	add	r3, sp, #140	; 0x8c
  10afc4:	e28d107c 	add	r1, sp, #124	; 0x7c
  10afc8:	e3a00003 	mov	r0, #3
  10afcc:	e88d0081 	stm	sp, {r0, r7}
  10afd0:	e58d1008 	str	r1, [sp, #8]
  10afd4:	e58d200c 	str	r2, [sp, #12]
  10afd8:	e58d3010 	str	r3, [sp, #16]
  10afdc:	e59d0028 	ldr	r0, [sp, #40]	; 0x28
  10afe0:	ec532b19 	vmov	r2, r3, d9
  10afe4:	eb00019e 	bl	10b664 <_dtoa_r>
  10afe8:	eeb59b40 	vcmp.f64	d9, #0.0
  10afec:	e1a02000 	mov	r2, r0
  10aff0:	e5d01000 	ldrb	r1, [r0]
  10aff4:	e0803007 	add	r3, r0, r7
  10aff8:	eef1fa10 	vmrs	APSR_nzcv, fpscr
  10affc:	13a02001 	movne	r2, #1
  10b000:	03a02000 	moveq	r2, #0
  10b004:	e3510030 	cmp	r1, #48	; 0x30
  10b008:	13a02000 	movne	r2, #0
  10b00c:	02022001 	andeq	r2, r2, #1
  10b010:	e58d0040 	str	r0, [sp, #64]	; 0x40
  10b014:	e3520000 	cmp	r2, #0
  10b018:	12674001 	rsbne	r4, r7, #1
  10b01c:	158d407c 	strne	r4, [sp, #124]	; 0x7c
  10b020:	059d407c 	ldreq	r4, [sp, #124]	; 0x7c
  10b024:	e0834004 	add	r4, r3, r4
  10b028:	eafffe94 	b	10aa80 <_vfprintf_r+0x1700>
  10b02c:	e58d3020 	str	r3, [sp, #32]
  10b030:	e3a0a02d 	mov	sl, #45	; 0x2d
  10b034:	e59d3038 	ldr	r3, [sp, #56]	; 0x38
  10b038:	e5cda077 	strb	sl, [sp, #119]	; 0x77
  10b03c:	e58d301c 	str	r3, [sp, #28]
  10b040:	e3a03000 	mov	r3, #0
  10b044:	e58d3044 	str	r3, [sp, #68]	; 0x44
  10b048:	eafffa04 	b	109860 <_vfprintf_r+0x4e0>
  10b04c:	e3560065 	cmp	r6, #101	; 0x65
  10b050:	da000013 	ble	10b0a4 <_vfprintf_r+0x1d24>
  10b054:	e3560066 	cmp	r6, #102	; 0x66
  10b058:	e58d3048 	str	r3, [sp, #72]	; 0x48
  10b05c:	1afffea1 	bne	10aae8 <_vfprintf_r+0x1768>
  10b060:	e3530000 	cmp	r3, #0
  10b064:	da000066 	ble	10b204 <_vfprintf_r+0x1e84>
  10b068:	e3570000 	cmp	r7, #0
  10b06c:	1a00005f 	bne	10b1f0 <_vfprintf_r+0x1e70>
  10b070:	e59d301c 	ldr	r3, [sp, #28]
  10b074:	e3130001 	tst	r3, #1
  10b078:	1a00005c 	bne	10b1f0 <_vfprintf_r+0x1e70>
  10b07c:	e59d5048 	ldr	r5, [sp, #72]	; 0x48
  10b080:	e1c53fc5 	bic	r3, r5, r5, asr #31
  10b084:	eafffea3 	b	10ab18 <_vfprintf_r+0x1798>
  10b088:	e1c53fc5 	bic	r3, r5, r5, asr #31
  10b08c:	e58d0044 	str	r0, [sp, #68]	; 0x44
  10b090:	e58d7034 	str	r7, [sp, #52]	; 0x34
  10b094:	e58d0048 	str	r0, [sp, #72]	; 0x48
  10b098:	e5dda077 	ldrb	sl, [sp, #119]	; 0x77
  10b09c:	e58d3020 	str	r3, [sp, #32]
  10b0a0:	eafff9ec 	b	109858 <_vfprintf_r+0x4d8>
  10b0a4:	e2433001 	sub	r3, r3, #1
  10b0a8:	e5cd6084 	strb	r6, [sp, #132]	; 0x84
  10b0ac:	e3530000 	cmp	r3, #0
  10b0b0:	e58d307c 	str	r3, [sp, #124]	; 0x7c
  10b0b4:	b2633000 	rsblt	r3, r3, #0
  10b0b8:	b3a0202d 	movlt	r2, #45	; 0x2d
  10b0bc:	a3a0202b 	movge	r2, #43	; 0x2b
  10b0c0:	e3530009 	cmp	r3, #9
  10b0c4:	e5cd2085 	strb	r2, [sp, #133]	; 0x85
  10b0c8:	da000042 	ble	10b1d8 <_vfprintf_r+0x1e58>
  10b0cc:	e59d406c 	ldr	r4, [sp, #108]	; 0x6c
  10b0d0:	e28de093 	add	lr, sp, #147	; 0x93
  10b0d4:	e1a0c00e 	mov	ip, lr
  10b0d8:	e0c10493 	smull	r0, r1, r3, r4
  10b0dc:	e1a02fc3 	asr	r2, r3, #31
  10b0e0:	e0621141 	rsb	r1, r2, r1, asr #2
  10b0e4:	e1a02181 	lsl	r2, r1, #3
  10b0e8:	e3510009 	cmp	r1, #9
  10b0ec:	e0822081 	add	r2, r2, r1, lsl #1
  10b0f0:	e0622003 	rsb	r2, r2, r3
  10b0f4:	e1a03001 	mov	r3, r1
  10b0f8:	e2822030 	add	r2, r2, #48	; 0x30
  10b0fc:	e56c2001 	strb	r2, [ip, #-1]!
  10b100:	cafffff4 	bgt	10b0d8 <_vfprintf_r+0x1d58>
  10b104:	e2813030 	add	r3, r1, #48	; 0x30
  10b108:	e1a0200c 	mov	r2, ip
  10b10c:	e6ef3073 	uxtb	r3, r3
  10b110:	e5623001 	strb	r3, [r2, #-1]!
  10b114:	e15e0002 	cmp	lr, r2
  10b118:	9a00004f 	bls	10b25c <_vfprintf_r+0x1edc>
  10b11c:	e1a0200c 	mov	r2, ip
  10b120:	e28d1086 	add	r1, sp, #134	; 0x86
  10b124:	ea000000 	b	10b12c <_vfprintf_r+0x1dac>
  10b128:	e4d23001 	ldrb	r3, [r2], #1
  10b12c:	e152000e 	cmp	r2, lr
  10b130:	e4c13001 	strb	r3, [r1], #1
  10b134:	1afffffb 	bne	10b128 <_vfprintf_r+0x1da8>
  10b138:	e28d3094 	add	r3, sp, #148	; 0x94
  10b13c:	e28d2086 	add	r2, sp, #134	; 0x86
  10b140:	e06c3003 	rsb	r3, ip, r3
  10b144:	e0823003 	add	r3, r2, r3
  10b148:	e59d104c 	ldr	r1, [sp, #76]	; 0x4c
  10b14c:	e28d2084 	add	r2, sp, #132	; 0x84
  10b150:	e0623003 	rsb	r3, r2, r3
  10b154:	e58d3068 	str	r3, [sp, #104]	; 0x68
  10b158:	e3510001 	cmp	r1, #1
  10b15c:	e0815003 	add	r5, r1, r3
  10b160:	da000039 	ble	10b24c <_vfprintf_r+0x1ecc>
  10b164:	e2855001 	add	r5, r5, #1
  10b168:	e3a03000 	mov	r3, #0
  10b16c:	e58d3048 	str	r3, [sp, #72]	; 0x48
  10b170:	e1c53fc5 	bic	r3, r5, r5, asr #31
  10b174:	eafffe67 	b	10ab18 <_vfprintf_r+0x1798>
  10b178:	e59d0028 	ldr	r0, [sp, #40]	; 0x28
  10b17c:	e1a0100b 	mov	r1, fp
  10b180:	e28d2094 	add	r2, sp, #148	; 0x94
  10b184:	eb0013de 	bl	110104 <__sprint_r>
  10b188:	e3500000 	cmp	r0, #0
  10b18c:	1afff94e 	bne	1096cc <_vfprintf_r+0x34c>
  10b190:	e59d507c 	ldr	r5, [sp, #124]	; 0x7c
  10b194:	e1a09008 	mov	r9, r8
  10b198:	e59d309c 	ldr	r3, [sp, #156]	; 0x9c
  10b19c:	e59d2098 	ldr	r2, [sp, #152]	; 0x98
  10b1a0:	eafffec8 	b	10acc8 <_vfprintf_r+0x1948>
  10b1a4:	eeb19b48 	vneg.f64	d9, d8
  10b1a8:	e3a0a02d 	mov	sl, #45	; 0x2d
  10b1ac:	eaffff16 	b	10ae0c <_vfprintf_r+0x1a8c>
  10b1b0:	e59d3048 	ldr	r3, [sp, #72]	; 0x48
  10b1b4:	e3530000 	cmp	r3, #0
  10b1b8:	d2635002 	rsble	r5, r3, #2
  10b1bc:	e59d304c 	ldr	r3, [sp, #76]	; 0x4c
  10b1c0:	c3a05001 	movgt	r5, #1
  10b1c4:	e0855003 	add	r5, r5, r3
  10b1c8:	e1c53fc5 	bic	r3, r5, r5, asr #31
  10b1cc:	eafffe51 	b	10ab18 <_vfprintf_r+0x1798>
  10b1d0:	e59d308c 	ldr	r3, [sp, #140]	; 0x8c
  10b1d4:	eafffe37 	b	10aab8 <_vfprintf_r+0x1738>
  10b1d8:	e2833030 	add	r3, r3, #48	; 0x30
  10b1dc:	e3a02030 	mov	r2, #48	; 0x30
  10b1e0:	e5cd3087 	strb	r3, [sp, #135]	; 0x87
  10b1e4:	e28d3088 	add	r3, sp, #136	; 0x88
  10b1e8:	e5cd2086 	strb	r2, [sp, #134]	; 0x86
  10b1ec:	eaffffd5 	b	10b148 <_vfprintf_r+0x1dc8>
  10b1f0:	e59d3048 	ldr	r3, [sp, #72]	; 0x48
  10b1f4:	e2875001 	add	r5, r7, #1
  10b1f8:	e0835005 	add	r5, r3, r5
  10b1fc:	e1c53fc5 	bic	r3, r5, r5, asr #31
  10b200:	eafffe44 	b	10ab18 <_vfprintf_r+0x1798>
  10b204:	e3570000 	cmp	r7, #0
  10b208:	1a000004 	bne	10b220 <_vfprintf_r+0x1ea0>
  10b20c:	e59d301c 	ldr	r3, [sp, #28]
  10b210:	e3130001 	tst	r3, #1
  10b214:	03a03001 	moveq	r3, #1
  10b218:	01a05003 	moveq	r5, r3
  10b21c:	0afffe3d 	beq	10ab18 <_vfprintf_r+0x1798>
  10b220:	e2875002 	add	r5, r7, #2
  10b224:	e1c53fc5 	bic	r3, r5, r5, asr #31
  10b228:	eafffe3a 	b	10ab18 <_vfprintf_r+0x1798>
  10b22c:	e59d0034 	ldr	r0, [sp, #52]	; 0x34
  10b230:	e5d16001 	ldrb	r6, [r1, #1]
  10b234:	e5907000 	ldr	r7, [r0]
  10b238:	e2800004 	add	r0, r0, #4
  10b23c:	e58d0034 	str	r0, [sp, #52]	; 0x34
  10b240:	e3570000 	cmp	r7, #0
  10b244:	aafff8a9 	bge	1094f0 <_vfprintf_r+0x170>
  10b248:	eafff8a7 	b	1094ec <_vfprintf_r+0x16c>
  10b24c:	e59d301c 	ldr	r3, [sp, #28]
  10b250:	e2133001 	ands	r3, r3, #1
  10b254:	0affffc4 	beq	10b16c <_vfprintf_r+0x1dec>
  10b258:	eaffffc1 	b	10b164 <_vfprintf_r+0x1de4>
  10b25c:	e28d3086 	add	r3, sp, #134	; 0x86
  10b260:	eaffffb8 	b	10b148 <_vfprintf_r+0x1dc8>
  10b264:	e1a04007 	mov	r4, r7
  10b268:	eafffef8 	b	10ae50 <_vfprintf_r+0x1ad0>
  10b26c:	001128d8 	.word	0x001128d8

0010b270 <vfprintf>:
  10b270:	e302cb08 	movw	ip, #11016	; 0x2b08
  10b274:	e52de004 	push	{lr}		; (str lr, [sp, #-4]!)
  10b278:	e340c011 	movt	ip, #17
  10b27c:	e1a0e001 	mov	lr, r1
  10b280:	e1a03002 	mov	r3, r2
  10b284:	e1a01000 	mov	r1, r0
  10b288:	e1a0200e 	mov	r2, lr
  10b28c:	e59c0000 	ldr	r0, [ip]
  10b290:	e49de004 	pop	{lr}		; (ldr lr, [sp], #4)
  10b294:	eafff839 	b	109380 <_vfprintf_r>

0010b298 <__sbprintf>:
  10b298:	e1d1c0bc 	ldrh	ip, [r1, #12]
  10b29c:	e92d47f0 	push	{r4, r5, r6, r7, r8, r9, sl, lr}
  10b2a0:	e1a04001 	mov	r4, r1
  10b2a4:	e1d490be 	ldrh	r9, [r4, #14]
  10b2a8:	e24dde46 	sub	sp, sp, #1120	; 0x460
  10b2ac:	e24dd008 	sub	sp, sp, #8
  10b2b0:	e3ccc002 	bic	ip, ip, #2
  10b2b4:	e594a064 	ldr	sl, [r4, #100]	; 0x64
  10b2b8:	e28d6068 	add	r6, sp, #104	; 0x68
  10b2bc:	e594801c 	ldr	r8, [r4, #28]
  10b2c0:	e3a0eb01 	mov	lr, #1024	; 0x400
  10b2c4:	e5947024 	ldr	r7, [r4, #36]	; 0x24
  10b2c8:	e1a0100d 	mov	r1, sp
  10b2cc:	e1cdc0bc 	strh	ip, [sp, #12]
  10b2d0:	e3a0c000 	mov	ip, #0
  10b2d4:	e1cd90be 	strh	r9, [sp, #14]
  10b2d8:	e1a09000 	mov	r9, r0
  10b2dc:	e58d6000 	str	r6, [sp]
  10b2e0:	e58d6010 	str	r6, [sp, #16]
  10b2e4:	e58da064 	str	sl, [sp, #100]	; 0x64
  10b2e8:	e58d801c 	str	r8, [sp, #28]
  10b2ec:	e58d7024 	str	r7, [sp, #36]	; 0x24
  10b2f0:	e58de008 	str	lr, [sp, #8]
  10b2f4:	e58de014 	str	lr, [sp, #20]
  10b2f8:	e58dc018 	str	ip, [sp, #24]
  10b2fc:	ebfff81f 	bl	109380 <_vfprintf_r>
  10b300:	e2506000 	subs	r6, r0, #0
  10b304:	ba000004 	blt	10b31c <__sbprintf+0x84>
  10b308:	e1a00009 	mov	r0, r9
  10b30c:	e1a0100d 	mov	r1, sp
  10b310:	eb000611 	bl	10cb5c <_fflush_r>
  10b314:	e3500000 	cmp	r0, #0
  10b318:	13e06000 	mvnne	r6, #0
  10b31c:	e1dd30bc 	ldrh	r3, [sp, #12]
  10b320:	e1a00006 	mov	r0, r6
  10b324:	e3130040 	tst	r3, #64	; 0x40
  10b328:	11d430bc 	ldrhne	r3, [r4, #12]
  10b32c:	13833040 	orrne	r3, r3, #64	; 0x40
  10b330:	11c430bc 	strhne	r3, [r4, #12]
  10b334:	e28dde46 	add	sp, sp, #1120	; 0x460
  10b338:	e28dd008 	add	sp, sp, #8
  10b33c:	e8bd87f0 	pop	{r4, r5, r6, r7, r8, r9, sl, pc}

0010b340 <__swsetup_r>:
  10b340:	e92d4038 	push	{r3, r4, r5, lr}
  10b344:	e3023b08 	movw	r3, #11016	; 0x2b08
  10b348:	e3403011 	movt	r3, #17
  10b34c:	e1a05000 	mov	r5, r0
  10b350:	e1a04001 	mov	r4, r1
  10b354:	e5930000 	ldr	r0, [r3]
  10b358:	e3500000 	cmp	r0, #0
  10b35c:	0a000002 	beq	10b36c <__swsetup_r+0x2c>
  10b360:	e5902038 	ldr	r2, [r0, #56]	; 0x38
  10b364:	e3520000 	cmp	r2, #0
  10b368:	0a000030 	beq	10b430 <__swsetup_r+0xf0>
  10b36c:	e1d420bc 	ldrh	r2, [r4, #12]
  10b370:	e6ff3072 	uxth	r3, r2
  10b374:	e3130008 	tst	r3, #8
  10b378:	0a00000b 	beq	10b3ac <__swsetup_r+0x6c>
  10b37c:	e5941010 	ldr	r1, [r4, #16]
  10b380:	e3510000 	cmp	r1, #0
  10b384:	0a000012 	beq	10b3d4 <__swsetup_r+0x94>
  10b388:	e2132001 	ands	r2, r3, #1
  10b38c:	1a000019 	bne	10b3f8 <__swsetup_r+0xb8>
  10b390:	e3130002 	tst	r3, #2
  10b394:	05942014 	ldreq	r2, [r4, #20]
  10b398:	e3510000 	cmp	r1, #0
  10b39c:	e5842008 	str	r2, [r4, #8]
  10b3a0:	0a00001b 	beq	10b414 <__swsetup_r+0xd4>
  10b3a4:	e3a00000 	mov	r0, #0
  10b3a8:	e8bd8038 	pop	{r3, r4, r5, pc}
  10b3ac:	e3130010 	tst	r3, #16
  10b3b0:	0a000033 	beq	10b484 <__swsetup_r+0x144>
  10b3b4:	e3130004 	tst	r3, #4
  10b3b8:	1a00001e 	bne	10b438 <__swsetup_r+0xf8>
  10b3bc:	e5941010 	ldr	r1, [r4, #16]
  10b3c0:	e3510000 	cmp	r1, #0
  10b3c4:	e3822008 	orr	r2, r2, #8
  10b3c8:	e6ff3072 	uxth	r3, r2
  10b3cc:	e1c420bc 	strh	r2, [r4, #12]
  10b3d0:	1affffec 	bne	10b388 <__swsetup_r+0x48>
  10b3d4:	e2032d0a 	and	r2, r3, #640	; 0x280
  10b3d8:	e3520c02 	cmp	r2, #512	; 0x200
  10b3dc:	0affffe9 	beq	10b388 <__swsetup_r+0x48>
  10b3e0:	e1a01004 	mov	r1, r4
  10b3e4:	e1a00005 	mov	r0, r5
  10b3e8:	eb000948 	bl	10d910 <__smakebuf_r>
  10b3ec:	e1d430bc 	ldrh	r3, [r4, #12]
  10b3f0:	e5941010 	ldr	r1, [r4, #16]
  10b3f4:	eaffffe3 	b	10b388 <__swsetup_r+0x48>
  10b3f8:	e5943014 	ldr	r3, [r4, #20]
  10b3fc:	e3510000 	cmp	r1, #0
  10b400:	e3a02000 	mov	r2, #0
  10b404:	e5842008 	str	r2, [r4, #8]
  10b408:	e2633000 	rsb	r3, r3, #0
  10b40c:	e5843018 	str	r3, [r4, #24]
  10b410:	1affffe3 	bne	10b3a4 <__swsetup_r+0x64>
  10b414:	e1d430bc 	ldrh	r3, [r4, #12]
  10b418:	e3130080 	tst	r3, #128	; 0x80
  10b41c:	0affffe0 	beq	10b3a4 <__swsetup_r+0x64>
  10b420:	e3833040 	orr	r3, r3, #64	; 0x40
  10b424:	e3e00000 	mvn	r0, #0
  10b428:	e1c430bc 	strh	r3, [r4, #12]
  10b42c:	e8bd8038 	pop	{r3, r4, r5, pc}
  10b430:	eb000698 	bl	10ce98 <__sinit>
  10b434:	eaffffcc 	b	10b36c <__swsetup_r+0x2c>
  10b438:	e5941030 	ldr	r1, [r4, #48]	; 0x30
  10b43c:	e3510000 	cmp	r1, #0
  10b440:	0a000007 	beq	10b464 <__swsetup_r+0x124>
  10b444:	e2843040 	add	r3, r4, #64	; 0x40
  10b448:	e1510003 	cmp	r1, r3
  10b44c:	0a000002 	beq	10b45c <__swsetup_r+0x11c>
  10b450:	e1a00005 	mov	r0, r5
  10b454:	eb0006e2 	bl	10cfe4 <_free_r>
  10b458:	e1d420bc 	ldrh	r2, [r4, #12]
  10b45c:	e3a03000 	mov	r3, #0
  10b460:	e5843030 	str	r3, [r4, #48]	; 0x30
  10b464:	e3c22024 	bic	r2, r2, #36	; 0x24
  10b468:	e5941010 	ldr	r1, [r4, #16]
  10b46c:	e1a02802 	lsl	r2, r2, #16
  10b470:	e3a03000 	mov	r3, #0
  10b474:	e5843004 	str	r3, [r4, #4]
  10b478:	e1a02822 	lsr	r2, r2, #16
  10b47c:	e5841000 	str	r1, [r4]
  10b480:	eaffffce 	b	10b3c0 <__swsetup_r+0x80>
  10b484:	e3822040 	orr	r2, r2, #64	; 0x40
  10b488:	e3a03009 	mov	r3, #9
  10b48c:	e5853000 	str	r3, [r5]
  10b490:	e3e00000 	mvn	r0, #0
  10b494:	e1c420bc 	strh	r2, [r4, #12]
  10b498:	e8bd8038 	pop	{r3, r4, r5, pc}
  10b49c:	00000000 	andeq	r0, r0, r0

0010b4a0 <quorem>:
  10b4a0:	e92d4ff0 	push	{r4, r5, r6, r7, r8, r9, sl, fp, lr}
  10b4a4:	e24dd00c 	sub	sp, sp, #12
  10b4a8:	e5903010 	ldr	r3, [r0, #16]
  10b4ac:	e5915010 	ldr	r5, [r1, #16]
  10b4b0:	e1550003 	cmp	r5, r3
  10b4b4:	c3a00000 	movgt	r0, #0
  10b4b8:	ca000067 	bgt	10b65c <quorem+0x1bc>
  10b4bc:	e2455001 	sub	r5, r5, #1
  10b4c0:	e2814014 	add	r4, r1, #20
  10b4c4:	e58d1000 	str	r1, [sp]
  10b4c8:	e2809014 	add	r9, r0, #20
  10b4cc:	e7941105 	ldr	r1, [r4, r5, lsl #2]
  10b4d0:	e1a0a105 	lsl	sl, r5, #2
  10b4d4:	e1a08000 	mov	r8, r0
  10b4d8:	e7990105 	ldr	r0, [r9, r5, lsl #2]
  10b4dc:	e084700a 	add	r7, r4, sl
  10b4e0:	e2811001 	add	r1, r1, #1
  10b4e4:	eb0019e3 	bl	111c78 <__aeabi_uidiv>
  10b4e8:	e2506000 	subs	r6, r0, #0
  10b4ec:	e089300a 	add	r3, r9, sl
  10b4f0:	e58d3004 	str	r3, [sp, #4]
  10b4f4:	0a00002c 	beq	10b5ac <quorem+0x10c>
  10b4f8:	e3a00000 	mov	r0, #0
  10b4fc:	e1a0e004 	mov	lr, r4
  10b500:	e1a0c009 	mov	ip, r9
  10b504:	e1a02000 	mov	r2, r0
  10b508:	e49e1004 	ldr	r1, [lr], #4
  10b50c:	e59cb000 	ldr	fp, [ip]
  10b510:	e157000e 	cmp	r7, lr
  10b514:	e6ff3071 	uxth	r3, r1
  10b518:	e1a01821 	lsr	r1, r1, #16
  10b51c:	e0200693 	mla	r0, r3, r6, r0
  10b520:	e0010691 	mul	r1, r1, r6
  10b524:	e6ff3070 	uxth	r3, r0
  10b528:	e0810820 	add	r0, r1, r0, lsr #16
  10b52c:	e0632002 	rsb	r2, r3, r2
  10b530:	e6f2207b 	uxtah	r2, r2, fp
  10b534:	e6ff3070 	uxth	r3, r0
  10b538:	e1a00820 	lsr	r0, r0, #16
  10b53c:	e6ff1072 	uxth	r1, r2
  10b540:	e063382b 	rsb	r3, r3, fp, lsr #16
  10b544:	e0832842 	add	r2, r3, r2, asr #16
  10b548:	e1811802 	orr	r1, r1, r2, lsl #16
  10b54c:	e1a02842 	asr	r2, r2, #16
  10b550:	e48c1004 	str	r1, [ip], #4
  10b554:	2affffeb 	bcs	10b508 <quorem+0x68>
  10b558:	e799300a 	ldr	r3, [r9, sl]
  10b55c:	e3530000 	cmp	r3, #0
  10b560:	1a000011 	bne	10b5ac <quorem+0x10c>
  10b564:	e59d2004 	ldr	r2, [sp, #4]
  10b568:	e2423004 	sub	r3, r2, #4
  10b56c:	e1590003 	cmp	r9, r3
  10b570:	2a00000c 	bcs	10b5a8 <quorem+0x108>
  10b574:	e5123004 	ldr	r3, [r2, #-4]
  10b578:	e3530000 	cmp	r3, #0
  10b57c:	1a000009 	bne	10b5a8 <quorem+0x108>
  10b580:	e2423008 	sub	r3, r2, #8
  10b584:	ea000002 	b	10b594 <quorem+0xf4>
  10b588:	e5922000 	ldr	r2, [r2]
  10b58c:	e3520000 	cmp	r2, #0
  10b590:	1a000004 	bne	10b5a8 <quorem+0x108>
  10b594:	e1590003 	cmp	r9, r3
  10b598:	e1a02003 	mov	r2, r3
  10b59c:	e2455001 	sub	r5, r5, #1
  10b5a0:	e2433004 	sub	r3, r3, #4
  10b5a4:	3afffff7 	bcc	10b588 <quorem+0xe8>
  10b5a8:	e5885010 	str	r5, [r8, #16]
  10b5ac:	e59d1000 	ldr	r1, [sp]
  10b5b0:	e1a00008 	mov	r0, r8
  10b5b4:	eb000edb 	bl	10f128 <__mcmp>
  10b5b8:	e3500000 	cmp	r0, #0
  10b5bc:	ba000025 	blt	10b658 <quorem+0x1b8>
  10b5c0:	e2866001 	add	r6, r6, #1
  10b5c4:	e1a0c009 	mov	ip, r9
  10b5c8:	e3a03000 	mov	r3, #0
  10b5cc:	e4940004 	ldr	r0, [r4], #4
  10b5d0:	e59c1000 	ldr	r1, [ip]
  10b5d4:	e1570004 	cmp	r7, r4
  10b5d8:	e6ff2070 	uxth	r2, r0
  10b5dc:	e1a00820 	lsr	r0, r0, #16
  10b5e0:	e0622003 	rsb	r2, r2, r3
  10b5e4:	e0603821 	rsb	r3, r0, r1, lsr #16
  10b5e8:	e6f22071 	uxtah	r2, r2, r1
  10b5ec:	e0833842 	add	r3, r3, r2, asr #16
  10b5f0:	e6ff2072 	uxth	r2, r2
  10b5f4:	e1821803 	orr	r1, r2, r3, lsl #16
  10b5f8:	e1a03843 	asr	r3, r3, #16
  10b5fc:	e48c1004 	str	r1, [ip], #4
  10b600:	2afffff1 	bcs	10b5cc <quorem+0x12c>
  10b604:	e7992105 	ldr	r2, [r9, r5, lsl #2]
  10b608:	e0893105 	add	r3, r9, r5, lsl #2
  10b60c:	e3520000 	cmp	r2, #0
  10b610:	1a000010 	bne	10b658 <quorem+0x1b8>
  10b614:	e2432004 	sub	r2, r3, #4
  10b618:	e1590002 	cmp	r9, r2
  10b61c:	2a00000c 	bcs	10b654 <quorem+0x1b4>
  10b620:	e5132004 	ldr	r2, [r3, #-4]
  10b624:	e3520000 	cmp	r2, #0
  10b628:	1a000009 	bne	10b654 <quorem+0x1b4>
  10b62c:	e2433008 	sub	r3, r3, #8
  10b630:	ea000002 	b	10b640 <quorem+0x1a0>
  10b634:	e5922000 	ldr	r2, [r2]
  10b638:	e3520000 	cmp	r2, #0
  10b63c:	1a000004 	bne	10b654 <quorem+0x1b4>
  10b640:	e1590003 	cmp	r9, r3
  10b644:	e1a02003 	mov	r2, r3
  10b648:	e2455001 	sub	r5, r5, #1
  10b64c:	e2433004 	sub	r3, r3, #4
  10b650:	3afffff7 	bcc	10b634 <quorem+0x194>
  10b654:	e5885010 	str	r5, [r8, #16]
  10b658:	e1a00006 	mov	r0, r6
  10b65c:	e28dd00c 	add	sp, sp, #12
  10b660:	e8bd8ff0 	pop	{r4, r5, r6, r7, r8, r9, sl, fp, pc}

0010b664 <_dtoa_r>:
  10b664:	e590c040 	ldr	ip, [r0, #64]	; 0x40
  10b668:	e92d4ff0 	push	{r4, r5, r6, r7, r8, r9, sl, fp, lr}
  10b66c:	e1a04000 	mov	r4, r0
  10b670:	ed2d8b02 	vpush	{d8}
  10b674:	e24dd03c 	sub	sp, sp, #60	; 0x3c
  10b678:	e35c0000 	cmp	ip, #0
  10b67c:	e1a0a002 	mov	sl, r2
  10b680:	e1a0b003 	mov	fp, r3
  10b684:	e59d6074 	ldr	r6, [sp, #116]	; 0x74
  10b688:	0a000008 	beq	10b6b0 <_dtoa_r+0x4c>
  10b68c:	e5902044 	ldr	r2, [r0, #68]	; 0x44
  10b690:	e3a03001 	mov	r3, #1
  10b694:	e1a0100c 	mov	r1, ip
  10b698:	e58c2004 	str	r2, [ip, #4]
  10b69c:	e1a03213 	lsl	r3, r3, r2
  10b6a0:	e58c3008 	str	r3, [ip, #8]
  10b6a4:	eb000cf2 	bl	10ea74 <_Bfree>
  10b6a8:	e3a03000 	mov	r3, #0
  10b6ac:	e5843040 	str	r3, [r4, #64]	; 0x40
  10b6b0:	e35b0000 	cmp	fp, #0
  10b6b4:	e1a0500b 	mov	r5, fp
  10b6b8:	b3a03001 	movlt	r3, #1
  10b6bc:	a3a03000 	movge	r3, #0
  10b6c0:	b5863000 	strlt	r3, [r6]
  10b6c4:	b3cb5102 	biclt	r5, fp, #-2147483648	; 0x80000000
  10b6c8:	a5863000 	strge	r3, [r6]
  10b6cc:	e3a03000 	mov	r3, #0
  10b6d0:	e1a02003 	mov	r2, r3
  10b6d4:	e3473ff0 	movt	r3, #32752	; 0x7ff0
  10b6d8:	e3472ff0 	movt	r2, #32752	; 0x7ff0
  10b6dc:	e0033005 	and	r3, r3, r5
  10b6e0:	b1a0b005 	movlt	fp, r5
  10b6e4:	e1530002 	cmp	r3, r2
  10b6e8:	0a000010 	beq	10b730 <_dtoa_r+0xcc>
  10b6ec:	ec4bab18 	vmov	d8, sl, fp
  10b6f0:	eeb58b40 	vcmp.f64	d8, #0.0
  10b6f4:	eef1fa10 	vmrs	APSR_nzcv, fpscr
  10b6f8:	1a00001f 	bne	10b77c <_dtoa_r+0x118>
  10b6fc:	e59d3078 	ldr	r3, [sp, #120]	; 0x78
  10b700:	e59d2070 	ldr	r2, [sp, #112]	; 0x70
  10b704:	e3530000 	cmp	r3, #0
  10b708:	e3a03001 	mov	r3, #1
  10b70c:	e5823000 	str	r3, [r2]
  10b710:	0a00008a 	beq	10b940 <_dtoa_r+0x2dc>
  10b714:	e59f0324 	ldr	r0, [pc, #804]	; 10ba40 <_dtoa_r+0x3dc>
  10b718:	e59d3078 	ldr	r3, [sp, #120]	; 0x78
  10b71c:	e5830000 	str	r0, [r3]
  10b720:	e2400001 	sub	r0, r0, #1
  10b724:	e28dd03c 	add	sp, sp, #60	; 0x3c
  10b728:	ecbd8b02 	vpop	{d8}
  10b72c:	e8bd8ff0 	pop	{r4, r5, r6, r7, r8, r9, sl, fp, pc}
  10b730:	e59d2070 	ldr	r2, [sp, #112]	; 0x70
  10b734:	e35a0000 	cmp	sl, #0
  10b738:	e302370f 	movw	r3, #9999	; 0x270f
  10b73c:	13020938 	movwne	r0, #10552	; 0x2938
  10b740:	13400011 	movtne	r0, #17
  10b744:	e5823000 	str	r3, [r2]
  10b748:	0a000069 	beq	10b8f4 <_dtoa_r+0x290>
  10b74c:	e59d3078 	ldr	r3, [sp, #120]	; 0x78
  10b750:	e3530000 	cmp	r3, #0
  10b754:	0afffff2 	beq	10b724 <_dtoa_r+0xc0>
  10b758:	e5d03003 	ldrb	r3, [r0, #3]
  10b75c:	e59d2078 	ldr	r2, [sp, #120]	; 0x78
  10b760:	e3530000 	cmp	r3, #0
  10b764:	12803008 	addne	r3, r0, #8
  10b768:	02803003 	addeq	r3, r0, #3
  10b76c:	e5823000 	str	r3, [r2]
  10b770:	e28dd03c 	add	sp, sp, #60	; 0x3c
  10b774:	ecbd8b02 	vpop	{d8}
  10b778:	e8bd8ff0 	pop	{r4, r5, r6, r7, r8, r9, sl, fp, pc}
  10b77c:	e28d2034 	add	r2, sp, #52	; 0x34
  10b780:	e28d3030 	add	r3, sp, #48	; 0x30
  10b784:	e58d2000 	str	r2, [sp]
  10b788:	e1a00004 	mov	r0, r4
  10b78c:	e58d3004 	str	r3, [sp, #4]
  10b790:	e1a0200a 	mov	r2, sl
  10b794:	e1a0300b 	mov	r3, fp
  10b798:	eb000f1a 	bl	10f408 <__d2b>
  10b79c:	e1b07a25 	lsrs	r7, r5, #20
  10b7a0:	e1a09000 	mov	r9, r0
  10b7a4:	1a00005b 	bne	10b918 <_dtoa_r+0x2b4>
  10b7a8:	e59d7030 	ldr	r7, [sp, #48]	; 0x30
  10b7ac:	e3e03e41 	mvn	r3, #1040	; 0x410
  10b7b0:	e59d1034 	ldr	r1, [sp, #52]	; 0x34
  10b7b4:	e0871001 	add	r1, r7, r1
  10b7b8:	e1510003 	cmp	r1, r3
  10b7bc:	ba00014a 	blt	10bcec <_dtoa_r+0x688>
  10b7c0:	e2813e41 	add	r3, r1, #1040	; 0x410
  10b7c4:	e30f2c0e 	movw	r2, #64526	; 0xfc0e
  10b7c8:	e2833002 	add	r3, r3, #2
  10b7cc:	e34f2fff 	movt	r2, #65535	; 0xffff
  10b7d0:	e1a0333a 	lsr	r3, sl, r3
  10b7d4:	e0612002 	rsb	r2, r1, r2
  10b7d8:	e1833215 	orr	r3, r3, r5, lsl r2
  10b7dc:	ee073a90 	vmov	s15, r3
  10b7e0:	eef80b67 	vcvt.f64.u32	d16, s15
  10b7e4:	e2411001 	sub	r1, r1, #1
  10b7e8:	e3a06001 	mov	r6, #1
  10b7ec:	ec532b30 	vmov	r2, r3, d16
  10b7f0:	e243361f 	sub	r3, r3, #32505856	; 0x1f00000
  10b7f4:	ec432b30 	vmov	d16, r2, r3
  10b7f8:	eef71b08 	vmov.f64	d17, #120	; 0x78
  10b7fc:	eddf3b89 	vldr	d19, [pc, #548]	; 10ba28 <_dtoa_r+0x3c4>
  10b800:	ee701be1 	vsub.f64	d17, d16, d17
  10b804:	eddf0b89 	vldr	d16, [pc, #548]	; 10ba30 <_dtoa_r+0x3cc>
  10b808:	ee071a90 	vmov	s15, r1
  10b80c:	eddf2b89 	vldr	d18, [pc, #548]	; 10ba38 <_dtoa_r+0x3d4>
  10b810:	ee410ba3 	vmla.f64	d16, d17, d19
  10b814:	eef81be7 	vcvt.f64.s32	d17, s15
  10b818:	ee410ba2 	vmla.f64	d16, d17, d18
  10b81c:	eefd7be0 	vcvt.s32.f64	s15, d16
  10b820:	eef50bc0 	vcmpe.f64	d16, #0.0
  10b824:	eef1fa10 	vmrs	APSR_nzcv, fpscr
  10b828:	edcd7a03 	vstr	s15, [sp, #12]
  10b82c:	4a000127 	bmi	10bcd0 <_dtoa_r+0x66c>
  10b830:	e59d300c 	ldr	r3, [sp, #12]
  10b834:	e3530016 	cmp	r3, #22
  10b838:	83a03001 	movhi	r3, #1
  10b83c:	858d3024 	strhi	r3, [sp, #36]	; 0x24
  10b840:	8a00000c 	bhi	10b878 <_dtoa_r+0x214>
  10b844:	e59d200c 	ldr	r2, [sp, #12]
  10b848:	e3023960 	movw	r3, #10592	; 0x2960
  10b84c:	e3403011 	movt	r3, #17
  10b850:	ec4bab31 	vmov	d17, sl, fp
  10b854:	e0833182 	add	r3, r3, r2, lsl #3
  10b858:	edd30b00 	vldr	d16, [r3]
  10b85c:	eef40be1 	vcmpe.f64	d16, d17
  10b860:	eef1fa10 	vmrs	APSR_nzcv, fpscr
  10b864:	c1a03002 	movgt	r3, r2
  10b868:	c2433001 	subgt	r3, r3, #1
  10b86c:	c58d300c 	strgt	r3, [sp, #12]
  10b870:	e3a03000 	mov	r3, #0
  10b874:	e58d3024 	str	r3, [sp, #36]	; 0x24
  10b878:	e0617007 	rsb	r7, r1, r7
  10b87c:	e2577001 	subs	r7, r7, #1
  10b880:	42673000 	rsbmi	r3, r7, #0
  10b884:	53a03000 	movpl	r3, #0
  10b888:	458d3014 	strmi	r3, [sp, #20]
  10b88c:	43a07000 	movmi	r7, #0
  10b890:	558d3014 	strpl	r3, [sp, #20]
  10b894:	e59d300c 	ldr	r3, [sp, #12]
  10b898:	e3530000 	cmp	r3, #0
  10b89c:	ba000102 	blt	10bcac <_dtoa_r+0x648>
  10b8a0:	e0877003 	add	r7, r7, r3
  10b8a4:	e58d3020 	str	r3, [sp, #32]
  10b8a8:	e3a03000 	mov	r3, #0
  10b8ac:	e58d3018 	str	r3, [sp, #24]
  10b8b0:	e59d3068 	ldr	r3, [sp, #104]	; 0x68
  10b8b4:	e3530009 	cmp	r3, #9
  10b8b8:	8a000023 	bhi	10b94c <_dtoa_r+0x2e8>
  10b8bc:	e3530005 	cmp	r3, #5
  10b8c0:	d3a05001 	movle	r5, #1
  10b8c4:	c3a05000 	movgt	r5, #0
  10b8c8:	c2433004 	subgt	r3, r3, #4
  10b8cc:	c58d3068 	strgt	r3, [sp, #104]	; 0x68
  10b8d0:	e59d3068 	ldr	r3, [sp, #104]	; 0x68
  10b8d4:	e2433002 	sub	r3, r3, #2
  10b8d8:	e3530003 	cmp	r3, #3
  10b8dc:	979ff103 	ldrls	pc, [pc, r3, lsl #2]
  10b8e0:	ea000107 	b	10bd04 <_dtoa_r+0x6a0>
  10b8e4:	0010c034 	.word	0x0010c034
  10b8e8:	0010bff4 	.word	0x0010bff4
  10b8ec:	0010bde0 	.word	0x0010bde0
  10b8f0:	0010c904 	.word	0x0010c904
  10b8f4:	e7f30055 	ubfx	r0, r5, #0, #20
  10b8f8:	e3023938 	movw	r3, #10552	; 0x2938
  10b8fc:	e302292c 	movw	r2, #10540	; 0x292c
  10b900:	e3500000 	cmp	r0, #0
  10b904:	e3403011 	movt	r3, #17
  10b908:	e3402011 	movt	r2, #17
  10b90c:	11a00003 	movne	r0, r3
  10b910:	01a00002 	moveq	r0, r2
  10b914:	eaffff8c 	b	10b74c <_dtoa_r+0xe8>
  10b918:	e1a0300b 	mov	r3, fp
  10b91c:	e2471fff 	sub	r1, r7, #1020	; 0x3fc
  10b920:	e7f30053 	ubfx	r0, r3, #0, #20
  10b924:	e1a0200a 	mov	r2, sl
  10b928:	e38035ff 	orr	r3, r0, #1069547520	; 0x3fc00000
  10b92c:	e2411003 	sub	r1, r1, #3
  10b930:	e59d7030 	ldr	r7, [sp, #48]	; 0x30
  10b934:	e3833603 	orr	r3, r3, #3145728	; 0x300000
  10b938:	e3a06000 	mov	r6, #0
  10b93c:	eaffffac 	b	10b7f4 <_dtoa_r+0x190>
  10b940:	e3020928 	movw	r0, #10536	; 0x2928
  10b944:	e3400011 	movt	r0, #17
  10b948:	eaffff75 	b	10b724 <_dtoa_r+0xc0>
  10b94c:	e3a01000 	mov	r1, #0
  10b950:	e3e03000 	mvn	r3, #0
  10b954:	e1a00004 	mov	r0, r4
  10b958:	e5841044 	str	r1, [r4, #68]	; 0x44
  10b95c:	e1a05003 	mov	r5, r3
  10b960:	e58d302c 	str	r3, [sp, #44]	; 0x2c
  10b964:	e58d106c 	str	r1, [sp, #108]	; 0x6c
  10b968:	eb000c1e 	bl	10e9e8 <_Balloc>
  10b96c:	e59d306c 	ldr	r3, [sp, #108]	; 0x6c
  10b970:	e1a08000 	mov	r8, r0
  10b974:	e5840040 	str	r0, [r4, #64]	; 0x40
  10b978:	e58d5010 	str	r5, [sp, #16]
  10b97c:	e58d3068 	str	r3, [sp, #104]	; 0x68
  10b980:	e3a03001 	mov	r3, #1
  10b984:	e58d301c 	str	r3, [sp, #28]
  10b988:	e59d200c 	ldr	r2, [sp, #12]
  10b98c:	e59d3034 	ldr	r3, [sp, #52]	; 0x34
  10b990:	e352000e 	cmp	r2, #14
  10b994:	c3a02000 	movgt	r2, #0
  10b998:	d3a02001 	movle	r2, #1
  10b99c:	e3530000 	cmp	r3, #0
  10b9a0:	b3a02000 	movlt	r2, #0
  10b9a4:	e3520000 	cmp	r2, #0
  10b9a8:	0a000025 	beq	10ba44 <_dtoa_r+0x3e0>
  10b9ac:	e59d206c 	ldr	r2, [sp, #108]	; 0x6c
  10b9b0:	e3023960 	movw	r3, #10592	; 0x2960
  10b9b4:	e59d1010 	ldr	r1, [sp, #16]
  10b9b8:	e3403011 	movt	r3, #17
  10b9bc:	e1a02fa2 	lsr	r2, r2, #31
  10b9c0:	e3510000 	cmp	r1, #0
  10b9c4:	c3a02000 	movgt	r2, #0
  10b9c8:	d2022001 	andle	r2, r2, #1
  10b9cc:	e59d100c 	ldr	r1, [sp, #12]
  10b9d0:	e3520000 	cmp	r2, #0
  10b9d4:	e0833181 	add	r3, r3, r1, lsl #3
  10b9d8:	edd32b00 	vldr	d18, [r3]
  10b9dc:	0a000197 	beq	10c040 <_dtoa_r+0x9dc>
  10b9e0:	e59d3010 	ldr	r3, [sp, #16]
  10b9e4:	e3530000 	cmp	r3, #0
  10b9e8:	1a0001e9 	bne	10c194 <_dtoa_r+0xb30>
  10b9ec:	eef10b04 	vmov.f64	d16, #20
  10b9f0:	ee622ba0 	vmul.f64	d18, d18, d16
  10b9f4:	ec4bab30 	vmov	d16, sl, fp
  10b9f8:	eef42be0 	vcmpe.f64	d18, d16
  10b9fc:	eef1fa10 	vmrs	APSR_nzcv, fpscr
  10ba00:	b1a06003 	movlt	r6, r3
  10ba04:	b1a05006 	movlt	r5, r6
  10ba08:	ba000086 	blt	10bc28 <_dtoa_r+0x5c4>
  10ba0c:	e59d6010 	ldr	r6, [sp, #16]
  10ba10:	e1a05006 	mov	r5, r6
  10ba14:	e59d306c 	ldr	r3, [sp, #108]	; 0x6c
  10ba18:	e1a0b008 	mov	fp, r8
  10ba1c:	e1e03003 	mvn	r3, r3
  10ba20:	e58d300c 	str	r3, [sp, #12]
  10ba24:	ea000085 	b	10bc40 <_dtoa_r+0x5dc>
  10ba28:	636f4361 	.word	0x636f4361
  10ba2c:	3fd287a7 	.word	0x3fd287a7
  10ba30:	8b60c8b3 	.word	0x8b60c8b3
  10ba34:	3fc68a28 	.word	0x3fc68a28
  10ba38:	509f79fb 	.word	0x509f79fb
  10ba3c:	3fd34413 	.word	0x3fd34413
  10ba40:	00112929 	.word	0x00112929
  10ba44:	e59d201c 	ldr	r2, [sp, #28]
  10ba48:	e3520000 	cmp	r2, #0
  10ba4c:	1a0000c2 	bne	10bd5c <_dtoa_r+0x6f8>
  10ba50:	e59d6018 	ldr	r6, [sp, #24]
  10ba54:	e59d501c 	ldr	r5, [sp, #28]
  10ba58:	e59d3014 	ldr	r3, [sp, #20]
  10ba5c:	e58d3028 	str	r3, [sp, #40]	; 0x28
  10ba60:	e59d3028 	ldr	r3, [sp, #40]	; 0x28
  10ba64:	e3570000 	cmp	r7, #0
  10ba68:	c3530000 	cmpgt	r3, #0
  10ba6c:	da000008 	ble	10ba94 <_dtoa_r+0x430>
  10ba70:	e1570003 	cmp	r7, r3
  10ba74:	e59d1014 	ldr	r1, [sp, #20]
  10ba78:	e1a02003 	mov	r2, r3
  10ba7c:	b1a03007 	movlt	r3, r7
  10ba80:	e0637007 	rsb	r7, r3, r7
  10ba84:	e0632002 	rsb	r2, r3, r2
  10ba88:	e0631001 	rsb	r1, r3, r1
  10ba8c:	e58d2028 	str	r2, [sp, #40]	; 0x28
  10ba90:	e58d1014 	str	r1, [sp, #20]
  10ba94:	e59d3018 	ldr	r3, [sp, #24]
  10ba98:	e3530000 	cmp	r3, #0
  10ba9c:	da000015 	ble	10baf8 <_dtoa_r+0x494>
  10baa0:	e59d301c 	ldr	r3, [sp, #28]
  10baa4:	e3530000 	cmp	r3, #0
  10baa8:	0a0002f5 	beq	10c684 <_dtoa_r+0x1020>
  10baac:	e3560000 	cmp	r6, #0
  10bab0:	da00000d 	ble	10baec <_dtoa_r+0x488>
  10bab4:	e1a01005 	mov	r1, r5
  10bab8:	e1a02006 	mov	r2, r6
  10babc:	e1a00004 	mov	r0, r4
  10bac0:	eb000d1a 	bl	10ef30 <__pow5mult>
  10bac4:	e1a05000 	mov	r5, r0
  10bac8:	e1a02009 	mov	r2, r9
  10bacc:	e1a01005 	mov	r1, r5
  10bad0:	e1a00004 	mov	r0, r4
  10bad4:	eb000c9f 	bl	10ed58 <__multiply>
  10bad8:	e1a01009 	mov	r1, r9
  10badc:	e1a03000 	mov	r3, r0
  10bae0:	e1a00004 	mov	r0, r4
  10bae4:	e1a09003 	mov	r9, r3
  10bae8:	eb000be1 	bl	10ea74 <_Bfree>
  10baec:	e59d3018 	ldr	r3, [sp, #24]
  10baf0:	e0532006 	subs	r2, r3, r6
  10baf4:	1a000303 	bne	10c708 <_dtoa_r+0x10a4>
  10baf8:	e1a00004 	mov	r0, r4
  10bafc:	e3a01001 	mov	r1, #1
  10bb00:	eb000c8c 	bl	10ed38 <__i2b>
  10bb04:	e59d3020 	ldr	r3, [sp, #32]
  10bb08:	e1a06000 	mov	r6, r0
  10bb0c:	e3530000 	cmp	r3, #0
  10bb10:	da000184 	ble	10c128 <_dtoa_r+0xac4>
  10bb14:	e1a01000 	mov	r1, r0
  10bb18:	e1a02003 	mov	r2, r3
  10bb1c:	e1a00004 	mov	r0, r4
  10bb20:	eb000d02 	bl	10ef30 <__pow5mult>
  10bb24:	e59d3068 	ldr	r3, [sp, #104]	; 0x68
  10bb28:	e1a06000 	mov	r6, r0
  10bb2c:	e3530001 	cmp	r3, #1
  10bb30:	da0002f9 	ble	10c71c <_dtoa_r+0x10b8>
  10bb34:	e3a03000 	mov	r3, #0
  10bb38:	e58d3018 	str	r3, [sp, #24]
  10bb3c:	e5963010 	ldr	r3, [r6, #16]
  10bb40:	e0863103 	add	r3, r6, r3, lsl #2
  10bb44:	e5930010 	ldr	r0, [r3, #16]
  10bb48:	eb000c3d 	bl	10ec44 <__hi0bits>
  10bb4c:	e2600020 	rsb	r0, r0, #32
  10bb50:	e0800007 	add	r0, r0, r7
  10bb54:	e210001f 	ands	r0, r0, #31
  10bb58:	0a0001ca 	beq	10c288 <_dtoa_r+0xc24>
  10bb5c:	e2603020 	rsb	r3, r0, #32
  10bb60:	e3530004 	cmp	r3, #4
  10bb64:	da000363 	ble	10c8f8 <_dtoa_r+0x1294>
  10bb68:	e260001c 	rsb	r0, r0, #28
  10bb6c:	e59d3014 	ldr	r3, [sp, #20]
  10bb70:	e0877000 	add	r7, r7, r0
  10bb74:	e0833000 	add	r3, r3, r0
  10bb78:	e58d3014 	str	r3, [sp, #20]
  10bb7c:	e59d3028 	ldr	r3, [sp, #40]	; 0x28
  10bb80:	e0833000 	add	r3, r3, r0
  10bb84:	e58d3028 	str	r3, [sp, #40]	; 0x28
  10bb88:	e59d3014 	ldr	r3, [sp, #20]
  10bb8c:	e3530000 	cmp	r3, #0
  10bb90:	da000004 	ble	10bba8 <_dtoa_r+0x544>
  10bb94:	e1a01009 	mov	r1, r9
  10bb98:	e1a02003 	mov	r2, r3
  10bb9c:	e1a00004 	mov	r0, r4
  10bba0:	eb000d21 	bl	10f02c <__lshift>
  10bba4:	e1a09000 	mov	r9, r0
  10bba8:	e3570000 	cmp	r7, #0
  10bbac:	da000004 	ble	10bbc4 <_dtoa_r+0x560>
  10bbb0:	e1a01006 	mov	r1, r6
  10bbb4:	e1a02007 	mov	r2, r7
  10bbb8:	e1a00004 	mov	r0, r4
  10bbbc:	eb000d1a 	bl	10f02c <__lshift>
  10bbc0:	e1a06000 	mov	r6, r0
  10bbc4:	e59d3024 	ldr	r3, [sp, #36]	; 0x24
  10bbc8:	e3530000 	cmp	r3, #0
  10bbcc:	1a0001f8 	bne	10c3b4 <_dtoa_r+0xd50>
  10bbd0:	e59d3068 	ldr	r3, [sp, #104]	; 0x68
  10bbd4:	e59d2010 	ldr	r2, [sp, #16]
  10bbd8:	e3530002 	cmp	r3, #2
  10bbdc:	c3a03001 	movgt	r3, #1
  10bbe0:	d3a03000 	movle	r3, #0
  10bbe4:	e3520000 	cmp	r2, #0
  10bbe8:	c3a03000 	movgt	r3, #0
  10bbec:	e3530000 	cmp	r3, #0
  10bbf0:	0a00016a 	beq	10c1a0 <_dtoa_r+0xb3c>
  10bbf4:	e59d3010 	ldr	r3, [sp, #16]
  10bbf8:	e3530000 	cmp	r3, #0
  10bbfc:	1affff84 	bne	10ba14 <_dtoa_r+0x3b0>
  10bc00:	e1a01006 	mov	r1, r6
  10bc04:	e3a02005 	mov	r2, #5
  10bc08:	e1a00004 	mov	r0, r4
  10bc0c:	eb000b9f 	bl	10ea90 <__multadd>
  10bc10:	e1a06000 	mov	r6, r0
  10bc14:	e1a00009 	mov	r0, r9
  10bc18:	e1a01006 	mov	r1, r6
  10bc1c:	eb000d41 	bl	10f128 <__mcmp>
  10bc20:	e3500000 	cmp	r0, #0
  10bc24:	daffff7a 	ble	10ba14 <_dtoa_r+0x3b0>
  10bc28:	e59d200c 	ldr	r2, [sp, #12]
  10bc2c:	e288b001 	add	fp, r8, #1
  10bc30:	e3a03031 	mov	r3, #49	; 0x31
  10bc34:	e5c83000 	strb	r3, [r8]
  10bc38:	e2822001 	add	r2, r2, #1
  10bc3c:	e58d200c 	str	r2, [sp, #12]
  10bc40:	e1a01006 	mov	r1, r6
  10bc44:	e1a00004 	mov	r0, r4
  10bc48:	eb000b89 	bl	10ea74 <_Bfree>
  10bc4c:	e3550000 	cmp	r5, #0
  10bc50:	0a000002 	beq	10bc60 <_dtoa_r+0x5fc>
  10bc54:	e1a01005 	mov	r1, r5
  10bc58:	e1a00004 	mov	r0, r4
  10bc5c:	eb000b84 	bl	10ea74 <_Bfree>
  10bc60:	e1a00004 	mov	r0, r4
  10bc64:	e1a01009 	mov	r1, r9
  10bc68:	eb000b81 	bl	10ea74 <_Bfree>
  10bc6c:	e59d3078 	ldr	r3, [sp, #120]	; 0x78
  10bc70:	e3a02000 	mov	r2, #0
  10bc74:	e5cb2000 	strb	r2, [fp]
  10bc78:	e59d2070 	ldr	r2, [sp, #112]	; 0x70
  10bc7c:	e3530000 	cmp	r3, #0
  10bc80:	e59d300c 	ldr	r3, [sp, #12]
  10bc84:	01a00008 	moveq	r0, r8
  10bc88:	e2833001 	add	r3, r3, #1
  10bc8c:	e5823000 	str	r3, [r2]
  10bc90:	0afffea3 	beq	10b724 <_dtoa_r+0xc0>
  10bc94:	e59d3078 	ldr	r3, [sp, #120]	; 0x78
  10bc98:	e1a00008 	mov	r0, r8
  10bc9c:	e583b000 	str	fp, [r3]
  10bca0:	e28dd03c 	add	sp, sp, #60	; 0x3c
  10bca4:	ecbd8b02 	vpop	{d8}
  10bca8:	e8bd8ff0 	pop	{r4, r5, r6, r7, r8, r9, sl, fp, pc}
  10bcac:	e59d2014 	ldr	r2, [sp, #20]
  10bcb0:	e59d300c 	ldr	r3, [sp, #12]
  10bcb4:	e0632002 	rsb	r2, r3, r2
  10bcb8:	e2633000 	rsb	r3, r3, #0
  10bcbc:	e58d3018 	str	r3, [sp, #24]
  10bcc0:	e3a03000 	mov	r3, #0
  10bcc4:	e58d2014 	str	r2, [sp, #20]
  10bcc8:	e58d3020 	str	r3, [sp, #32]
  10bccc:	eafffef7 	b	10b8b0 <_dtoa_r+0x24c>
  10bcd0:	eef81be7 	vcvt.f64.s32	d17, s15
  10bcd4:	eef41b60 	vcmp.f64	d17, d16
  10bcd8:	eef1fa10 	vmrs	APSR_nzcv, fpscr
  10bcdc:	1e173a90 	vmovne	r3, s15
  10bce0:	12433001 	subne	r3, r3, #1
  10bce4:	158d300c 	strne	r3, [sp, #12]
  10bce8:	eafffed0 	b	10b830 <_dtoa_r+0x1cc>
  10bcec:	e30f3bee 	movw	r3, #64494	; 0xfbee
  10bcf0:	e34f3fff 	movt	r3, #65535	; 0xffff
  10bcf4:	e0613003 	rsb	r3, r1, r3
  10bcf8:	e1a0331a 	lsl	r3, sl, r3
  10bcfc:	ee073a90 	vmov	s15, r3
  10bd00:	eafffeb6 	b	10b7e0 <_dtoa_r+0x17c>
  10bd04:	e3a05000 	mov	r5, #0
  10bd08:	e1a00004 	mov	r0, r4
  10bd0c:	e5845044 	str	r5, [r4, #68]	; 0x44
  10bd10:	e1a01005 	mov	r1, r5
  10bd14:	eb000b33 	bl	10e9e8 <_Balloc>
  10bd18:	e59d200c 	ldr	r2, [sp, #12]
  10bd1c:	e1a08000 	mov	r8, r0
  10bd20:	e59d3034 	ldr	r3, [sp, #52]	; 0x34
  10bd24:	e5840040 	str	r0, [r4, #64]	; 0x40
  10bd28:	e352000e 	cmp	r2, #14
  10bd2c:	c3a02000 	movgt	r2, #0
  10bd30:	d3a02001 	movle	r2, #1
  10bd34:	e1530005 	cmp	r3, r5
  10bd38:	b3a02000 	movlt	r2, #0
  10bd3c:	e1520005 	cmp	r2, r5
  10bd40:	1a0002f2 	bne	10c910 <_dtoa_r+0x12ac>
  10bd44:	e3e01000 	mvn	r1, #0
  10bd48:	e58d206c 	str	r2, [sp, #108]	; 0x6c
  10bd4c:	e3a02001 	mov	r2, #1
  10bd50:	e58d1010 	str	r1, [sp, #16]
  10bd54:	e58d102c 	str	r1, [sp, #44]	; 0x2c
  10bd58:	e58d201c 	str	r2, [sp, #28]
  10bd5c:	e59d2068 	ldr	r2, [sp, #104]	; 0x68
  10bd60:	e3520001 	cmp	r2, #1
  10bd64:	da000275 	ble	10c740 <_dtoa_r+0x10dc>
  10bd68:	e59d3010 	ldr	r3, [sp, #16]
  10bd6c:	e2436001 	sub	r6, r3, #1
  10bd70:	e59d3018 	ldr	r3, [sp, #24]
  10bd74:	e1530006 	cmp	r3, r6
  10bd78:	b59d3018 	ldrlt	r3, [sp, #24]
  10bd7c:	a0666003 	rsbge	r6, r6, r3
  10bd80:	b59d2020 	ldrlt	r2, [sp, #32]
  10bd84:	b58d6018 	strlt	r6, [sp, #24]
  10bd88:	b0633006 	rsblt	r3, r3, r6
  10bd8c:	b3a06000 	movlt	r6, #0
  10bd90:	b0823003 	addlt	r3, r2, r3
  10bd94:	b58d3020 	strlt	r3, [sp, #32]
  10bd98:	e59d3010 	ldr	r3, [sp, #16]
  10bd9c:	e3530000 	cmp	r3, #0
  10bda0:	e59d3014 	ldr	r3, [sp, #20]
  10bda4:	b59d2010 	ldrlt	r2, [sp, #16]
  10bda8:	a58d3028 	strge	r3, [sp, #40]	; 0x28
  10bdac:	a59d3010 	ldrge	r3, [sp, #16]
  10bdb0:	b0623003 	rsblt	r3, r2, r3
  10bdb4:	b58d3028 	strlt	r3, [sp, #40]	; 0x28
  10bdb8:	b3a03000 	movlt	r3, #0
  10bdbc:	e59d2014 	ldr	r2, [sp, #20]
  10bdc0:	e1a00004 	mov	r0, r4
  10bdc4:	e3a01001 	mov	r1, #1
  10bdc8:	e0877003 	add	r7, r7, r3
  10bdcc:	e0822003 	add	r2, r2, r3
  10bdd0:	e58d2014 	str	r2, [sp, #20]
  10bdd4:	eb000bd7 	bl	10ed38 <__i2b>
  10bdd8:	e1a05000 	mov	r5, r0
  10bddc:	eaffff1f 	b	10ba60 <_dtoa_r+0x3fc>
  10bde0:	e3a03001 	mov	r3, #1
  10bde4:	e58d301c 	str	r3, [sp, #28]
  10bde8:	e59d306c 	ldr	r3, [sp, #108]	; 0x6c
  10bdec:	e3530000 	cmp	r3, #0
  10bdf0:	da00021e 	ble	10c670 <_dtoa_r+0x100c>
  10bdf4:	e353000e 	cmp	r3, #14
  10bdf8:	83a05000 	movhi	r5, #0
  10bdfc:	92055001 	andls	r5, r5, #1
  10be00:	e1a0c003 	mov	ip, r3
  10be04:	e58d302c 	str	r3, [sp, #44]	; 0x2c
  10be08:	e58d3010 	str	r3, [sp, #16]
  10be0c:	e35c0017 	cmp	ip, #23
  10be10:	e3a01000 	mov	r1, #0
  10be14:	e5841044 	str	r1, [r4, #68]	; 0x44
  10be18:	9a000008 	bls	10be40 <_dtoa_r+0x7dc>
  10be1c:	e3a02001 	mov	r2, #1
  10be20:	e3a03004 	mov	r3, #4
  10be24:	e1a03083 	lsl	r3, r3, #1
  10be28:	e1a01002 	mov	r1, r2
  10be2c:	e2822001 	add	r2, r2, #1
  10be30:	e2830014 	add	r0, r3, #20
  10be34:	e150000c 	cmp	r0, ip
  10be38:	9afffff9 	bls	10be24 <_dtoa_r+0x7c0>
  10be3c:	e5841044 	str	r1, [r4, #68]	; 0x44
  10be40:	e1a00004 	mov	r0, r4
  10be44:	eb000ae7 	bl	10e9e8 <_Balloc>
  10be48:	e3550000 	cmp	r5, #0
  10be4c:	e1a08000 	mov	r8, r0
  10be50:	e5840040 	str	r0, [r4, #64]	; 0x40
  10be54:	0afffecb 	beq	10b988 <_dtoa_r+0x324>
  10be58:	e59d100c 	ldr	r1, [sp, #12]
  10be5c:	ec4bab34 	vmov	d20, sl, fp
  10be60:	e3510000 	cmp	r1, #0
  10be64:	da00010b 	ble	10c298 <_dtoa_r+0xc34>
  10be68:	e3022960 	movw	r2, #10592	; 0x2960
  10be6c:	e1a03241 	asr	r3, r1, #4
  10be70:	e3402011 	movt	r2, #17
  10be74:	e201100f 	and	r1, r1, #15
  10be78:	e3130010 	tst	r3, #16
  10be7c:	e0822181 	add	r2, r2, r1, lsl #3
  10be80:	1203300f 	andne	r3, r3, #15
  10be84:	13a01003 	movne	r1, #3
  10be88:	0ef03b64 	vmoveq.f64	d19, d20
  10be8c:	edd20b00 	vldr	d16, [r2]
  10be90:	13022a50 	movwne	r2, #10832	; 0x2a50
  10be94:	13402011 	movtne	r2, #17
  10be98:	03a01002 	moveq	r1, #2
  10be9c:	1dd23b08 	vldrne	d19, [r2, #32]
  10bea0:	1ec43ba3 	vdivne.f64	d19, d20, d19
  10bea4:	e3530000 	cmp	r3, #0
  10bea8:	0a000008 	beq	10bed0 <_dtoa_r+0x86c>
  10beac:	e3022a50 	movw	r2, #10832	; 0x2a50
  10beb0:	e3402011 	movt	r2, #17
  10beb4:	e3130001 	tst	r3, #1
  10beb8:	e2822008 	add	r2, r2, #8
  10bebc:	1d521b02 	vldrne	d17, [r2, #-8]
  10bec0:	12811001 	addne	r1, r1, #1
  10bec4:	1e600ba1 	vmulne.f64	d16, d16, d17
  10bec8:	e1b030c3 	asrs	r3, r3, #1
  10becc:	1afffff8 	bne	10beb4 <_dtoa_r+0x850>
  10bed0:	eec33ba0 	vdiv.f64	d19, d19, d16
  10bed4:	e59d3024 	ldr	r3, [sp, #36]	; 0x24
  10bed8:	e3530000 	cmp	r3, #0
  10bedc:	0a000003 	beq	10bef0 <_dtoa_r+0x88c>
  10bee0:	eef70b00 	vmov.f64	d16, #112	; 0x70
  10bee4:	eef43be0 	vcmpe.f64	d19, d16
  10bee8:	eef1fa10 	vmrs	APSR_nzcv, fpscr
  10beec:	4a0001ea 	bmi	10c69c <_dtoa_r+0x1038>
  10bef0:	ee071a90 	vmov	s15, r1
  10bef4:	eef80be7 	vcvt.f64.s32	d16, s15
  10bef8:	eef12b0c 	vmov.f64	d18, #28
  10befc:	e59d3010 	ldr	r3, [sp, #16]
  10bf00:	ee402ba3 	vmla.f64	d18, d16, d19
  10bf04:	e3530000 	cmp	r3, #0
  10bf08:	eeb06b62 	vmov.f64	d6, d18
  10bf0c:	ee163a90 	vmov	r3, s13
  10bf10:	e243350d 	sub	r3, r3, #54525952	; 0x3400000
  10bf14:	ee063a90 	vmov	s13, r3
  10bf18:	0a000094 	beq	10c170 <_dtoa_r+0xb0c>
  10bf1c:	e59d200c 	ldr	r2, [sp, #12]
  10bf20:	e59d1010 	ldr	r1, [sp, #16]
  10bf24:	e59d301c 	ldr	r3, [sp, #28]
  10bf28:	e3530000 	cmp	r3, #0
  10bf2c:	e3023960 	movw	r3, #10592	; 0x2960
  10bf30:	0a0000f4 	beq	10c308 <_dtoa_r+0xca4>
  10bf34:	e2410001 	sub	r0, r1, #1
  10bf38:	e3403011 	movt	r3, #17
  10bf3c:	e0833180 	add	r3, r3, r0, lsl #3
  10bf40:	eef61b00 	vmov.f64	d17, #96	; 0x60
  10bf44:	eefd7be3 	vcvt.s32.f64	s15, d19
  10bf48:	e288b001 	add	fp, r8, #1
  10bf4c:	edd32b00 	vldr	d18, [r3]
  10bf50:	eef80be7 	vcvt.f64.s32	d16, s15
  10bf54:	eec11ba2 	vdiv.f64	d17, d17, d18
  10bf58:	ee173a90 	vmov	r3, s15
  10bf5c:	e2833030 	add	r3, r3, #48	; 0x30
  10bf60:	ee730be0 	vsub.f64	d16, d19, d16
  10bf64:	e6ef3073 	uxtb	r3, r3
  10bf68:	e5c83000 	strb	r3, [r8]
  10bf6c:	ee712bc6 	vsub.f64	d18, d17, d6
  10bf70:	eef42be0 	vcmpe.f64	d18, d16
  10bf74:	eef1fa10 	vmrs	APSR_nzcv, fpscr
  10bf78:	ca00001b 	bgt	10bfec <_dtoa_r+0x988>
  10bf7c:	eef75b00 	vmov.f64	d21, #112	; 0x70
  10bf80:	ee751be0 	vsub.f64	d17, d21, d16
  10bf84:	eef42be1 	vcmpe.f64	d18, d17
  10bf88:	eef1fa10 	vmrs	APSR_nzcv, fpscr
  10bf8c:	ca000058 	bgt	10c0f4 <_dtoa_r+0xa90>
  10bf90:	e3510001 	cmp	r1, #1
  10bf94:	da0000bd 	ble	10c290 <_dtoa_r+0xc2c>
  10bf98:	e0881001 	add	r1, r8, r1
  10bf9c:	eef23b04 	vmov.f64	d19, #36	; 0x24
  10bfa0:	ea000005 	b	10bfbc <_dtoa_r+0x958>
  10bfa4:	ee751be0 	vsub.f64	d17, d21, d16
  10bfa8:	eef41be2 	vcmpe.f64	d17, d18
  10bfac:	eef1fa10 	vmrs	APSR_nzcv, fpscr
  10bfb0:	4a00004f 	bmi	10c0f4 <_dtoa_r+0xa90>
  10bfb4:	e15b0001 	cmp	fp, r1
  10bfb8:	0a0000b4 	beq	10c290 <_dtoa_r+0xc2c>
  10bfbc:	ee600ba3 	vmul.f64	d16, d16, d19
  10bfc0:	ee622ba3 	vmul.f64	d18, d18, d19
  10bfc4:	eefd7be0 	vcvt.s32.f64	s15, d16
  10bfc8:	eef81be7 	vcvt.f64.s32	d17, s15
  10bfcc:	ee173a90 	vmov	r3, s15
  10bfd0:	e2833030 	add	r3, r3, #48	; 0x30
  10bfd4:	e6ef3073 	uxtb	r3, r3
  10bfd8:	ee700be1 	vsub.f64	d16, d16, d17
  10bfdc:	e4cb3001 	strb	r3, [fp], #1
  10bfe0:	eef40be2 	vcmpe.f64	d16, d18
  10bfe4:	eef1fa10 	vmrs	APSR_nzcv, fpscr
  10bfe8:	5affffed 	bpl	10bfa4 <_dtoa_r+0x940>
  10bfec:	e58d200c 	str	r2, [sp, #12]
  10bff0:	eaffff1a 	b	10bc60 <_dtoa_r+0x5fc>
  10bff4:	e3a03000 	mov	r3, #0
  10bff8:	e58d301c 	str	r3, [sp, #28]
  10bffc:	e59d306c 	ldr	r3, [sp, #108]	; 0x6c
  10c000:	e59d200c 	ldr	r2, [sp, #12]
  10c004:	e0833002 	add	r3, r3, r2
  10c008:	e58d302c 	str	r3, [sp, #44]	; 0x2c
  10c00c:	e2833001 	add	r3, r3, #1
  10c010:	e3530000 	cmp	r3, #0
  10c014:	e58d3010 	str	r3, [sp, #16]
  10c018:	da00018d 	ble	10c654 <_dtoa_r+0xff0>
  10c01c:	e59d3010 	ldr	r3, [sp, #16]
  10c020:	e353000e 	cmp	r3, #14
  10c024:	83a05000 	movhi	r5, #0
  10c028:	92055001 	andls	r5, r5, #1
  10c02c:	e1a0c003 	mov	ip, r3
  10c030:	eaffff75 	b	10be0c <_dtoa_r+0x7a8>
  10c034:	e3a03000 	mov	r3, #0
  10c038:	e58d301c 	str	r3, [sp, #28]
  10c03c:	eaffff69 	b	10bde8 <_dtoa_r+0x784>
  10c040:	ec4bab30 	vmov	d16, sl, fp
  10c044:	e288b001 	add	fp, r8, #1
  10c048:	e59d3010 	ldr	r3, [sp, #16]
  10c04c:	eec01ba2 	vdiv.f64	d17, d16, d18
  10c050:	e3530001 	cmp	r3, #1
  10c054:	eefd7be1 	vcvt.s32.f64	s15, d17
  10c058:	eef81be7 	vcvt.f64.s32	d17, s15
  10c05c:	ee173a90 	vmov	r3, s15
  10c060:	e2833030 	add	r3, r3, #48	; 0x30
  10c064:	e5c83000 	strb	r3, [r8]
  10c068:	ee410be2 	vmls.f64	d16, d17, d18
  10c06c:	0a000014 	beq	10c0c4 <_dtoa_r+0xa60>
  10c070:	eef23b04 	vmov.f64	d19, #36	; 0x24
  10c074:	ee600ba3 	vmul.f64	d16, d16, d19
  10c078:	eef50b40 	vcmp.f64	d16, #0.0
  10c07c:	eef1fa10 	vmrs	APSR_nzcv, fpscr
  10c080:	159d2010 	ldrne	r2, [sp, #16]
  10c084:	1a000004 	bne	10c09c <_dtoa_r+0xa38>
  10c088:	eafffef4 	b	10bc60 <_dtoa_r+0x5fc>
  10c08c:	ee600ba3 	vmul.f64	d16, d16, d19
  10c090:	eef50b40 	vcmp.f64	d16, #0.0
  10c094:	eef1fa10 	vmrs	APSR_nzcv, fpscr
  10c098:	0afffef0 	beq	10bc60 <_dtoa_r+0x5fc>
  10c09c:	eec01ba2 	vdiv.f64	d17, d16, d18
  10c0a0:	eefd7be1 	vcvt.s32.f64	s15, d17
  10c0a4:	ee173a90 	vmov	r3, s15
  10c0a8:	e2833030 	add	r3, r3, #48	; 0x30
  10c0ac:	eef81be7 	vcvt.f64.s32	d17, s15
  10c0b0:	e4cb3001 	strb	r3, [fp], #1
  10c0b4:	e068300b 	rsb	r3, r8, fp
  10c0b8:	e1520003 	cmp	r2, r3
  10c0bc:	ee410be2 	vmls.f64	d16, d17, d18
  10c0c0:	1afffff1 	bne	10c08c <_dtoa_r+0xa28>
  10c0c4:	ee700ba0 	vadd.f64	d16, d16, d16
  10c0c8:	eef42be0 	vcmpe.f64	d18, d16
  10c0cc:	eef1fa10 	vmrs	APSR_nzcv, fpscr
  10c0d0:	4a000005 	bmi	10c0ec <_dtoa_r+0xa88>
  10c0d4:	eef42b60 	vcmp.f64	d18, d16
  10c0d8:	eef1fa10 	vmrs	APSR_nzcv, fpscr
  10c0dc:	1afffedf 	bne	10bc60 <_dtoa_r+0x5fc>
  10c0e0:	ee173a90 	vmov	r3, s15
  10c0e4:	e3130001 	tst	r3, #1
  10c0e8:	0afffedc 	beq	10bc60 <_dtoa_r+0x5fc>
  10c0ec:	e59d200c 	ldr	r2, [sp, #12]
  10c0f0:	e55b3001 	ldrb	r3, [fp, #-1]
  10c0f4:	e24b1001 	sub	r1, fp, #1
  10c0f8:	ea000002 	b	10c108 <_dtoa_r+0xaa4>
  10c0fc:	e1510008 	cmp	r1, r8
  10c100:	0a00017a 	beq	10c6f0 <_dtoa_r+0x108c>
  10c104:	e5713001 	ldrb	r3, [r1, #-1]!
  10c108:	e3530039 	cmp	r3, #57	; 0x39
  10c10c:	e281b001 	add	fp, r1, #1
  10c110:	0afffff9 	beq	10c0fc <_dtoa_r+0xa98>
  10c114:	e2833001 	add	r3, r3, #1
  10c118:	e58d200c 	str	r2, [sp, #12]
  10c11c:	e6ef3073 	uxtb	r3, r3
  10c120:	e5c13000 	strb	r3, [r1]
  10c124:	eafffecd 	b	10bc60 <_dtoa_r+0x5fc>
  10c128:	e59d3068 	ldr	r3, [sp, #104]	; 0x68
  10c12c:	e3530001 	cmp	r3, #1
  10c130:	da0000be 	ble	10c430 <_dtoa_r+0xdcc>
  10c134:	e3a03000 	mov	r3, #0
  10c138:	e58d3018 	str	r3, [sp, #24]
  10c13c:	e59d3020 	ldr	r3, [sp, #32]
  10c140:	e3530000 	cmp	r3, #0
  10c144:	03a00001 	moveq	r0, #1
  10c148:	0afffe80 	beq	10bb50 <_dtoa_r+0x4ec>
  10c14c:	eafffe7a 	b	10bb3c <_dtoa_r+0x4d8>
  10c150:	ee071a90 	vmov	s15, r1
  10c154:	eef81be7 	vcvt.f64.s32	d17, s15
  10c158:	eef12b0c 	vmov.f64	d18, #28
  10c15c:	ee432ba1 	vmla.f64	d18, d19, d17
  10c160:	eeb06b62 	vmov.f64	d6, d18
  10c164:	ee163a90 	vmov	r3, s13
  10c168:	e243350d 	sub	r3, r3, #54525952	; 0x3400000
  10c16c:	ee063a90 	vmov	s13, r3
  10c170:	eef10b04 	vmov.f64	d16, #20
  10c174:	ee730be0 	vsub.f64	d16, d19, d16
  10c178:	eef40bc6 	vcmpe.f64	d16, d6
  10c17c:	eef1fa10 	vmrs	APSR_nzcv, fpscr
  10c180:	ca00005d 	bgt	10c2fc <_dtoa_r+0xc98>
  10c184:	eef12b46 	vneg.f64	d18, d6
  10c188:	eef40be2 	vcmpe.f64	d16, d18
  10c18c:	eef1fa10 	vmrs	APSR_nzcv, fpscr
  10c190:	5a00003e 	bpl	10c290 <_dtoa_r+0xc2c>
  10c194:	e3a06000 	mov	r6, #0
  10c198:	e1a05006 	mov	r5, r6
  10c19c:	eafffe1c 	b	10ba14 <_dtoa_r+0x3b0>
  10c1a0:	e59d301c 	ldr	r3, [sp, #28]
  10c1a4:	e3530000 	cmp	r3, #0
  10c1a8:	1a0000c3 	bne	10c4bc <_dtoa_r+0xe58>
  10c1ac:	e1a07008 	mov	r7, r8
  10c1b0:	e59da010 	ldr	sl, [sp, #16]
  10c1b4:	ea000001 	b	10c1c0 <_dtoa_r+0xb5c>
  10c1b8:	eb000a34 	bl	10ea90 <__multadd>
  10c1bc:	e1a09000 	mov	r9, r0
  10c1c0:	e1a01006 	mov	r1, r6
  10c1c4:	e1a00009 	mov	r0, r9
  10c1c8:	ebfffcb4 	bl	10b4a0 <quorem>
  10c1cc:	e280c030 	add	ip, r0, #48	; 0x30
  10c1d0:	e1a01009 	mov	r1, r9
  10c1d4:	e4c7c001 	strb	ip, [r7], #1
  10c1d8:	e0683007 	rsb	r3, r8, r7
  10c1dc:	e153000a 	cmp	r3, sl
  10c1e0:	e1a00004 	mov	r0, r4
  10c1e4:	e3a0200a 	mov	r2, #10
  10c1e8:	e3a03000 	mov	r3, #0
  10c1ec:	bafffff1 	blt	10c1b8 <_dtoa_r+0xb54>
  10c1f0:	e59d3010 	ldr	r3, [sp, #16]
  10c1f4:	e3a0a000 	mov	sl, #0
  10c1f8:	e58dc014 	str	ip, [sp, #20]
  10c1fc:	e3530001 	cmp	r3, #1
  10c200:	a088b003 	addge	fp, r8, r3
  10c204:	b288b001 	addlt	fp, r8, #1
  10c208:	e1a01009 	mov	r1, r9
  10c20c:	e3a02001 	mov	r2, #1
  10c210:	e1a00004 	mov	r0, r4
  10c214:	eb000b84 	bl	10f02c <__lshift>
  10c218:	e1a01006 	mov	r1, r6
  10c21c:	e1a09000 	mov	r9, r0
  10c220:	eb000bc0 	bl	10f128 <__mcmp>
  10c224:	e3500000 	cmp	r0, #0
  10c228:	da000168 	ble	10c7d0 <_dtoa_r+0x116c>
  10c22c:	e55b2001 	ldrb	r2, [fp, #-1]
  10c230:	e24b3001 	sub	r3, fp, #1
  10c234:	ea000002 	b	10c244 <_dtoa_r+0xbe0>
  10c238:	e1530008 	cmp	r3, r8
  10c23c:	0a000139 	beq	10c728 <_dtoa_r+0x10c4>
  10c240:	e5732001 	ldrb	r2, [r3, #-1]!
  10c244:	e3520039 	cmp	r2, #57	; 0x39
  10c248:	e283b001 	add	fp, r3, #1
  10c24c:	0afffff9 	beq	10c238 <_dtoa_r+0xbd4>
  10c250:	e2822001 	add	r2, r2, #1
  10c254:	e5c32000 	strb	r2, [r3]
  10c258:	e1a01006 	mov	r1, r6
  10c25c:	e1a00004 	mov	r0, r4
  10c260:	eb000a03 	bl	10ea74 <_Bfree>
  10c264:	e3550000 	cmp	r5, #0
  10c268:	0afffe7c 	beq	10bc60 <_dtoa_r+0x5fc>
  10c26c:	e15a0005 	cmp	sl, r5
  10c270:	135a0000 	cmpne	sl, #0
  10c274:	0afffe76 	beq	10bc54 <_dtoa_r+0x5f0>
  10c278:	e1a0100a 	mov	r1, sl
  10c27c:	e1a00004 	mov	r0, r4
  10c280:	eb0009fb 	bl	10ea74 <_Bfree>
  10c284:	eafffe72 	b	10bc54 <_dtoa_r+0x5f0>
  10c288:	e3a0001c 	mov	r0, #28
  10c28c:	eafffe36 	b	10bb6c <_dtoa_r+0x508>
  10c290:	ec5bab34 	vmov	sl, fp, d20
  10c294:	eafffdbb 	b	10b988 <_dtoa_r+0x324>
  10c298:	e59d300c 	ldr	r3, [sp, #12]
  10c29c:	e2633000 	rsb	r3, r3, #0
  10c2a0:	e3530000 	cmp	r3, #0
  10c2a4:	03a01002 	moveq	r1, #2
  10c2a8:	0ef03b64 	vmoveq.f64	d19, d20
  10c2ac:	0affff08 	beq	10bed4 <_dtoa_r+0x870>
  10c2b0:	e3022960 	movw	r2, #10592	; 0x2960
  10c2b4:	e203100f 	and	r1, r3, #15
  10c2b8:	e3402011 	movt	r2, #17
  10c2bc:	e1b00243 	asrs	r0, r3, #4
  10c2c0:	e0822181 	add	r2, r2, r1, lsl #3
  10c2c4:	edd20b00 	vldr	d16, [r2]
  10c2c8:	ee643ba0 	vmul.f64	d19, d20, d16
  10c2cc:	0a000182 	beq	10c8dc <_dtoa_r+0x1278>
  10c2d0:	e3023a50 	movw	r3, #10832	; 0x2a50
  10c2d4:	e3a01002 	mov	r1, #2
  10c2d8:	e3403011 	movt	r3, #17
  10c2dc:	e3100001 	tst	r0, #1
  10c2e0:	e2833008 	add	r3, r3, #8
  10c2e4:	1d530b02 	vldrne	d16, [r3, #-8]
  10c2e8:	12811001 	addne	r1, r1, #1
  10c2ec:	1e633ba0 	vmulne.f64	d19, d19, d16
  10c2f0:	e1b000c0 	asrs	r0, r0, #1
  10c2f4:	1afffff8 	bne	10c2dc <_dtoa_r+0xc78>
  10c2f8:	eafffef5 	b	10bed4 <_dtoa_r+0x870>
  10c2fc:	e3a06000 	mov	r6, #0
  10c300:	e1a05006 	mov	r5, r6
  10c304:	eafffe47 	b	10bc28 <_dtoa_r+0x5c4>
  10c308:	eefd7be3 	vcvt.s32.f64	s15, d19
  10c30c:	e2410001 	sub	r0, r1, #1
  10c310:	e3403011 	movt	r3, #17
  10c314:	e3510001 	cmp	r1, #1
  10c318:	e0833180 	add	r3, r3, r0, lsl #3
  10c31c:	e288b001 	add	fp, r8, #1
  10c320:	10881001 	addne	r1, r8, r1
  10c324:	edd32b00 	vldr	d18, [r3]
  10c328:	11a0c00b 	movne	ip, fp
  10c32c:	eef81be7 	vcvt.f64.s32	d17, s15
  10c330:	ee173a90 	vmov	r3, s15
  10c334:	e2833030 	add	r3, r3, #48	; 0x30
  10c338:	e5c83000 	strb	r3, [r8]
  10c33c:	ee730be1 	vsub.f64	d16, d19, d17
  10c340:	ee622b86 	vmul.f64	d18, d18, d6
  10c344:	1ef23b04 	vmovne.f64	d19, #36	; 0x24
  10c348:	0a000009 	beq	10c374 <_dtoa_r+0xd10>
  10c34c:	ee600ba3 	vmul.f64	d16, d16, d19
  10c350:	eefd7be0 	vcvt.s32.f64	s15, d16
  10c354:	eef81be7 	vcvt.f64.s32	d17, s15
  10c358:	ee173a90 	vmov	r3, s15
  10c35c:	e2833030 	add	r3, r3, #48	; 0x30
  10c360:	e4cc3001 	strb	r3, [ip], #1
  10c364:	e15c0001 	cmp	ip, r1
  10c368:	ee700be1 	vsub.f64	d16, d16, d17
  10c36c:	1afffff6 	bne	10c34c <_dtoa_r+0xce8>
  10c370:	e08bb000 	add	fp, fp, r0
  10c374:	eef61b00 	vmov.f64	d17, #96	; 0x60
  10c378:	ee723ba1 	vadd.f64	d19, d18, d17
  10c37c:	eef43be0 	vcmpe.f64	d19, d16
  10c380:	eef1fa10 	vmrs	APSR_nzcv, fpscr
  10c384:	4affff59 	bmi	10c0f0 <_dtoa_r+0xa8c>
  10c388:	ee711be2 	vsub.f64	d17, d17, d18
  10c38c:	eef41be0 	vcmpe.f64	d17, d16
  10c390:	eef1fa10 	vmrs	APSR_nzcv, fpscr
  10c394:	ca000001 	bgt	10c3a0 <_dtoa_r+0xd3c>
  10c398:	eaffffbc 	b	10c290 <_dtoa_r+0xc2c>
  10c39c:	e1a0b001 	mov	fp, r1
  10c3a0:	e55b3001 	ldrb	r3, [fp, #-1]
  10c3a4:	e24b1001 	sub	r1, fp, #1
  10c3a8:	e3530030 	cmp	r3, #48	; 0x30
  10c3ac:	0afffffa 	beq	10c39c <_dtoa_r+0xd38>
  10c3b0:	eaffff0d 	b	10bfec <_dtoa_r+0x988>
  10c3b4:	e1a00009 	mov	r0, r9
  10c3b8:	e1a01006 	mov	r1, r6
  10c3bc:	eb000b59 	bl	10f128 <__mcmp>
  10c3c0:	e3500000 	cmp	r0, #0
  10c3c4:	aafffe01 	bge	10bbd0 <_dtoa_r+0x56c>
  10c3c8:	e1a01009 	mov	r1, r9
  10c3cc:	e3a03000 	mov	r3, #0
  10c3d0:	e1a00004 	mov	r0, r4
  10c3d4:	e3a0200a 	mov	r2, #10
  10c3d8:	eb0009ac 	bl	10ea90 <__multadd>
  10c3dc:	e59d301c 	ldr	r3, [sp, #28]
  10c3e0:	e1a09000 	mov	r9, r0
  10c3e4:	e3530000 	cmp	r3, #0
  10c3e8:	e59d300c 	ldr	r3, [sp, #12]
  10c3ec:	e2433001 	sub	r3, r3, #1
  10c3f0:	e58d300c 	str	r3, [sp, #12]
  10c3f4:	1a00001f 	bne	10c478 <_dtoa_r+0xe14>
  10c3f8:	e59d3068 	ldr	r3, [sp, #104]	; 0x68
  10c3fc:	e59d202c 	ldr	r2, [sp, #44]	; 0x2c
  10c400:	e3530002 	cmp	r3, #2
  10c404:	c3a03001 	movgt	r3, #1
  10c408:	d3a03000 	movle	r3, #0
  10c40c:	e3520000 	cmp	r2, #0
  10c410:	c3a03000 	movgt	r3, #0
  10c414:	e3530000 	cmp	r3, #0
  10c418:	01a03002 	moveq	r3, r2
  10c41c:	058d3010 	streq	r3, [sp, #16]
  10c420:	0affff61 	beq	10c1ac <_dtoa_r+0xb48>
  10c424:	e59d302c 	ldr	r3, [sp, #44]	; 0x2c
  10c428:	e58d3010 	str	r3, [sp, #16]
  10c42c:	eafffdf0 	b	10bbf4 <_dtoa_r+0x590>
  10c430:	e35a0000 	cmp	sl, #0
  10c434:	1affff3e 	bne	10c134 <_dtoa_r+0xad0>
  10c438:	e7f3305b 	ubfx	r3, fp, #0, #20
  10c43c:	e3530000 	cmp	r3, #0
  10c440:	1affff3b 	bne	10c134 <_dtoa_r+0xad0>
  10c444:	e3cb3102 	bic	r3, fp, #-2147483648	; 0x80000000
  10c448:	e1a03a23 	lsr	r3, r3, #20
  10c44c:	e1a03a03 	lsl	r3, r3, #20
  10c450:	e3530000 	cmp	r3, #0
  10c454:	058d3018 	streq	r3, [sp, #24]
  10c458:	0affff37 	beq	10c13c <_dtoa_r+0xad8>
  10c45c:	e59d3014 	ldr	r3, [sp, #20]
  10c460:	e2877001 	add	r7, r7, #1
  10c464:	e2833001 	add	r3, r3, #1
  10c468:	e58d3014 	str	r3, [sp, #20]
  10c46c:	e3a03001 	mov	r3, #1
  10c470:	e58d3018 	str	r3, [sp, #24]
  10c474:	eaffff30 	b	10c13c <_dtoa_r+0xad8>
  10c478:	e1a01005 	mov	r1, r5
  10c47c:	e3a0200a 	mov	r2, #10
  10c480:	e3a03000 	mov	r3, #0
  10c484:	e1a00004 	mov	r0, r4
  10c488:	eb000980 	bl	10ea90 <__multadd>
  10c48c:	e59d3068 	ldr	r3, [sp, #104]	; 0x68
  10c490:	e1a05000 	mov	r5, r0
  10c494:	e59d202c 	ldr	r2, [sp, #44]	; 0x2c
  10c498:	e3530002 	cmp	r3, #2
  10c49c:	c3a03001 	movgt	r3, #1
  10c4a0:	d3a03000 	movle	r3, #0
  10c4a4:	e3520000 	cmp	r2, #0
  10c4a8:	c3a03000 	movgt	r3, #0
  10c4ac:	e3530000 	cmp	r3, #0
  10c4b0:	01a03002 	moveq	r3, r2
  10c4b4:	058d3010 	streq	r3, [sp, #16]
  10c4b8:	1affffd9 	bne	10c424 <_dtoa_r+0xdc0>
  10c4bc:	e59d3028 	ldr	r3, [sp, #40]	; 0x28
  10c4c0:	e3530000 	cmp	r3, #0
  10c4c4:	da000004 	ble	10c4dc <_dtoa_r+0xe78>
  10c4c8:	e1a01005 	mov	r1, r5
  10c4cc:	e1a02003 	mov	r2, r3
  10c4d0:	e1a00004 	mov	r0, r4
  10c4d4:	eb000ad4 	bl	10f02c <__lshift>
  10c4d8:	e1a05000 	mov	r5, r0
  10c4dc:	e59d3018 	ldr	r3, [sp, #24]
  10c4e0:	e3530000 	cmp	r3, #0
  10c4e4:	058d5020 	streq	r5, [sp, #32]
  10c4e8:	1a0000c3 	bne	10c7fc <_dtoa_r+0x1198>
  10c4ec:	e59d3010 	ldr	r3, [sp, #16]
  10c4f0:	e20a2001 	and	r2, sl, #1
  10c4f4:	e1a07008 	mov	r7, r8
  10c4f8:	e58d8024 	str	r8, [sp, #36]	; 0x24
  10c4fc:	e58d2018 	str	r2, [sp, #24]
  10c500:	e2433001 	sub	r3, r3, #1
  10c504:	e0883003 	add	r3, r8, r3
  10c508:	e1a08006 	mov	r8, r6
  10c50c:	e58d301c 	str	r3, [sp, #28]
  10c510:	e59d6020 	ldr	r6, [sp, #32]
  10c514:	ea000008 	b	10c53c <_dtoa_r+0xed8>
  10c518:	eb00095c 	bl	10ea90 <__multadd>
  10c51c:	e1a01006 	mov	r1, r6
  10c520:	e1a05000 	mov	r5, r0
  10c524:	e3a0200a 	mov	r2, #10
  10c528:	e1a00004 	mov	r0, r4
  10c52c:	e3a03000 	mov	r3, #0
  10c530:	eb000956 	bl	10ea90 <__multadd>
  10c534:	e1a06000 	mov	r6, r0
  10c538:	e1a0700a 	mov	r7, sl
  10c53c:	e1a01008 	mov	r1, r8
  10c540:	e1a00009 	mov	r0, r9
  10c544:	ebfffbd5 	bl	10b4a0 <quorem>
  10c548:	e1a0b000 	mov	fp, r0
  10c54c:	e1a01005 	mov	r1, r5
  10c550:	e28b3030 	add	r3, fp, #48	; 0x30
  10c554:	e1a00009 	mov	r0, r9
  10c558:	e58d3014 	str	r3, [sp, #20]
  10c55c:	eb000af1 	bl	10f128 <__mcmp>
  10c560:	e1a02006 	mov	r2, r6
  10c564:	e1a0a000 	mov	sl, r0
  10c568:	e1a01008 	mov	r1, r8
  10c56c:	e1a00004 	mov	r0, r4
  10c570:	eb000b05 	bl	10f18c <__mdiff>
  10c574:	e590300c 	ldr	r3, [r0, #12]
  10c578:	e1a02000 	mov	r2, r0
  10c57c:	e3530000 	cmp	r3, #0
  10c580:	1a000031 	bne	10c64c <_dtoa_r+0xfe8>
  10c584:	e1a01002 	mov	r1, r2
  10c588:	e1a00009 	mov	r0, r9
  10c58c:	e58d2010 	str	r2, [sp, #16]
  10c590:	eb000ae4 	bl	10f128 <__mcmp>
  10c594:	e59d2010 	ldr	r2, [sp, #16]
  10c598:	e1a03000 	mov	r3, r0
  10c59c:	e1a01002 	mov	r1, r2
  10c5a0:	e1a00004 	mov	r0, r4
  10c5a4:	e58d3010 	str	r3, [sp, #16]
  10c5a8:	eb000931 	bl	10ea74 <_Bfree>
  10c5ac:	e59d2068 	ldr	r2, [sp, #104]	; 0x68
  10c5b0:	e59d3010 	ldr	r3, [sp, #16]
  10c5b4:	e1932002 	orrs	r2, r3, r2
  10c5b8:	1a000002 	bne	10c5c8 <_dtoa_r+0xf64>
  10c5bc:	e59d2018 	ldr	r2, [sp, #24]
  10c5c0:	e3520000 	cmp	r2, #0
  10c5c4:	0a0000b5 	beq	10c8a0 <_dtoa_r+0x123c>
  10c5c8:	e35a0000 	cmp	sl, #0
  10c5cc:	ba000067 	blt	10c770 <_dtoa_r+0x110c>
  10c5d0:	e59d2068 	ldr	r2, [sp, #104]	; 0x68
  10c5d4:	e19a2002 	orrs	r2, sl, r2
  10c5d8:	1a000002 	bne	10c5e8 <_dtoa_r+0xf84>
  10c5dc:	e59d2018 	ldr	r2, [sp, #24]
  10c5e0:	e3520000 	cmp	r2, #0
  10c5e4:	0a000061 	beq	10c770 <_dtoa_r+0x110c>
  10c5e8:	e3530000 	cmp	r3, #0
  10c5ec:	ca000092 	bgt	10c83c <_dtoa_r+0x11d8>
  10c5f0:	e59d301c 	ldr	r3, [sp, #28]
  10c5f4:	e287a001 	add	sl, r7, #1
  10c5f8:	e1a0b00a 	mov	fp, sl
  10c5fc:	e1570003 	cmp	r7, r3
  10c600:	e5dd3014 	ldrb	r3, [sp, #20]
  10c604:	e5c73000 	strb	r3, [r7]
  10c608:	0a000098 	beq	10c870 <_dtoa_r+0x120c>
  10c60c:	e1a01009 	mov	r1, r9
  10c610:	e3a0200a 	mov	r2, #10
  10c614:	e3a03000 	mov	r3, #0
  10c618:	e1a00004 	mov	r0, r4
  10c61c:	eb00091b 	bl	10ea90 <__multadd>
  10c620:	e1550006 	cmp	r5, r6
  10c624:	e1a09000 	mov	r9, r0
  10c628:	e1a01005 	mov	r1, r5
  10c62c:	e1a00004 	mov	r0, r4
  10c630:	e3a0200a 	mov	r2, #10
  10c634:	e3a03000 	mov	r3, #0
  10c638:	1affffb6 	bne	10c518 <_dtoa_r+0xeb4>
  10c63c:	eb000913 	bl	10ea90 <__multadd>
  10c640:	e1a05000 	mov	r5, r0
  10c644:	e1a06000 	mov	r6, r0
  10c648:	eaffffba 	b	10c538 <_dtoa_r+0xed4>
  10c64c:	e3a03001 	mov	r3, #1
  10c650:	eaffffd1 	b	10c59c <_dtoa_r+0xf38>
  10c654:	e353000e 	cmp	r3, #14
  10c658:	83a03000 	movhi	r3, #0
  10c65c:	93a03001 	movls	r3, #1
  10c660:	e3a01000 	mov	r1, #0
  10c664:	e0055003 	and	r5, r5, r3
  10c668:	e5841044 	str	r1, [r4, #68]	; 0x44
  10c66c:	eafffdf3 	b	10be40 <_dtoa_r+0x7dc>
  10c670:	e3a03001 	mov	r3, #1
  10c674:	e58d306c 	str	r3, [sp, #108]	; 0x6c
  10c678:	e58d302c 	str	r3, [sp, #44]	; 0x2c
  10c67c:	e58d3010 	str	r3, [sp, #16]
  10c680:	eafffff6 	b	10c660 <_dtoa_r+0xffc>
  10c684:	e1a01009 	mov	r1, r9
  10c688:	e59d2018 	ldr	r2, [sp, #24]
  10c68c:	e1a00004 	mov	r0, r4
  10c690:	eb000a26 	bl	10ef30 <__pow5mult>
  10c694:	e1a09000 	mov	r9, r0
  10c698:	eafffd16 	b	10baf8 <_dtoa_r+0x494>
  10c69c:	e59d3010 	ldr	r3, [sp, #16]
  10c6a0:	e3530000 	cmp	r3, #0
  10c6a4:	0afffea9 	beq	10c150 <_dtoa_r+0xaec>
  10c6a8:	e59d002c 	ldr	r0, [sp, #44]	; 0x2c
  10c6ac:	e3500000 	cmp	r0, #0
  10c6b0:	dafffef6 	ble	10c290 <_dtoa_r+0xc2c>
  10c6b4:	e2813001 	add	r3, r1, #1
  10c6b8:	eef20b04 	vmov.f64	d16, #36	; 0x24
  10c6bc:	eef12b0c 	vmov.f64	d18, #28
  10c6c0:	e1a01000 	mov	r1, r0
  10c6c4:	ee633ba0 	vmul.f64	d19, d19, d16
  10c6c8:	ee073a90 	vmov	s15, r3
  10c6cc:	eef80be7 	vcvt.f64.s32	d16, s15
  10c6d0:	e59d200c 	ldr	r2, [sp, #12]
  10c6d4:	ee432ba0 	vmla.f64	d18, d19, d16
  10c6d8:	e2422001 	sub	r2, r2, #1
  10c6dc:	eeb06b62 	vmov.f64	d6, d18
  10c6e0:	ee163a90 	vmov	r3, s13
  10c6e4:	e243350d 	sub	r3, r3, #54525952	; 0x3400000
  10c6e8:	ee063a90 	vmov	s13, r3
  10c6ec:	eafffe0c 	b	10bf24 <_dtoa_r+0x8c0>
  10c6f0:	e3a03030 	mov	r3, #48	; 0x30
  10c6f4:	e2822001 	add	r2, r2, #1
  10c6f8:	e5c13000 	strb	r3, [r1]
  10c6fc:	e3a03031 	mov	r3, #49	; 0x31
  10c700:	e58d200c 	str	r2, [sp, #12]
  10c704:	eafffe85 	b	10c120 <_dtoa_r+0xabc>
  10c708:	e1a01009 	mov	r1, r9
  10c70c:	e1a00004 	mov	r0, r4
  10c710:	eb000a06 	bl	10ef30 <__pow5mult>
  10c714:	e1a09000 	mov	r9, r0
  10c718:	eafffcf6 	b	10baf8 <_dtoa_r+0x494>
  10c71c:	e35a0000 	cmp	sl, #0
  10c720:	0affff44 	beq	10c438 <_dtoa_r+0xdd4>
  10c724:	eafffd02 	b	10bb34 <_dtoa_r+0x4d0>
  10c728:	e59d200c 	ldr	r2, [sp, #12]
  10c72c:	e3a03031 	mov	r3, #49	; 0x31
  10c730:	e5c83000 	strb	r3, [r8]
  10c734:	e2822001 	add	r2, r2, #1
  10c738:	e58d200c 	str	r2, [sp, #12]
  10c73c:	eafffec5 	b	10c258 <_dtoa_r+0xbf4>
  10c740:	e3560000 	cmp	r6, #0
  10c744:	159d2014 	ldrne	r2, [sp, #20]
  10c748:	12833e43 	addne	r3, r3, #1072	; 0x430
  10c74c:	059d3030 	ldreq	r3, [sp, #48]	; 0x30
  10c750:	12833003 	addne	r3, r3, #3
  10c754:	059d2014 	ldreq	r2, [sp, #20]
  10c758:	159d6018 	ldrne	r6, [sp, #24]
  10c75c:	158d2028 	strne	r2, [sp, #40]	; 0x28
  10c760:	02633036 	rsbeq	r3, r3, #54	; 0x36
  10c764:	059d6018 	ldreq	r6, [sp, #24]
  10c768:	058d2028 	streq	r2, [sp, #40]	; 0x28
  10c76c:	eafffd92 	b	10bdbc <_dtoa_r+0x758>
  10c770:	e3530000 	cmp	r3, #0
  10c774:	e58d6020 	str	r6, [sp, #32]
  10c778:	e59db014 	ldr	fp, [sp, #20]
  10c77c:	e1a06008 	mov	r6, r8
  10c780:	e59d8024 	ldr	r8, [sp, #36]	; 0x24
  10c784:	da00000c 	ble	10c7bc <_dtoa_r+0x1158>
  10c788:	e1a01009 	mov	r1, r9
  10c78c:	e3a02001 	mov	r2, #1
  10c790:	e1a00004 	mov	r0, r4
  10c794:	eb000a24 	bl	10f02c <__lshift>
  10c798:	e1a01006 	mov	r1, r6
  10c79c:	e1a09000 	mov	r9, r0
  10c7a0:	eb000a60 	bl	10f128 <__mcmp>
  10c7a4:	e3500000 	cmp	r0, #0
  10c7a8:	da00004d 	ble	10c8e4 <_dtoa_r+0x1280>
  10c7ac:	e59d3014 	ldr	r3, [sp, #20]
  10c7b0:	e3530039 	cmp	r3, #57	; 0x39
  10c7b4:	0a000033 	beq	10c888 <_dtoa_r+0x1224>
  10c7b8:	e283b001 	add	fp, r3, #1
  10c7bc:	e1a0a005 	mov	sl, r5
  10c7c0:	e5c7b000 	strb	fp, [r7]
  10c7c4:	e59d5020 	ldr	r5, [sp, #32]
  10c7c8:	e287b001 	add	fp, r7, #1
  10c7cc:	eafffea1 	b	10c258 <_dtoa_r+0xbf4>
  10c7d0:	1a000004 	bne	10c7e8 <_dtoa_r+0x1184>
  10c7d4:	e59d3014 	ldr	r3, [sp, #20]
  10c7d8:	e3130001 	tst	r3, #1
  10c7dc:	0a000001 	beq	10c7e8 <_dtoa_r+0x1184>
  10c7e0:	eafffe91 	b	10c22c <_dtoa_r+0xbc8>
  10c7e4:	e1a0b002 	mov	fp, r2
  10c7e8:	e55b3001 	ldrb	r3, [fp, #-1]
  10c7ec:	e24b2001 	sub	r2, fp, #1
  10c7f0:	e3530030 	cmp	r3, #48	; 0x30
  10c7f4:	0afffffa 	beq	10c7e4 <_dtoa_r+0x1180>
  10c7f8:	eafffe96 	b	10c258 <_dtoa_r+0xbf4>
  10c7fc:	e5951004 	ldr	r1, [r5, #4]
  10c800:	e1a00004 	mov	r0, r4
  10c804:	eb000877 	bl	10e9e8 <_Balloc>
  10c808:	e5952010 	ldr	r2, [r5, #16]
  10c80c:	e1a07000 	mov	r7, r0
  10c810:	e285100c 	add	r1, r5, #12
  10c814:	e280000c 	add	r0, r0, #12
  10c818:	e2822002 	add	r2, r2, #2
  10c81c:	e1a02102 	lsl	r2, r2, #2
  10c820:	eb0006a6 	bl	10e2c0 <memcpy>
  10c824:	e1a00004 	mov	r0, r4
  10c828:	e1a01007 	mov	r1, r7
  10c82c:	e3a02001 	mov	r2, #1
  10c830:	eb0009fd 	bl	10f02c <__lshift>
  10c834:	e58d0020 	str	r0, [sp, #32]
  10c838:	eaffff2b 	b	10c4ec <_dtoa_r+0xe88>
  10c83c:	e59d3014 	ldr	r3, [sp, #20]
  10c840:	e58d6020 	str	r6, [sp, #32]
  10c844:	e1a06008 	mov	r6, r8
  10c848:	e59d8024 	ldr	r8, [sp, #36]	; 0x24
  10c84c:	e3530039 	cmp	r3, #57	; 0x39
  10c850:	0a00000c 	beq	10c888 <_dtoa_r+0x1224>
  10c854:	e59d3014 	ldr	r3, [sp, #20]
  10c858:	e1a0a005 	mov	sl, r5
  10c85c:	e287b001 	add	fp, r7, #1
  10c860:	e2833001 	add	r3, r3, #1
  10c864:	e5c73000 	strb	r3, [r7]
  10c868:	e59d5020 	ldr	r5, [sp, #32]
  10c86c:	eafffe79 	b	10c258 <_dtoa_r+0xbf4>
  10c870:	e1a03006 	mov	r3, r6
  10c874:	e1a0a005 	mov	sl, r5
  10c878:	e1a06008 	mov	r6, r8
  10c87c:	e1a05003 	mov	r5, r3
  10c880:	e59d8024 	ldr	r8, [sp, #36]	; 0x24
  10c884:	eafffe5f 	b	10c208 <_dtoa_r+0xba4>
  10c888:	e3a02039 	mov	r2, #57	; 0x39
  10c88c:	e1a0a005 	mov	sl, r5
  10c890:	e287b001 	add	fp, r7, #1
  10c894:	e59d5020 	ldr	r5, [sp, #32]
  10c898:	e5c72000 	strb	r2, [r7]
  10c89c:	eafffe63 	b	10c230 <_dtoa_r+0xbcc>
  10c8a0:	e59d3014 	ldr	r3, [sp, #20]
  10c8a4:	e58d6020 	str	r6, [sp, #32]
  10c8a8:	e1a06008 	mov	r6, r8
  10c8ac:	e59d8024 	ldr	r8, [sp, #36]	; 0x24
  10c8b0:	e3530039 	cmp	r3, #57	; 0x39
  10c8b4:	0afffff3 	beq	10c888 <_dtoa_r+0x1224>
  10c8b8:	e35a0000 	cmp	sl, #0
  10c8bc:	e1a0a005 	mov	sl, r5
  10c8c0:	c28b3031 	addgt	r3, fp, #49	; 0x31
  10c8c4:	e287b001 	add	fp, r7, #1
  10c8c8:	c58d3014 	strgt	r3, [sp, #20]
  10c8cc:	e5dd3014 	ldrb	r3, [sp, #20]
  10c8d0:	e5c73000 	strb	r3, [r7]
  10c8d4:	e59d5020 	ldr	r5, [sp, #32]
  10c8d8:	eafffe5e 	b	10c258 <_dtoa_r+0xbf4>
  10c8dc:	e3a01002 	mov	r1, #2
  10c8e0:	eafffd7b 	b	10bed4 <_dtoa_r+0x870>
  10c8e4:	1affffb4 	bne	10c7bc <_dtoa_r+0x1158>
  10c8e8:	e59d3014 	ldr	r3, [sp, #20]
  10c8ec:	e3130001 	tst	r3, #1
  10c8f0:	0affffb1 	beq	10c7bc <_dtoa_r+0x1158>
  10c8f4:	eaffffac 	b	10c7ac <_dtoa_r+0x1148>
  10c8f8:	1260003c 	rsbne	r0, r0, #60	; 0x3c
  10c8fc:	0afffca1 	beq	10bb88 <_dtoa_r+0x524>
  10c900:	eafffc99 	b	10bb6c <_dtoa_r+0x508>
  10c904:	e3a03001 	mov	r3, #1
  10c908:	e58d301c 	str	r3, [sp, #28]
  10c90c:	eafffdba 	b	10bffc <_dtoa_r+0x998>
  10c910:	e3e03000 	mvn	r3, #0
  10c914:	e58d506c 	str	r5, [sp, #108]	; 0x6c
  10c918:	e58d3010 	str	r3, [sp, #16]
  10c91c:	eafffc22 	b	10b9ac <_dtoa_r+0x348>

0010c920 <__sflush_r>:
  10c920:	e1d130bc 	ldrh	r3, [r1, #12]
  10c924:	e92d41f0 	push	{r4, r5, r6, r7, r8, lr}
  10c928:	e1a05001 	mov	r5, r1
  10c92c:	e1a08000 	mov	r8, r0
  10c930:	e6ff2073 	uxth	r2, r3
  10c934:	e3120008 	tst	r2, #8
  10c938:	1a000034 	bne	10ca10 <__sflush_r+0xf0>
  10c93c:	e5912004 	ldr	r2, [r1, #4]
  10c940:	e3833b02 	orr	r3, r3, #2048	; 0x800
  10c944:	e1c130bc 	strh	r3, [r1, #12]
  10c948:	e3520000 	cmp	r2, #0
  10c94c:	da00004d 	ble	10ca88 <__sflush_r+0x168>
  10c950:	e5956028 	ldr	r6, [r5, #40]	; 0x28
  10c954:	e3560000 	cmp	r6, #0
  10c958:	0a00004d 	beq	10ca94 <__sflush_r+0x174>
  10c95c:	e6ff3073 	uxth	r3, r3
  10c960:	e3a02000 	mov	r2, #0
  10c964:	e5987000 	ldr	r7, [r8]
  10c968:	e2030a01 	and	r0, r3, #4096	; 0x1000
  10c96c:	e5882000 	str	r2, [r8]
  10c970:	e6ff4070 	uxth	r4, r0
  10c974:	e1540002 	cmp	r4, r2
  10c978:	0a00005f 	beq	10cafc <__sflush_r+0x1dc>
  10c97c:	e5952050 	ldr	r2, [r5, #80]	; 0x50
  10c980:	e3130004 	tst	r3, #4
  10c984:	0a000005 	beq	10c9a0 <__sflush_r+0x80>
  10c988:	e5951030 	ldr	r1, [r5, #48]	; 0x30
  10c98c:	e5953004 	ldr	r3, [r5, #4]
  10c990:	e3510000 	cmp	r1, #0
  10c994:	e0632002 	rsb	r2, r3, r2
  10c998:	1595303c 	ldrne	r3, [r5, #60]	; 0x3c
  10c99c:	10632002 	rsbne	r2, r3, r2
  10c9a0:	e1a00008 	mov	r0, r8
  10c9a4:	e595101c 	ldr	r1, [r5, #28]
  10c9a8:	e3a03000 	mov	r3, #0
  10c9ac:	e12fff36 	blx	r6
  10c9b0:	e3700001 	cmn	r0, #1
  10c9b4:	0a000038 	beq	10ca9c <__sflush_r+0x17c>
  10c9b8:	e1d510bc 	ldrh	r1, [r5, #12]
  10c9bc:	e30f37ff 	movw	r3, #63487	; 0xf7ff
  10c9c0:	e5952010 	ldr	r2, [r5, #16]
  10c9c4:	e3a0c000 	mov	ip, #0
  10c9c8:	e585c004 	str	ip, [r5, #4]
  10c9cc:	e0033001 	and	r3, r3, r1
  10c9d0:	e3130a01 	tst	r3, #4096	; 0x1000
  10c9d4:	e1c530bc 	strh	r3, [r5, #12]
  10c9d8:	e5852000 	str	r2, [r5]
  10c9dc:	1a000044 	bne	10caf4 <__sflush_r+0x1d4>
  10c9e0:	e5951030 	ldr	r1, [r5, #48]	; 0x30
  10c9e4:	e5887000 	str	r7, [r8]
  10c9e8:	e3510000 	cmp	r1, #0
  10c9ec:	0a000028 	beq	10ca94 <__sflush_r+0x174>
  10c9f0:	e2853040 	add	r3, r5, #64	; 0x40
  10c9f4:	e1510003 	cmp	r1, r3
  10c9f8:	0a000001 	beq	10ca04 <__sflush_r+0xe4>
  10c9fc:	e1a00008 	mov	r0, r8
  10ca00:	eb000177 	bl	10cfe4 <_free_r>
  10ca04:	e3a00000 	mov	r0, #0
  10ca08:	e5850030 	str	r0, [r5, #48]	; 0x30
  10ca0c:	e8bd81f0 	pop	{r4, r5, r6, r7, r8, pc}
  10ca10:	e5916010 	ldr	r6, [r1, #16]
  10ca14:	e3560000 	cmp	r6, #0
  10ca18:	0a00001d 	beq	10ca94 <__sflush_r+0x174>
  10ca1c:	e5914000 	ldr	r4, [r1]
  10ca20:	e3120003 	tst	r2, #3
  10ca24:	05913014 	ldreq	r3, [r1, #20]
  10ca28:	13a03000 	movne	r3, #0
  10ca2c:	e5816000 	str	r6, [r1]
  10ca30:	e0664004 	rsb	r4, r6, r4
  10ca34:	e3540000 	cmp	r4, #0
  10ca38:	e5813008 	str	r3, [r1, #8]
  10ca3c:	ca000002 	bgt	10ca4c <__sflush_r+0x12c>
  10ca40:	ea000013 	b	10ca94 <__sflush_r+0x174>
  10ca44:	e3540000 	cmp	r4, #0
  10ca48:	da000011 	ble	10ca94 <__sflush_r+0x174>
  10ca4c:	e1a02006 	mov	r2, r6
  10ca50:	e1a03004 	mov	r3, r4
  10ca54:	e5957024 	ldr	r7, [r5, #36]	; 0x24
  10ca58:	e1a00008 	mov	r0, r8
  10ca5c:	e595101c 	ldr	r1, [r5, #28]
  10ca60:	e12fff37 	blx	r7
  10ca64:	e3500000 	cmp	r0, #0
  10ca68:	e0604004 	rsb	r4, r0, r4
  10ca6c:	e0866000 	add	r6, r6, r0
  10ca70:	cafffff3 	bgt	10ca44 <__sflush_r+0x124>
  10ca74:	e1d530bc 	ldrh	r3, [r5, #12]
  10ca78:	e3e00000 	mvn	r0, #0
  10ca7c:	e3833040 	orr	r3, r3, #64	; 0x40
  10ca80:	e1c530bc 	strh	r3, [r5, #12]
  10ca84:	e8bd81f0 	pop	{r4, r5, r6, r7, r8, pc}
  10ca88:	e591203c 	ldr	r2, [r1, #60]	; 0x3c
  10ca8c:	e3520000 	cmp	r2, #0
  10ca90:	caffffae 	bgt	10c950 <__sflush_r+0x30>
  10ca94:	e3a00000 	mov	r0, #0
  10ca98:	e8bd81f0 	pop	{r4, r5, r6, r7, r8, pc}
  10ca9c:	e5981000 	ldr	r1, [r8]
  10caa0:	e16f2f11 	clz	r2, r1
  10caa4:	e1a022a2 	lsr	r2, r2, #5
  10caa8:	e351001d 	cmp	r1, #29
  10caac:	11a03002 	movne	r3, r2
  10cab0:	03823001 	orreq	r3, r2, #1
  10cab4:	e3510016 	cmp	r1, #22
  10cab8:	03833001 	orreq	r3, r3, #1
  10cabc:	e3530000 	cmp	r3, #0
  10cac0:	0a000021 	beq	10cb4c <__sflush_r+0x22c>
  10cac4:	e1d5c0bc 	ldrh	ip, [r5, #12]
  10cac8:	e30f37ff 	movw	r3, #63487	; 0xf7ff
  10cacc:	e5951010 	ldr	r1, [r5, #16]
  10cad0:	e3a0e000 	mov	lr, #0
  10cad4:	e585e004 	str	lr, [r5, #4]
  10cad8:	e003300c 	and	r3, r3, ip
  10cadc:	e3130a01 	tst	r3, #4096	; 0x1000
  10cae0:	e1c530bc 	strh	r3, [r5, #12]
  10cae4:	e5851000 	str	r1, [r5]
  10cae8:	0affffbc 	beq	10c9e0 <__sflush_r+0xc0>
  10caec:	e3520000 	cmp	r2, #0
  10caf0:	0affffba 	beq	10c9e0 <__sflush_r+0xc0>
  10caf4:	e5850050 	str	r0, [r5, #80]	; 0x50
  10caf8:	eaffffb8 	b	10c9e0 <__sflush_r+0xc0>
  10cafc:	e1a02004 	mov	r2, r4
  10cb00:	e1a00008 	mov	r0, r8
  10cb04:	e595101c 	ldr	r1, [r5, #28]
  10cb08:	e3a03001 	mov	r3, #1
  10cb0c:	e12fff36 	blx	r6
  10cb10:	e3700001 	cmn	r0, #1
  10cb14:	e1a02000 	mov	r2, r0
  10cb18:	0a000002 	beq	10cb28 <__sflush_r+0x208>
  10cb1c:	e1d530bc 	ldrh	r3, [r5, #12]
  10cb20:	e5956028 	ldr	r6, [r5, #40]	; 0x28
  10cb24:	eaffff95 	b	10c980 <__sflush_r+0x60>
  10cb28:	e5983000 	ldr	r3, [r8]
  10cb2c:	e3530000 	cmp	r3, #0
  10cb30:	0afffff9 	beq	10cb1c <__sflush_r+0x1fc>
  10cb34:	e353001d 	cmp	r3, #29
  10cb38:	13530016 	cmpne	r3, #22
  10cb3c:	1affffcc 	bne	10ca74 <__sflush_r+0x154>
  10cb40:	e5887000 	str	r7, [r8]
  10cb44:	e1a00004 	mov	r0, r4
  10cb48:	e8bd81f0 	pop	{r4, r5, r6, r7, r8, pc}
  10cb4c:	e1d530bc 	ldrh	r3, [r5, #12]
  10cb50:	e3833040 	orr	r3, r3, #64	; 0x40
  10cb54:	e1c530bc 	strh	r3, [r5, #12]
  10cb58:	e8bd81f0 	pop	{r4, r5, r6, r7, r8, pc}

0010cb5c <_fflush_r>:
  10cb5c:	e92d4010 	push	{r4, lr}
  10cb60:	e2504000 	subs	r4, r0, #0
  10cb64:	e24dd008 	sub	sp, sp, #8
  10cb68:	0a000002 	beq	10cb78 <_fflush_r+0x1c>
  10cb6c:	e5943038 	ldr	r3, [r4, #56]	; 0x38
  10cb70:	e3530000 	cmp	r3, #0
  10cb74:	0a000008 	beq	10cb9c <_fflush_r+0x40>
  10cb78:	e1d100fc 	ldrsh	r0, [r1, #12]
  10cb7c:	e3500000 	cmp	r0, #0
  10cb80:	1a000001 	bne	10cb8c <_fflush_r+0x30>
  10cb84:	e28dd008 	add	sp, sp, #8
  10cb88:	e8bd8010 	pop	{r4, pc}
  10cb8c:	e1a00004 	mov	r0, r4
  10cb90:	e28dd008 	add	sp, sp, #8
  10cb94:	e8bd4010 	pop	{r4, lr}
  10cb98:	eaffff60 	b	10c920 <__sflush_r>
  10cb9c:	e58d1004 	str	r1, [sp, #4]
  10cba0:	eb0000bc 	bl	10ce98 <__sinit>
  10cba4:	e59d1004 	ldr	r1, [sp, #4]
  10cba8:	eafffff2 	b	10cb78 <_fflush_r+0x1c>

0010cbac <fflush>:
  10cbac:	e2501000 	subs	r1, r0, #0
  10cbb0:	0a000003 	beq	10cbc4 <fflush+0x18>
  10cbb4:	e3023b08 	movw	r3, #11016	; 0x2b08
  10cbb8:	e3403011 	movt	r3, #17
  10cbbc:	e5930000 	ldr	r0, [r3]
  10cbc0:	eaffffe5 	b	10cb5c <_fflush_r>
  10cbc4:	e302393c 	movw	r3, #10556	; 0x293c
  10cbc8:	e30c1b5c 	movw	r1, #52060	; 0xcb5c
  10cbcc:	e3403011 	movt	r3, #17
  10cbd0:	e3401010 	movt	r1, #16
  10cbd4:	e5930000 	ldr	r0, [r3]
  10cbd8:	ea0002f4 	b	10d7b0 <_fwalk_reent>

0010cbdc <__fp_lock>:
  10cbdc:	e3a00000 	mov	r0, #0
  10cbe0:	e12fff1e 	bx	lr

0010cbe4 <__fp_unlock>:
  10cbe4:	e3a00000 	mov	r0, #0
  10cbe8:	e12fff1e 	bx	lr

0010cbec <_cleanup_r>:
  10cbec:	e3011510 	movw	r1, #5392	; 0x1510
  10cbf0:	e3401011 	movt	r1, #17
  10cbf4:	ea0002ed 	b	10d7b0 <_fwalk_reent>

0010cbf8 <__sinit.part.1>:
  10cbf8:	e92d4ff8 	push	{r3, r4, r5, r6, r7, r8, r9, sl, fp, lr}
  10cbfc:	e30c3bec 	movw	r3, #52204	; 0xcbec
  10cc00:	e5905004 	ldr	r5, [r0, #4]
  10cc04:	e3a04000 	mov	r4, #0
  10cc08:	e1a07000 	mov	r7, r0
  10cc0c:	e3403010 	movt	r3, #16
  10cc10:	e2802fbb 	add	r2, r0, #748	; 0x2ec
  10cc14:	e3a0c004 	mov	ip, #4
  10cc18:	e3a01003 	mov	r1, #3
  10cc1c:	e580303c 	str	r3, [r0, #60]	; 0x3c
  10cc20:	e58712e4 	str	r1, [r7, #740]	; 0x2e4
  10cc24:	e285005c 	add	r0, r5, #92	; 0x5c
  10cc28:	e58722e8 	str	r2, [r7, #744]	; 0x2e8
  10cc2c:	e1a01004 	mov	r1, r4
  10cc30:	e58742e0 	str	r4, [r7, #736]	; 0x2e0
  10cc34:	e3a02008 	mov	r2, #8
  10cc38:	e1c5c0bc 	strh	ip, [r5, #12]
  10cc3c:	e30fbcbc 	movw	fp, #64700	; 0xfcbc
  10cc40:	e5854000 	str	r4, [r5]
  10cc44:	e30facf4 	movw	sl, #64756	; 0xfcf4
  10cc48:	e5854004 	str	r4, [r5, #4]
  10cc4c:	e30f9d48 	movw	r9, #64840	; 0xfd48
  10cc50:	e5854008 	str	r4, [r5, #8]
  10cc54:	e30f8d74 	movw	r8, #64884	; 0xfd74
  10cc58:	e5854064 	str	r4, [r5, #100]	; 0x64
  10cc5c:	e340b010 	movt	fp, #16
  10cc60:	e1c540be 	strh	r4, [r5, #14]
  10cc64:	e340a010 	movt	sl, #16
  10cc68:	e5854010 	str	r4, [r5, #16]
  10cc6c:	e3409010 	movt	r9, #16
  10cc70:	e5854014 	str	r4, [r5, #20]
  10cc74:	e3408010 	movt	r8, #16
  10cc78:	e5854018 	str	r4, [r5, #24]
  10cc7c:	eb00071a 	bl	10e8ec <memset>
  10cc80:	e5976008 	ldr	r6, [r7, #8]
  10cc84:	e3a03001 	mov	r3, #1
  10cc88:	e3a0c009 	mov	ip, #9
  10cc8c:	e585501c 	str	r5, [r5, #28]
  10cc90:	e585b020 	str	fp, [r5, #32]
  10cc94:	e1a01004 	mov	r1, r4
  10cc98:	e585a024 	str	sl, [r5, #36]	; 0x24
  10cc9c:	e3a02008 	mov	r2, #8
  10cca0:	e5859028 	str	r9, [r5, #40]	; 0x28
  10cca4:	e286005c 	add	r0, r6, #92	; 0x5c
  10cca8:	e585802c 	str	r8, [r5, #44]	; 0x2c
  10ccac:	e1c630be 	strh	r3, [r6, #14]
  10ccb0:	e1c6c0bc 	strh	ip, [r6, #12]
  10ccb4:	e5864000 	str	r4, [r6]
  10ccb8:	e5864004 	str	r4, [r6, #4]
  10ccbc:	e5864008 	str	r4, [r6, #8]
  10ccc0:	e5864064 	str	r4, [r6, #100]	; 0x64
  10ccc4:	e5864010 	str	r4, [r6, #16]
  10ccc8:	e5864014 	str	r4, [r6, #20]
  10cccc:	e5864018 	str	r4, [r6, #24]
  10ccd0:	eb000705 	bl	10e8ec <memset>
  10ccd4:	e597500c 	ldr	r5, [r7, #12]
  10ccd8:	e3a0e012 	mov	lr, #18
  10ccdc:	e3a0c002 	mov	ip, #2
  10cce0:	e586601c 	str	r6, [r6, #28]
  10cce4:	e586b020 	str	fp, [r6, #32]
  10cce8:	e1a01004 	mov	r1, r4
  10ccec:	e586a024 	str	sl, [r6, #36]	; 0x24
  10ccf0:	e285005c 	add	r0, r5, #92	; 0x5c
  10ccf4:	e5869028 	str	r9, [r6, #40]	; 0x28
  10ccf8:	e3a02008 	mov	r2, #8
  10ccfc:	e586802c 	str	r8, [r6, #44]	; 0x2c
  10cd00:	e5854000 	str	r4, [r5]
  10cd04:	e5854004 	str	r4, [r5, #4]
  10cd08:	e5854008 	str	r4, [r5, #8]
  10cd0c:	e5854064 	str	r4, [r5, #100]	; 0x64
  10cd10:	e5854010 	str	r4, [r5, #16]
  10cd14:	e5854014 	str	r4, [r5, #20]
  10cd18:	e5854018 	str	r4, [r5, #24]
  10cd1c:	e1c5e0bc 	strh	lr, [r5, #12]
  10cd20:	e1c5c0be 	strh	ip, [r5, #14]
  10cd24:	eb0006f0 	bl	10e8ec <memset>
  10cd28:	e3a03001 	mov	r3, #1
  10cd2c:	e585501c 	str	r5, [r5, #28]
  10cd30:	e585b020 	str	fp, [r5, #32]
  10cd34:	e585a024 	str	sl, [r5, #36]	; 0x24
  10cd38:	e5859028 	str	r9, [r5, #40]	; 0x28
  10cd3c:	e585802c 	str	r8, [r5, #44]	; 0x2c
  10cd40:	e5873038 	str	r3, [r7, #56]	; 0x38
  10cd44:	e8bd8ff8 	pop	{r3, r4, r5, r6, r7, r8, r9, sl, fp, pc}

0010cd48 <__sfmoreglue>:
  10cd48:	e2412001 	sub	r2, r1, #1
  10cd4c:	e92d4070 	push	{r4, r5, r6, lr}
  10cd50:	e1a04202 	lsl	r4, r2, #4
  10cd54:	e1a06001 	mov	r6, r1
  10cd58:	e0444102 	sub	r4, r4, r2, lsl #2
  10cd5c:	e0844002 	add	r4, r4, r2
  10cd60:	e1a04184 	lsl	r4, r4, #3
  10cd64:	e2841074 	add	r1, r4, #116	; 0x74
  10cd68:	eb000341 	bl	10da74 <_malloc_r>
  10cd6c:	e2505000 	subs	r5, r0, #0
  10cd70:	0a000006 	beq	10cd90 <__sfmoreglue+0x48>
  10cd74:	e3a01000 	mov	r1, #0
  10cd78:	e285000c 	add	r0, r5, #12
  10cd7c:	e5856004 	str	r6, [r5, #4]
  10cd80:	e2842068 	add	r2, r4, #104	; 0x68
  10cd84:	e5851000 	str	r1, [r5]
  10cd88:	e5850008 	str	r0, [r5, #8]
  10cd8c:	eb0006d6 	bl	10e8ec <memset>
  10cd90:	e1a00005 	mov	r0, r5
  10cd94:	e8bd8070 	pop	{r4, r5, r6, pc}

0010cd98 <__sfp>:
  10cd98:	e302393c 	movw	r3, #10556	; 0x293c
  10cd9c:	e92d4070 	push	{r4, r5, r6, lr}
  10cda0:	e3403011 	movt	r3, #17
  10cda4:	e1a06000 	mov	r6, r0
  10cda8:	e5935000 	ldr	r5, [r3]
  10cdac:	e5953038 	ldr	r3, [r5, #56]	; 0x38
  10cdb0:	e3530000 	cmp	r3, #0
  10cdb4:	1a000001 	bne	10cdc0 <__sfp+0x28>
  10cdb8:	e1a00005 	mov	r0, r5
  10cdbc:	ebffff8d 	bl	10cbf8 <__sinit.part.1>
  10cdc0:	e2855e2e 	add	r5, r5, #736	; 0x2e0
  10cdc4:	e9950018 	ldmib	r5, {r3, r4}
  10cdc8:	e2533001 	subs	r3, r3, #1
  10cdcc:	5a000004 	bpl	10cde4 <__sfp+0x4c>
  10cdd0:	ea00001c 	b	10ce48 <__sfp+0xb0>
  10cdd4:	e2433001 	sub	r3, r3, #1
  10cdd8:	e2844068 	add	r4, r4, #104	; 0x68
  10cddc:	e3730001 	cmn	r3, #1
  10cde0:	0a000018 	beq	10ce48 <__sfp+0xb0>
  10cde4:	e1d420fc 	ldrsh	r2, [r4, #12]
  10cde8:	e3520000 	cmp	r2, #0
  10cdec:	1afffff8 	bne	10cdd4 <__sfp+0x3c>
  10cdf0:	e3a05000 	mov	r5, #0
  10cdf4:	e3a03001 	mov	r3, #1
  10cdf8:	e3e02000 	mvn	r2, #0
  10cdfc:	e1c430bc 	strh	r3, [r4, #12]
  10ce00:	e1c420be 	strh	r2, [r4, #14]
  10ce04:	e1a01005 	mov	r1, r5
  10ce08:	e5845064 	str	r5, [r4, #100]	; 0x64
  10ce0c:	e284005c 	add	r0, r4, #92	; 0x5c
  10ce10:	e5845000 	str	r5, [r4]
  10ce14:	e3a02008 	mov	r2, #8
  10ce18:	e5845008 	str	r5, [r4, #8]
  10ce1c:	e5845004 	str	r5, [r4, #4]
  10ce20:	e5845010 	str	r5, [r4, #16]
  10ce24:	e5845014 	str	r5, [r4, #20]
  10ce28:	e5845018 	str	r5, [r4, #24]
  10ce2c:	eb0006ae 	bl	10e8ec <memset>
  10ce30:	e1a00004 	mov	r0, r4
  10ce34:	e5845030 	str	r5, [r4, #48]	; 0x30
  10ce38:	e5845034 	str	r5, [r4, #52]	; 0x34
  10ce3c:	e5845044 	str	r5, [r4, #68]	; 0x44
  10ce40:	e5845048 	str	r5, [r4, #72]	; 0x48
  10ce44:	e8bd8070 	pop	{r4, r5, r6, pc}
  10ce48:	e5953000 	ldr	r3, [r5]
  10ce4c:	e3530000 	cmp	r3, #0
  10ce50:	11a05003 	movne	r5, r3
  10ce54:	1affffda 	bne	10cdc4 <__sfp+0x2c>
  10ce58:	e1a00006 	mov	r0, r6
  10ce5c:	e3a01004 	mov	r1, #4
  10ce60:	ebffffb8 	bl	10cd48 <__sfmoreglue>
  10ce64:	e3500000 	cmp	r0, #0
  10ce68:	e5850000 	str	r0, [r5]
  10ce6c:	11a05000 	movne	r5, r0
  10ce70:	1affffd3 	bne	10cdc4 <__sfp+0x2c>
  10ce74:	e3a0300c 	mov	r3, #12
  10ce78:	e5863000 	str	r3, [r6]
  10ce7c:	e8bd8070 	pop	{r4, r5, r6, pc}

0010ce80 <_cleanup>:
  10ce80:	e302393c 	movw	r3, #10556	; 0x293c
  10ce84:	e3011510 	movw	r1, #5392	; 0x1510
  10ce88:	e3403011 	movt	r3, #17
  10ce8c:	e3401011 	movt	r1, #17
  10ce90:	e5930000 	ldr	r0, [r3]
  10ce94:	ea000245 	b	10d7b0 <_fwalk_reent>

0010ce98 <__sinit>:
  10ce98:	e5903038 	ldr	r3, [r0, #56]	; 0x38
  10ce9c:	e3530000 	cmp	r3, #0
  10cea0:	112fff1e 	bxne	lr
  10cea4:	eaffff53 	b	10cbf8 <__sinit.part.1>

0010cea8 <__sfp_lock_acquire>:
  10cea8:	e12fff1e 	bx	lr

0010ceac <__sfp_lock_release>:
  10ceac:	e12fff1e 	bx	lr

0010ceb0 <__sinit_lock_acquire>:
  10ceb0:	e12fff1e 	bx	lr

0010ceb4 <__sinit_lock_release>:
  10ceb4:	e12fff1e 	bx	lr

0010ceb8 <__fp_lock_all>:
  10ceb8:	e3023b08 	movw	r3, #11016	; 0x2b08
  10cebc:	e30c1bdc 	movw	r1, #52188	; 0xcbdc
  10cec0:	e3403011 	movt	r3, #17
  10cec4:	e3401010 	movt	r1, #16
  10cec8:	e5930000 	ldr	r0, [r3]
  10cecc:	ea000219 	b	10d738 <_fwalk>

0010ced0 <__fp_unlock_all>:
  10ced0:	e3023b08 	movw	r3, #11016	; 0x2b08
  10ced4:	e30c1be4 	movw	r1, #52196	; 0xcbe4
  10ced8:	e3403011 	movt	r3, #17
  10cedc:	e3401010 	movt	r1, #16
  10cee0:	e5930000 	ldr	r0, [r3]
  10cee4:	ea000213 	b	10d738 <_fwalk>

0010cee8 <_malloc_trim_r>:
  10cee8:	e92d40f8 	push	{r3, r4, r5, r6, r7, lr}
  10ceec:	e3027fb4 	movw	r7, #12212	; 0x2fb4
  10cef0:	e3407011 	movt	r7, #17
  10cef4:	e1a04001 	mov	r4, r1
  10cef8:	e1a06000 	mov	r6, r0
  10cefc:	eb0006b7 	bl	10e9e0 <__malloc_lock>
  10cf00:	e5973008 	ldr	r3, [r7, #8]
  10cf04:	e5935004 	ldr	r5, [r3, #4]
  10cf08:	e3c55003 	bic	r5, r5, #3
  10cf0c:	e0641005 	rsb	r1, r4, r5
  10cf10:	e2811efe 	add	r1, r1, #4064	; 0xfe0
  10cf14:	e281100f 	add	r1, r1, #15
  10cf18:	e3c11eff 	bic	r1, r1, #4080	; 0xff0
  10cf1c:	e3c1100f 	bic	r1, r1, #15
  10cf20:	e2414a01 	sub	r4, r1, #4096	; 0x1000
  10cf24:	e3540a01 	cmp	r4, #4096	; 0x1000
  10cf28:	ba000006 	blt	10cf48 <_malloc_trim_r+0x60>
  10cf2c:	e1a00006 	mov	r0, r6
  10cf30:	e3a01000 	mov	r1, #0
  10cf34:	eb000b52 	bl	10fc84 <_sbrk_r>
  10cf38:	e5973008 	ldr	r3, [r7, #8]
  10cf3c:	e0833005 	add	r3, r3, r5
  10cf40:	e1500003 	cmp	r0, r3
  10cf44:	0a000003 	beq	10cf58 <_malloc_trim_r+0x70>
  10cf48:	e1a00006 	mov	r0, r6
  10cf4c:	eb0006a4 	bl	10e9e4 <__malloc_unlock>
  10cf50:	e3a00000 	mov	r0, #0
  10cf54:	e8bd80f8 	pop	{r3, r4, r5, r6, r7, pc}
  10cf58:	e1a00006 	mov	r0, r6
  10cf5c:	e2641000 	rsb	r1, r4, #0
  10cf60:	eb000b47 	bl	10fc84 <_sbrk_r>
  10cf64:	e3700001 	cmn	r0, #1
  10cf68:	0a00000c 	beq	10cfa0 <_malloc_trim_r+0xb8>
  10cf6c:	e303340c 	movw	r3, #13324	; 0x340c
  10cf70:	e5972008 	ldr	r2, [r7, #8]
  10cf74:	e3403011 	movt	r3, #17
  10cf78:	e0645005 	rsb	r5, r4, r5
  10cf7c:	e5931000 	ldr	r1, [r3]
  10cf80:	e3855001 	orr	r5, r5, #1
  10cf84:	e1a00006 	mov	r0, r6
  10cf88:	e5825004 	str	r5, [r2, #4]
  10cf8c:	e0641001 	rsb	r1, r4, r1
  10cf90:	e5831000 	str	r1, [r3]
  10cf94:	eb000692 	bl	10e9e4 <__malloc_unlock>
  10cf98:	e3a00001 	mov	r0, #1
  10cf9c:	e8bd80f8 	pop	{r3, r4, r5, r6, r7, pc}
  10cfa0:	e1a00006 	mov	r0, r6
  10cfa4:	e3a01000 	mov	r1, #0
  10cfa8:	eb000b35 	bl	10fc84 <_sbrk_r>
  10cfac:	e5972008 	ldr	r2, [r7, #8]
  10cfb0:	e0623000 	rsb	r3, r2, r0
  10cfb4:	e353000f 	cmp	r3, #15
  10cfb8:	daffffe2 	ble	10cf48 <_malloc_trim_r+0x60>
  10cfbc:	e303c3bc 	movw	ip, #13244	; 0x33bc
  10cfc0:	e303140c 	movw	r1, #13324	; 0x340c
  10cfc4:	e340c011 	movt	ip, #17
  10cfc8:	e3833001 	orr	r3, r3, #1
  10cfcc:	e59cc000 	ldr	ip, [ip]
  10cfd0:	e3401011 	movt	r1, #17
  10cfd4:	e5823004 	str	r3, [r2, #4]
  10cfd8:	e06c0000 	rsb	r0, ip, r0
  10cfdc:	e5810000 	str	r0, [r1]
  10cfe0:	eaffffd8 	b	10cf48 <_malloc_trim_r+0x60>

0010cfe4 <_free_r>:
  10cfe4:	e3510000 	cmp	r1, #0
  10cfe8:	012fff1e 	bxeq	lr
  10cfec:	e92d4070 	push	{r4, r5, r6, lr}
  10cff0:	e1a04001 	mov	r4, r1
  10cff4:	e1a05000 	mov	r5, r0
  10cff8:	eb000678 	bl	10e9e0 <__malloc_lock>
  10cffc:	e5140004 	ldr	r0, [r4, #-4]
  10d000:	e3023fb4 	movw	r3, #12212	; 0x2fb4
  10d004:	e3403011 	movt	r3, #17
  10d008:	e244c008 	sub	ip, r4, #8
  10d00c:	e5936008 	ldr	r6, [r3, #8]
  10d010:	e3c02001 	bic	r2, r0, #1
  10d014:	e08ce002 	add	lr, ip, r2
  10d018:	e59e1004 	ldr	r1, [lr, #4]
  10d01c:	e156000e 	cmp	r6, lr
  10d020:	e3c11003 	bic	r1, r1, #3
  10d024:	0a00004b 	beq	10d158 <_free_r+0x174>
  10d028:	e3100001 	tst	r0, #1
  10d02c:	e58e1004 	str	r1, [lr, #4]
  10d030:	1a000009 	bne	10d05c <_free_r+0x78>
  10d034:	e5140008 	ldr	r0, [r4, #-8]
  10d038:	e2834008 	add	r4, r3, #8
  10d03c:	e060c00c 	rsb	ip, r0, ip
  10d040:	e0822000 	add	r2, r2, r0
  10d044:	e59c0008 	ldr	r0, [ip, #8]
  10d048:	e1500004 	cmp	r0, r4
  10d04c:	0a000059 	beq	10d1b8 <_free_r+0x1d4>
  10d050:	e59c400c 	ldr	r4, [ip, #12]
  10d054:	e580400c 	str	r4, [r0, #12]
  10d058:	e5840008 	str	r0, [r4, #8]
  10d05c:	e08e0001 	add	r0, lr, r1
  10d060:	e5900004 	ldr	r0, [r0, #4]
  10d064:	e3100001 	tst	r0, #1
  10d068:	1a00000b 	bne	10d09c <_free_r+0xb8>
  10d06c:	e59f021c 	ldr	r0, [pc, #540]	; 10d290 <_free_r+0x2ac>
  10d070:	e0822001 	add	r2, r2, r1
  10d074:	e59e1008 	ldr	r1, [lr, #8]
  10d078:	e1510000 	cmp	r1, r0
  10d07c:	0a00006f 	beq	10d240 <_free_r+0x25c>
  10d080:	e59ee00c 	ldr	lr, [lr, #12]
  10d084:	e3820001 	orr	r0, r2, #1
  10d088:	e581e00c 	str	lr, [r1, #12]
  10d08c:	e58e1008 	str	r1, [lr, #8]
  10d090:	e58c0004 	str	r0, [ip, #4]
  10d094:	e78c2002 	str	r2, [ip, r2]
  10d098:	ea000002 	b	10d0a8 <_free_r+0xc4>
  10d09c:	e3821001 	orr	r1, r2, #1
  10d0a0:	e58c1004 	str	r1, [ip, #4]
  10d0a4:	e78c2002 	str	r2, [ip, r2]
  10d0a8:	e3520c02 	cmp	r2, #512	; 0x200
  10d0ac:	2a00000e 	bcs	10d0ec <_free_r+0x108>
  10d0b0:	e1a021a2 	lsr	r2, r2, #3
  10d0b4:	e5930004 	ldr	r0, [r3, #4]
  10d0b8:	e3a04001 	mov	r4, #1
  10d0bc:	e0831182 	add	r1, r3, r2, lsl #3
  10d0c0:	e1a02142 	asr	r2, r2, #2
  10d0c4:	e591e008 	ldr	lr, [r1, #8]
  10d0c8:	e1802214 	orr	r2, r0, r4, lsl r2
  10d0cc:	e58c100c 	str	r1, [ip, #12]
  10d0d0:	e5832004 	str	r2, [r3, #4]
  10d0d4:	e58ce008 	str	lr, [ip, #8]
  10d0d8:	e581c008 	str	ip, [r1, #8]
  10d0dc:	e58ec00c 	str	ip, [lr, #12]
  10d0e0:	e1a00005 	mov	r0, r5
  10d0e4:	e8bd4070 	pop	{r4, r5, r6, lr}
  10d0e8:	ea00063d 	b	10e9e4 <__malloc_unlock>
  10d0ec:	e1a014a2 	lsr	r1, r2, #9
  10d0f0:	e3510004 	cmp	r1, #4
  10d0f4:	8a000040 	bhi	10d1fc <_free_r+0x218>
  10d0f8:	e1a01322 	lsr	r1, r2, #6
  10d0fc:	e2811038 	add	r1, r1, #56	; 0x38
  10d100:	e1a00081 	lsl	r0, r1, #1
  10d104:	e0830100 	add	r0, r3, r0, lsl #2
  10d108:	e302efb4 	movw	lr, #12212	; 0x2fb4
  10d10c:	e340e011 	movt	lr, #17
  10d110:	e5903008 	ldr	r3, [r0, #8]
  10d114:	e1530000 	cmp	r3, r0
  10d118:	0a000041 	beq	10d224 <_free_r+0x240>
  10d11c:	e5931004 	ldr	r1, [r3, #4]
  10d120:	e3c11003 	bic	r1, r1, #3
  10d124:	e1510002 	cmp	r1, r2
  10d128:	9a000002 	bls	10d138 <_free_r+0x154>
  10d12c:	e5933008 	ldr	r3, [r3, #8]
  10d130:	e1500003 	cmp	r0, r3
  10d134:	1afffff8 	bne	10d11c <_free_r+0x138>
  10d138:	e593200c 	ldr	r2, [r3, #12]
  10d13c:	e58c200c 	str	r2, [ip, #12]
  10d140:	e1a00005 	mov	r0, r5
  10d144:	e58c3008 	str	r3, [ip, #8]
  10d148:	e8bd4070 	pop	{r4, r5, r6, lr}
  10d14c:	e582c008 	str	ip, [r2, #8]
  10d150:	e583c00c 	str	ip, [r3, #12]
  10d154:	ea000622 	b	10e9e4 <__malloc_unlock>
  10d158:	e3100001 	tst	r0, #1
  10d15c:	e0812002 	add	r2, r1, r2
  10d160:	1a000006 	bne	10d180 <_free_r+0x19c>
  10d164:	e5141008 	ldr	r1, [r4, #-8]
  10d168:	e061c00c 	rsb	ip, r1, ip
  10d16c:	e0822001 	add	r2, r2, r1
  10d170:	e59c0008 	ldr	r0, [ip, #8]
  10d174:	e59c100c 	ldr	r1, [ip, #12]
  10d178:	e580100c 	str	r1, [r0, #12]
  10d17c:	e5810008 	str	r0, [r1, #8]
  10d180:	e30303c0 	movw	r0, #13248	; 0x33c0
  10d184:	e3821001 	orr	r1, r2, #1
  10d188:	e3400011 	movt	r0, #17
  10d18c:	e58c1004 	str	r1, [ip, #4]
  10d190:	e5901000 	ldr	r1, [r0]
  10d194:	e583c008 	str	ip, [r3, #8]
  10d198:	e1520001 	cmp	r2, r1
  10d19c:	3affffcf 	bcc	10d0e0 <_free_r+0xfc>
  10d1a0:	e3033408 	movw	r3, #13320	; 0x3408
  10d1a4:	e1a00005 	mov	r0, r5
  10d1a8:	e3403011 	movt	r3, #17
  10d1ac:	e5931000 	ldr	r1, [r3]
  10d1b0:	ebffff4c 	bl	10cee8 <_malloc_trim_r>
  10d1b4:	eaffffc9 	b	10d0e0 <_free_r+0xfc>
  10d1b8:	e08e3001 	add	r3, lr, r1
  10d1bc:	e5933004 	ldr	r3, [r3, #4]
  10d1c0:	e3130001 	tst	r3, #1
  10d1c4:	1a000008 	bne	10d1ec <_free_r+0x208>
  10d1c8:	e59e300c 	ldr	r3, [lr, #12]
  10d1cc:	e0822001 	add	r2, r2, r1
  10d1d0:	e59e1008 	ldr	r1, [lr, #8]
  10d1d4:	e3820001 	orr	r0, r2, #1
  10d1d8:	e581300c 	str	r3, [r1, #12]
  10d1dc:	e5831008 	str	r1, [r3, #8]
  10d1e0:	e58c0004 	str	r0, [ip, #4]
  10d1e4:	e78c2002 	str	r2, [ip, r2]
  10d1e8:	eaffffbc 	b	10d0e0 <_free_r+0xfc>
  10d1ec:	e3823001 	orr	r3, r2, #1
  10d1f0:	e58c3004 	str	r3, [ip, #4]
  10d1f4:	e78c2002 	str	r2, [ip, r2]
  10d1f8:	eaffffb8 	b	10d0e0 <_free_r+0xfc>
  10d1fc:	e3510014 	cmp	r1, #20
  10d200:	9281105b 	addls	r1, r1, #91	; 0x5b
  10d204:	91a00081 	lslls	r0, r1, #1
  10d208:	9affffbd 	bls	10d104 <_free_r+0x120>
  10d20c:	e3510054 	cmp	r1, #84	; 0x54
  10d210:	8a000011 	bhi	10d25c <_free_r+0x278>
  10d214:	e1a01622 	lsr	r1, r2, #12
  10d218:	e281106e 	add	r1, r1, #110	; 0x6e
  10d21c:	e1a00081 	lsl	r0, r1, #1
  10d220:	eaffffb7 	b	10d104 <_free_r+0x120>
  10d224:	e59e0004 	ldr	r0, [lr, #4]
  10d228:	e1a01141 	asr	r1, r1, #2
  10d22c:	e3a04001 	mov	r4, #1
  10d230:	e1a02003 	mov	r2, r3
  10d234:	e1801114 	orr	r1, r0, r4, lsl r1
  10d238:	e58e1004 	str	r1, [lr, #4]
  10d23c:	eaffffbe 	b	10d13c <_free_r+0x158>
  10d240:	e3820001 	orr	r0, r2, #1
  10d244:	e583c014 	str	ip, [r3, #20]
  10d248:	e583c010 	str	ip, [r3, #16]
  10d24c:	e58c100c 	str	r1, [ip, #12]
  10d250:	e98c0003 	stmib	ip, {r0, r1}
  10d254:	e78c2002 	str	r2, [ip, r2]
  10d258:	eaffffa0 	b	10d0e0 <_free_r+0xfc>
  10d25c:	e3510f55 	cmp	r1, #340	; 0x154
  10d260:	91a017a2 	lsrls	r1, r2, #15
  10d264:	92811077 	addls	r1, r1, #119	; 0x77
  10d268:	91a00081 	lslls	r0, r1, #1
  10d26c:	9affffa4 	bls	10d104 <_free_r+0x120>
  10d270:	e3000554 	movw	r0, #1364	; 0x554
  10d274:	e1510000 	cmp	r1, r0
  10d278:	91a01922 	lsrls	r1, r2, #18
  10d27c:	83a000fc 	movhi	r0, #252	; 0xfc
  10d280:	83a0107e 	movhi	r1, #126	; 0x7e
  10d284:	9281107c 	addls	r1, r1, #124	; 0x7c
  10d288:	91a00081 	lslls	r0, r1, #1
  10d28c:	eaffff9c 	b	10d104 <_free_r+0x120>
  10d290:	00112fbc 	.word	0x00112fbc

0010d294 <__sfvwrite_r>:
  10d294:	e5923008 	ldr	r3, [r2, #8]
  10d298:	e3530000 	cmp	r3, #0
  10d29c:	0a000034 	beq	10d374 <__sfvwrite_r+0xe0>
  10d2a0:	e1d130bc 	ldrh	r3, [r1, #12]
  10d2a4:	e92d4ff0 	push	{r4, r5, r6, r7, r8, r9, sl, fp, lr}
  10d2a8:	e24dd00c 	sub	sp, sp, #12
  10d2ac:	e1a04001 	mov	r4, r1
  10d2b0:	e58d0000 	str	r0, [sp]
  10d2b4:	e3130008 	tst	r3, #8
  10d2b8:	e1a07002 	mov	r7, r2
  10d2bc:	0a000021 	beq	10d348 <__sfvwrite_r+0xb4>
  10d2c0:	e5912010 	ldr	r2, [r1, #16]
  10d2c4:	e3520000 	cmp	r2, #0
  10d2c8:	0a00001e 	beq	10d348 <__sfvwrite_r+0xb4>
  10d2cc:	e2038002 	and	r8, r3, #2
  10d2d0:	e5975000 	ldr	r5, [r7]
  10d2d4:	e6ff8078 	uxth	r8, r8
  10d2d8:	e3580000 	cmp	r8, #0
  10d2dc:	0a000026 	beq	10d37c <__sfvwrite_r+0xe8>
  10d2e0:	e3a08000 	mov	r8, #0
  10d2e4:	e3a09b3f 	mov	r9, #64512	; 0xfc00
  10d2e8:	e1a06008 	mov	r6, r8
  10d2ec:	e3479fff 	movt	r9, #32767	; 0x7fff
  10d2f0:	e3560000 	cmp	r6, #0
  10d2f4:	e1a02008 	mov	r2, r8
  10d2f8:	e59d0000 	ldr	r0, [sp]
  10d2fc:	0a000018 	beq	10d364 <__sfvwrite_r+0xd0>
  10d300:	e1560009 	cmp	r6, r9
  10d304:	e594a024 	ldr	sl, [r4, #36]	; 0x24
  10d308:	31a03006 	movcc	r3, r6
  10d30c:	21a03009 	movcs	r3, r9
  10d310:	e594101c 	ldr	r1, [r4, #28]
  10d314:	e12fff3a 	blx	sl
  10d318:	e3500000 	cmp	r0, #0
  10d31c:	e0888000 	add	r8, r8, r0
  10d320:	e0606006 	rsb	r6, r0, r6
  10d324:	da00003f 	ble	10d428 <__sfvwrite_r+0x194>
  10d328:	e5973008 	ldr	r3, [r7, #8]
  10d32c:	e0600003 	rsb	r0, r0, r3
  10d330:	e3500000 	cmp	r0, #0
  10d334:	e5870008 	str	r0, [r7, #8]
  10d338:	1affffec 	bne	10d2f0 <__sfvwrite_r+0x5c>
  10d33c:	e3a00000 	mov	r0, #0
  10d340:	e28dd00c 	add	sp, sp, #12
  10d344:	e8bd8ff0 	pop	{r4, r5, r6, r7, r8, r9, sl, fp, pc}
  10d348:	e59d0000 	ldr	r0, [sp]
  10d34c:	e1a01004 	mov	r1, r4
  10d350:	ebfff7fa 	bl	10b340 <__swsetup_r>
  10d354:	e3500000 	cmp	r0, #0
  10d358:	1a0000ef 	bne	10d71c <__sfvwrite_r+0x488>
  10d35c:	e1d430bc 	ldrh	r3, [r4, #12]
  10d360:	eaffffd9 	b	10d2cc <__sfvwrite_r+0x38>
  10d364:	e5958000 	ldr	r8, [r5]
  10d368:	e2855008 	add	r5, r5, #8
  10d36c:	e5156004 	ldr	r6, [r5, #-4]
  10d370:	eaffffde 	b	10d2f0 <__sfvwrite_r+0x5c>
  10d374:	e3a00000 	mov	r0, #0
  10d378:	e12fff1e 	bx	lr
  10d37c:	e2139001 	ands	r9, r3, #1
  10d380:	1a00002e 	bne	10d440 <__sfvwrite_r+0x1ac>
  10d384:	e1a06009 	mov	r6, r9
  10d388:	e3560000 	cmp	r6, #0
  10d38c:	0a00001c 	beq	10d404 <__sfvwrite_r+0x170>
  10d390:	e3130c02 	tst	r3, #512	; 0x200
  10d394:	e5948008 	ldr	r8, [r4, #8]
  10d398:	0a000059 	beq	10d504 <__sfvwrite_r+0x270>
  10d39c:	e1560008 	cmp	r6, r8
  10d3a0:	e1a0a008 	mov	sl, r8
  10d3a4:	3a00007d 	bcc	10d5a0 <__sfvwrite_r+0x30c>
  10d3a8:	e3130d12 	tst	r3, #1152	; 0x480
  10d3ac:	1a00008a 	bne	10d5dc <__sfvwrite_r+0x348>
  10d3b0:	e5940000 	ldr	r0, [r4]
  10d3b4:	e1a0200a 	mov	r2, sl
  10d3b8:	e1a01009 	mov	r1, r9
  10d3bc:	eb0004ff 	bl	10e7c0 <memmove>
  10d3c0:	e5943008 	ldr	r3, [r4, #8]
  10d3c4:	e1a00006 	mov	r0, r6
  10d3c8:	e5942000 	ldr	r2, [r4]
  10d3cc:	e0688003 	rsb	r8, r8, r3
  10d3d0:	e082200a 	add	r2, r2, sl
  10d3d4:	e5848008 	str	r8, [r4, #8]
  10d3d8:	e5842000 	str	r2, [r4]
  10d3dc:	e5973008 	ldr	r3, [r7, #8]
  10d3e0:	e0899000 	add	r9, r9, r0
  10d3e4:	e0606006 	rsb	r6, r0, r6
  10d3e8:	e0600003 	rsb	r0, r0, r3
  10d3ec:	e3500000 	cmp	r0, #0
  10d3f0:	e5870008 	str	r0, [r7, #8]
  10d3f4:	0affffd0 	beq	10d33c <__sfvwrite_r+0xa8>
  10d3f8:	e3560000 	cmp	r6, #0
  10d3fc:	e1d430bc 	ldrh	r3, [r4, #12]
  10d400:	1affffe2 	bne	10d390 <__sfvwrite_r+0xfc>
  10d404:	e5959000 	ldr	r9, [r5]
  10d408:	e2855008 	add	r5, r5, #8
  10d40c:	e5156004 	ldr	r6, [r5, #-4]
  10d410:	eaffffdc 	b	10d388 <__sfvwrite_r+0xf4>
  10d414:	e59d0000 	ldr	r0, [sp]
  10d418:	e1a01004 	mov	r1, r4
  10d41c:	ebfffdce 	bl	10cb5c <_fflush_r>
  10d420:	e3500000 	cmp	r0, #0
  10d424:	0a00004a 	beq	10d554 <__sfvwrite_r+0x2c0>
  10d428:	e1d430bc 	ldrh	r3, [r4, #12]
  10d42c:	e3833040 	orr	r3, r3, #64	; 0x40
  10d430:	e3e00000 	mvn	r0, #0
  10d434:	e1c430bc 	strh	r3, [r4, #12]
  10d438:	e28dd00c 	add	sp, sp, #12
  10d43c:	e8bd8ff0 	pop	{r4, r5, r6, r7, r8, r9, sl, fp, pc}
  10d440:	e1a0b008 	mov	fp, r8
  10d444:	e1a0a008 	mov	sl, r8
  10d448:	e1a09008 	mov	r9, r8
  10d44c:	e3590000 	cmp	r9, #0
  10d450:	0a000026 	beq	10d4f0 <__sfvwrite_r+0x25c>
  10d454:	e35b0000 	cmp	fp, #0
  10d458:	0a000054 	beq	10d5b0 <__sfvwrite_r+0x31c>
  10d45c:	e5941014 	ldr	r1, [r4, #20]
  10d460:	e1580009 	cmp	r8, r9
  10d464:	e5943008 	ldr	r3, [r4, #8]
  10d468:	31a02008 	movcc	r2, r8
  10d46c:	e5940000 	ldr	r0, [r4]
  10d470:	21a02009 	movcs	r2, r9
  10d474:	e594e010 	ldr	lr, [r4, #16]
  10d478:	e1a06002 	mov	r6, r2
  10d47c:	e0813003 	add	r3, r1, r3
  10d480:	e1520003 	cmp	r2, r3
  10d484:	d3a0c000 	movle	ip, #0
  10d488:	c3a0c001 	movgt	ip, #1
  10d48c:	e150000e 	cmp	r0, lr
  10d490:	93a0c000 	movls	ip, #0
  10d494:	e35c0000 	cmp	ip, #0
  10d498:	1a000081 	bne	10d6a4 <__sfvwrite_r+0x410>
  10d49c:	e1520001 	cmp	r2, r1
  10d4a0:	ba00002d 	blt	10d55c <__sfvwrite_r+0x2c8>
  10d4a4:	e1a03001 	mov	r3, r1
  10d4a8:	e5946024 	ldr	r6, [r4, #36]	; 0x24
  10d4ac:	e59d0000 	ldr	r0, [sp]
  10d4b0:	e1a0200a 	mov	r2, sl
  10d4b4:	e594101c 	ldr	r1, [r4, #28]
  10d4b8:	e12fff36 	blx	r6
  10d4bc:	e2506000 	subs	r6, r0, #0
  10d4c0:	daffffd8 	ble	10d428 <__sfvwrite_r+0x194>
  10d4c4:	e0588006 	subs	r8, r8, r6
  10d4c8:	0a00002d 	beq	10d584 <__sfvwrite_r+0x2f0>
  10d4cc:	e5973008 	ldr	r3, [r7, #8]
  10d4d0:	e08aa006 	add	sl, sl, r6
  10d4d4:	e0669009 	rsb	r9, r6, r9
  10d4d8:	e0666003 	rsb	r6, r6, r3
  10d4dc:	e3560000 	cmp	r6, #0
  10d4e0:	e5876008 	str	r6, [r7, #8]
  10d4e4:	0affff94 	beq	10d33c <__sfvwrite_r+0xa8>
  10d4e8:	e3590000 	cmp	r9, #0
  10d4ec:	1affffd8 	bne	10d454 <__sfvwrite_r+0x1c0>
  10d4f0:	e595a000 	ldr	sl, [r5]
  10d4f4:	e3a0b000 	mov	fp, #0
  10d4f8:	e5959004 	ldr	r9, [r5, #4]
  10d4fc:	e2855008 	add	r5, r5, #8
  10d500:	eaffffd1 	b	10d44c <__sfvwrite_r+0x1b8>
  10d504:	e5940000 	ldr	r0, [r4]
  10d508:	e5943010 	ldr	r3, [r4, #16]
  10d50c:	e1500003 	cmp	r0, r3
  10d510:	8a000002 	bhi	10d520 <__sfvwrite_r+0x28c>
  10d514:	e594a014 	ldr	sl, [r4, #20]
  10d518:	e156000a 	cmp	r6, sl
  10d51c:	2a000052 	bcs	10d66c <__sfvwrite_r+0x3d8>
  10d520:	e1560008 	cmp	r6, r8
  10d524:	e1a01009 	mov	r1, r9
  10d528:	31a08006 	movcc	r8, r6
  10d52c:	e1a02008 	mov	r2, r8
  10d530:	eb0004a2 	bl	10e7c0 <memmove>
  10d534:	e5943008 	ldr	r3, [r4, #8]
  10d538:	e5942000 	ldr	r2, [r4]
  10d53c:	e0683003 	rsb	r3, r8, r3
  10d540:	e3530000 	cmp	r3, #0
  10d544:	e0822008 	add	r2, r2, r8
  10d548:	e5843008 	str	r3, [r4, #8]
  10d54c:	e5842000 	str	r2, [r4]
  10d550:	0affffaf 	beq	10d414 <__sfvwrite_r+0x180>
  10d554:	e1a00008 	mov	r0, r8
  10d558:	eaffff9f 	b	10d3dc <__sfvwrite_r+0x148>
  10d55c:	e1a0100a 	mov	r1, sl
  10d560:	eb000496 	bl	10e7c0 <memmove>
  10d564:	e5942008 	ldr	r2, [r4, #8]
  10d568:	e0588006 	subs	r8, r8, r6
  10d56c:	e5943000 	ldr	r3, [r4]
  10d570:	e0662002 	rsb	r2, r6, r2
  10d574:	e0833006 	add	r3, r3, r6
  10d578:	e5842008 	str	r2, [r4, #8]
  10d57c:	e5843000 	str	r3, [r4]
  10d580:	1affffd1 	bne	10d4cc <__sfvwrite_r+0x238>
  10d584:	e59d0000 	ldr	r0, [sp]
  10d588:	e1a01004 	mov	r1, r4
  10d58c:	ebfffd72 	bl	10cb5c <_fflush_r>
  10d590:	e3500000 	cmp	r0, #0
  10d594:	1affffa3 	bne	10d428 <__sfvwrite_r+0x194>
  10d598:	e1a0b008 	mov	fp, r8
  10d59c:	eaffffca 	b	10d4cc <__sfvwrite_r+0x238>
  10d5a0:	e5940000 	ldr	r0, [r4]
  10d5a4:	e1a08006 	mov	r8, r6
  10d5a8:	e1a0a006 	mov	sl, r6
  10d5ac:	eaffff80 	b	10d3b4 <__sfvwrite_r+0x120>
  10d5b0:	e1a0000a 	mov	r0, sl
  10d5b4:	e3a0100a 	mov	r1, #10
  10d5b8:	e1a02009 	mov	r2, r9
  10d5bc:	fa00030b 	blx	10e1f0 <memchr>
  10d5c0:	e3500000 	cmp	r0, #0
  10d5c4:	12800001 	addne	r0, r0, #1
  10d5c8:	13a0b001 	movne	fp, #1
  10d5cc:	106a8000 	rsbne	r8, sl, r0
  10d5d0:	02898001 	addeq	r8, r9, #1
  10d5d4:	03a0b001 	moveq	fp, #1
  10d5d8:	eaffff9f 	b	10d45c <__sfvwrite_r+0x1c8>
  10d5dc:	e594b014 	ldr	fp, [r4, #20]
  10d5e0:	e5941010 	ldr	r1, [r4, #16]
  10d5e4:	e5948000 	ldr	r8, [r4]
  10d5e8:	e08bb08b 	add	fp, fp, fp, lsl #1
  10d5ec:	e0618008 	rsb	r8, r1, r8
  10d5f0:	e08bbfab 	add	fp, fp, fp, lsr #31
  10d5f4:	e2880001 	add	r0, r8, #1
  10d5f8:	e0800006 	add	r0, r0, r6
  10d5fc:	e1a0b0cb 	asr	fp, fp, #1
  10d600:	e15b0000 	cmp	fp, r0
  10d604:	e1a0200b 	mov	r2, fp
  10d608:	31a0b000 	movcc	fp, r0
  10d60c:	31a0200b 	movcc	r2, fp
  10d610:	e3130b01 	tst	r3, #1024	; 0x400
  10d614:	0a000032 	beq	10d6e4 <__sfvwrite_r+0x450>
  10d618:	e1a01002 	mov	r1, r2
  10d61c:	e59d0000 	ldr	r0, [sp]
  10d620:	eb000113 	bl	10da74 <_malloc_r>
  10d624:	e250a000 	subs	sl, r0, #0
  10d628:	0a00003d 	beq	10d724 <__sfvwrite_r+0x490>
  10d62c:	e5941010 	ldr	r1, [r4, #16]
  10d630:	e1a02008 	mov	r2, r8
  10d634:	eb000321 	bl	10e2c0 <memcpy>
  10d638:	e1d430bc 	ldrh	r3, [r4, #12]
  10d63c:	e3c33d12 	bic	r3, r3, #1152	; 0x480
  10d640:	e3833080 	orr	r3, r3, #128	; 0x80
  10d644:	e1c430bc 	strh	r3, [r4, #12]
  10d648:	e08a0008 	add	r0, sl, r8
  10d64c:	e068300b 	rsb	r3, r8, fp
  10d650:	e584a010 	str	sl, [r4, #16]
  10d654:	e1a08006 	mov	r8, r6
  10d658:	e5840000 	str	r0, [r4]
  10d65c:	e1a0a006 	mov	sl, r6
  10d660:	e5843008 	str	r3, [r4, #8]
  10d664:	e584b014 	str	fp, [r4, #20]
  10d668:	eaffff51 	b	10d3b4 <__sfvwrite_r+0x120>
  10d66c:	e3760106 	cmn	r6, #-2147483647	; 0x80000001
  10d670:	e1a0100a 	mov	r1, sl
  10d674:	31a00006 	movcc	r0, r6
  10d678:	23e00102 	mvncs	r0, #-2147483648	; 0x80000000
  10d67c:	eb001200 	bl	111e84 <__aeabi_idiv>
  10d680:	e5948024 	ldr	r8, [r4, #36]	; 0x24
  10d684:	e0030a90 	mul	r3, r0, sl
  10d688:	e594101c 	ldr	r1, [r4, #28]
  10d68c:	e1a02009 	mov	r2, r9
  10d690:	e59d0000 	ldr	r0, [sp]
  10d694:	e12fff38 	blx	r8
  10d698:	e3500000 	cmp	r0, #0
  10d69c:	caffff4e 	bgt	10d3dc <__sfvwrite_r+0x148>
  10d6a0:	eaffff60 	b	10d428 <__sfvwrite_r+0x194>
  10d6a4:	e1a02003 	mov	r2, r3
  10d6a8:	e1a0100a 	mov	r1, sl
  10d6ac:	e58d3004 	str	r3, [sp, #4]
  10d6b0:	eb000442 	bl	10e7c0 <memmove>
  10d6b4:	e5942000 	ldr	r2, [r4]
  10d6b8:	e1a01004 	mov	r1, r4
  10d6bc:	e59d3004 	ldr	r3, [sp, #4]
  10d6c0:	e59d0000 	ldr	r0, [sp]
  10d6c4:	e0822003 	add	r2, r2, r3
  10d6c8:	e5842000 	str	r2, [r4]
  10d6cc:	ebfffd22 	bl	10cb5c <_fflush_r>
  10d6d0:	e3500000 	cmp	r0, #0
  10d6d4:	e59d3004 	ldr	r3, [sp, #4]
  10d6d8:	1affff52 	bne	10d428 <__sfvwrite_r+0x194>
  10d6dc:	e1a06003 	mov	r6, r3
  10d6e0:	eaffff77 	b	10d4c4 <__sfvwrite_r+0x230>
  10d6e4:	e59d0000 	ldr	r0, [sp]
  10d6e8:	eb0007f0 	bl	10f6b0 <_realloc_r>
  10d6ec:	e250a000 	subs	sl, r0, #0
  10d6f0:	1affffd4 	bne	10d648 <__sfvwrite_r+0x3b4>
  10d6f4:	e59d5000 	ldr	r5, [sp]
  10d6f8:	e5941010 	ldr	r1, [r4, #16]
  10d6fc:	e1a00005 	mov	r0, r5
  10d700:	ebfffe37 	bl	10cfe4 <_free_r>
  10d704:	e1d420bc 	ldrh	r2, [r4, #12]
  10d708:	e30f3f7f 	movw	r3, #65407	; 0xff7f
  10d70c:	e3a0100c 	mov	r1, #12
  10d710:	e5851000 	str	r1, [r5]
  10d714:	e0033002 	and	r3, r3, r2
  10d718:	eaffff43 	b	10d42c <__sfvwrite_r+0x198>
  10d71c:	e3e00000 	mvn	r0, #0
  10d720:	eaffff06 	b	10d340 <__sfvwrite_r+0xac>
  10d724:	e59d1000 	ldr	r1, [sp]
  10d728:	e3a0200c 	mov	r2, #12
  10d72c:	e1d430bc 	ldrh	r3, [r4, #12]
  10d730:	e5812000 	str	r2, [r1]
  10d734:	eaffff3c 	b	10d42c <__sfvwrite_r+0x198>

0010d738 <_fwalk>:
  10d738:	e92d41f0 	push	{r4, r5, r6, r7, r8, lr}
  10d73c:	e2907e2e 	adds	r7, r0, #736	; 0x2e0
  10d740:	0a000017 	beq	10d7a4 <_fwalk+0x6c>
  10d744:	e1a08001 	mov	r8, r1
  10d748:	e3a06000 	mov	r6, #0
  10d74c:	e5975004 	ldr	r5, [r7, #4]
  10d750:	e5974008 	ldr	r4, [r7, #8]
  10d754:	e2555001 	subs	r5, r5, #1
  10d758:	4a00000c 	bmi	10d790 <_fwalk+0x58>
  10d75c:	e1d430bc 	ldrh	r3, [r4, #12]
  10d760:	e2455001 	sub	r5, r5, #1
  10d764:	e3530001 	cmp	r3, #1
  10d768:	9a000005 	bls	10d784 <_fwalk+0x4c>
  10d76c:	e1d430fe 	ldrsh	r3, [r4, #14]
  10d770:	e1a00004 	mov	r0, r4
  10d774:	e3730001 	cmn	r3, #1
  10d778:	0a000001 	beq	10d784 <_fwalk+0x4c>
  10d77c:	e12fff38 	blx	r8
  10d780:	e1866000 	orr	r6, r6, r0
  10d784:	e3750001 	cmn	r5, #1
  10d788:	e2844068 	add	r4, r4, #104	; 0x68
  10d78c:	1afffff2 	bne	10d75c <_fwalk+0x24>
  10d790:	e5977000 	ldr	r7, [r7]
  10d794:	e3570000 	cmp	r7, #0
  10d798:	1affffeb 	bne	10d74c <_fwalk+0x14>
  10d79c:	e1a00006 	mov	r0, r6
  10d7a0:	e8bd81f0 	pop	{r4, r5, r6, r7, r8, pc}
  10d7a4:	e1a06007 	mov	r6, r7
  10d7a8:	e1a00006 	mov	r0, r6
  10d7ac:	e8bd81f0 	pop	{r4, r5, r6, r7, r8, pc}

0010d7b0 <_fwalk_reent>:
  10d7b0:	e92d43f8 	push	{r3, r4, r5, r6, r7, r8, r9, lr}
  10d7b4:	e2906e2e 	adds	r6, r0, #736	; 0x2e0
  10d7b8:	0a000019 	beq	10d824 <_fwalk_reent+0x74>
  10d7bc:	e1a08001 	mov	r8, r1
  10d7c0:	e1a07000 	mov	r7, r0
  10d7c4:	e3a09000 	mov	r9, #0
  10d7c8:	e5965004 	ldr	r5, [r6, #4]
  10d7cc:	e5964008 	ldr	r4, [r6, #8]
  10d7d0:	e2555001 	subs	r5, r5, #1
  10d7d4:	4a00000d 	bmi	10d810 <_fwalk_reent+0x60>
  10d7d8:	e1d430bc 	ldrh	r3, [r4, #12]
  10d7dc:	e2455001 	sub	r5, r5, #1
  10d7e0:	e3530001 	cmp	r3, #1
  10d7e4:	9a000006 	bls	10d804 <_fwalk_reent+0x54>
  10d7e8:	e1d430fe 	ldrsh	r3, [r4, #14]
  10d7ec:	e1a01004 	mov	r1, r4
  10d7f0:	e1a00007 	mov	r0, r7
  10d7f4:	e3730001 	cmn	r3, #1
  10d7f8:	0a000001 	beq	10d804 <_fwalk_reent+0x54>
  10d7fc:	e12fff38 	blx	r8
  10d800:	e1899000 	orr	r9, r9, r0
  10d804:	e3750001 	cmn	r5, #1
  10d808:	e2844068 	add	r4, r4, #104	; 0x68
  10d80c:	1afffff1 	bne	10d7d8 <_fwalk_reent+0x28>
  10d810:	e5966000 	ldr	r6, [r6]
  10d814:	e3560000 	cmp	r6, #0
  10d818:	1affffea 	bne	10d7c8 <_fwalk_reent+0x18>
  10d81c:	e1a00009 	mov	r0, r9
  10d820:	e8bd83f8 	pop	{r3, r4, r5, r6, r7, r8, r9, pc}
  10d824:	e1a09006 	mov	r9, r6
  10d828:	e1a00009 	mov	r0, r9
  10d82c:	e8bd83f8 	pop	{r3, r4, r5, r6, r7, r8, r9, pc}

0010d830 <_setlocale_r>:
  10d830:	e3520000 	cmp	r2, #0
  10d834:	0a00001a 	beq	10d8a4 <_setlocale_r+0x74>
  10d838:	e3021944 	movw	r1, #10564	; 0x2944
  10d83c:	e92d4010 	push	{r4, lr}
  10d840:	e1a00002 	mov	r0, r2
  10d844:	e3401011 	movt	r1, #17
  10d848:	e1a04002 	mov	r4, r2
  10d84c:	fa00094d 	blx	10fd88 <strcmp>
  10d850:	e3500000 	cmp	r0, #0
  10d854:	1a000002 	bne	10d864 <_setlocale_r+0x34>
  10d858:	e3020940 	movw	r0, #10560	; 0x2940
  10d85c:	e3400011 	movt	r0, #17
  10d860:	e8bd8010 	pop	{r4, pc}
  10d864:	e3021940 	movw	r1, #10560	; 0x2940
  10d868:	e1a00004 	mov	r0, r4
  10d86c:	e3401011 	movt	r1, #17
  10d870:	fa000944 	blx	10fd88 <strcmp>
  10d874:	e3500000 	cmp	r0, #0
  10d878:	0afffff6 	beq	10d858 <_setlocale_r+0x28>
  10d87c:	e3021908 	movw	r1, #10504	; 0x2908
  10d880:	e1a00004 	mov	r0, r4
  10d884:	e3401011 	movt	r1, #17
  10d888:	fa00093e 	blx	10fd88 <strcmp>
  10d88c:	e3023940 	movw	r3, #10560	; 0x2940
  10d890:	e3500000 	cmp	r0, #0
  10d894:	e3403011 	movt	r3, #17
  10d898:	13a00000 	movne	r0, #0
  10d89c:	01a00003 	moveq	r0, r3
  10d8a0:	e8bd8010 	pop	{r4, pc}
  10d8a4:	e3020940 	movw	r0, #10560	; 0x2940
  10d8a8:	e3400011 	movt	r0, #17
  10d8ac:	e12fff1e 	bx	lr

0010d8b0 <__locale_charset>:
  10d8b0:	e3020f38 	movw	r0, #12088	; 0x2f38
  10d8b4:	e3400011 	movt	r0, #17
  10d8b8:	e12fff1e 	bx	lr

0010d8bc <__locale_mb_cur_max>:
  10d8bc:	e3023f38 	movw	r3, #12088	; 0x2f38
  10d8c0:	e3403011 	movt	r3, #17
  10d8c4:	e5930020 	ldr	r0, [r3, #32]
  10d8c8:	e12fff1e 	bx	lr

0010d8cc <__locale_msgcharset>:
  10d8cc:	e59f0000 	ldr	r0, [pc]	; 10d8d4 <__locale_msgcharset+0x8>
  10d8d0:	e12fff1e 	bx	lr
  10d8d4:	00112f5c 	.word	0x00112f5c

0010d8d8 <__locale_cjk_lang>:
  10d8d8:	e3a00000 	mov	r0, #0
  10d8dc:	e12fff1e 	bx	lr

0010d8e0 <_localeconv_r>:
  10d8e0:	e59f0000 	ldr	r0, [pc]	; 10d8e8 <_localeconv_r+0x8>
  10d8e4:	e12fff1e 	bx	lr
  10d8e8:	00112f7c 	.word	0x00112f7c

0010d8ec <setlocale>:
  10d8ec:	e3023b08 	movw	r3, #11016	; 0x2b08
  10d8f0:	e1a02001 	mov	r2, r1
  10d8f4:	e3403011 	movt	r3, #17
  10d8f8:	e1a01000 	mov	r1, r0
  10d8fc:	e5930000 	ldr	r0, [r3]
  10d900:	eaffffca 	b	10d830 <_setlocale_r>

0010d904 <localeconv>:
  10d904:	e59f0000 	ldr	r0, [pc]	; 10d90c <localeconv+0x8>
  10d908:	e12fff1e 	bx	lr
  10d90c:	00112f7c 	.word	0x00112f7c

0010d910 <__smakebuf_r>:
  10d910:	e1d130bc 	ldrh	r3, [r1, #12]
  10d914:	e6ff2073 	uxth	r2, r3
  10d918:	e3120002 	tst	r2, #2
  10d91c:	1a000030 	bne	10d9e4 <__smakebuf_r+0xd4>
  10d920:	e92d40f0 	push	{r4, r5, r6, r7, lr}
  10d924:	e1a04001 	mov	r4, r1
  10d928:	e1d110fe 	ldrsh	r1, [r1, #14]
  10d92c:	e24dd044 	sub	sp, sp, #68	; 0x44
  10d930:	e1a05000 	mov	r5, r0
  10d934:	e3510000 	cmp	r1, #0
  10d938:	ba000011 	blt	10d984 <__smakebuf_r+0x74>
  10d93c:	e28d2004 	add	r2, sp, #4
  10d940:	eb000f95 	bl	11179c <_fstat_r>
  10d944:	e3500000 	cmp	r0, #0
  10d948:	ba00000b 	blt	10d97c <__smakebuf_r+0x6c>
  10d94c:	e59d3008 	ldr	r3, [sp, #8]
  10d950:	e2033a0f 	and	r3, r3, #61440	; 0xf000
  10d954:	e3530902 	cmp	r3, #32768	; 0x8000
  10d958:	e2437a02 	sub	r7, r3, #8192	; 0x2000
  10d95c:	e16f7f17 	clz	r7, r7
  10d960:	e1a072a7 	lsr	r7, r7, #5
  10d964:	0a000024 	beq	10d9fc <__smakebuf_r+0xec>
  10d968:	e1d430bc 	ldrh	r3, [r4, #12]
  10d96c:	e3a06b01 	mov	r6, #1024	; 0x400
  10d970:	e3833b02 	orr	r3, r3, #2048	; 0x800
  10d974:	e1c430bc 	strh	r3, [r4, #12]
  10d978:	ea000007 	b	10d99c <__smakebuf_r+0x8c>
  10d97c:	e1d430bc 	ldrh	r3, [r4, #12]
  10d980:	e6ff2073 	uxth	r2, r3
  10d984:	e3120080 	tst	r2, #128	; 0x80
  10d988:	e3a07000 	mov	r7, #0
  10d98c:	03a06b01 	moveq	r6, #1024	; 0x400
  10d990:	13a06040 	movne	r6, #64	; 0x40
  10d994:	e3833b02 	orr	r3, r3, #2048	; 0x800
  10d998:	e1c430bc 	strh	r3, [r4, #12]
  10d99c:	e1a00005 	mov	r0, r5
  10d9a0:	e1a01006 	mov	r1, r6
  10d9a4:	eb000032 	bl	10da74 <_malloc_r>
  10d9a8:	e3500000 	cmp	r0, #0
  10d9ac:	e1d430bc 	ldrh	r3, [r4, #12]
  10d9b0:	0a000025 	beq	10da4c <__smakebuf_r+0x13c>
  10d9b4:	e30c2bec 	movw	r2, #52204	; 0xcbec
  10d9b8:	e3570000 	cmp	r7, #0
  10d9bc:	e3402010 	movt	r2, #16
  10d9c0:	e3833080 	orr	r3, r3, #128	; 0x80
  10d9c4:	e585203c 	str	r2, [r5, #60]	; 0x3c
  10d9c8:	e5840000 	str	r0, [r4]
  10d9cc:	e5840010 	str	r0, [r4, #16]
  10d9d0:	e5846014 	str	r6, [r4, #20]
  10d9d4:	e1c430bc 	strh	r3, [r4, #12]
  10d9d8:	1a000012 	bne	10da28 <__smakebuf_r+0x118>
  10d9dc:	e28dd044 	add	sp, sp, #68	; 0x44
  10d9e0:	e8bd80f0 	pop	{r4, r5, r6, r7, pc}
  10d9e4:	e2813043 	add	r3, r1, #67	; 0x43
  10d9e8:	e3a02001 	mov	r2, #1
  10d9ec:	e5813000 	str	r3, [r1]
  10d9f0:	e5813010 	str	r3, [r1, #16]
  10d9f4:	e5812014 	str	r2, [r1, #20]
  10d9f8:	e12fff1e 	bx	lr
  10d9fc:	e5942028 	ldr	r2, [r4, #40]	; 0x28
  10da00:	e30f3d48 	movw	r3, #64840	; 0xfd48
  10da04:	e3403010 	movt	r3, #16
  10da08:	e1520003 	cmp	r2, r3
  10da0c:	1affffd5 	bne	10d968 <__smakebuf_r+0x58>
  10da10:	e1d430bc 	ldrh	r3, [r4, #12]
  10da14:	e3a06b01 	mov	r6, #1024	; 0x400
  10da18:	e584604c 	str	r6, [r4, #76]	; 0x4c
  10da1c:	e1833006 	orr	r3, r3, r6
  10da20:	e1c430bc 	strh	r3, [r4, #12]
  10da24:	eaffffdc 	b	10d99c <__smakebuf_r+0x8c>
  10da28:	e1a00005 	mov	r0, r5
  10da2c:	e1d410fe 	ldrsh	r1, [r4, #14]
  10da30:	eb000f68 	bl	1117d8 <_isatty_r>
  10da34:	e3500000 	cmp	r0, #0
  10da38:	11d430bc 	ldrhne	r3, [r4, #12]
  10da3c:	13833001 	orrne	r3, r3, #1
  10da40:	11c430bc 	strhne	r3, [r4, #12]
  10da44:	e28dd044 	add	sp, sp, #68	; 0x44
  10da48:	e8bd80f0 	pop	{r4, r5, r6, r7, pc}
  10da4c:	e3130c02 	tst	r3, #512	; 0x200
  10da50:	1affffe1 	bne	10d9dc <__smakebuf_r+0xcc>
  10da54:	e2842043 	add	r2, r4, #67	; 0x43
  10da58:	e3833002 	orr	r3, r3, #2
  10da5c:	e3a01001 	mov	r1, #1
  10da60:	e1c430bc 	strh	r3, [r4, #12]
  10da64:	e5842000 	str	r2, [r4]
  10da68:	e5842010 	str	r2, [r4, #16]
  10da6c:	e5841014 	str	r1, [r4, #20]
  10da70:	eaffffd9 	b	10d9dc <__smakebuf_r+0xcc>

0010da74 <_malloc_r>:
  10da74:	e92d4ff0 	push	{r4, r5, r6, r7, r8, r9, sl, fp, lr}
  10da78:	e281400b 	add	r4, r1, #11
  10da7c:	e3540016 	cmp	r4, #22
  10da80:	e24dd00c 	sub	sp, sp, #12
  10da84:	e1a05000 	mov	r5, r0
  10da88:	9a00001f 	bls	10db0c <_malloc_r+0x98>
  10da8c:	e3c44007 	bic	r4, r4, #7
  10da90:	e1510004 	cmp	r1, r4
  10da94:	93a01000 	movls	r1, #0
  10da98:	83a01001 	movhi	r1, #1
  10da9c:	e1913fa4 	orrs	r3, r1, r4, lsr #31
  10daa0:	1a000086 	bne	10dcc0 <_malloc_r+0x24c>
  10daa4:	eb0003cd 	bl	10e9e0 <__malloc_lock>
  10daa8:	e3540f7e 	cmp	r4, #504	; 0x1f8
  10daac:	2a00001b 	bcs	10db20 <_malloc_r+0xac>
  10dab0:	e3026fb4 	movw	r6, #12212	; 0x2fb4
  10dab4:	e1a011a4 	lsr	r1, r4, #3
  10dab8:	e3406011 	movt	r6, #17
  10dabc:	e0863181 	add	r3, r6, r1, lsl #3
  10dac0:	e593200c 	ldr	r2, [r3, #12]
  10dac4:	e1520003 	cmp	r2, r3
  10dac8:	0a000118 	beq	10df30 <_malloc_r+0x4bc>
  10dacc:	e5923004 	ldr	r3, [r2, #4]
  10dad0:	e2828008 	add	r8, r2, #8
  10dad4:	e592100c 	ldr	r1, [r2, #12]
  10dad8:	e1a00005 	mov	r0, r5
  10dadc:	e592c008 	ldr	ip, [r2, #8]
  10dae0:	e3c33003 	bic	r3, r3, #3
  10dae4:	e0822003 	add	r2, r2, r3
  10dae8:	e5923004 	ldr	r3, [r2, #4]
  10daec:	e58c100c 	str	r1, [ip, #12]
  10daf0:	e581c008 	str	ip, [r1, #8]
  10daf4:	e3833001 	orr	r3, r3, #1
  10daf8:	e5823004 	str	r3, [r2, #4]
  10dafc:	eb0003b8 	bl	10e9e4 <__malloc_unlock>
  10db00:	e1a00008 	mov	r0, r8
  10db04:	e28dd00c 	add	sp, sp, #12
  10db08:	e8bd8ff0 	pop	{r4, r5, r6, r7, r8, r9, sl, fp, pc}
  10db0c:	e3510010 	cmp	r1, #16
  10db10:	8a00006a 	bhi	10dcc0 <_malloc_r+0x24c>
  10db14:	eb0003b1 	bl	10e9e0 <__malloc_lock>
  10db18:	e3a04010 	mov	r4, #16
  10db1c:	eaffffe3 	b	10dab0 <_malloc_r+0x3c>
  10db20:	e1b014a4 	lsrs	r1, r4, #9
  10db24:	03a0007e 	moveq	r0, #126	; 0x7e
  10db28:	03a0c03f 	moveq	ip, #63	; 0x3f
  10db2c:	1a000069 	bne	10dcd8 <_malloc_r+0x264>
  10db30:	e3026fb4 	movw	r6, #12212	; 0x2fb4
  10db34:	e3406011 	movt	r6, #17
  10db38:	e0860100 	add	r0, r6, r0, lsl #2
  10db3c:	e590300c 	ldr	r3, [r0, #12]
  10db40:	e1500003 	cmp	r0, r3
  10db44:	1a000005 	bne	10db60 <_malloc_r+0xec>
  10db48:	ea00000a 	b	10db78 <_malloc_r+0x104>
  10db4c:	e3510000 	cmp	r1, #0
  10db50:	aa0000a6 	bge	10ddf0 <_malloc_r+0x37c>
  10db54:	e593300c 	ldr	r3, [r3, #12]
  10db58:	e1500003 	cmp	r0, r3
  10db5c:	0a000005 	beq	10db78 <_malloc_r+0x104>
  10db60:	e5932004 	ldr	r2, [r3, #4]
  10db64:	e3c22003 	bic	r2, r2, #3
  10db68:	e0641002 	rsb	r1, r4, r2
  10db6c:	e351000f 	cmp	r1, #15
  10db70:	dafffff5 	ble	10db4c <_malloc_r+0xd8>
  10db74:	e24cc001 	sub	ip, ip, #1
  10db78:	e28c1001 	add	r1, ip, #1
  10db7c:	e302efb4 	movw	lr, #12212	; 0x2fb4
  10db80:	e5963010 	ldr	r3, [r6, #16]
  10db84:	e340e011 	movt	lr, #17
  10db88:	e28e7008 	add	r7, lr, #8
  10db8c:	e1530007 	cmp	r3, r7
  10db90:	059e2004 	ldreq	r2, [lr, #4]
  10db94:	0a000016 	beq	10dbf4 <_malloc_r+0x180>
  10db98:	e5932004 	ldr	r2, [r3, #4]
  10db9c:	e3c22003 	bic	r2, r2, #3
  10dba0:	e064c002 	rsb	ip, r4, r2
  10dba4:	e35c000f 	cmp	ip, #15
  10dba8:	ca0000ce 	bgt	10dee8 <_malloc_r+0x474>
  10dbac:	e35c0000 	cmp	ip, #0
  10dbb0:	e58e7014 	str	r7, [lr, #20]
  10dbb4:	e58e7010 	str	r7, [lr, #16]
  10dbb8:	aa00004c 	bge	10dcf0 <_malloc_r+0x27c>
  10dbbc:	e3520c02 	cmp	r2, #512	; 0x200
  10dbc0:	2a0000ae 	bcs	10de80 <_malloc_r+0x40c>
  10dbc4:	e1a0c1a2 	lsr	ip, r2, #3
  10dbc8:	e59e0004 	ldr	r0, [lr, #4]
  10dbcc:	e3a09001 	mov	r9, #1
  10dbd0:	e08e818c 	add	r8, lr, ip, lsl #3
  10dbd4:	e1a0214c 	asr	r2, ip, #2
  10dbd8:	e598c008 	ldr	ip, [r8, #8]
  10dbdc:	e1802219 	orr	r2, r0, r9, lsl r2
  10dbe0:	e583800c 	str	r8, [r3, #12]
  10dbe4:	e58e2004 	str	r2, [lr, #4]
  10dbe8:	e583c008 	str	ip, [r3, #8]
  10dbec:	e5883008 	str	r3, [r8, #8]
  10dbf0:	e58c300c 	str	r3, [ip, #12]
  10dbf4:	e1a03141 	asr	r3, r1, #2
  10dbf8:	e3a00001 	mov	r0, #1
  10dbfc:	e1a00310 	lsl	r0, r0, r3
  10dc00:	e1500002 	cmp	r0, r2
  10dc04:	8a000043 	bhi	10dd18 <_malloc_r+0x2a4>
  10dc08:	e1120000 	tst	r2, r0
  10dc0c:	1a000008 	bne	10dc34 <_malloc_r+0x1c0>
  10dc10:	e1a00080 	lsl	r0, r0, #1
  10dc14:	e3c11003 	bic	r1, r1, #3
  10dc18:	e2811004 	add	r1, r1, #4
  10dc1c:	e1120000 	tst	r2, r0
  10dc20:	1a000003 	bne	10dc34 <_malloc_r+0x1c0>
  10dc24:	e1a00080 	lsl	r0, r0, #1
  10dc28:	e2811004 	add	r1, r1, #4
  10dc2c:	e1120000 	tst	r2, r0
  10dc30:	0afffffb 	beq	10dc24 <_malloc_r+0x1b0>
  10dc34:	e0868181 	add	r8, r6, r1, lsl #3
  10dc38:	e1a09001 	mov	r9, r1
  10dc3c:	e1a0c008 	mov	ip, r8
  10dc40:	e59ce00c 	ldr	lr, [ip, #12]
  10dc44:	e15c000e 	cmp	ip, lr
  10dc48:	1a000005 	bne	10dc64 <_malloc_r+0x1f0>
  10dc4c:	ea0000b2 	b	10df1c <_malloc_r+0x4a8>
  10dc50:	e3520000 	cmp	r2, #0
  10dc54:	aa0000bb 	bge	10df48 <_malloc_r+0x4d4>
  10dc58:	e59ee00c 	ldr	lr, [lr, #12]
  10dc5c:	e15c000e 	cmp	ip, lr
  10dc60:	0a0000ad 	beq	10df1c <_malloc_r+0x4a8>
  10dc64:	e59e3004 	ldr	r3, [lr, #4]
  10dc68:	e3c33003 	bic	r3, r3, #3
  10dc6c:	e0642003 	rsb	r2, r4, r3
  10dc70:	e352000f 	cmp	r2, #15
  10dc74:	dafffff5 	ble	10dc50 <_malloc_r+0x1dc>
  10dc78:	e1a0800e 	mov	r8, lr
  10dc7c:	e59e300c 	ldr	r3, [lr, #12]
  10dc80:	e5b81008 	ldr	r1, [r8, #8]!
  10dc84:	e3849001 	orr	r9, r4, #1
  10dc88:	e382c001 	orr	ip, r2, #1
  10dc8c:	e08e4004 	add	r4, lr, r4
  10dc90:	e58e9004 	str	r9, [lr, #4]
  10dc94:	e1a00005 	mov	r0, r5
  10dc98:	e581300c 	str	r3, [r1, #12]
  10dc9c:	e5831008 	str	r1, [r3, #8]
  10dca0:	e5864014 	str	r4, [r6, #20]
  10dca4:	e5864010 	str	r4, [r6, #16]
  10dca8:	e584700c 	str	r7, [r4, #12]
  10dcac:	e5847008 	str	r7, [r4, #8]
  10dcb0:	e584c004 	str	ip, [r4, #4]
  10dcb4:	e7842002 	str	r2, [r4, r2]
  10dcb8:	eb000349 	bl	10e9e4 <__malloc_unlock>
  10dcbc:	eaffff8f 	b	10db00 <_malloc_r+0x8c>
  10dcc0:	e3a0300c 	mov	r3, #12
  10dcc4:	e3a08000 	mov	r8, #0
  10dcc8:	e1a00008 	mov	r0, r8
  10dccc:	e5853000 	str	r3, [r5]
  10dcd0:	e28dd00c 	add	sp, sp, #12
  10dcd4:	e8bd8ff0 	pop	{r4, r5, r6, r7, r8, r9, sl, fp, pc}
  10dcd8:	e3510004 	cmp	r1, #4
  10dcdc:	8a00005d 	bhi	10de58 <_malloc_r+0x3e4>
  10dce0:	e1a01324 	lsr	r1, r4, #6
  10dce4:	e281c038 	add	ip, r1, #56	; 0x38
  10dce8:	e1a0008c 	lsl	r0, ip, #1
  10dcec:	eaffff8f 	b	10db30 <_malloc_r+0xbc>
  10dcf0:	e0832002 	add	r2, r3, r2
  10dcf4:	e2838008 	add	r8, r3, #8
  10dcf8:	e5921004 	ldr	r1, [r2, #4]
  10dcfc:	e1a00005 	mov	r0, r5
  10dd00:	e3813001 	orr	r3, r1, #1
  10dd04:	e5823004 	str	r3, [r2, #4]
  10dd08:	eb000335 	bl	10e9e4 <__malloc_unlock>
  10dd0c:	e1a00008 	mov	r0, r8
  10dd10:	e28dd00c 	add	sp, sp, #12
  10dd14:	e8bd8ff0 	pop	{r4, r5, r6, r7, r8, r9, sl, fp, pc}
  10dd18:	e5968008 	ldr	r8, [r6, #8]
  10dd1c:	e3021fb4 	movw	r1, #12212	; 0x2fb4
  10dd20:	e3401011 	movt	r1, #17
  10dd24:	e5987004 	ldr	r7, [r8, #4]
  10dd28:	e3c77003 	bic	r7, r7, #3
  10dd2c:	e1570004 	cmp	r7, r4
  10dd30:	e0642007 	rsb	r2, r4, r7
  10dd34:	23a03000 	movcs	r3, #0
  10dd38:	33a03001 	movcc	r3, #1
  10dd3c:	e352000f 	cmp	r2, #15
  10dd40:	d3833001 	orrle	r3, r3, #1
  10dd44:	e3530000 	cmp	r3, #0
  10dd48:	0a000036 	beq	10de28 <_malloc_r+0x3b4>
  10dd4c:	e3039408 	movw	r9, #13320	; 0x3408
  10dd50:	e5913408 	ldr	r3, [r1, #1032]	; 0x408
  10dd54:	e3409011 	movt	r9, #17
  10dd58:	e1a00005 	mov	r0, r5
  10dd5c:	e5992000 	ldr	r2, [r9]
  10dd60:	e3730001 	cmn	r3, #1
  10dd64:	e0842002 	add	r2, r4, r2
  10dd68:	12822a01 	addne	r2, r2, #4096	; 0x1000
  10dd6c:	0282a010 	addeq	sl, r2, #16
  10dd70:	1282200f 	addne	r2, r2, #15
  10dd74:	13c2aeff 	bicne	sl, r2, #4080	; 0xff0
  10dd78:	13caa00f 	bicne	sl, sl, #15
  10dd7c:	e1a0100a 	mov	r1, sl
  10dd80:	eb0007bf 	bl	10fc84 <_sbrk_r>
  10dd84:	e3700001 	cmn	r0, #1
  10dd88:	e1a0b000 	mov	fp, r0
  10dd8c:	0a000008 	beq	10ddb4 <_malloc_r+0x340>
  10dd90:	e0582006 	subs	r2, r8, r6
  10dd94:	e0883007 	add	r3, r8, r7
  10dd98:	13a02001 	movne	r2, #1
  10dd9c:	e1580006 	cmp	r8, r6
  10dda0:	11530000 	cmpne	r3, r0
  10dda4:	e3020fb4 	movw	r0, #12212	; 0x2fb4
  10dda8:	e58d2000 	str	r2, [sp]
  10ddac:	e3400011 	movt	r0, #17
  10ddb0:	9a000094 	bls	10e008 <_malloc_r+0x594>
  10ddb4:	e5968008 	ldr	r8, [r6, #8]
  10ddb8:	e5983004 	ldr	r3, [r8, #4]
  10ddbc:	e3c33003 	bic	r3, r3, #3
  10ddc0:	e1540003 	cmp	r4, r3
  10ddc4:	e0642003 	rsb	r2, r4, r3
  10ddc8:	93a03000 	movls	r3, #0
  10ddcc:	83a03001 	movhi	r3, #1
  10ddd0:	e352000f 	cmp	r2, #15
  10ddd4:	d3833001 	orrle	r3, r3, #1
  10ddd8:	e3530000 	cmp	r3, #0
  10dddc:	0a000011 	beq	10de28 <_malloc_r+0x3b4>
  10dde0:	e1a00005 	mov	r0, r5
  10dde4:	e3a08000 	mov	r8, #0
  10dde8:	eb0002fd 	bl	10e9e4 <__malloc_unlock>
  10ddec:	eaffff43 	b	10db00 <_malloc_r+0x8c>
  10ddf0:	e0832002 	add	r2, r3, r2
  10ddf4:	e593c00c 	ldr	ip, [r3, #12]
  10ddf8:	e5921004 	ldr	r1, [r2, #4]
  10ddfc:	e2838008 	add	r8, r3, #8
  10de00:	e593e008 	ldr	lr, [r3, #8]
  10de04:	e1a00005 	mov	r0, r5
  10de08:	e3813001 	orr	r3, r1, #1
  10de0c:	e58ec00c 	str	ip, [lr, #12]
  10de10:	e58ce008 	str	lr, [ip, #8]
  10de14:	e5823004 	str	r3, [r2, #4]
  10de18:	eb0002f1 	bl	10e9e4 <__malloc_unlock>
  10de1c:	e1a00008 	mov	r0, r8
  10de20:	e28dd00c 	add	sp, sp, #12
  10de24:	e8bd8ff0 	pop	{r4, r5, r6, r7, r8, r9, sl, fp, pc}
  10de28:	e3843001 	orr	r3, r4, #1
  10de2c:	e3822001 	orr	r2, r2, #1
  10de30:	e0884004 	add	r4, r8, r4
  10de34:	e5883004 	str	r3, [r8, #4]
  10de38:	e1a00005 	mov	r0, r5
  10de3c:	e5864008 	str	r4, [r6, #8]
  10de40:	e2888008 	add	r8, r8, #8
  10de44:	e5842004 	str	r2, [r4, #4]
  10de48:	eb0002e5 	bl	10e9e4 <__malloc_unlock>
  10de4c:	e1a00008 	mov	r0, r8
  10de50:	e28dd00c 	add	sp, sp, #12
  10de54:	e8bd8ff0 	pop	{r4, r5, r6, r7, r8, r9, sl, fp, pc}
  10de58:	e3510014 	cmp	r1, #20
  10de5c:	9281c05b 	addls	ip, r1, #91	; 0x5b
  10de60:	91a0008c 	lslls	r0, ip, #1
  10de64:	9affff31 	bls	10db30 <_malloc_r+0xbc>
  10de68:	e3510054 	cmp	r1, #84	; 0x54
  10de6c:	8a0000ae 	bhi	10e12c <_malloc_r+0x6b8>
  10de70:	e1a01624 	lsr	r1, r4, #12
  10de74:	e281c06e 	add	ip, r1, #110	; 0x6e
  10de78:	e1a0008c 	lsl	r0, ip, #1
  10de7c:	eaffff2b 	b	10db30 <_malloc_r+0xbc>
  10de80:	e1a004a2 	lsr	r0, r2, #9
  10de84:	e3500004 	cmp	r0, #4
  10de88:	8a00003a 	bhi	10df78 <_malloc_r+0x504>
  10de8c:	e1a00322 	lsr	r0, r2, #6
  10de90:	e280e038 	add	lr, r0, #56	; 0x38
  10de94:	e1a0008e 	lsl	r0, lr, #1
  10de98:	e0860100 	add	r0, r6, r0, lsl #2
  10de9c:	e3028fb4 	movw	r8, #12212	; 0x2fb4
  10dea0:	e3408011 	movt	r8, #17
  10dea4:	e590c008 	ldr	ip, [r0, #8]
  10dea8:	e15c0000 	cmp	ip, r0
  10deac:	0a0000a4 	beq	10e144 <_malloc_r+0x6d0>
  10deb0:	e59ce004 	ldr	lr, [ip, #4]
  10deb4:	e3cee003 	bic	lr, lr, #3
  10deb8:	e152000e 	cmp	r2, lr
  10debc:	2a000002 	bcs	10decc <_malloc_r+0x458>
  10dec0:	e59cc008 	ldr	ip, [ip, #8]
  10dec4:	e150000c 	cmp	r0, ip
  10dec8:	1afffff8 	bne	10deb0 <_malloc_r+0x43c>
  10decc:	e59c900c 	ldr	r9, [ip, #12]
  10ded0:	e5962004 	ldr	r2, [r6, #4]
  10ded4:	e583900c 	str	r9, [r3, #12]
  10ded8:	e583c008 	str	ip, [r3, #8]
  10dedc:	e5893008 	str	r3, [r9, #8]
  10dee0:	e58c300c 	str	r3, [ip, #12]
  10dee4:	eaffff42 	b	10dbf4 <_malloc_r+0x180>
  10dee8:	e3841001 	orr	r1, r4, #1
  10deec:	e38c2001 	orr	r2, ip, #1
  10def0:	e0834004 	add	r4, r3, r4
  10def4:	e5831004 	str	r1, [r3, #4]
  10def8:	e1a00005 	mov	r0, r5
  10defc:	e58e4014 	str	r4, [lr, #20]
  10df00:	e58e4010 	str	r4, [lr, #16]
  10df04:	e2838008 	add	r8, r3, #8
  10df08:	e584700c 	str	r7, [r4, #12]
  10df0c:	e9840084 	stmib	r4, {r2, r7}
  10df10:	e784c00c 	str	ip, [r4, ip]
  10df14:	eb0002b2 	bl	10e9e4 <__malloc_unlock>
  10df18:	eafffef8 	b	10db00 <_malloc_r+0x8c>
  10df1c:	e2899001 	add	r9, r9, #1
  10df20:	e28cc008 	add	ip, ip, #8
  10df24:	e3190003 	tst	r9, #3
  10df28:	1affff44 	bne	10dc40 <_malloc_r+0x1cc>
  10df2c:	ea00001e 	b	10dfac <_malloc_r+0x538>
  10df30:	e2823008 	add	r3, r2, #8
  10df34:	e5922014 	ldr	r2, [r2, #20]
  10df38:	e1530002 	cmp	r3, r2
  10df3c:	02811002 	addeq	r1, r1, #2
  10df40:	0affff0d 	beq	10db7c <_malloc_r+0x108>
  10df44:	eafffee0 	b	10dacc <_malloc_r+0x58>
  10df48:	e08e2003 	add	r2, lr, r3
  10df4c:	e1a0800e 	mov	r8, lr
  10df50:	e5923004 	ldr	r3, [r2, #4]
  10df54:	e1a00005 	mov	r0, r5
  10df58:	e59e100c 	ldr	r1, [lr, #12]
  10df5c:	e5b8c008 	ldr	ip, [r8, #8]!
  10df60:	e3833001 	orr	r3, r3, #1
  10df64:	e5823004 	str	r3, [r2, #4]
  10df68:	e58c100c 	str	r1, [ip, #12]
  10df6c:	e581c008 	str	ip, [r1, #8]
  10df70:	eb00029b 	bl	10e9e4 <__malloc_unlock>
  10df74:	eafffee1 	b	10db00 <_malloc_r+0x8c>
  10df78:	e3500014 	cmp	r0, #20
  10df7c:	9280e05b 	addls	lr, r0, #91	; 0x5b
  10df80:	91a0008e 	lslls	r0, lr, #1
  10df84:	9affffc3 	bls	10de98 <_malloc_r+0x424>
  10df88:	e3500054 	cmp	r0, #84	; 0x54
  10df8c:	8a000088 	bhi	10e1b4 <_malloc_r+0x740>
  10df90:	e1a00622 	lsr	r0, r2, #12
  10df94:	e280e06e 	add	lr, r0, #110	; 0x6e
  10df98:	e1a0008e 	lsl	r0, lr, #1
  10df9c:	eaffffbd 	b	10de98 <_malloc_r+0x424>
  10dfa0:	e5988000 	ldr	r8, [r8]
  10dfa4:	e1580003 	cmp	r8, r3
  10dfa8:	1a00008e 	bne	10e1e8 <_malloc_r+0x774>
  10dfac:	e3110003 	tst	r1, #3
  10dfb0:	e2483008 	sub	r3, r8, #8
  10dfb4:	e2411001 	sub	r1, r1, #1
  10dfb8:	1afffff8 	bne	10dfa0 <_malloc_r+0x52c>
  10dfbc:	e5963004 	ldr	r3, [r6, #4]
  10dfc0:	e1c33000 	bic	r3, r3, r0
  10dfc4:	e5863004 	str	r3, [r6, #4]
  10dfc8:	e1a00080 	lsl	r0, r0, #1
  10dfcc:	e1500003 	cmp	r0, r3
  10dfd0:	83a02000 	movhi	r2, #0
  10dfd4:	93a02001 	movls	r2, #1
  10dfd8:	e3500000 	cmp	r0, #0
  10dfdc:	03a02000 	moveq	r2, #0
  10dfe0:	e3520000 	cmp	r2, #0
  10dfe4:	0affff4b 	beq	10dd18 <_malloc_r+0x2a4>
  10dfe8:	e1130000 	tst	r3, r0
  10dfec:	e1a01009 	mov	r1, r9
  10dff0:	1affff0f 	bne	10dc34 <_malloc_r+0x1c0>
  10dff4:	e1a00080 	lsl	r0, r0, #1
  10dff8:	e2811004 	add	r1, r1, #4
  10dffc:	e1130000 	tst	r3, r0
  10e000:	0afffffb 	beq	10dff4 <_malloc_r+0x580>
  10e004:	eaffff0a 	b	10dc34 <_malloc_r+0x1c0>
  10e008:	e5991004 	ldr	r1, [r9, #4]
  10e00c:	e153000b 	cmp	r3, fp
  10e010:	e08a1001 	add	r1, sl, r1
  10e014:	e5891004 	str	r1, [r9, #4]
  10e018:	0a000058 	beq	10e180 <_malloc_r+0x70c>
  10e01c:	e596c408 	ldr	ip, [r6, #1032]	; 0x408
  10e020:	e3020fb4 	movw	r0, #12212	; 0x2fb4
  10e024:	e3400011 	movt	r0, #17
  10e028:	e37c0001 	cmn	ip, #1
  10e02c:	1063300b 	rsbne	r3, r3, fp
  10e030:	0580b408 	streq	fp, [r0, #1032]	; 0x408
  10e034:	10811003 	addne	r1, r1, r3
  10e038:	15891004 	strne	r1, [r9, #4]
  10e03c:	e21b3007 	ands	r3, fp, #7
  10e040:	12630008 	rsbne	r0, r3, #8
  10e044:	12631a01 	rsbne	r1, r3, #4096	; 0x1000
  10e048:	108bb000 	addne	fp, fp, r0
  10e04c:	12811008 	addne	r1, r1, #8
  10e050:	e08b300a 	add	r3, fp, sl
  10e054:	03a01a01 	moveq	r1, #4096	; 0x1000
  10e058:	e7eb3053 	ubfx	r3, r3, #0, #12
  10e05c:	e1a00005 	mov	r0, r5
  10e060:	e0633001 	rsb	r3, r3, r1
  10e064:	e303a408 	movw	sl, #13320	; 0x3408
  10e068:	e1a01003 	mov	r1, r3
  10e06c:	e58d3004 	str	r3, [sp, #4]
  10e070:	eb000703 	bl	10fc84 <_sbrk_r>
  10e074:	e3700001 	cmn	r0, #1
  10e078:	e5991004 	ldr	r1, [r9, #4]
  10e07c:	159d3004 	ldrne	r3, [sp, #4]
  10e080:	106b2000 	rsbne	r2, fp, r0
  10e084:	e59d0000 	ldr	r0, [sp]
  10e088:	03a02001 	moveq	r2, #1
  10e08c:	03a03000 	moveq	r3, #0
  10e090:	e586b008 	str	fp, [r6, #8]
  10e094:	10832002 	addne	r2, r3, r2
  10e098:	e0831001 	add	r1, r3, r1
  10e09c:	13822001 	orrne	r2, r2, #1
  10e0a0:	e3500000 	cmp	r0, #0
  10e0a4:	e340a011 	movt	sl, #17
  10e0a8:	e58b2004 	str	r2, [fp, #4]
  10e0ac:	e5891004 	str	r1, [r9, #4]
  10e0b0:	0a00000f 	beq	10e0f4 <_malloc_r+0x680>
  10e0b4:	e357000f 	cmp	r7, #15
  10e0b8:	93a03001 	movls	r3, #1
  10e0bc:	958b3004 	strls	r3, [fp, #4]
  10e0c0:	9affff46 	bls	10dde0 <_malloc_r+0x36c>
  10e0c4:	e5982004 	ldr	r2, [r8, #4]
  10e0c8:	e247300c 	sub	r3, r7, #12
  10e0cc:	e3c33007 	bic	r3, r3, #7
  10e0d0:	e3a0c005 	mov	ip, #5
  10e0d4:	e353000f 	cmp	r3, #15
  10e0d8:	e0880003 	add	r0, r8, r3
  10e0dc:	e2022001 	and	r2, r2, #1
  10e0e0:	e1833002 	orr	r3, r3, r2
  10e0e4:	e5883004 	str	r3, [r8, #4]
  10e0e8:	e580c004 	str	ip, [r0, #4]
  10e0ec:	e580c008 	str	ip, [r0, #8]
  10e0f0:	8a00002a 	bhi	10e1a0 <_malloc_r+0x72c>
  10e0f4:	e599202c 	ldr	r2, [r9, #44]	; 0x2c
  10e0f8:	e3033408 	movw	r3, #13320	; 0x3408
  10e0fc:	e3403011 	movt	r3, #17
  10e100:	e5968008 	ldr	r8, [r6, #8]
  10e104:	e1510002 	cmp	r1, r2
  10e108:	e5992030 	ldr	r2, [r9, #48]	; 0x30
  10e10c:	8583102c 	strhi	r1, [r3, #44]	; 0x2c
  10e110:	e3033408 	movw	r3, #13320	; 0x3408
  10e114:	e3403011 	movt	r3, #17
  10e118:	e1510002 	cmp	r1, r2
  10e11c:	85831030 	strhi	r1, [r3, #48]	; 0x30
  10e120:	e5983004 	ldr	r3, [r8, #4]
  10e124:	e3c33003 	bic	r3, r3, #3
  10e128:	eaffff24 	b	10ddc0 <_malloc_r+0x34c>
  10e12c:	e3510f55 	cmp	r1, #340	; 0x154
  10e130:	8a00000a 	bhi	10e160 <_malloc_r+0x6ec>
  10e134:	e1a017a4 	lsr	r1, r4, #15
  10e138:	e281c077 	add	ip, r1, #119	; 0x77
  10e13c:	e1a0008c 	lsl	r0, ip, #1
  10e140:	eafffe7a 	b	10db30 <_malloc_r+0xbc>
  10e144:	e5982004 	ldr	r2, [r8, #4]
  10e148:	e1a0014e 	asr	r0, lr, #2
  10e14c:	e3a0e001 	mov	lr, #1
  10e150:	e1a0900c 	mov	r9, ip
  10e154:	e182201e 	orr	r2, r2, lr, lsl r0
  10e158:	e5882004 	str	r2, [r8, #4]
  10e15c:	eaffff5c 	b	10ded4 <_malloc_r+0x460>
  10e160:	e3003554 	movw	r3, #1364	; 0x554
  10e164:	e1510003 	cmp	r1, r3
  10e168:	91a01924 	lsrls	r1, r4, #18
  10e16c:	83a000fc 	movhi	r0, #252	; 0xfc
  10e170:	83a0c07e 	movhi	ip, #126	; 0x7e
  10e174:	9281c07c 	addls	ip, r1, #124	; 0x7c
  10e178:	91a0008c 	lslls	r0, ip, #1
  10e17c:	eafffe6b 	b	10db30 <_malloc_r+0xbc>
  10e180:	e7ebc053 	ubfx	ip, r3, #0, #12
  10e184:	e35c0000 	cmp	ip, #0
  10e188:	1affffa3 	bne	10e01c <_malloc_r+0x5a8>
  10e18c:	e5900008 	ldr	r0, [r0, #8]
  10e190:	e08a2007 	add	r2, sl, r7
  10e194:	e3823001 	orr	r3, r2, #1
  10e198:	e5803004 	str	r3, [r0, #4]
  10e19c:	eaffffd4 	b	10e0f4 <_malloc_r+0x680>
  10e1a0:	e2881008 	add	r1, r8, #8
  10e1a4:	e1a00005 	mov	r0, r5
  10e1a8:	ebfffb8d 	bl	10cfe4 <_free_r>
  10e1ac:	e59a1004 	ldr	r1, [sl, #4]
  10e1b0:	eaffffcf 	b	10e0f4 <_malloc_r+0x680>
  10e1b4:	e3500f55 	cmp	r0, #340	; 0x154
  10e1b8:	91a007a2 	lsrls	r0, r2, #15
  10e1bc:	9280e077 	addls	lr, r0, #119	; 0x77
  10e1c0:	91a0008e 	lslls	r0, lr, #1
  10e1c4:	9affff33 	bls	10de98 <_malloc_r+0x424>
  10e1c8:	e300c554 	movw	ip, #1364	; 0x554
  10e1cc:	e150000c 	cmp	r0, ip
  10e1d0:	91a00922 	lsrls	r0, r2, #18
  10e1d4:	83a000fc 	movhi	r0, #252	; 0xfc
  10e1d8:	83a0e07e 	movhi	lr, #126	; 0x7e
  10e1dc:	9280e07c 	addls	lr, r0, #124	; 0x7c
  10e1e0:	91a0008e 	lslls	r0, lr, #1
  10e1e4:	eaffff2b 	b	10de98 <_malloc_r+0x424>
  10e1e8:	e5963004 	ldr	r3, [r6, #4]
  10e1ec:	eaffff75 	b	10dfc8 <_malloc_r+0x554>

0010e1f0 <memchr>:
  10e1f0:	f001 01ff 	and.w	r1, r1, #255	; 0xff
  10e1f4:	2a10      	cmp	r2, #16
  10e1f6:	db2b      	blt.n	10e250 <memchr+0x60>
  10e1f8:	f010 0f07 	tst.w	r0, #7
  10e1fc:	d008      	beq.n	10e210 <memchr+0x20>
  10e1fe:	f810 3b01 	ldrb.w	r3, [r0], #1
  10e202:	3a01      	subs	r2, #1
  10e204:	428b      	cmp	r3, r1
  10e206:	d02d      	beq.n	10e264 <memchr+0x74>
  10e208:	f010 0f07 	tst.w	r0, #7
  10e20c:	b342      	cbz	r2, 10e260 <memchr+0x70>
  10e20e:	d1f6      	bne.n	10e1fe <memchr+0xe>
  10e210:	b4f0      	push	{r4, r5, r6, r7}
  10e212:	ea41 2101 	orr.w	r1, r1, r1, lsl #8
  10e216:	ea41 4101 	orr.w	r1, r1, r1, lsl #16
  10e21a:	f022 0407 	bic.w	r4, r2, #7
  10e21e:	f07f 0700 	mvns.w	r7, #0
  10e222:	2300      	movs	r3, #0
  10e224:	e8f0 5602 	ldrd	r5, r6, [r0], #8
  10e228:	3c08      	subs	r4, #8
  10e22a:	ea85 0501 	eor.w	r5, r5, r1
  10e22e:	ea86 0601 	eor.w	r6, r6, r1
  10e232:	fa85 f547 	uadd8	r5, r5, r7
  10e236:	faa3 f587 	sel	r5, r3, r7
  10e23a:	fa86 f647 	uadd8	r6, r6, r7
  10e23e:	faa5 f687 	sel	r6, r5, r7
  10e242:	b98e      	cbnz	r6, 10e268 <memchr+0x78>
  10e244:	d1ee      	bne.n	10e224 <memchr+0x34>
  10e246:	bcf0      	pop	{r4, r5, r6, r7}
  10e248:	f001 01ff 	and.w	r1, r1, #255	; 0xff
  10e24c:	f002 0207 	and.w	r2, r2, #7
  10e250:	b132      	cbz	r2, 10e260 <memchr+0x70>
  10e252:	f810 3b01 	ldrb.w	r3, [r0], #1
  10e256:	3a01      	subs	r2, #1
  10e258:	ea83 0301 	eor.w	r3, r3, r1
  10e25c:	b113      	cbz	r3, 10e264 <memchr+0x74>
  10e25e:	d1f8      	bne.n	10e252 <memchr+0x62>
  10e260:	2000      	movs	r0, #0
  10e262:	4770      	bx	lr
  10e264:	3801      	subs	r0, #1
  10e266:	4770      	bx	lr
  10e268:	2d00      	cmp	r5, #0
  10e26a:	bf06      	itte	eq
  10e26c:	4635      	moveq	r5, r6
  10e26e:	3803      	subeq	r0, #3
  10e270:	3807      	subne	r0, #7
  10e272:	f015 0f01 	tst.w	r5, #1
  10e276:	d107      	bne.n	10e288 <memchr+0x98>
  10e278:	3001      	adds	r0, #1
  10e27a:	f415 7f80 	tst.w	r5, #256	; 0x100
  10e27e:	bf02      	ittt	eq
  10e280:	3001      	addeq	r0, #1
  10e282:	f415 3fc0 	tsteq.w	r5, #98304	; 0x18000
  10e286:	3001      	addeq	r0, #1
  10e288:	bcf0      	pop	{r4, r5, r6, r7}
  10e28a:	3801      	subs	r0, #1
  10e28c:	4770      	bx	lr
  10e28e:	bf00      	nop
	...

0010e2c0 <memcpy>:
  10e2c0:	e1a0c000 	mov	ip, r0
  10e2c4:	e3520040 	cmp	r2, #64	; 0x40
  10e2c8:	aa000019 	bge	10e334 <memcpy+0x74>
  10e2cc:	e2023038 	and	r3, r2, #56	; 0x38
  10e2d0:	e2633034 	rsb	r3, r3, #52	; 0x34
  10e2d4:	e08ff003 	add	pc, pc, r3
  10e2d8:	f421070d 	vld1.8	{d0}, [r1]!
  10e2dc:	f40c070d 	vst1.8	{d0}, [ip]!
  10e2e0:	f421070d 	vld1.8	{d0}, [r1]!
  10e2e4:	f40c070d 	vst1.8	{d0}, [ip]!
  10e2e8:	f421070d 	vld1.8	{d0}, [r1]!
  10e2ec:	f40c070d 	vst1.8	{d0}, [ip]!
  10e2f0:	f421070d 	vld1.8	{d0}, [r1]!
  10e2f4:	f40c070d 	vst1.8	{d0}, [ip]!
  10e2f8:	f421070d 	vld1.8	{d0}, [r1]!
  10e2fc:	f40c070d 	vst1.8	{d0}, [ip]!
  10e300:	f421070d 	vld1.8	{d0}, [r1]!
  10e304:	f40c070d 	vst1.8	{d0}, [ip]!
  10e308:	f421070d 	vld1.8	{d0}, [r1]!
  10e30c:	f40c070d 	vst1.8	{d0}, [ip]!
  10e310:	e3120004 	tst	r2, #4
  10e314:	14913004 	ldrne	r3, [r1], #4
  10e318:	148c3004 	strne	r3, [ip], #4
  10e31c:	e1b02f82 	lsls	r2, r2, #31
  10e320:	20d130b2 	ldrhcs	r3, [r1], #2
  10e324:	15d11000 	ldrbne	r1, [r1]
  10e328:	20cc30b2 	strhcs	r3, [ip], #2
  10e32c:	15cc1000 	strbne	r1, [ip]
  10e330:	e12fff1e 	bx	lr
  10e334:	e52da004 	push	{sl}		; (str sl, [sp, #-4]!)
  10e338:	e201a007 	and	sl, r1, #7
  10e33c:	e20c3007 	and	r3, ip, #7
  10e340:	e153000a 	cmp	r3, sl
  10e344:	1a0000f1 	bne	10e710 <memcpy+0x450>
  10e348:	eeb00a40 	vmov.f32	s0, s0
  10e34c:	e1b0ae8c 	lsls	sl, ip, #29
  10e350:	0a000008 	beq	10e378 <memcpy+0xb8>
  10e354:	e27aa000 	rsbs	sl, sl, #0
  10e358:	e0422eaa 	sub	r2, r2, sl, lsr #29
  10e35c:	44913004 	ldrmi	r3, [r1], #4
  10e360:	448c3004 	strmi	r3, [ip], #4
  10e364:	e1b0a10a 	lsls	sl, sl, #2
  10e368:	20d130b2 	ldrhcs	r3, [r1], #2
  10e36c:	14d1a001 	ldrbne	sl, [r1], #1
  10e370:	20cc30b2 	strhcs	r3, [ip], #2
  10e374:	14cca001 	strbne	sl, [ip], #1
  10e378:	e252a040 	subs	sl, r2, #64	; 0x40
  10e37c:	ba000017 	blt	10e3e0 <memcpy+0x120>
  10e380:	e35a0c02 	cmp	sl, #512	; 0x200
  10e384:	aa000032 	bge	10e454 <memcpy+0x194>
  10e388:	ed910b00 	vldr	d0, [r1]
  10e38c:	e25aa040 	subs	sl, sl, #64	; 0x40
  10e390:	ed911b02 	vldr	d1, [r1, #8]
  10e394:	ed8c0b00 	vstr	d0, [ip]
  10e398:	ed910b04 	vldr	d0, [r1, #16]
  10e39c:	ed8c1b02 	vstr	d1, [ip, #8]
  10e3a0:	ed911b06 	vldr	d1, [r1, #24]
  10e3a4:	ed8c0b04 	vstr	d0, [ip, #16]
  10e3a8:	ed910b08 	vldr	d0, [r1, #32]
  10e3ac:	ed8c1b06 	vstr	d1, [ip, #24]
  10e3b0:	ed911b0a 	vldr	d1, [r1, #40]	; 0x28
  10e3b4:	ed8c0b08 	vstr	d0, [ip, #32]
  10e3b8:	ed910b0c 	vldr	d0, [r1, #48]	; 0x30
  10e3bc:	ed8c1b0a 	vstr	d1, [ip, #40]	; 0x28
  10e3c0:	ed911b0e 	vldr	d1, [r1, #56]	; 0x38
  10e3c4:	ed8c0b0c 	vstr	d0, [ip, #48]	; 0x30
  10e3c8:	e2811040 	add	r1, r1, #64	; 0x40
  10e3cc:	ed8c1b0e 	vstr	d1, [ip, #56]	; 0x38
  10e3d0:	e28cc040 	add	ip, ip, #64	; 0x40
  10e3d4:	aaffffeb 	bge	10e388 <memcpy+0xc8>
  10e3d8:	e31a003f 	tst	sl, #63	; 0x3f
  10e3dc:	0a00001a 	beq	10e44c <memcpy+0x18c>
  10e3e0:	e20a3038 	and	r3, sl, #56	; 0x38
  10e3e4:	e08cc003 	add	ip, ip, r3
  10e3e8:	e0811003 	add	r1, r1, r3
  10e3ec:	e2633034 	rsb	r3, r3, #52	; 0x34
  10e3f0:	e08ff003 	add	pc, pc, r3
  10e3f4:	ed110b0e 	vldr	d0, [r1, #-56]	; 0xffffffc8
  10e3f8:	ed0c0b0e 	vstr	d0, [ip, #-56]	; 0xffffffc8
  10e3fc:	ed110b0c 	vldr	d0, [r1, #-48]	; 0xffffffd0
  10e400:	ed0c0b0c 	vstr	d0, [ip, #-48]	; 0xffffffd0
  10e404:	ed110b0a 	vldr	d0, [r1, #-40]	; 0xffffffd8
  10e408:	ed0c0b0a 	vstr	d0, [ip, #-40]	; 0xffffffd8
  10e40c:	ed110b08 	vldr	d0, [r1, #-32]	; 0xffffffe0
  10e410:	ed0c0b08 	vstr	d0, [ip, #-32]	; 0xffffffe0
  10e414:	ed110b06 	vldr	d0, [r1, #-24]	; 0xffffffe8
  10e418:	ed0c0b06 	vstr	d0, [ip, #-24]	; 0xffffffe8
  10e41c:	ed110b04 	vldr	d0, [r1, #-16]
  10e420:	ed0c0b04 	vstr	d0, [ip, #-16]
  10e424:	ed110b02 	vldr	d0, [r1, #-8]
  10e428:	ed0c0b02 	vstr	d0, [ip, #-8]
  10e42c:	e31a0004 	tst	sl, #4
  10e430:	14913004 	ldrne	r3, [r1], #4
  10e434:	148c3004 	strne	r3, [ip], #4
  10e438:	e1b0af8a 	lsls	sl, sl, #31
  10e43c:	20d130b2 	ldrhcs	r3, [r1], #2
  10e440:	15d1a000 	ldrbne	sl, [r1]
  10e444:	20cc30b2 	strhcs	r3, [ip], #2
  10e448:	15cca000 	strbne	sl, [ip]
  10e44c:	e49da004 	pop	{sl}		; (ldr sl, [sp], #4)
  10e450:	e12fff1e 	bx	lr
  10e454:	ed913b00 	vldr	d3, [r1]
  10e458:	ed914b10 	vldr	d4, [r1, #64]	; 0x40
  10e45c:	ed915b20 	vldr	d5, [r1, #128]	; 0x80
  10e460:	ed916b30 	vldr	d6, [r1, #192]	; 0xc0
  10e464:	ed917b40 	vldr	d7, [r1, #256]	; 0x100
  10e468:	ed910b02 	vldr	d0, [r1, #8]
  10e46c:	ed911b04 	vldr	d1, [r1, #16]
  10e470:	ed912b06 	vldr	d2, [r1, #24]
  10e474:	e2811020 	add	r1, r1, #32
  10e478:	e25aad0a 	subs	sl, sl, #640	; 0x280
  10e47c:	ba000055 	blt	10e5d8 <memcpy+0x318>
  10e480:	ed8c3b00 	vstr	d3, [ip]
  10e484:	ed913b00 	vldr	d3, [r1]
  10e488:	ed8c0b02 	vstr	d0, [ip, #8]
  10e48c:	ed910b02 	vldr	d0, [r1, #8]
  10e490:	ed8c1b04 	vstr	d1, [ip, #16]
  10e494:	ed911b04 	vldr	d1, [r1, #16]
  10e498:	ed8c2b06 	vstr	d2, [ip, #24]
  10e49c:	ed912b06 	vldr	d2, [r1, #24]
  10e4a0:	ed8c3b08 	vstr	d3, [ip, #32]
  10e4a4:	ed913b48 	vldr	d3, [r1, #288]	; 0x120
  10e4a8:	ed8c0b0a 	vstr	d0, [ip, #40]	; 0x28
  10e4ac:	ed910b0a 	vldr	d0, [r1, #40]	; 0x28
  10e4b0:	ed8c1b0c 	vstr	d1, [ip, #48]	; 0x30
  10e4b4:	ed911b0c 	vldr	d1, [r1, #48]	; 0x30
  10e4b8:	ed8c2b0e 	vstr	d2, [ip, #56]	; 0x38
  10e4bc:	ed912b0e 	vldr	d2, [r1, #56]	; 0x38
  10e4c0:	ed8c4b10 	vstr	d4, [ip, #64]	; 0x40
  10e4c4:	ed914b10 	vldr	d4, [r1, #64]	; 0x40
  10e4c8:	ed8c0b12 	vstr	d0, [ip, #72]	; 0x48
  10e4cc:	ed910b12 	vldr	d0, [r1, #72]	; 0x48
  10e4d0:	ed8c1b14 	vstr	d1, [ip, #80]	; 0x50
  10e4d4:	ed911b14 	vldr	d1, [r1, #80]	; 0x50
  10e4d8:	ed8c2b16 	vstr	d2, [ip, #88]	; 0x58
  10e4dc:	ed912b16 	vldr	d2, [r1, #88]	; 0x58
  10e4e0:	ed8c4b18 	vstr	d4, [ip, #96]	; 0x60
  10e4e4:	ed914b58 	vldr	d4, [r1, #352]	; 0x160
  10e4e8:	ed8c0b1a 	vstr	d0, [ip, #104]	; 0x68
  10e4ec:	ed910b1a 	vldr	d0, [r1, #104]	; 0x68
  10e4f0:	ed8c1b1c 	vstr	d1, [ip, #112]	; 0x70
  10e4f4:	ed911b1c 	vldr	d1, [r1, #112]	; 0x70
  10e4f8:	ed8c2b1e 	vstr	d2, [ip, #120]	; 0x78
  10e4fc:	ed912b1e 	vldr	d2, [r1, #120]	; 0x78
  10e500:	ed8c5b20 	vstr	d5, [ip, #128]	; 0x80
  10e504:	ed915b20 	vldr	d5, [r1, #128]	; 0x80
  10e508:	ed8c0b22 	vstr	d0, [ip, #136]	; 0x88
  10e50c:	ed910b22 	vldr	d0, [r1, #136]	; 0x88
  10e510:	ed8c1b24 	vstr	d1, [ip, #144]	; 0x90
  10e514:	ed911b24 	vldr	d1, [r1, #144]	; 0x90
  10e518:	ed8c2b26 	vstr	d2, [ip, #152]	; 0x98
  10e51c:	ed912b26 	vldr	d2, [r1, #152]	; 0x98
  10e520:	ed8c5b28 	vstr	d5, [ip, #160]	; 0xa0
  10e524:	ed915b68 	vldr	d5, [r1, #416]	; 0x1a0
  10e528:	ed8c0b2a 	vstr	d0, [ip, #168]	; 0xa8
  10e52c:	ed910b2a 	vldr	d0, [r1, #168]	; 0xa8
  10e530:	ed8c1b2c 	vstr	d1, [ip, #176]	; 0xb0
  10e534:	ed911b2c 	vldr	d1, [r1, #176]	; 0xb0
  10e538:	ed8c2b2e 	vstr	d2, [ip, #184]	; 0xb8
  10e53c:	ed912b2e 	vldr	d2, [r1, #184]	; 0xb8
  10e540:	e28cc0c0 	add	ip, ip, #192	; 0xc0
  10e544:	e28110c0 	add	r1, r1, #192	; 0xc0
  10e548:	ed8c6b00 	vstr	d6, [ip]
  10e54c:	ed916b00 	vldr	d6, [r1]
  10e550:	ed8c0b02 	vstr	d0, [ip, #8]
  10e554:	ed910b02 	vldr	d0, [r1, #8]
  10e558:	ed8c1b04 	vstr	d1, [ip, #16]
  10e55c:	ed911b04 	vldr	d1, [r1, #16]
  10e560:	ed8c2b06 	vstr	d2, [ip, #24]
  10e564:	ed912b06 	vldr	d2, [r1, #24]
  10e568:	ed8c6b08 	vstr	d6, [ip, #32]
  10e56c:	ed916b48 	vldr	d6, [r1, #288]	; 0x120
  10e570:	ed8c0b0a 	vstr	d0, [ip, #40]	; 0x28
  10e574:	ed910b0a 	vldr	d0, [r1, #40]	; 0x28
  10e578:	ed8c1b0c 	vstr	d1, [ip, #48]	; 0x30
  10e57c:	ed911b0c 	vldr	d1, [r1, #48]	; 0x30
  10e580:	ed8c2b0e 	vstr	d2, [ip, #56]	; 0x38
  10e584:	ed912b0e 	vldr	d2, [r1, #56]	; 0x38
  10e588:	ed8c7b10 	vstr	d7, [ip, #64]	; 0x40
  10e58c:	ed917b10 	vldr	d7, [r1, #64]	; 0x40
  10e590:	ed8c0b12 	vstr	d0, [ip, #72]	; 0x48
  10e594:	ed910b12 	vldr	d0, [r1, #72]	; 0x48
  10e598:	ed8c1b14 	vstr	d1, [ip, #80]	; 0x50
  10e59c:	ed911b14 	vldr	d1, [r1, #80]	; 0x50
  10e5a0:	ed8c2b16 	vstr	d2, [ip, #88]	; 0x58
  10e5a4:	ed912b16 	vldr	d2, [r1, #88]	; 0x58
  10e5a8:	ed8c7b18 	vstr	d7, [ip, #96]	; 0x60
  10e5ac:	ed917b58 	vldr	d7, [r1, #352]	; 0x160
  10e5b0:	ed8c0b1a 	vstr	d0, [ip, #104]	; 0x68
  10e5b4:	ed910b1a 	vldr	d0, [r1, #104]	; 0x68
  10e5b8:	ed8c1b1c 	vstr	d1, [ip, #112]	; 0x70
  10e5bc:	ed911b1c 	vldr	d1, [r1, #112]	; 0x70
  10e5c0:	ed8c2b1e 	vstr	d2, [ip, #120]	; 0x78
  10e5c4:	ed912b1e 	vldr	d2, [r1, #120]	; 0x78
  10e5c8:	e28cc080 	add	ip, ip, #128	; 0x80
  10e5cc:	e2811080 	add	r1, r1, #128	; 0x80
  10e5d0:	e25aad05 	subs	sl, sl, #320	; 0x140
  10e5d4:	aaffffa9 	bge	10e480 <memcpy+0x1c0>
  10e5d8:	ed8c3b00 	vstr	d3, [ip]
  10e5dc:	ed913b00 	vldr	d3, [r1]
  10e5e0:	ed8c0b02 	vstr	d0, [ip, #8]
  10e5e4:	ed910b02 	vldr	d0, [r1, #8]
  10e5e8:	ed8c1b04 	vstr	d1, [ip, #16]
  10e5ec:	ed911b04 	vldr	d1, [r1, #16]
  10e5f0:	ed8c2b06 	vstr	d2, [ip, #24]
  10e5f4:	ed912b06 	vldr	d2, [r1, #24]
  10e5f8:	ed8c3b08 	vstr	d3, [ip, #32]
  10e5fc:	ed8c0b0a 	vstr	d0, [ip, #40]	; 0x28
  10e600:	ed910b0a 	vldr	d0, [r1, #40]	; 0x28
  10e604:	ed8c1b0c 	vstr	d1, [ip, #48]	; 0x30
  10e608:	ed911b0c 	vldr	d1, [r1, #48]	; 0x30
  10e60c:	ed8c2b0e 	vstr	d2, [ip, #56]	; 0x38
  10e610:	ed912b0e 	vldr	d2, [r1, #56]	; 0x38
  10e614:	ed8c4b10 	vstr	d4, [ip, #64]	; 0x40
  10e618:	ed914b10 	vldr	d4, [r1, #64]	; 0x40
  10e61c:	ed8c0b12 	vstr	d0, [ip, #72]	; 0x48
  10e620:	ed910b12 	vldr	d0, [r1, #72]	; 0x48
  10e624:	ed8c1b14 	vstr	d1, [ip, #80]	; 0x50
  10e628:	ed911b14 	vldr	d1, [r1, #80]	; 0x50
  10e62c:	ed8c2b16 	vstr	d2, [ip, #88]	; 0x58
  10e630:	ed912b16 	vldr	d2, [r1, #88]	; 0x58
  10e634:	ed8c4b18 	vstr	d4, [ip, #96]	; 0x60
  10e638:	ed8c0b1a 	vstr	d0, [ip, #104]	; 0x68
  10e63c:	ed910b1a 	vldr	d0, [r1, #104]	; 0x68
  10e640:	ed8c1b1c 	vstr	d1, [ip, #112]	; 0x70
  10e644:	ed911b1c 	vldr	d1, [r1, #112]	; 0x70
  10e648:	ed8c2b1e 	vstr	d2, [ip, #120]	; 0x78
  10e64c:	ed912b1e 	vldr	d2, [r1, #120]	; 0x78
  10e650:	ed8c5b20 	vstr	d5, [ip, #128]	; 0x80
  10e654:	ed915b20 	vldr	d5, [r1, #128]	; 0x80
  10e658:	ed8c0b22 	vstr	d0, [ip, #136]	; 0x88
  10e65c:	ed910b22 	vldr	d0, [r1, #136]	; 0x88
  10e660:	ed8c1b24 	vstr	d1, [ip, #144]	; 0x90
  10e664:	ed911b24 	vldr	d1, [r1, #144]	; 0x90
  10e668:	ed8c2b26 	vstr	d2, [ip, #152]	; 0x98
  10e66c:	ed912b26 	vldr	d2, [r1, #152]	; 0x98
  10e670:	ed8c5b28 	vstr	d5, [ip, #160]	; 0xa0
  10e674:	ed8c0b2a 	vstr	d0, [ip, #168]	; 0xa8
  10e678:	ed910b2a 	vldr	d0, [r1, #168]	; 0xa8
  10e67c:	ed8c1b2c 	vstr	d1, [ip, #176]	; 0xb0
  10e680:	ed911b2c 	vldr	d1, [r1, #176]	; 0xb0
  10e684:	ed8c2b2e 	vstr	d2, [ip, #184]	; 0xb8
  10e688:	ed912b2e 	vldr	d2, [r1, #184]	; 0xb8
  10e68c:	e28110c0 	add	r1, r1, #192	; 0xc0
  10e690:	e28cc0c0 	add	ip, ip, #192	; 0xc0
  10e694:	ed8c6b00 	vstr	d6, [ip]
  10e698:	ed916b00 	vldr	d6, [r1]
  10e69c:	ed8c0b02 	vstr	d0, [ip, #8]
  10e6a0:	ed910b02 	vldr	d0, [r1, #8]
  10e6a4:	ed8c1b04 	vstr	d1, [ip, #16]
  10e6a8:	ed911b04 	vldr	d1, [r1, #16]
  10e6ac:	ed8c2b06 	vstr	d2, [ip, #24]
  10e6b0:	ed912b06 	vldr	d2, [r1, #24]
  10e6b4:	ed8c6b08 	vstr	d6, [ip, #32]
  10e6b8:	ed8c0b0a 	vstr	d0, [ip, #40]	; 0x28
  10e6bc:	ed910b0a 	vldr	d0, [r1, #40]	; 0x28
  10e6c0:	ed8c1b0c 	vstr	d1, [ip, #48]	; 0x30
  10e6c4:	ed911b0c 	vldr	d1, [r1, #48]	; 0x30
  10e6c8:	ed8c2b0e 	vstr	d2, [ip, #56]	; 0x38
  10e6cc:	ed912b0e 	vldr	d2, [r1, #56]	; 0x38
  10e6d0:	ed8c7b10 	vstr	d7, [ip, #64]	; 0x40
  10e6d4:	ed917b10 	vldr	d7, [r1, #64]	; 0x40
  10e6d8:	ed8c0b12 	vstr	d0, [ip, #72]	; 0x48
  10e6dc:	ed910b12 	vldr	d0, [r1, #72]	; 0x48
  10e6e0:	ed8c1b14 	vstr	d1, [ip, #80]	; 0x50
  10e6e4:	ed911b14 	vldr	d1, [r1, #80]	; 0x50
  10e6e8:	ed8c2b16 	vstr	d2, [ip, #88]	; 0x58
  10e6ec:	ed912b16 	vldr	d2, [r1, #88]	; 0x58
  10e6f0:	ed8c7b18 	vstr	d7, [ip, #96]	; 0x60
  10e6f4:	e2811060 	add	r1, r1, #96	; 0x60
  10e6f8:	ed8c0b1a 	vstr	d0, [ip, #104]	; 0x68
  10e6fc:	ed8c1b1c 	vstr	d1, [ip, #112]	; 0x70
  10e700:	ed8c2b1e 	vstr	d2, [ip, #120]	; 0x78
  10e704:	e28cc080 	add	ip, ip, #128	; 0x80
  10e708:	e28aad05 	add	sl, sl, #320	; 0x140
  10e70c:	eaffff1d 	b	10e388 <memcpy+0xc8>
  10e710:	f5d1f000 	pld	[r1]
  10e714:	f5d1f040 	pld	[r1, #64]	; 0x40
  10e718:	e1b0ae8c 	lsls	sl, ip, #29
  10e71c:	f5d1f080 	pld	[r1, #128]	; 0x80
  10e720:	0a000008 	beq	10e748 <memcpy+0x488>
  10e724:	e27aa000 	rsbs	sl, sl, #0
  10e728:	e0422eaa 	sub	r2, r2, sl, lsr #29
  10e72c:	44913004 	ldrmi	r3, [r1], #4
  10e730:	448c3004 	strmi	r3, [ip], #4
  10e734:	e1b0a10a 	lsls	sl, sl, #2
  10e738:	14d13001 	ldrbne	r3, [r1], #1
  10e73c:	20d1a0b2 	ldrhcs	sl, [r1], #2
  10e740:	14cc3001 	strbne	r3, [ip], #1
  10e744:	20cca0b2 	strhcs	sl, [ip], #2
  10e748:	f5d1f0c0 	pld	[r1, #192]	; 0xc0
  10e74c:	e2522040 	subs	r2, r2, #64	; 0x40
  10e750:	449da004 	popmi	{sl}		; (ldrmi sl, [sp], #4)
  10e754:	4afffedc 	bmi	10e2cc <memcpy+0xc>
  10e758:	f5d1f100 	pld	[r1, #256]	; 0x100
  10e75c:	f421020d 	vld1.8	{d0-d3}, [r1]!
  10e760:	f421420d 	vld1.8	{d4-d7}, [r1]!
  10e764:	e2522040 	subs	r2, r2, #64	; 0x40
  10e768:	4a000006 	bmi	10e788 <memcpy+0x4c8>
  10e76c:	f5d1f100 	pld	[r1, #256]	; 0x100
  10e770:	f40c021d 	vst1.8	{d0-d3}, [ip :64]!
  10e774:	f421020d 	vld1.8	{d0-d3}, [r1]!
  10e778:	f40c421d 	vst1.8	{d4-d7}, [ip :64]!
  10e77c:	f421420d 	vld1.8	{d4-d7}, [r1]!
  10e780:	e2522040 	subs	r2, r2, #64	; 0x40
  10e784:	5afffff8 	bpl	10e76c <memcpy+0x4ac>
  10e788:	f40c021d 	vst1.8	{d0-d3}, [ip :64]!
  10e78c:	f40c421d 	vst1.8	{d4-d7}, [ip :64]!
  10e790:	e212203f 	ands	r2, r2, #63	; 0x3f
  10e794:	e49da004 	pop	{sl}		; (ldr sl, [sp], #4)
  10e798:	1afffecb 	bne	10e2cc <memcpy+0xc>
  10e79c:	e12fff1e 	bx	lr
  10e7a0:	e320f000 	nop	{0}
  10e7a4:	e320f000 	nop	{0}
  10e7a8:	e320f000 	nop	{0}
  10e7ac:	e320f000 	nop	{0}
  10e7b0:	e320f000 	nop	{0}
  10e7b4:	e320f000 	nop	{0}
  10e7b8:	e320f000 	nop	{0}
  10e7bc:	e320f000 	nop	{0}

0010e7c0 <memmove>:
  10e7c0:	e1500001 	cmp	r0, r1
  10e7c4:	e92d4070 	push	{r4, r5, r6, lr}
  10e7c8:	9a00000b 	bls	10e7fc <memmove+0x3c>
  10e7cc:	e0813002 	add	r3, r1, r2
  10e7d0:	e1500003 	cmp	r0, r3
  10e7d4:	2a000008 	bcs	10e7fc <memmove+0x3c>
  10e7d8:	e3520000 	cmp	r2, #0
  10e7dc:	e0801002 	add	r1, r0, r2
  10e7e0:	08bd8070 	popeq	{r4, r5, r6, pc}
  10e7e4:	e0622003 	rsb	r2, r2, r3
  10e7e8:	e573c001 	ldrb	ip, [r3, #-1]!
  10e7ec:	e1530002 	cmp	r3, r2
  10e7f0:	e561c001 	strb	ip, [r1, #-1]!
  10e7f4:	1afffffb 	bne	10e7e8 <memmove+0x28>
  10e7f8:	e8bd8070 	pop	{r4, r5, r6, pc}
  10e7fc:	e352000f 	cmp	r2, #15
  10e800:	8a000009 	bhi	10e82c <memmove+0x6c>
  10e804:	e1a03000 	mov	r3, r0
  10e808:	e3520000 	cmp	r2, #0
  10e80c:	08bd8070 	popeq	{r4, r5, r6, pc}
  10e810:	e2433001 	sub	r3, r3, #1
  10e814:	e0812002 	add	r2, r1, r2
  10e818:	e4d1c001 	ldrb	ip, [r1], #1
  10e81c:	e1510002 	cmp	r1, r2
  10e820:	e5e3c001 	strb	ip, [r3, #1]!
  10e824:	1afffffb 	bne	10e818 <memmove+0x58>
  10e828:	e8bd8070 	pop	{r4, r5, r6, pc}
  10e82c:	e1803001 	orr	r3, r0, r1
  10e830:	e3130003 	tst	r3, #3
  10e834:	1a000028 	bne	10e8dc <memmove+0x11c>
  10e838:	e280c010 	add	ip, r0, #16
  10e83c:	e2813010 	add	r3, r1, #16
  10e840:	e1a0e002 	mov	lr, r2
  10e844:	e5134010 	ldr	r4, [r3, #-16]
  10e848:	e24ee010 	sub	lr, lr, #16
  10e84c:	e35e000f 	cmp	lr, #15
  10e850:	e2833010 	add	r3, r3, #16
  10e854:	e28cc010 	add	ip, ip, #16
  10e858:	e50c4020 	str	r4, [ip, #-32]	; 0xffffffe0
  10e85c:	e513401c 	ldr	r4, [r3, #-28]	; 0xffffffe4
  10e860:	e50c401c 	str	r4, [ip, #-28]	; 0xffffffe4
  10e864:	e5134018 	ldr	r4, [r3, #-24]	; 0xffffffe8
  10e868:	e50c4018 	str	r4, [ip, #-24]	; 0xffffffe8
  10e86c:	e5134014 	ldr	r4, [r3, #-20]	; 0xffffffec
  10e870:	e50c4014 	str	r4, [ip, #-20]	; 0xffffffec
  10e874:	8afffff2 	bhi	10e844 <memmove+0x84>
  10e878:	e2423010 	sub	r3, r2, #16
  10e87c:	e202600f 	and	r6, r2, #15
  10e880:	e3c3300f 	bic	r3, r3, #15
  10e884:	e3560003 	cmp	r6, #3
  10e888:	e2833010 	add	r3, r3, #16
  10e88c:	e0811003 	add	r1, r1, r3
  10e890:	e0803003 	add	r3, r0, r3
  10e894:	9a000012 	bls	10e8e4 <memmove+0x124>
  10e898:	e2434004 	sub	r4, r3, #4
  10e89c:	e1a0e001 	mov	lr, r1
  10e8a0:	e1a0c006 	mov	ip, r6
  10e8a4:	e24cc004 	sub	ip, ip, #4
  10e8a8:	e49e5004 	ldr	r5, [lr], #4
  10e8ac:	e35c0003 	cmp	ip, #3
  10e8b0:	e5a45004 	str	r5, [r4, #4]!
  10e8b4:	8afffffa 	bhi	10e8a4 <memmove+0xe4>
  10e8b8:	e246c004 	sub	ip, r6, #4
  10e8bc:	e2022003 	and	r2, r2, #3
  10e8c0:	e3ccc003 	bic	ip, ip, #3
  10e8c4:	e3520000 	cmp	r2, #0
  10e8c8:	e28cc004 	add	ip, ip, #4
  10e8cc:	e083300c 	add	r3, r3, ip
  10e8d0:	e081100c 	add	r1, r1, ip
  10e8d4:	1affffcd 	bne	10e810 <memmove+0x50>
  10e8d8:	e8bd8070 	pop	{r4, r5, r6, pc}
  10e8dc:	e1a03000 	mov	r3, r0
  10e8e0:	eaffffca 	b	10e810 <memmove+0x50>
  10e8e4:	e1a02006 	mov	r2, r6
  10e8e8:	eaffffc6 	b	10e808 <memmove+0x48>

0010e8ec <memset>:
  10e8ec:	e3100003 	tst	r0, #3
  10e8f0:	e92d4010 	push	{r4, lr}
  10e8f4:	0a000037 	beq	10e9d8 <memset+0xec>
  10e8f8:	e3520000 	cmp	r2, #0
  10e8fc:	e2422001 	sub	r2, r2, #1
  10e900:	08bd8010 	popeq	{r4, pc}
  10e904:	e6efe071 	uxtb	lr, r1
  10e908:	e1a03000 	mov	r3, r0
  10e90c:	ea000002 	b	10e91c <memset+0x30>
  10e910:	e3520000 	cmp	r2, #0
  10e914:	e1a0200c 	mov	r2, ip
  10e918:	08bd8010 	popeq	{r4, pc}
  10e91c:	e4c3e001 	strb	lr, [r3], #1
  10e920:	e3130003 	tst	r3, #3
  10e924:	e242c001 	sub	ip, r2, #1
  10e928:	1afffff8 	bne	10e910 <memset+0x24>
  10e92c:	e3520003 	cmp	r2, #3
  10e930:	9a000020 	bls	10e9b8 <memset+0xcc>
  10e934:	e6efe071 	uxtb	lr, r1
  10e938:	e352000f 	cmp	r2, #15
  10e93c:	e18ee40e 	orr	lr, lr, lr, lsl #8
  10e940:	e18ee80e 	orr	lr, lr, lr, lsl #16
  10e944:	9a000010 	bls	10e98c <memset+0xa0>
  10e948:	e283c010 	add	ip, r3, #16
  10e94c:	e1a04002 	mov	r4, r2
  10e950:	e2444010 	sub	r4, r4, #16
  10e954:	e50ce010 	str	lr, [ip, #-16]
  10e958:	e354000f 	cmp	r4, #15
  10e95c:	e50ce00c 	str	lr, [ip, #-12]
  10e960:	e50ce008 	str	lr, [ip, #-8]
  10e964:	e28cc010 	add	ip, ip, #16
  10e968:	e50ce014 	str	lr, [ip, #-20]	; 0xffffffec
  10e96c:	8afffff7 	bhi	10e950 <memset+0x64>
  10e970:	e242c010 	sub	ip, r2, #16
  10e974:	e202200f 	and	r2, r2, #15
  10e978:	e3ccc00f 	bic	ip, ip, #15
  10e97c:	e3520003 	cmp	r2, #3
  10e980:	e28cc010 	add	ip, ip, #16
  10e984:	e083300c 	add	r3, r3, ip
  10e988:	9a00000a 	bls	10e9b8 <memset+0xcc>
  10e98c:	e1a04003 	mov	r4, r3
  10e990:	e1a0c002 	mov	ip, r2
  10e994:	e24cc004 	sub	ip, ip, #4
  10e998:	e484e004 	str	lr, [r4], #4
  10e99c:	e35c0003 	cmp	ip, #3
  10e9a0:	8afffffb 	bhi	10e994 <memset+0xa8>
  10e9a4:	e242c004 	sub	ip, r2, #4
  10e9a8:	e2022003 	and	r2, r2, #3
  10e9ac:	e3ccc003 	bic	ip, ip, #3
  10e9b0:	e28cc004 	add	ip, ip, #4
  10e9b4:	e083300c 	add	r3, r3, ip
  10e9b8:	e3520000 	cmp	r2, #0
  10e9bc:	08bd8010 	popeq	{r4, pc}
  10e9c0:	e6ef1071 	uxtb	r1, r1
  10e9c4:	e0832002 	add	r2, r3, r2
  10e9c8:	e4c31001 	strb	r1, [r3], #1
  10e9cc:	e1530002 	cmp	r3, r2
  10e9d0:	1afffffc 	bne	10e9c8 <memset+0xdc>
  10e9d4:	e8bd8010 	pop	{r4, pc}
  10e9d8:	e1a03000 	mov	r3, r0
  10e9dc:	eaffffd2 	b	10e92c <memset+0x40>

0010e9e0 <__malloc_lock>:
  10e9e0:	e12fff1e 	bx	lr

0010e9e4 <__malloc_unlock>:
  10e9e4:	e12fff1e 	bx	lr

0010e9e8 <_Balloc>:
  10e9e8:	e590204c 	ldr	r2, [r0, #76]	; 0x4c
  10e9ec:	e92d4038 	push	{r3, r4, r5, lr}
  10e9f0:	e1a05000 	mov	r5, r0
  10e9f4:	e1a04001 	mov	r4, r1
  10e9f8:	e3520000 	cmp	r2, #0
  10e9fc:	0a000009 	beq	10ea28 <_Balloc+0x40>
  10ea00:	e7923104 	ldr	r3, [r2, r4, lsl #2]
  10ea04:	e3530000 	cmp	r3, #0
  10ea08:	0a00000f 	beq	10ea4c <_Balloc+0x64>
  10ea0c:	e5931000 	ldr	r1, [r3]
  10ea10:	e7821104 	str	r1, [r2, r4, lsl #2]
  10ea14:	e3a02000 	mov	r2, #0
  10ea18:	e1a00003 	mov	r0, r3
  10ea1c:	e5832010 	str	r2, [r3, #16]
  10ea20:	e583200c 	str	r2, [r3, #12]
  10ea24:	e8bd8038 	pop	{r3, r4, r5, pc}
  10ea28:	e3a02021 	mov	r2, #33	; 0x21
  10ea2c:	e3a01004 	mov	r1, #4
  10ea30:	eb000a83 	bl	111444 <_calloc_r>
  10ea34:	e3500000 	cmp	r0, #0
  10ea38:	e585004c 	str	r0, [r5, #76]	; 0x4c
  10ea3c:	11a02000 	movne	r2, r0
  10ea40:	1affffee 	bne	10ea00 <_Balloc+0x18>
  10ea44:	e3a00000 	mov	r0, #0
  10ea48:	e8bd8038 	pop	{r3, r4, r5, pc}
  10ea4c:	e3a01001 	mov	r1, #1
  10ea50:	e1a00005 	mov	r0, r5
  10ea54:	e1a05411 	lsl	r5, r1, r4
  10ea58:	e2852005 	add	r2, r5, #5
  10ea5c:	e1a02102 	lsl	r2, r2, #2
  10ea60:	eb000a77 	bl	111444 <_calloc_r>
  10ea64:	e2503000 	subs	r3, r0, #0
  10ea68:	0afffff5 	beq	10ea44 <_Balloc+0x5c>
  10ea6c:	e9830030 	stmib	r3, {r4, r5}
  10ea70:	eaffffe7 	b	10ea14 <_Balloc+0x2c>

0010ea74 <_Bfree>:
  10ea74:	e3510000 	cmp	r1, #0
  10ea78:	1590304c 	ldrne	r3, [r0, #76]	; 0x4c
  10ea7c:	15912004 	ldrne	r2, [r1, #4]
  10ea80:	17930102 	ldrne	r0, [r3, r2, lsl #2]
  10ea84:	15810000 	strne	r0, [r1]
  10ea88:	17831102 	strne	r1, [r3, r2, lsl #2]
  10ea8c:	e12fff1e 	bx	lr

0010ea90 <__multadd>:
  10ea90:	e92d40f0 	push	{r4, r5, r6, r7, lr}
  10ea94:	e1a06000 	mov	r6, r0
  10ea98:	e5914010 	ldr	r4, [r1, #16]
  10ea9c:	e24dd00c 	sub	sp, sp, #12
  10eaa0:	e1a05001 	mov	r5, r1
  10eaa4:	e281e014 	add	lr, r1, #20
  10eaa8:	e3a00000 	mov	r0, #0
  10eaac:	e59ec000 	ldr	ip, [lr]
  10eab0:	e2800001 	add	r0, r0, #1
  10eab4:	e1540000 	cmp	r4, r0
  10eab8:	e6ff107c 	uxth	r1, ip
  10eabc:	e1a0c82c 	lsr	ip, ip, #16
  10eac0:	e0233192 	mla	r3, r2, r1, r3
  10eac4:	e00c0c92 	mul	ip, r2, ip
  10eac8:	e6ff1073 	uxth	r1, r3
  10eacc:	e08c3823 	add	r3, ip, r3, lsr #16
  10ead0:	e0811803 	add	r1, r1, r3, lsl #16
  10ead4:	e1a03823 	lsr	r3, r3, #16
  10ead8:	e48e1004 	str	r1, [lr], #4
  10eadc:	cafffff2 	bgt	10eaac <__multadd+0x1c>
  10eae0:	e3530000 	cmp	r3, #0
  10eae4:	0a000006 	beq	10eb04 <__multadd+0x74>
  10eae8:	e5952008 	ldr	r2, [r5, #8]
  10eaec:	e1540002 	cmp	r4, r2
  10eaf0:	aa000006 	bge	10eb10 <__multadd+0x80>
  10eaf4:	e0852104 	add	r2, r5, r4, lsl #2
  10eaf8:	e2844001 	add	r4, r4, #1
  10eafc:	e5823014 	str	r3, [r2, #20]
  10eb00:	e5854010 	str	r4, [r5, #16]
  10eb04:	e1a00005 	mov	r0, r5
  10eb08:	e28dd00c 	add	sp, sp, #12
  10eb0c:	e8bd80f0 	pop	{r4, r5, r6, r7, pc}
  10eb10:	e5951004 	ldr	r1, [r5, #4]
  10eb14:	e1a00006 	mov	r0, r6
  10eb18:	e58d3004 	str	r3, [sp, #4]
  10eb1c:	e2811001 	add	r1, r1, #1
  10eb20:	ebffffb0 	bl	10e9e8 <_Balloc>
  10eb24:	e5952010 	ldr	r2, [r5, #16]
  10eb28:	e285100c 	add	r1, r5, #12
  10eb2c:	e1a07000 	mov	r7, r0
  10eb30:	e280000c 	add	r0, r0, #12
  10eb34:	e2822002 	add	r2, r2, #2
  10eb38:	e1a02102 	lsl	r2, r2, #2
  10eb3c:	ebfffddf 	bl	10e2c0 <memcpy>
  10eb40:	e596204c 	ldr	r2, [r6, #76]	; 0x4c
  10eb44:	e5951004 	ldr	r1, [r5, #4]
  10eb48:	e59d3004 	ldr	r3, [sp, #4]
  10eb4c:	e7920101 	ldr	r0, [r2, r1, lsl #2]
  10eb50:	e5850000 	str	r0, [r5]
  10eb54:	e7825101 	str	r5, [r2, r1, lsl #2]
  10eb58:	e1a05007 	mov	r5, r7
  10eb5c:	eaffffe4 	b	10eaf4 <__multadd+0x64>

0010eb60 <__s2b>:
  10eb60:	e92d43f8 	push	{r3, r4, r5, r6, r7, r8, r9, lr}
  10eb64:	e3088e39 	movw	r8, #36409	; 0x8e39
  10eb68:	e1a06003 	mov	r6, r3
  10eb6c:	e34388e3 	movt	r8, #14563	; 0x38e3
  10eb70:	e2833008 	add	r3, r3, #8
  10eb74:	e1a05000 	mov	r5, r0
  10eb78:	e0c98893 	smull	r8, r9, r3, r8
  10eb7c:	e1a03fc3 	asr	r3, r3, #31
  10eb80:	e59d8020 	ldr	r8, [sp, #32]
  10eb84:	e1a04001 	mov	r4, r1
  10eb88:	e1a07002 	mov	r7, r2
  10eb8c:	e06330c9 	rsb	r3, r3, r9, asr #1
  10eb90:	e3530001 	cmp	r3, #1
  10eb94:	da000028 	ble	10ec3c <__s2b+0xdc>
  10eb98:	e3a0c001 	mov	ip, #1
  10eb9c:	e3a01000 	mov	r1, #0
  10eba0:	e1a0c08c 	lsl	ip, ip, #1
  10eba4:	e2811001 	add	r1, r1, #1
  10eba8:	e153000c 	cmp	r3, ip
  10ebac:	cafffffb 	bgt	10eba0 <__s2b+0x40>
  10ebb0:	e1a00005 	mov	r0, r5
  10ebb4:	ebffff8b 	bl	10e9e8 <_Balloc>
  10ebb8:	e3570009 	cmp	r7, #9
  10ebbc:	e3a03001 	mov	r3, #1
  10ebc0:	e5808014 	str	r8, [r0, #20]
  10ebc4:	d284400a 	addle	r4, r4, #10
  10ebc8:	e5803010 	str	r3, [r0, #16]
  10ebcc:	d3a07009 	movle	r7, #9
  10ebd0:	da00000c 	ble	10ec08 <__s2b+0xa8>
  10ebd4:	e2849009 	add	r9, r4, #9
  10ebd8:	e0844007 	add	r4, r4, r7
  10ebdc:	e1a08009 	mov	r8, r9
  10ebe0:	e4d83001 	ldrb	r3, [r8], #1
  10ebe4:	e1a01000 	mov	r1, r0
  10ebe8:	e3a0200a 	mov	r2, #10
  10ebec:	e1a00005 	mov	r0, r5
  10ebf0:	e2433030 	sub	r3, r3, #48	; 0x30
  10ebf4:	ebffffa5 	bl	10ea90 <__multadd>
  10ebf8:	e1580004 	cmp	r8, r4
  10ebfc:	1afffff7 	bne	10ebe0 <__s2b+0x80>
  10ec00:	e0894007 	add	r4, r9, r7
  10ec04:	e2444008 	sub	r4, r4, #8
  10ec08:	e1560007 	cmp	r6, r7
  10ec0c:	d8bd83f8 	pople	{r3, r4, r5, r6, r7, r8, r9, pc}
  10ec10:	e0676006 	rsb	r6, r7, r6
  10ec14:	e0846006 	add	r6, r4, r6
  10ec18:	e4d43001 	ldrb	r3, [r4], #1
  10ec1c:	e1a01000 	mov	r1, r0
  10ec20:	e3a0200a 	mov	r2, #10
  10ec24:	e1a00005 	mov	r0, r5
  10ec28:	e2433030 	sub	r3, r3, #48	; 0x30
  10ec2c:	ebffff97 	bl	10ea90 <__multadd>
  10ec30:	e1540006 	cmp	r4, r6
  10ec34:	1afffff7 	bne	10ec18 <__s2b+0xb8>
  10ec38:	e8bd83f8 	pop	{r3, r4, r5, r6, r7, r8, r9, pc}
  10ec3c:	e3a01000 	mov	r1, #0
  10ec40:	eaffffda 	b	10ebb0 <__s2b+0x50>

0010ec44 <__hi0bits>:
  10ec44:	e1a03820 	lsr	r3, r0, #16
  10ec48:	e1a03803 	lsl	r3, r3, #16
  10ec4c:	e3530000 	cmp	r3, #0
  10ec50:	01a00800 	lsleq	r0, r0, #16
  10ec54:	03a03010 	moveq	r3, #16
  10ec58:	13a03000 	movne	r3, #0
  10ec5c:	e31004ff 	tst	r0, #-16777216	; 0xff000000
  10ec60:	01a00400 	lsleq	r0, r0, #8
  10ec64:	02833008 	addeq	r3, r3, #8
  10ec68:	e310020f 	tst	r0, #-268435456	; 0xf0000000
  10ec6c:	01a00200 	lsleq	r0, r0, #4
  10ec70:	02833004 	addeq	r3, r3, #4
  10ec74:	e3100103 	tst	r0, #-1073741824	; 0xc0000000
  10ec78:	01a00100 	lsleq	r0, r0, #2
  10ec7c:	02833002 	addeq	r3, r3, #2
  10ec80:	e3500000 	cmp	r0, #0
  10ec84:	ba000005 	blt	10eca0 <__hi0bits+0x5c>
  10ec88:	e3100101 	tst	r0, #1073741824	; 0x40000000
  10ec8c:	1a000001 	bne	10ec98 <__hi0bits+0x54>
  10ec90:	e3a00020 	mov	r0, #32
  10ec94:	e12fff1e 	bx	lr
  10ec98:	e2830001 	add	r0, r3, #1
  10ec9c:	e12fff1e 	bx	lr
  10eca0:	e1a00003 	mov	r0, r3
  10eca4:	e12fff1e 	bx	lr

0010eca8 <__lo0bits>:
  10eca8:	e5903000 	ldr	r3, [r0]
  10ecac:	e2132007 	ands	r2, r3, #7
  10ecb0:	0a00000a 	beq	10ece0 <__lo0bits+0x38>
  10ecb4:	e3130001 	tst	r3, #1
  10ecb8:	13a02000 	movne	r2, #0
  10ecbc:	1a000005 	bne	10ecd8 <__lo0bits+0x30>
  10ecc0:	e3130002 	tst	r3, #2
  10ecc4:	11a030a3 	lsrne	r3, r3, #1
  10ecc8:	01a03123 	lsreq	r3, r3, #2
  10eccc:	13a02001 	movne	r2, #1
  10ecd0:	03a02002 	moveq	r2, #2
  10ecd4:	e5803000 	str	r3, [r0]
  10ecd8:	e1a00002 	mov	r0, r2
  10ecdc:	e12fff1e 	bx	lr
  10ece0:	e6ff1073 	uxth	r1, r3
  10ece4:	e3510000 	cmp	r1, #0
  10ece8:	01a03823 	lsreq	r3, r3, #16
  10ecec:	03a02010 	moveq	r2, #16
  10ecf0:	e31300ff 	tst	r3, #255	; 0xff
  10ecf4:	01a03423 	lsreq	r3, r3, #8
  10ecf8:	02822008 	addeq	r2, r2, #8
  10ecfc:	e313000f 	tst	r3, #15
  10ed00:	01a03223 	lsreq	r3, r3, #4
  10ed04:	02822004 	addeq	r2, r2, #4
  10ed08:	e3130003 	tst	r3, #3
  10ed0c:	01a03123 	lsreq	r3, r3, #2
  10ed10:	02822002 	addeq	r2, r2, #2
  10ed14:	e3130001 	tst	r3, #1
  10ed18:	1a000003 	bne	10ed2c <__lo0bits+0x84>
  10ed1c:	e1b030a3 	lsrs	r3, r3, #1
  10ed20:	03a02020 	moveq	r2, #32
  10ed24:	0affffeb 	beq	10ecd8 <__lo0bits+0x30>
  10ed28:	e2822001 	add	r2, r2, #1
  10ed2c:	e5803000 	str	r3, [r0]
  10ed30:	e1a00002 	mov	r0, r2
  10ed34:	e12fff1e 	bx	lr

0010ed38 <__i2b>:
  10ed38:	e92d4010 	push	{r4, lr}
  10ed3c:	e1a04001 	mov	r4, r1
  10ed40:	e3a01001 	mov	r1, #1
  10ed44:	ebffff27 	bl	10e9e8 <_Balloc>
  10ed48:	e3a02001 	mov	r2, #1
  10ed4c:	e5804014 	str	r4, [r0, #20]
  10ed50:	e5802010 	str	r2, [r0, #16]
  10ed54:	e8bd8010 	pop	{r4, pc}

0010ed58 <__multiply>:
  10ed58:	e92d4ff0 	push	{r4, r5, r6, r7, r8, r9, sl, fp, lr}
  10ed5c:	e1a04001 	mov	r4, r1
  10ed60:	e5915010 	ldr	r5, [r1, #16]
  10ed64:	e1a06002 	mov	r6, r2
  10ed68:	e24dd014 	sub	sp, sp, #20
  10ed6c:	e5929010 	ldr	r9, [r2, #16]
  10ed70:	e1550009 	cmp	r5, r9
  10ed74:	a1a03009 	movge	r3, r9
  10ed78:	b1a03001 	movlt	r3, r1
  10ed7c:	b1a04002 	movlt	r4, r2
  10ed80:	a1a09005 	movge	r9, r5
  10ed84:	b1a06003 	movlt	r6, r3
  10ed88:	a1a05003 	movge	r5, r3
  10ed8c:	e5943008 	ldr	r3, [r4, #8]
  10ed90:	e0898005 	add	r8, r9, r5
  10ed94:	e5941004 	ldr	r1, [r4, #4]
  10ed98:	e1580003 	cmp	r8, r3
  10ed9c:	c2811001 	addgt	r1, r1, #1
  10eda0:	ebffff10 	bl	10e9e8 <_Balloc>
  10eda4:	e280a014 	add	sl, r0, #20
  10eda8:	e1a03000 	mov	r3, r0
  10edac:	e08ab108 	add	fp, sl, r8, lsl #2
  10edb0:	e58d0004 	str	r0, [sp, #4]
  10edb4:	e15a000b 	cmp	sl, fp
  10edb8:	31a0300a 	movcc	r3, sl
  10edbc:	33a00000 	movcc	r0, #0
  10edc0:	2a000002 	bcs	10edd0 <__multiply+0x78>
  10edc4:	e4830004 	str	r0, [r3], #4
  10edc8:	e15b0003 	cmp	fp, r3
  10edcc:	8afffffc 	bhi	10edc4 <__multiply+0x6c>
  10edd0:	e2862014 	add	r2, r6, #20
  10edd4:	e2843014 	add	r3, r4, #20
  10edd8:	e0821105 	add	r1, r2, r5, lsl #2
  10eddc:	e0839109 	add	r9, r3, r9, lsl #2
  10ede0:	e1520001 	cmp	r2, r1
  10ede4:	358db008 	strcc	fp, [sp, #8]
  10ede8:	31a0b001 	movcc	fp, r1
  10edec:	358d800c 	strcc	r8, [sp, #12]
  10edf0:	31a08003 	movcc	r8, r3
  10edf4:	2a00003c 	bcs	10eeec <__multiply+0x194>
  10edf8:	e4925004 	ldr	r5, [r2], #4
  10edfc:	e6ff7075 	uxth	r7, r5
  10ee00:	e3570000 	cmp	r7, #0
  10ee04:	0a000017 	beq	10ee68 <__multiply+0x110>
  10ee08:	e1a06008 	mov	r6, r8
  10ee0c:	e1a0500a 	mov	r5, sl
  10ee10:	e3a01000 	mov	r1, #0
  10ee14:	ea000000 	b	10ee1c <__multiply+0xc4>
  10ee18:	e1a0500e 	mov	r5, lr
  10ee1c:	e4960004 	ldr	r0, [r6], #4
  10ee20:	e1a0e005 	mov	lr, r5
  10ee24:	e5953000 	ldr	r3, [r5]
  10ee28:	e1590006 	cmp	r9, r6
  10ee2c:	e6ffc070 	uxth	ip, r0
  10ee30:	e1a00820 	lsr	r0, r0, #16
  10ee34:	e6ff4073 	uxth	r4, r3
  10ee38:	e1a03823 	lsr	r3, r3, #16
  10ee3c:	e02c4c97 	mla	ip, r7, ip, r4
  10ee40:	e0233097 	mla	r3, r7, r0, r3
  10ee44:	e08c1001 	add	r1, ip, r1
  10ee48:	e6ff0071 	uxth	r0, r1
  10ee4c:	e0831821 	add	r1, r3, r1, lsr #16
  10ee50:	e1803801 	orr	r3, r0, r1, lsl #16
  10ee54:	e1a01821 	lsr	r1, r1, #16
  10ee58:	e48e3004 	str	r3, [lr], #4
  10ee5c:	8affffed 	bhi	10ee18 <__multiply+0xc0>
  10ee60:	e5851004 	str	r1, [r5, #4]
  10ee64:	e5125004 	ldr	r5, [r2, #-4]
  10ee68:	e1b05825 	lsrs	r5, r5, #16
  10ee6c:	0a000019 	beq	10eed8 <__multiply+0x180>
  10ee70:	e59a3000 	ldr	r3, [sl]
  10ee74:	e3a06000 	mov	r6, #0
  10ee78:	e1a0400a 	mov	r4, sl
  10ee7c:	e1a0c008 	mov	ip, r8
  10ee80:	e1a07006 	mov	r7, r6
  10ee84:	e1a01003 	mov	r1, r3
  10ee88:	ea000000 	b	10ee90 <__multiply+0x138>
  10ee8c:	e1a0400e 	mov	r4, lr
  10ee90:	e1dc60b0 	ldrh	r6, [ip]
  10ee94:	e1a01821 	lsr	r1, r1, #16
  10ee98:	e6ff0073 	uxth	r0, r3
  10ee9c:	e1a0e004 	mov	lr, r4
  10eea0:	e0211695 	mla	r1, r5, r6, r1
  10eea4:	e0816007 	add	r6, r1, r7
  10eea8:	e1803806 	orr	r3, r0, r6, lsl #16
  10eeac:	e48e3004 	str	r3, [lr], #4
  10eeb0:	e49c0004 	ldr	r0, [ip], #4
  10eeb4:	e5941004 	ldr	r1, [r4, #4]
  10eeb8:	e159000c 	cmp	r9, ip
  10eebc:	e1a00820 	lsr	r0, r0, #16
  10eec0:	e6ff3071 	uxth	r3, r1
  10eec4:	e0203095 	mla	r0, r5, r0, r3
  10eec8:	e0803826 	add	r3, r0, r6, lsr #16
  10eecc:	e1a07823 	lsr	r7, r3, #16
  10eed0:	8affffed 	bhi	10ee8c <__multiply+0x134>
  10eed4:	e5843004 	str	r3, [r4, #4]
  10eed8:	e15b0002 	cmp	fp, r2
  10eedc:	e28aa004 	add	sl, sl, #4
  10eee0:	8affffc4 	bhi	10edf8 <__multiply+0xa0>
  10eee4:	e59db008 	ldr	fp, [sp, #8]
  10eee8:	e59d800c 	ldr	r8, [sp, #12]
  10eeec:	e3580000 	cmp	r8, #0
  10eef0:	da000009 	ble	10ef1c <__multiply+0x1c4>
  10eef4:	e51b3004 	ldr	r3, [fp, #-4]
  10eef8:	e24bb004 	sub	fp, fp, #4
  10eefc:	e3530000 	cmp	r3, #0
  10ef00:	0a000003 	beq	10ef14 <__multiply+0x1bc>
  10ef04:	ea000004 	b	10ef1c <__multiply+0x1c4>
  10ef08:	e53b3004 	ldr	r3, [fp, #-4]!
  10ef0c:	e3530000 	cmp	r3, #0
  10ef10:	1a000001 	bne	10ef1c <__multiply+0x1c4>
  10ef14:	e2588001 	subs	r8, r8, #1
  10ef18:	1afffffa 	bne	10ef08 <__multiply+0x1b0>
  10ef1c:	e59d3004 	ldr	r3, [sp, #4]
  10ef20:	e1a00003 	mov	r0, r3
  10ef24:	e5838010 	str	r8, [r3, #16]
  10ef28:	e28dd014 	add	sp, sp, #20
  10ef2c:	e8bd8ff0 	pop	{r4, r5, r6, r7, r8, r9, sl, fp, pc}

0010ef30 <__pow5mult>:
  10ef30:	e2123003 	ands	r3, r2, #3
  10ef34:	e92d41f0 	push	{r4, r5, r6, r7, r8, lr}
  10ef38:	e1a04002 	mov	r4, r2
  10ef3c:	e1a07000 	mov	r7, r0
  10ef40:	e1a06001 	mov	r6, r1
  10ef44:	1a000024 	bne	10efdc <__pow5mult+0xac>
  10ef48:	e1b04144 	asrs	r4, r4, #2
  10ef4c:	0a000019 	beq	10efb8 <__pow5mult+0x88>
  10ef50:	e5975048 	ldr	r5, [r7, #72]	; 0x48
  10ef54:	e3550000 	cmp	r5, #0
  10ef58:	0a000027 	beq	10effc <__pow5mult+0xcc>
  10ef5c:	e3a08000 	mov	r8, #0
  10ef60:	ea000005 	b	10ef7c <__pow5mult+0x4c>
  10ef64:	e1b040c4 	asrs	r4, r4, #1
  10ef68:	0a000012 	beq	10efb8 <__pow5mult+0x88>
  10ef6c:	e5950000 	ldr	r0, [r5]
  10ef70:	e3500000 	cmp	r0, #0
  10ef74:	0a000011 	beq	10efc0 <__pow5mult+0x90>
  10ef78:	e1a05000 	mov	r5, r0
  10ef7c:	e3140001 	tst	r4, #1
  10ef80:	0afffff7 	beq	10ef64 <__pow5mult+0x34>
  10ef84:	e1a02005 	mov	r2, r5
  10ef88:	e1a01006 	mov	r1, r6
  10ef8c:	e1a00007 	mov	r0, r7
  10ef90:	ebffff70 	bl	10ed58 <__multiply>
  10ef94:	e3560000 	cmp	r6, #0
  10ef98:	1596c004 	ldrne	ip, [r6, #4]
  10ef9c:	1597304c 	ldrne	r3, [r7, #76]	; 0x4c
  10efa0:	1793210c 	ldrne	r2, [r3, ip, lsl #2]
  10efa4:	15862000 	strne	r2, [r6]
  10efa8:	1783610c 	strne	r6, [r3, ip, lsl #2]
  10efac:	e1b040c4 	asrs	r4, r4, #1
  10efb0:	e1a06000 	mov	r6, r0
  10efb4:	1affffec 	bne	10ef6c <__pow5mult+0x3c>
  10efb8:	e1a00006 	mov	r0, r6
  10efbc:	e8bd81f0 	pop	{r4, r5, r6, r7, r8, pc}
  10efc0:	e1a00007 	mov	r0, r7
  10efc4:	e1a01005 	mov	r1, r5
  10efc8:	e1a02005 	mov	r2, r5
  10efcc:	ebffff61 	bl	10ed58 <__multiply>
  10efd0:	e5850000 	str	r0, [r5]
  10efd4:	e5808000 	str	r8, [r0]
  10efd8:	eaffffe6 	b	10ef78 <__pow5mult+0x48>
  10efdc:	e302c950 	movw	ip, #10576	; 0x2950
  10efe0:	e2432001 	sub	r2, r3, #1
  10efe4:	e340c011 	movt	ip, #17
  10efe8:	e3a03000 	mov	r3, #0
  10efec:	e79c2102 	ldr	r2, [ip, r2, lsl #2]
  10eff0:	ebfffea6 	bl	10ea90 <__multadd>
  10eff4:	e1a06000 	mov	r6, r0
  10eff8:	eaffffd2 	b	10ef48 <__pow5mult+0x18>
  10effc:	e3a01001 	mov	r1, #1
  10f000:	e1a00007 	mov	r0, r7
  10f004:	ebfffe77 	bl	10e9e8 <_Balloc>
  10f008:	e3001271 	movw	r1, #625	; 0x271
  10f00c:	e3a02001 	mov	r2, #1
  10f010:	e3a03000 	mov	r3, #0
  10f014:	e5801014 	str	r1, [r0, #20]
  10f018:	e5802010 	str	r2, [r0, #16]
  10f01c:	e1a05000 	mov	r5, r0
  10f020:	e5870048 	str	r0, [r7, #72]	; 0x48
  10f024:	e5803000 	str	r3, [r0]
  10f028:	eaffffcb 	b	10ef5c <__pow5mult+0x2c>

0010f02c <__lshift>:
  10f02c:	e92d47f0 	push	{r4, r5, r6, r7, r8, r9, sl, lr}
  10f030:	e1a082c2 	asr	r8, r2, #5
  10f034:	e5916010 	ldr	r6, [r1, #16]
  10f038:	e1a05001 	mov	r5, r1
  10f03c:	e1a09002 	mov	r9, r2
  10f040:	e1a07000 	mov	r7, r0
  10f044:	e5913008 	ldr	r3, [r1, #8]
  10f048:	e0886006 	add	r6, r8, r6
  10f04c:	e5911004 	ldr	r1, [r1, #4]
  10f050:	e2864001 	add	r4, r6, #1
  10f054:	e1540003 	cmp	r4, r3
  10f058:	da000003 	ble	10f06c <__lshift+0x40>
  10f05c:	e1a03083 	lsl	r3, r3, #1
  10f060:	e2811001 	add	r1, r1, #1
  10f064:	e1540003 	cmp	r4, r3
  10f068:	cafffffb 	bgt	10f05c <__lshift+0x30>
  10f06c:	e1a00007 	mov	r0, r7
  10f070:	ebfffe5c 	bl	10e9e8 <_Balloc>
  10f074:	e3580000 	cmp	r8, #0
  10f078:	e1a01000 	mov	r1, r0
  10f07c:	e280e014 	add	lr, r0, #20
  10f080:	da000007 	ble	10f0a4 <__lshift+0x78>
  10f084:	e3a03000 	mov	r3, #0
  10f088:	e1a0200e 	mov	r2, lr
  10f08c:	e1a00003 	mov	r0, r3
  10f090:	e2833001 	add	r3, r3, #1
  10f094:	e4820004 	str	r0, [r2], #4
  10f098:	e1530008 	cmp	r3, r8
  10f09c:	1afffffb 	bne	10f090 <__lshift+0x64>
  10f0a0:	e08ee103 	add	lr, lr, r3, lsl #2
  10f0a4:	e5950010 	ldr	r0, [r5, #16]
  10f0a8:	e219901f 	ands	r9, r9, #31
  10f0ac:	e2853014 	add	r3, r5, #20
  10f0b0:	e0830100 	add	r0, r3, r0, lsl #2
  10f0b4:	0a000015 	beq	10f110 <__lshift+0xe4>
  10f0b8:	e2698020 	rsb	r8, r9, #32
  10f0bc:	e3a0c000 	mov	ip, #0
  10f0c0:	e593a000 	ldr	sl, [r3]
  10f0c4:	e1a0200e 	mov	r2, lr
  10f0c8:	e18cc91a 	orr	ip, ip, sl, lsl r9
  10f0cc:	e48ec004 	str	ip, [lr], #4
  10f0d0:	e493c004 	ldr	ip, [r3], #4
  10f0d4:	e1500003 	cmp	r0, r3
  10f0d8:	e1a0c83c 	lsr	ip, ip, r8
  10f0dc:	8afffff7 	bhi	10f0c0 <__lshift+0x94>
  10f0e0:	e35c0000 	cmp	ip, #0
  10f0e4:	e582c004 	str	ip, [r2, #4]
  10f0e8:	12864002 	addne	r4, r6, #2
  10f0ec:	e597304c 	ldr	r3, [r7, #76]	; 0x4c
  10f0f0:	e2444001 	sub	r4, r4, #1
  10f0f4:	e5952004 	ldr	r2, [r5, #4]
  10f0f8:	e1a00001 	mov	r0, r1
  10f0fc:	e5814010 	str	r4, [r1, #16]
  10f100:	e7931102 	ldr	r1, [r3, r2, lsl #2]
  10f104:	e5851000 	str	r1, [r5]
  10f108:	e7835102 	str	r5, [r3, r2, lsl #2]
  10f10c:	e8bd87f0 	pop	{r4, r5, r6, r7, r8, r9, sl, pc}
  10f110:	e24ee004 	sub	lr, lr, #4
  10f114:	e4932004 	ldr	r2, [r3], #4
  10f118:	e1500003 	cmp	r0, r3
  10f11c:	e5ae2004 	str	r2, [lr, #4]!
  10f120:	8afffffb 	bhi	10f114 <__lshift+0xe8>
  10f124:	eafffff0 	b	10f0ec <__lshift+0xc0>

0010f128 <__mcmp>:
  10f128:	e5902010 	ldr	r2, [r0, #16]
  10f12c:	e5913010 	ldr	r3, [r1, #16]
  10f130:	e0522003 	subs	r2, r2, r3
  10f134:	1a00000e 	bne	10f174 <__mcmp+0x4c>
  10f138:	e1a03103 	lsl	r3, r3, #2
  10f13c:	e2800014 	add	r0, r0, #20
  10f140:	e2811014 	add	r1, r1, #20
  10f144:	e0811003 	add	r1, r1, r3
  10f148:	e0803003 	add	r3, r0, r3
  10f14c:	ea000001 	b	10f158 <__mcmp+0x30>
  10f150:	e1500003 	cmp	r0, r3
  10f154:	2a000008 	bcs	10f17c <__mcmp+0x54>
  10f158:	e533c004 	ldr	ip, [r3, #-4]!
  10f15c:	e5312004 	ldr	r2, [r1, #-4]!
  10f160:	e15c0002 	cmp	ip, r2
  10f164:	0afffff9 	beq	10f150 <__mcmp+0x28>
  10f168:	3a000005 	bcc	10f184 <__mcmp+0x5c>
  10f16c:	e3a00001 	mov	r0, #1
  10f170:	e12fff1e 	bx	lr
  10f174:	e1a00002 	mov	r0, r2
  10f178:	e12fff1e 	bx	lr
  10f17c:	e3a00000 	mov	r0, #0
  10f180:	e12fff1e 	bx	lr
  10f184:	e3e00000 	mvn	r0, #0
  10f188:	e12fff1e 	bx	lr

0010f18c <__mdiff>:
  10f18c:	e92d43f8 	push	{r3, r4, r5, r6, r7, r8, r9, lr}
  10f190:	e1a05001 	mov	r5, r1
  10f194:	e1a04000 	mov	r4, r0
  10f198:	e1a01002 	mov	r1, r2
  10f19c:	e1a00005 	mov	r0, r5
  10f1a0:	e1a07002 	mov	r7, r2
  10f1a4:	ebffffdf 	bl	10f128 <__mcmp>
  10f1a8:	e2506000 	subs	r6, r0, #0
  10f1ac:	0a00003e 	beq	10f2ac <__mdiff+0x120>
  10f1b0:	b1a03005 	movlt	r3, r5
  10f1b4:	b1a05007 	movlt	r5, r7
  10f1b8:	e5951004 	ldr	r1, [r5, #4]
  10f1bc:	b1a07003 	movlt	r7, r3
  10f1c0:	e1a00004 	mov	r0, r4
  10f1c4:	b3a09001 	movlt	r9, #1
  10f1c8:	a3a09000 	movge	r9, #0
  10f1cc:	e2855014 	add	r5, r5, #20
  10f1d0:	ebfffe04 	bl	10e9e8 <_Balloc>
  10f1d4:	e5154004 	ldr	r4, [r5, #-4]
  10f1d8:	e2878014 	add	r8, r7, #20
  10f1dc:	e5973010 	ldr	r3, [r7, #16]
  10f1e0:	e1a0e005 	mov	lr, r5
  10f1e4:	e1a07008 	mov	r7, r8
  10f1e8:	e1a06000 	mov	r6, r0
  10f1ec:	e280c014 	add	ip, r0, #20
  10f1f0:	e3a02000 	mov	r2, #0
  10f1f4:	e0855104 	add	r5, r5, r4, lsl #2
  10f1f8:	e580900c 	str	r9, [r0, #12]
  10f1fc:	e0888103 	add	r8, r8, r3, lsl #2
  10f200:	e4973004 	ldr	r3, [r7], #4
  10f204:	e49e0004 	ldr	r0, [lr], #4
  10f208:	e1580007 	cmp	r8, r7
  10f20c:	e1a01823 	lsr	r1, r3, #16
  10f210:	e6ff9073 	uxth	r9, r3
  10f214:	e6f23070 	uxtah	r3, r2, r0
  10f218:	e0612820 	rsb	r2, r1, r0, lsr #16
  10f21c:	e1a0000e 	mov	r0, lr
  10f220:	e0693003 	rsb	r3, r9, r3
  10f224:	e0822843 	add	r2, r2, r3, asr #16
  10f228:	e6ff3073 	uxth	r3, r3
  10f22c:	e1833802 	orr	r3, r3, r2, lsl #16
  10f230:	e1a02842 	asr	r2, r2, #16
  10f234:	e48c3004 	str	r3, [ip], #4
  10f238:	8afffff0 	bhi	10f200 <__mdiff+0x74>
  10f23c:	e155000e 	cmp	r5, lr
  10f240:	e1a0700c 	mov	r7, ip
  10f244:	9a00000e 	bls	10f284 <__mdiff+0xf8>
  10f248:	e4901004 	ldr	r1, [r0], #4
  10f24c:	e1550000 	cmp	r5, r0
  10f250:	e6f22071 	uxtah	r2, r2, r1
  10f254:	e1a01821 	lsr	r1, r1, #16
  10f258:	e6ff3072 	uxth	r3, r2
  10f25c:	e0812842 	add	r2, r1, r2, asr #16
  10f260:	e1833802 	orr	r3, r3, r2, lsl #16
  10f264:	e1a02842 	asr	r2, r2, #16
  10f268:	e48c3004 	str	r3, [ip], #4
  10f26c:	8afffff5 	bhi	10f248 <__mdiff+0xbc>
  10f270:	e1e0c00e 	mvn	ip, lr
  10f274:	e08cc005 	add	ip, ip, r5
  10f278:	e3ccc003 	bic	ip, ip, #3
  10f27c:	e28cc004 	add	ip, ip, #4
  10f280:	e087c00c 	add	ip, r7, ip
  10f284:	e3530000 	cmp	r3, #0
  10f288:	e24cc004 	sub	ip, ip, #4
  10f28c:	1a000003 	bne	10f2a0 <__mdiff+0x114>
  10f290:	e53c3004 	ldr	r3, [ip, #-4]!
  10f294:	e2444001 	sub	r4, r4, #1
  10f298:	e3530000 	cmp	r3, #0
  10f29c:	0afffffb 	beq	10f290 <__mdiff+0x104>
  10f2a0:	e1a00006 	mov	r0, r6
  10f2a4:	e5864010 	str	r4, [r6, #16]
  10f2a8:	e8bd83f8 	pop	{r3, r4, r5, r6, r7, r8, r9, pc}
  10f2ac:	e1a00004 	mov	r0, r4
  10f2b0:	e1a01006 	mov	r1, r6
  10f2b4:	ebfffdcb 	bl	10e9e8 <_Balloc>
  10f2b8:	e3a03001 	mov	r3, #1
  10f2bc:	e5806014 	str	r6, [r0, #20]
  10f2c0:	e5803010 	str	r3, [r0, #16]
  10f2c4:	e8bd83f8 	pop	{r3, r4, r5, r6, r7, r8, r9, pc}

0010f2c8 <__ulp>:
  10f2c8:	e3a03000 	mov	r3, #0
  10f2cc:	e3473ff0 	movt	r3, #32752	; 0x7ff0
  10f2d0:	e0033001 	and	r3, r3, r1
  10f2d4:	e243350d 	sub	r3, r3, #54525952	; 0x3400000
  10f2d8:	e3530000 	cmp	r3, #0
  10f2dc:	da000002 	ble	10f2ec <__ulp+0x24>
  10f2e0:	e3a00000 	mov	r0, #0
  10f2e4:	e1a01003 	mov	r1, r3
  10f2e8:	e12fff1e 	bx	lr
  10f2ec:	e2633000 	rsb	r3, r3, #0
  10f2f0:	e1a03a43 	asr	r3, r3, #20
  10f2f4:	e3530013 	cmp	r3, #19
  10f2f8:	da000007 	ble	10f31c <__ulp+0x54>
  10f2fc:	e3530032 	cmp	r3, #50	; 0x32
  10f300:	e3a01000 	mov	r1, #0
  10f304:	d2633033 	rsble	r3, r3, #51	; 0x33
  10f308:	d3a02001 	movle	r2, #1
  10f30c:	d1a03312 	lslle	r3, r2, r3
  10f310:	c3a03001 	movgt	r3, #1
  10f314:	e1a00003 	mov	r0, r3
  10f318:	e12fff1e 	bx	lr
  10f31c:	e3a02702 	mov	r2, #524288	; 0x80000
  10f320:	e3a00000 	mov	r0, #0
  10f324:	e1a01352 	asr	r1, r2, r3
  10f328:	e12fff1e 	bx	lr

0010f32c <__b2d>:
  10f32c:	e92d40f8 	push	{r3, r4, r5, r6, r7, lr}
  10f330:	e2804014 	add	r4, r0, #20
  10f334:	e5905010 	ldr	r5, [r0, #16]
  10f338:	e0845105 	add	r5, r4, r5, lsl #2
  10f33c:	e5157004 	ldr	r7, [r5, #-4]
  10f340:	e2456004 	sub	r6, r5, #4
  10f344:	e1a00007 	mov	r0, r7
  10f348:	ebfffe3d 	bl	10ec44 <__hi0bits>
  10f34c:	e350000a 	cmp	r0, #10
  10f350:	e2603020 	rsb	r3, r0, #32
  10f354:	e5813000 	str	r3, [r1]
  10f358:	ca00000c 	bgt	10f390 <__b2d+0x64>
  10f35c:	e260c00b 	rsb	ip, r0, #11
  10f360:	e1540006 	cmp	r4, r6
  10f364:	e1a01c37 	lsr	r1, r7, ip
  10f368:	e2800015 	add	r0, r0, #21
  10f36c:	e38135ff 	orr	r3, r1, #1069547520	; 0x3fc00000
  10f370:	35151008 	ldrcc	r1, [r5, #-8]
  10f374:	23a01000 	movcs	r1, #0
  10f378:	e3833603 	orr	r3, r3, #3145728	; 0x300000
  10f37c:	31a01c31 	lsrcc	r1, r1, ip
  10f380:	e1812017 	orr	r2, r1, r7, lsl r0
  10f384:	e1a00002 	mov	r0, r2
  10f388:	e1a01003 	mov	r1, r3
  10f38c:	e8bd80f8 	pop	{r3, r4, r5, r6, r7, pc}
  10f390:	e1540006 	cmp	r4, r6
  10f394:	2a00000e 	bcs	10f3d4 <__b2d+0xa8>
  10f398:	e250c00b 	subs	ip, r0, #11
  10f39c:	e2456008 	sub	r6, r5, #8
  10f3a0:	e5151008 	ldr	r1, [r5, #-8]
  10f3a4:	0a00000d 	beq	10f3e0 <__b2d+0xb4>
  10f3a8:	e260002b 	rsb	r0, r0, #43	; 0x2b
  10f3ac:	e1540006 	cmp	r4, r6
  10f3b0:	e1a0e031 	lsr	lr, r1, r0
  10f3b4:	23a00000 	movcs	r0, #0
  10f3b8:	e18e7c17 	orr	r7, lr, r7, lsl ip
  10f3bc:	3515e00c 	ldrcc	lr, [r5, #-12]
  10f3c0:	e38735ff 	orr	r3, r7, #1069547520	; 0x3fc00000
  10f3c4:	e3833603 	orr	r3, r3, #3145728	; 0x300000
  10f3c8:	31a0003e 	lsrcc	r0, lr, r0
  10f3cc:	e1802c11 	orr	r2, r0, r1, lsl ip
  10f3d0:	eaffffeb 	b	10f384 <__b2d+0x58>
  10f3d4:	e250c00b 	subs	ip, r0, #11
  10f3d8:	01a0100c 	moveq	r1, ip
  10f3dc:	1a000003 	bne	10f3f0 <__b2d+0xc4>
  10f3e0:	e38735ff 	orr	r3, r7, #1069547520	; 0x3fc00000
  10f3e4:	e1a02001 	mov	r2, r1
  10f3e8:	e3833603 	orr	r3, r3, #3145728	; 0x300000
  10f3ec:	eaffffe4 	b	10f384 <__b2d+0x58>
  10f3f0:	e1a07c17 	lsl	r7, r7, ip
  10f3f4:	e3a00000 	mov	r0, #0
  10f3f8:	e1a01000 	mov	r1, r0
  10f3fc:	e38735ff 	orr	r3, r7, #1069547520	; 0x3fc00000
  10f400:	e3833603 	orr	r3, r3, #3145728	; 0x300000
  10f404:	eafffff0 	b	10f3cc <__b2d+0xa0>

0010f408 <__d2b>:
  10f408:	e92d43f0 	push	{r4, r5, r6, r7, r8, r9, lr}
  10f40c:	e3a01001 	mov	r1, #1
  10f410:	e24dd00c 	sub	sp, sp, #12
  10f414:	e1a04003 	mov	r4, r3
  10f418:	e7ea5a53 	ubfx	r5, r3, #20, #11
  10f41c:	e1a08002 	mov	r8, r2
  10f420:	e7f34054 	ubfx	r4, r4, #0, #20
  10f424:	e59d7028 	ldr	r7, [sp, #40]	; 0x28
  10f428:	e59d602c 	ldr	r6, [sp, #44]	; 0x2c
  10f42c:	ebfffd6d 	bl	10e9e8 <_Balloc>
  10f430:	e3550000 	cmp	r5, #0
  10f434:	e1a09000 	mov	r9, r0
  10f438:	13844601 	orrne	r4, r4, #1048576	; 0x100000
  10f43c:	e3580000 	cmp	r8, #0
  10f440:	e58d4004 	str	r4, [sp, #4]
  10f444:	0a00001d 	beq	10f4c0 <__d2b+0xb8>
  10f448:	e28d0008 	add	r0, sp, #8
  10f44c:	e5208008 	str	r8, [r0, #-8]!
  10f450:	ebfffe14 	bl	10eca8 <__lo0bits>
  10f454:	e3500000 	cmp	r0, #0
  10f458:	159dc004 	ldrne	ip, [sp, #4]
  10f45c:	12601020 	rsbne	r1, r0, #32
  10f460:	159d3000 	ldrne	r3, [sp]
  10f464:	089d0006 	ldmeq	sp, {r1, r2}
  10f468:	11a0203c 	lsrne	r2, ip, r0
  10f46c:	1183111c 	orrne	r1, r3, ip, lsl r1
  10f470:	158d2004 	strne	r2, [sp, #4]
  10f474:	e3520000 	cmp	r2, #0
  10f478:	e5892018 	str	r2, [r9, #24]
  10f47c:	13a02002 	movne	r2, #2
  10f480:	03a02001 	moveq	r2, #1
  10f484:	e3550000 	cmp	r5, #0
  10f488:	e5891014 	str	r1, [r9, #20]
  10f48c:	e5892010 	str	r2, [r9, #16]
  10f490:	1a000014 	bne	10f4e8 <__d2b+0xe0>
  10f494:	e0893102 	add	r3, r9, r2, lsl #2
  10f498:	e2405e43 	sub	r5, r0, #1072	; 0x430
  10f49c:	e2455002 	sub	r5, r5, #2
  10f4a0:	e5930010 	ldr	r0, [r3, #16]
  10f4a4:	e5875000 	str	r5, [r7]
  10f4a8:	ebfffde5 	bl	10ec44 <__hi0bits>
  10f4ac:	e0600282 	rsb	r0, r0, r2, lsl #5
  10f4b0:	e5860000 	str	r0, [r6]
  10f4b4:	e1a00009 	mov	r0, r9
  10f4b8:	e28dd00c 	add	sp, sp, #12
  10f4bc:	e8bd83f0 	pop	{r4, r5, r6, r7, r8, r9, pc}
  10f4c0:	e28d0004 	add	r0, sp, #4
  10f4c4:	ebfffdf7 	bl	10eca8 <__lo0bits>
  10f4c8:	e59dc004 	ldr	ip, [sp, #4]
  10f4cc:	e3550000 	cmp	r5, #0
  10f4d0:	e3a01001 	mov	r1, #1
  10f4d4:	e2800020 	add	r0, r0, #32
  10f4d8:	e1a02001 	mov	r2, r1
  10f4dc:	e5891010 	str	r1, [r9, #16]
  10f4e0:	e589c014 	str	ip, [r9, #20]
  10f4e4:	0affffea 	beq	10f494 <__d2b+0x8c>
  10f4e8:	e2455e43 	sub	r5, r5, #1072	; 0x430
  10f4ec:	e2602035 	rsb	r2, r0, #53	; 0x35
  10f4f0:	e2455003 	sub	r5, r5, #3
  10f4f4:	e0855000 	add	r5, r5, r0
  10f4f8:	e1a00009 	mov	r0, r9
  10f4fc:	e5875000 	str	r5, [r7]
  10f500:	e5862000 	str	r2, [r6]
  10f504:	e28dd00c 	add	sp, sp, #12
  10f508:	e8bd83f0 	pop	{r4, r5, r6, r7, r8, r9, pc}

0010f50c <__ratio>:
  10f50c:	e92d41f0 	push	{r4, r5, r6, r7, r8, lr}
  10f510:	e1a08001 	mov	r8, r1
  10f514:	ed2d8b02 	vpush	{d8}
  10f518:	e24dd008 	sub	sp, sp, #8
  10f51c:	e1a0100d 	mov	r1, sp
  10f520:	e1a06000 	mov	r6, r0
  10f524:	ebffff80 	bl	10f32c <__b2d>
  10f528:	ec410b18 	vmov	d8, r0, r1
  10f52c:	e1a00008 	mov	r0, r8
  10f530:	e28d1004 	add	r1, sp, #4
  10f534:	ebffff7c 	bl	10f32c <__b2d>
  10f538:	e596c010 	ldr	ip, [r6, #16]
  10f53c:	ec410b30 	vmov	d16, r0, r1
  10f540:	e89d000c 	ldm	sp, {r2, r3}
  10f544:	e5981010 	ldr	r1, [r8, #16]
  10f548:	e0633002 	rsb	r3, r3, r2
  10f54c:	e061100c 	rsb	r1, r1, ip
  10f550:	e0833281 	add	r3, r3, r1, lsl #5
  10f554:	e3530000 	cmp	r3, #0
  10f558:	da000007 	ble	10f57c <__ratio+0x70>
  10f55c:	ec554b18 	vmov	r4, r5, d8
  10f560:	e0855a03 	add	r5, r5, r3, lsl #20
  10f564:	ec454b18 	vmov	d8, r4, r5
  10f568:	eec81b20 	vdiv.f64	d17, d8, d16
  10f56c:	ec510b31 	vmov	r0, r1, d17
  10f570:	e28dd008 	add	sp, sp, #8
  10f574:	ecbd8b02 	vpop	{d8}
  10f578:	e8bd81f0 	pop	{r4, r5, r6, r7, r8, pc}
  10f57c:	ec576b30 	vmov	r6, r7, d16
  10f580:	e0477a03 	sub	r7, r7, r3, lsl #20
  10f584:	ec476b30 	vmov	d16, r6, r7
  10f588:	eafffff6 	b	10f568 <__ratio+0x5c>

0010f58c <_mprec_log10>:
  10f58c:	e3500017 	cmp	r0, #23
  10f590:	da000006 	ble	10f5b0 <_mprec_log10+0x24>
  10f594:	eef70b00 	vmov.f64	d16, #112	; 0x70
  10f598:	eef21b04 	vmov.f64	d17, #36	; 0x24
  10f59c:	e2500001 	subs	r0, r0, #1
  10f5a0:	ee600ba1 	vmul.f64	d16, d16, d17
  10f5a4:	1afffffc 	bne	10f59c <_mprec_log10+0x10>
  10f5a8:	ec510b30 	vmov	r0, r1, d16
  10f5ac:	e12fff1e 	bx	lr
  10f5b0:	e3023950 	movw	r3, #10576	; 0x2950
  10f5b4:	e3403011 	movt	r3, #17
  10f5b8:	e0830180 	add	r0, r3, r0, lsl #3
  10f5bc:	e1c001d0 	ldrd	r0, [r0, #16]
  10f5c0:	e12fff1e 	bx	lr

0010f5c4 <__copybits>:
  10f5c4:	e592c010 	ldr	ip, [r2, #16]
  10f5c8:	e2823014 	add	r3, r2, #20
  10f5cc:	e2411001 	sub	r1, r1, #1
  10f5d0:	e92d4010 	push	{r4, lr}
  10f5d4:	e1a012c1 	asr	r1, r1, #5
  10f5d8:	e083c10c 	add	ip, r3, ip, lsl #2
  10f5dc:	e2811001 	add	r1, r1, #1
  10f5e0:	e0804101 	add	r4, r0, r1, lsl #2
  10f5e4:	e153000c 	cmp	r3, ip
  10f5e8:	2a000009 	bcs	10f614 <__copybits+0x50>
  10f5ec:	e2401004 	sub	r1, r0, #4
  10f5f0:	e493e004 	ldr	lr, [r3], #4
  10f5f4:	e15c0003 	cmp	ip, r3
  10f5f8:	e5a1e004 	str	lr, [r1, #4]!
  10f5fc:	8afffffb 	bhi	10f5f0 <__copybits+0x2c>
  10f600:	e062300c 	rsb	r3, r2, ip
  10f604:	e2433015 	sub	r3, r3, #21
  10f608:	e3c33003 	bic	r3, r3, #3
  10f60c:	e2833004 	add	r3, r3, #4
  10f610:	e0800003 	add	r0, r0, r3
  10f614:	e1540000 	cmp	r4, r0
  10f618:	98bd8010 	popls	{r4, pc}
  10f61c:	e3a03000 	mov	r3, #0
  10f620:	e4803004 	str	r3, [r0], #4
  10f624:	e1540000 	cmp	r4, r0
  10f628:	8afffffc 	bhi	10f620 <__copybits+0x5c>
  10f62c:	e8bd8010 	pop	{r4, pc}

0010f630 <__any_on>:
  10f630:	e5903010 	ldr	r3, [r0, #16]
  10f634:	e1a022c1 	asr	r2, r1, #5
  10f638:	e280c014 	add	ip, r0, #20
  10f63c:	e1530002 	cmp	r3, r2
  10f640:	b08c3103 	addlt	r3, ip, r3, lsl #2
  10f644:	ba00000a 	blt	10f674 <__any_on+0x44>
  10f648:	da000008 	ble	10f670 <__any_on+0x40>
  10f64c:	e211101f 	ands	r1, r1, #31
  10f650:	0a000006 	beq	10f670 <__any_on+0x40>
  10f654:	e79c0102 	ldr	r0, [ip, r2, lsl #2]
  10f658:	e08c3102 	add	r3, ip, r2, lsl #2
  10f65c:	e1a02130 	lsr	r2, r0, r1
  10f660:	e1500112 	cmp	r0, r2, lsl r1
  10f664:	0a000002 	beq	10f674 <__any_on+0x44>
  10f668:	e3a00001 	mov	r0, #1
  10f66c:	e12fff1e 	bx	lr
  10f670:	e08c3102 	add	r3, ip, r2, lsl #2
  10f674:	e15c0003 	cmp	ip, r3
  10f678:	2a00000a 	bcs	10f6a8 <__any_on+0x78>
  10f67c:	e5130004 	ldr	r0, [r3, #-4]
  10f680:	e2433004 	sub	r3, r3, #4
  10f684:	e3500000 	cmp	r0, #0
  10f688:	0a000003 	beq	10f69c <__any_on+0x6c>
  10f68c:	eafffff5 	b	10f668 <__any_on+0x38>
  10f690:	e5332004 	ldr	r2, [r3, #-4]!
  10f694:	e3520000 	cmp	r2, #0
  10f698:	1afffff2 	bne	10f668 <__any_on+0x38>
  10f69c:	e15c0003 	cmp	ip, r3
  10f6a0:	3afffffa 	bcc	10f690 <__any_on+0x60>
  10f6a4:	e12fff1e 	bx	lr
  10f6a8:	e3a00000 	mov	r0, #0
  10f6ac:	e12fff1e 	bx	lr

0010f6b0 <_realloc_r>:
  10f6b0:	e92d4ff0 	push	{r4, r5, r6, r7, r8, r9, sl, fp, lr}
  10f6b4:	e2516000 	subs	r6, r1, #0
  10f6b8:	e24dd00c 	sub	sp, sp, #12
  10f6bc:	e1a07002 	mov	r7, r2
  10f6c0:	0a0000dd 	beq	10fa3c <_realloc_r+0x38c>
  10f6c4:	e287400b 	add	r4, r7, #11
  10f6c8:	e1a08000 	mov	r8, r0
  10f6cc:	ebfffcc3 	bl	10e9e0 <__malloc_lock>
  10f6d0:	e3540016 	cmp	r4, #22
  10f6d4:	e5163004 	ldr	r3, [r6, #-4]
  10f6d8:	83c44007 	bichi	r4, r4, #7
  10f6dc:	93a02010 	movls	r2, #16
  10f6e0:	81a00fa4 	lsrhi	r0, r4, #31
  10f6e4:	93a00000 	movls	r0, #0
  10f6e8:	91a04002 	movls	r4, r2
  10f6ec:	81a02004 	movhi	r2, r4
  10f6f0:	e1540007 	cmp	r4, r7
  10f6f4:	33800001 	orrcc	r0, r0, #1
  10f6f8:	e3500000 	cmp	r0, #0
  10f6fc:	e3c35003 	bic	r5, r3, #3
  10f700:	13a0300c 	movne	r3, #12
  10f704:	e2469008 	sub	r9, r6, #8
  10f708:	13a00000 	movne	r0, #0
  10f70c:	15883000 	strne	r3, [r8]
  10f710:	1a00000f 	bne	10f754 <_realloc_r+0xa4>
  10f714:	e1550002 	cmp	r5, r2
  10f718:	ba00000f 	blt	10f75c <_realloc_r+0xac>
  10f71c:	e1a07006 	mov	r7, r6
  10f720:	e0642005 	rsb	r2, r4, r5
  10f724:	e2033001 	and	r3, r3, #1
  10f728:	e352000f 	cmp	r2, #15
  10f72c:	8a000084 	bhi	10f944 <_realloc_r+0x294>
  10f730:	e0892005 	add	r2, r9, r5
  10f734:	e1835005 	orr	r5, r3, r5
  10f738:	e5895004 	str	r5, [r9, #4]
  10f73c:	e5923004 	ldr	r3, [r2, #4]
  10f740:	e3833001 	orr	r3, r3, #1
  10f744:	e5823004 	str	r3, [r2, #4]
  10f748:	e1a00008 	mov	r0, r8
  10f74c:	ebfffca4 	bl	10e9e4 <__malloc_unlock>
  10f750:	e1a00007 	mov	r0, r7
  10f754:	e28dd00c 	add	sp, sp, #12
  10f758:	e8bd8ff0 	pop	{r4, r5, r6, r7, r8, r9, sl, fp, pc}
  10f75c:	e302bfb4 	movw	fp, #12212	; 0x2fb4
  10f760:	e0891005 	add	r1, r9, r5
  10f764:	e340b011 	movt	fp, #17
  10f768:	e59b0008 	ldr	r0, [fp, #8]
  10f76c:	e1500001 	cmp	r0, r1
  10f770:	0a0000bc 	beq	10fa68 <_realloc_r+0x3b8>
  10f774:	e591c004 	ldr	ip, [r1, #4]
  10f778:	e3cc0001 	bic	r0, ip, #1
  10f77c:	e0810000 	add	r0, r1, r0
  10f780:	e5900004 	ldr	r0, [r0, #4]
  10f784:	e3100001 	tst	r0, #1
  10f788:	1a00003a 	bne	10f878 <_realloc_r+0x1c8>
  10f78c:	e3ccc003 	bic	ip, ip, #3
  10f790:	e08cc005 	add	ip, ip, r5
  10f794:	e15c0002 	cmp	ip, r2
  10f798:	aa0000ab 	bge	10fa4c <_realloc_r+0x39c>
  10f79c:	e3130001 	tst	r3, #1
  10f7a0:	1a000074 	bne	10f978 <_realloc_r+0x2c8>
  10f7a4:	e516a008 	ldr	sl, [r6, #-8]
  10f7a8:	e06aa009 	rsb	sl, sl, r9
  10f7ac:	e59a0004 	ldr	r0, [sl, #4]
  10f7b0:	e3c00003 	bic	r0, r0, #3
  10f7b4:	e08cc000 	add	ip, ip, r0
  10f7b8:	e15c0002 	cmp	ip, r2
  10f7bc:	ba000033 	blt	10f890 <_realloc_r+0x1e0>
  10f7c0:	e591000c 	ldr	r0, [r1, #12]
  10f7c4:	e1a0700a 	mov	r7, sl
  10f7c8:	e5911008 	ldr	r1, [r1, #8]
  10f7cc:	e2452004 	sub	r2, r5, #4
  10f7d0:	e3520024 	cmp	r2, #36	; 0x24
  10f7d4:	e581000c 	str	r0, [r1, #12]
  10f7d8:	e5801008 	str	r1, [r0, #8]
  10f7dc:	e59a100c 	ldr	r1, [sl, #12]
  10f7e0:	e5b70008 	ldr	r0, [r7, #8]!
  10f7e4:	e580100c 	str	r1, [r0, #12]
  10f7e8:	e5810008 	str	r0, [r1, #8]
  10f7ec:	8a0000fb 	bhi	10fbe0 <_realloc_r+0x530>
  10f7f0:	e3520013 	cmp	r2, #19
  10f7f4:	91a02007 	movls	r2, r7
  10f7f8:	9a000014 	bls	10f850 <_realloc_r+0x1a0>
  10f7fc:	e5961000 	ldr	r1, [r6]
  10f800:	e352001b 	cmp	r2, #27
  10f804:	928a2010 	addls	r2, sl, #16
  10f808:	e58a1008 	str	r1, [sl, #8]
  10f80c:	e5961004 	ldr	r1, [r6, #4]
  10f810:	92866008 	addls	r6, r6, #8
  10f814:	e58a100c 	str	r1, [sl, #12]
  10f818:	9a00000c 	bls	10f850 <_realloc_r+0x1a0>
  10f81c:	e5963008 	ldr	r3, [r6, #8]
  10f820:	e3520024 	cmp	r2, #36	; 0x24
  10f824:	128a2018 	addne	r2, sl, #24
  10f828:	028a2020 	addeq	r2, sl, #32
  10f82c:	e58a3010 	str	r3, [sl, #16]
  10f830:	e596300c 	ldr	r3, [r6, #12]
  10f834:	12866010 	addne	r6, r6, #16
  10f838:	e58a3014 	str	r3, [sl, #20]
  10f83c:	05963010 	ldreq	r3, [r6, #16]
  10f840:	058a3018 	streq	r3, [sl, #24]
  10f844:	05963014 	ldreq	r3, [r6, #20]
  10f848:	02866018 	addeq	r6, r6, #24
  10f84c:	058a301c 	streq	r3, [sl, #28]
  10f850:	e5963000 	ldr	r3, [r6]
  10f854:	e1a0500c 	mov	r5, ip
  10f858:	e1a0900a 	mov	r9, sl
  10f85c:	e5823000 	str	r3, [r2]
  10f860:	e5963004 	ldr	r3, [r6, #4]
  10f864:	e5823004 	str	r3, [r2, #4]
  10f868:	e5963008 	ldr	r3, [r6, #8]
  10f86c:	e5823008 	str	r3, [r2, #8]
  10f870:	e59a3004 	ldr	r3, [sl, #4]
  10f874:	eaffffa9 	b	10f720 <_realloc_r+0x70>
  10f878:	e3130001 	tst	r3, #1
  10f87c:	1a00003d 	bne	10f978 <_realloc_r+0x2c8>
  10f880:	e516a008 	ldr	sl, [r6, #-8]
  10f884:	e06aa009 	rsb	sl, sl, r9
  10f888:	e59a0004 	ldr	r0, [sl, #4]
  10f88c:	e3c00003 	bic	r0, r0, #3
  10f890:	e0803005 	add	r3, r0, r5
  10f894:	e1530002 	cmp	r3, r2
  10f898:	ba000036 	blt	10f978 <_realloc_r+0x2c8>
  10f89c:	e1a0700a 	mov	r7, sl
  10f8a0:	e59a100c 	ldr	r1, [sl, #12]
  10f8a4:	e5b70008 	ldr	r0, [r7, #8]!
  10f8a8:	e2452004 	sub	r2, r5, #4
  10f8ac:	e3520024 	cmp	r2, #36	; 0x24
  10f8b0:	e580100c 	str	r1, [r0, #12]
  10f8b4:	e5810008 	str	r0, [r1, #8]
  10f8b8:	8a0000ac 	bhi	10fb70 <_realloc_r+0x4c0>
  10f8bc:	e3520013 	cmp	r2, #19
  10f8c0:	91a01007 	movls	r1, r7
  10f8c4:	9a000014 	bls	10f91c <_realloc_r+0x26c>
  10f8c8:	e5961000 	ldr	r1, [r6]
  10f8cc:	e352001b 	cmp	r2, #27
  10f8d0:	e58a1008 	str	r1, [sl, #8]
  10f8d4:	e5961004 	ldr	r1, [r6, #4]
  10f8d8:	92866008 	addls	r6, r6, #8
  10f8dc:	e58a100c 	str	r1, [sl, #12]
  10f8e0:	928a1010 	addls	r1, sl, #16
  10f8e4:	9a00000c 	bls	10f91c <_realloc_r+0x26c>
  10f8e8:	e5961008 	ldr	r1, [r6, #8]
  10f8ec:	e3520024 	cmp	r2, #36	; 0x24
  10f8f0:	e58a1010 	str	r1, [sl, #16]
  10f8f4:	128a1018 	addne	r1, sl, #24
  10f8f8:	e596200c 	ldr	r2, [r6, #12]
  10f8fc:	028a1020 	addeq	r1, sl, #32
  10f900:	12866010 	addne	r6, r6, #16
  10f904:	e58a2014 	str	r2, [sl, #20]
  10f908:	05962010 	ldreq	r2, [r6, #16]
  10f90c:	058a2018 	streq	r2, [sl, #24]
  10f910:	05962014 	ldreq	r2, [r6, #20]
  10f914:	02866018 	addeq	r6, r6, #24
  10f918:	058a201c 	streq	r2, [sl, #28]
  10f91c:	e5962000 	ldr	r2, [r6]
  10f920:	e1a05003 	mov	r5, r3
  10f924:	e1a0900a 	mov	r9, sl
  10f928:	e5812000 	str	r2, [r1]
  10f92c:	e5963004 	ldr	r3, [r6, #4]
  10f930:	e5813004 	str	r3, [r1, #4]
  10f934:	e5963008 	ldr	r3, [r6, #8]
  10f938:	e5813008 	str	r3, [r1, #8]
  10f93c:	e59a3004 	ldr	r3, [sl, #4]
  10f940:	eaffff76 	b	10f720 <_realloc_r+0x70>
  10f944:	e0891004 	add	r1, r9, r4
  10f948:	e1834004 	orr	r4, r3, r4
  10f94c:	e3823001 	orr	r3, r2, #1
  10f950:	e0812002 	add	r2, r1, r2
  10f954:	e5894004 	str	r4, [r9, #4]
  10f958:	e2811008 	add	r1, r1, #8
  10f95c:	e5013004 	str	r3, [r1, #-4]
  10f960:	e1a00008 	mov	r0, r8
  10f964:	e5923004 	ldr	r3, [r2, #4]
  10f968:	e3833001 	orr	r3, r3, #1
  10f96c:	e5823004 	str	r3, [r2, #4]
  10f970:	ebfff59b 	bl	10cfe4 <_free_r>
  10f974:	eaffff73 	b	10f748 <_realloc_r+0x98>
  10f978:	e1a01007 	mov	r1, r7
  10f97c:	e1a00008 	mov	r0, r8
  10f980:	ebfff83b 	bl	10da74 <_malloc_r>
  10f984:	e2507000 	subs	r7, r0, #0
  10f988:	0affff6e 	beq	10f748 <_realloc_r+0x98>
  10f98c:	e5163004 	ldr	r3, [r6, #-4]
  10f990:	e2471008 	sub	r1, r7, #8
  10f994:	e3c32001 	bic	r2, r3, #1
  10f998:	e0892002 	add	r2, r9, r2
  10f99c:	e1510002 	cmp	r1, r2
  10f9a0:	0a000089 	beq	10fbcc <_realloc_r+0x51c>
  10f9a4:	e2452004 	sub	r2, r5, #4
  10f9a8:	e3520024 	cmp	r2, #36	; 0x24
  10f9ac:	8a000083 	bhi	10fbc0 <_realloc_r+0x510>
  10f9b0:	e3520013 	cmp	r2, #19
  10f9b4:	91a03007 	movls	r3, r7
  10f9b8:	91a02006 	movls	r2, r6
  10f9bc:	9a000014 	bls	10fa14 <_realloc_r+0x364>
  10f9c0:	e5963000 	ldr	r3, [r6]
  10f9c4:	e352001b 	cmp	r2, #27
  10f9c8:	92862008 	addls	r2, r6, #8
  10f9cc:	e5873000 	str	r3, [r7]
  10f9d0:	e5963004 	ldr	r3, [r6, #4]
  10f9d4:	e5873004 	str	r3, [r7, #4]
  10f9d8:	92873008 	addls	r3, r7, #8
  10f9dc:	9a00000c 	bls	10fa14 <_realloc_r+0x364>
  10f9e0:	e5963008 	ldr	r3, [r6, #8]
  10f9e4:	e3520024 	cmp	r2, #36	; 0x24
  10f9e8:	12862010 	addne	r2, r6, #16
  10f9ec:	02862018 	addeq	r2, r6, #24
  10f9f0:	e5873008 	str	r3, [r7, #8]
  10f9f4:	e596300c 	ldr	r3, [r6, #12]
  10f9f8:	e587300c 	str	r3, [r7, #12]
  10f9fc:	12873010 	addne	r3, r7, #16
  10fa00:	05961010 	ldreq	r1, [r6, #16]
  10fa04:	02873018 	addeq	r3, r7, #24
  10fa08:	05871010 	streq	r1, [r7, #16]
  10fa0c:	05961014 	ldreq	r1, [r6, #20]
  10fa10:	05871014 	streq	r1, [r7, #20]
  10fa14:	e5921000 	ldr	r1, [r2]
  10fa18:	e5831000 	str	r1, [r3]
  10fa1c:	e5921004 	ldr	r1, [r2, #4]
  10fa20:	e5831004 	str	r1, [r3, #4]
  10fa24:	e5922008 	ldr	r2, [r2, #8]
  10fa28:	e5832008 	str	r2, [r3, #8]
  10fa2c:	e1a01006 	mov	r1, r6
  10fa30:	e1a00008 	mov	r0, r8
  10fa34:	ebfff56a 	bl	10cfe4 <_free_r>
  10fa38:	eaffff42 	b	10f748 <_realloc_r+0x98>
  10fa3c:	e1a01002 	mov	r1, r2
  10fa40:	e28dd00c 	add	sp, sp, #12
  10fa44:	e8bd4ff0 	pop	{r4, r5, r6, r7, r8, r9, sl, fp, lr}
  10fa48:	eafff809 	b	10da74 <_malloc_r>
  10fa4c:	e591200c 	ldr	r2, [r1, #12]
  10fa50:	e1a07006 	mov	r7, r6
  10fa54:	e5911008 	ldr	r1, [r1, #8]
  10fa58:	e1a0500c 	mov	r5, ip
  10fa5c:	e581200c 	str	r2, [r1, #12]
  10fa60:	e5821008 	str	r1, [r2, #8]
  10fa64:	eaffff2d 	b	10f720 <_realloc_r+0x70>
  10fa68:	e5901004 	ldr	r1, [r0, #4]
  10fa6c:	e284c010 	add	ip, r4, #16
  10fa70:	e3c11003 	bic	r1, r1, #3
  10fa74:	e0811005 	add	r1, r1, r5
  10fa78:	e151000c 	cmp	r1, ip
  10fa7c:	aa000042 	bge	10fb8c <_realloc_r+0x4dc>
  10fa80:	e3130001 	tst	r3, #1
  10fa84:	1affffbb 	bne	10f978 <_realloc_r+0x2c8>
  10fa88:	e516a008 	ldr	sl, [r6, #-8]
  10fa8c:	e06aa009 	rsb	sl, sl, r9
  10fa90:	e59a0004 	ldr	r0, [sl, #4]
  10fa94:	e3c00003 	bic	r0, r0, #3
  10fa98:	e0813000 	add	r3, r1, r0
  10fa9c:	e15c0003 	cmp	ip, r3
  10faa0:	caffff7a 	bgt	10f890 <_realloc_r+0x1e0>
  10faa4:	e1a0700a 	mov	r7, sl
  10faa8:	e59a100c 	ldr	r1, [sl, #12]
  10faac:	e5b70008 	ldr	r0, [r7, #8]!
  10fab0:	e2452004 	sub	r2, r5, #4
  10fab4:	e3520024 	cmp	r2, #36	; 0x24
  10fab8:	e580100c 	str	r1, [r0, #12]
  10fabc:	e5810008 	str	r0, [r1, #8]
  10fac0:	8a00004d 	bhi	10fbfc <_realloc_r+0x54c>
  10fac4:	e3520013 	cmp	r2, #19
  10fac8:	91a02007 	movls	r2, r7
  10facc:	9a000014 	bls	10fb24 <_realloc_r+0x474>
  10fad0:	e5961000 	ldr	r1, [r6]
  10fad4:	e352001b 	cmp	r2, #27
  10fad8:	928a2010 	addls	r2, sl, #16
  10fadc:	e58a1008 	str	r1, [sl, #8]
  10fae0:	e5961004 	ldr	r1, [r6, #4]
  10fae4:	92866008 	addls	r6, r6, #8
  10fae8:	e58a100c 	str	r1, [sl, #12]
  10faec:	9a00000c 	bls	10fb24 <_realloc_r+0x474>
  10faf0:	e5961008 	ldr	r1, [r6, #8]
  10faf4:	e3520024 	cmp	r2, #36	; 0x24
  10faf8:	e58a1010 	str	r1, [sl, #16]
  10fafc:	e596200c 	ldr	r2, [r6, #12]
  10fb00:	12866010 	addne	r6, r6, #16
  10fb04:	e58a2014 	str	r2, [sl, #20]
  10fb08:	128a2018 	addne	r2, sl, #24
  10fb0c:	05961010 	ldreq	r1, [r6, #16]
  10fb10:	028a2020 	addeq	r2, sl, #32
  10fb14:	058a1018 	streq	r1, [sl, #24]
  10fb18:	05961014 	ldreq	r1, [r6, #20]
  10fb1c:	02866018 	addeq	r6, r6, #24
  10fb20:	058a101c 	streq	r1, [sl, #28]
  10fb24:	e5961000 	ldr	r1, [r6]
  10fb28:	e5821000 	str	r1, [r2]
  10fb2c:	e5961004 	ldr	r1, [r6, #4]
  10fb30:	e5821004 	str	r1, [r2, #4]
  10fb34:	e5961008 	ldr	r1, [r6, #8]
  10fb38:	e5821008 	str	r1, [r2, #8]
  10fb3c:	e0643003 	rsb	r3, r4, r3
  10fb40:	e08a2004 	add	r2, sl, r4
  10fb44:	e3833001 	orr	r3, r3, #1
  10fb48:	e58b2008 	str	r2, [fp, #8]
  10fb4c:	e5823004 	str	r3, [r2, #4]
  10fb50:	e1a00008 	mov	r0, r8
  10fb54:	e59a3004 	ldr	r3, [sl, #4]
  10fb58:	e2033001 	and	r3, r3, #1
  10fb5c:	e1844003 	orr	r4, r4, r3
  10fb60:	e58a4004 	str	r4, [sl, #4]
  10fb64:	ebfffb9e 	bl	10e9e4 <__malloc_unlock>
  10fb68:	e1a00007 	mov	r0, r7
  10fb6c:	eafffef8 	b	10f754 <_realloc_r+0xa4>
  10fb70:	e1a01006 	mov	r1, r6
  10fb74:	e1a00007 	mov	r0, r7
  10fb78:	e1a05003 	mov	r5, r3
  10fb7c:	e1a0900a 	mov	r9, sl
  10fb80:	ebfffb0e 	bl	10e7c0 <memmove>
  10fb84:	e59a3004 	ldr	r3, [sl, #4]
  10fb88:	eafffee4 	b	10f720 <_realloc_r+0x70>
  10fb8c:	e0643001 	rsb	r3, r4, r1
  10fb90:	e0899004 	add	r9, r9, r4
  10fb94:	e3833001 	orr	r3, r3, #1
  10fb98:	e58b9008 	str	r9, [fp, #8]
  10fb9c:	e5893004 	str	r3, [r9, #4]
  10fba0:	e1a00008 	mov	r0, r8
  10fba4:	e5163004 	ldr	r3, [r6, #-4]
  10fba8:	e2033001 	and	r3, r3, #1
  10fbac:	e1844003 	orr	r4, r4, r3
  10fbb0:	e5064004 	str	r4, [r6, #-4]
  10fbb4:	ebfffb8a 	bl	10e9e4 <__malloc_unlock>
  10fbb8:	e1a00006 	mov	r0, r6
  10fbbc:	eafffee4 	b	10f754 <_realloc_r+0xa4>
  10fbc0:	e1a01006 	mov	r1, r6
  10fbc4:	ebfffafd 	bl	10e7c0 <memmove>
  10fbc8:	eaffff97 	b	10fa2c <_realloc_r+0x37c>
  10fbcc:	e5172004 	ldr	r2, [r7, #-4]
  10fbd0:	e1a07006 	mov	r7, r6
  10fbd4:	e3c22003 	bic	r2, r2, #3
  10fbd8:	e0855002 	add	r5, r5, r2
  10fbdc:	eafffecf 	b	10f720 <_realloc_r+0x70>
  10fbe0:	e1a01006 	mov	r1, r6
  10fbe4:	e1a00007 	mov	r0, r7
  10fbe8:	e1a0500c 	mov	r5, ip
  10fbec:	e1a0900a 	mov	r9, sl
  10fbf0:	ebfffaf2 	bl	10e7c0 <memmove>
  10fbf4:	e59a3004 	ldr	r3, [sl, #4]
  10fbf8:	eafffec8 	b	10f720 <_realloc_r+0x70>
  10fbfc:	e1a01006 	mov	r1, r6
  10fc00:	e1a00007 	mov	r0, r7
  10fc04:	e58d3004 	str	r3, [sp, #4]
  10fc08:	ebfffaec 	bl	10e7c0 <memmove>
  10fc0c:	e59d3004 	ldr	r3, [sp, #4]
  10fc10:	eaffffc9 	b	10fb3c <_realloc_r+0x48c>

0010fc14 <__fpclassifyd>:
  10fc14:	e1a03000 	mov	r3, r0
  10fc18:	e1932001 	orrs	r2, r3, r1
  10fc1c:	1a000001 	bne	10fc28 <__fpclassifyd+0x14>
  10fc20:	e3a00002 	mov	r0, #2
  10fc24:	e12fff1e 	bx	lr
  10fc28:	e3510102 	cmp	r1, #-2147483648	; 0x80000000
  10fc2c:	03530000 	cmpeq	r3, #0
  10fc30:	e16f3f13 	clz	r3, r3
  10fc34:	e1a032a3 	lsr	r3, r3, #5
  10fc38:	0afffff8 	beq	10fc20 <__fpclassifyd+0xc>
  10fc3c:	e3c10102 	bic	r0, r1, #-2147483648	; 0x80000000
  10fc40:	e30f2fff 	movw	r2, #65535	; 0xffff
  10fc44:	e2401601 	sub	r1, r0, #1048576	; 0x100000
  10fc48:	e3472fdf 	movt	r2, #32735	; 0x7fdf
  10fc4c:	e1510002 	cmp	r1, r2
  10fc50:	8a000001 	bhi	10fc5c <__fpclassifyd+0x48>
  10fc54:	e3a00004 	mov	r0, #4
  10fc58:	e12fff1e 	bx	lr
  10fc5c:	e3500601 	cmp	r0, #1048576	; 0x100000
  10fc60:	2a000001 	bcs	10fc6c <__fpclassifyd+0x58>
  10fc64:	e3a00003 	mov	r0, #3
  10fc68:	e12fff1e 	bx	lr
  10fc6c:	e3a02000 	mov	r2, #0
  10fc70:	e3472ff0 	movt	r2, #32752	; 0x7ff0
  10fc74:	e1500002 	cmp	r0, r2
  10fc78:	13a00000 	movne	r0, #0
  10fc7c:	02030001 	andeq	r0, r3, #1
  10fc80:	e12fff1e 	bx	lr

0010fc84 <_sbrk_r>:
  10fc84:	e92d4038 	push	{r3, r4, r5, lr}
  10fc88:	e303443c 	movw	r4, #13372	; 0x343c
  10fc8c:	e3a03000 	mov	r3, #0
  10fc90:	e1a05000 	mov	r5, r0
  10fc94:	e3404011 	movt	r4, #17
  10fc98:	e1a00001 	mov	r0, r1
  10fc9c:	e5843000 	str	r3, [r4]
  10fca0:	eb000a19 	bl	11250c <_sbrk>
  10fca4:	e3700001 	cmn	r0, #1
  10fca8:	18bd8038 	popne	{r3, r4, r5, pc}
  10fcac:	e5943000 	ldr	r3, [r4]
  10fcb0:	e3530000 	cmp	r3, #0
  10fcb4:	15853000 	strne	r3, [r5]
  10fcb8:	e8bd8038 	pop	{r3, r4, r5, pc}

0010fcbc <__sread>:
  10fcbc:	e92d4010 	push	{r4, lr}
  10fcc0:	e1a04001 	mov	r4, r1
  10fcc4:	e1d110fe 	ldrsh	r1, [r1, #14]
  10fcc8:	eb0006e0 	bl	111850 <_read_r>
  10fccc:	e3500000 	cmp	r0, #0
  10fcd0:	a5943050 	ldrge	r3, [r4, #80]	; 0x50
  10fcd4:	b1d430bc 	ldrhlt	r3, [r4, #12]
  10fcd8:	a0833000 	addge	r3, r3, r0
  10fcdc:	b3c33a01 	biclt	r3, r3, #4096	; 0x1000
  10fce0:	a5843050 	strge	r3, [r4, #80]	; 0x50
  10fce4:	b1c430bc 	strhlt	r3, [r4, #12]
  10fce8:	e8bd8010 	pop	{r4, pc}

0010fcec <__seofread>:
  10fcec:	e3a00000 	mov	r0, #0
  10fcf0:	e12fff1e 	bx	lr

0010fcf4 <__swrite>:
  10fcf4:	e1d1c0bc 	ldrh	ip, [r1, #12]
  10fcf8:	e92d41f0 	push	{r4, r5, r6, r7, r8, lr}
  10fcfc:	e1a04001 	mov	r4, r1
  10fd00:	e1a06002 	mov	r6, r2
  10fd04:	e1a05003 	mov	r5, r3
  10fd08:	e31c0c01 	tst	ip, #256	; 0x100
  10fd0c:	e1a07000 	mov	r7, r0
  10fd10:	0a000004 	beq	10fd28 <__swrite+0x34>
  10fd14:	e1d110fe 	ldrsh	r1, [r1, #14]
  10fd18:	e3a02000 	mov	r2, #0
  10fd1c:	e3a03002 	mov	r3, #2
  10fd20:	eb0006ba 	bl	111810 <_lseek_r>
  10fd24:	e1d4c0bc 	ldrh	ip, [r4, #12]
  10fd28:	e3ccca01 	bic	ip, ip, #4096	; 0x1000
  10fd2c:	e1a00007 	mov	r0, r7
  10fd30:	e1c4c0bc 	strh	ip, [r4, #12]
  10fd34:	e1a02006 	mov	r2, r6
  10fd38:	e1d410fe 	ldrsh	r1, [r4, #14]
  10fd3c:	e1a03005 	mov	r3, r5
  10fd40:	e8bd41f0 	pop	{r4, r5, r6, r7, r8, lr}
  10fd44:	ea0005ae 	b	111404 <_write_r>

0010fd48 <__sseek>:
  10fd48:	e92d4010 	push	{r4, lr}
  10fd4c:	e1a04001 	mov	r4, r1
  10fd50:	e1d110fe 	ldrsh	r1, [r1, #14]
  10fd54:	eb0006ad 	bl	111810 <_lseek_r>
  10fd58:	e1d430bc 	ldrh	r3, [r4, #12]
  10fd5c:	e3700001 	cmn	r0, #1
  10fd60:	15840050 	strne	r0, [r4, #80]	; 0x50
  10fd64:	03c33a01 	biceq	r3, r3, #4096	; 0x1000
  10fd68:	13833a01 	orrne	r3, r3, #4096	; 0x1000
  10fd6c:	e1c430bc 	strh	r3, [r4, #12]
  10fd70:	e8bd8010 	pop	{r4, pc}

0010fd74 <__sclose>:
  10fd74:	e1d110fe 	ldrsh	r1, [r1, #14]
  10fd78:	ea0005d6 	b	1114d8 <_close_r>
  10fd7c:	00000000 	andeq	r0, r0, r0
  10fd80:	eba2 0003 	sub.w	r0, r2, r3
  10fd84:	4770      	bx	lr
  10fd86:	bf00      	nop

0010fd88 <strcmp>:
  10fd88:	7802      	ldrb	r2, [r0, #0]
  10fd8a:	780b      	ldrb	r3, [r1, #0]
  10fd8c:	2a01      	cmp	r2, #1
  10fd8e:	bf28      	it	cs
  10fd90:	429a      	cmpcs	r2, r3
  10fd92:	d1f5      	bne.n	10fd80 <__sclose+0xc>
  10fd94:	e96d 4504 	strd	r4, r5, [sp, #-16]!
  10fd98:	ea40 0401 	orr.w	r4, r0, r1
  10fd9c:	e9cd 6702 	strd	r6, r7, [sp, #8]
  10fda0:	f06f 0c00 	mvn.w	ip, #0
  10fda4:	ea4f 7244 	mov.w	r2, r4, lsl #29
  10fda8:	b312      	cbz	r2, 10fdf0 <strcmp+0x68>
  10fdaa:	ea80 0401 	eor.w	r4, r0, r1
  10fdae:	f014 0f07 	tst.w	r4, #7
  10fdb2:	d16a      	bne.n	10fe8a <strcmp+0x102>
  10fdb4:	f000 0407 	and.w	r4, r0, #7
  10fdb8:	f020 0007 	bic.w	r0, r0, #7
  10fdbc:	f004 0503 	and.w	r5, r4, #3
  10fdc0:	f021 0107 	bic.w	r1, r1, #7
  10fdc4:	ea4f 05c5 	mov.w	r5, r5, lsl #3
  10fdc8:	e8f0 2304 	ldrd	r2, r3, [r0], #16
  10fdcc:	f014 0f04 	tst.w	r4, #4
  10fdd0:	e8f1 6704 	ldrd	r6, r7, [r1], #16
  10fdd4:	fa0c f405 	lsl.w	r4, ip, r5
  10fdd8:	ea62 0204 	orn	r2, r2, r4
  10fddc:	ea66 0604 	orn	r6, r6, r4
  10fde0:	d00a      	beq.n	10fdf8 <strcmp+0x70>
  10fde2:	ea63 0304 	orn	r3, r3, r4
  10fde6:	4662      	mov	r2, ip
  10fde8:	ea67 0704 	orn	r7, r7, r4
  10fdec:	4666      	mov	r6, ip
  10fdee:	e003      	b.n	10fdf8 <strcmp+0x70>
  10fdf0:	e8f0 2304 	ldrd	r2, r3, [r0], #16
  10fdf4:	e8f1 6704 	ldrd	r6, r7, [r1], #16
  10fdf8:	fa82 f54c 	uadd8	r5, r2, ip
  10fdfc:	ea82 0406 	eor.w	r4, r2, r6
  10fe00:	faa4 f48c 	sel	r4, r4, ip
  10fe04:	bb6c      	cbnz	r4, 10fe62 <strcmp+0xda>
  10fe06:	fa83 f54c 	uadd8	r5, r3, ip
  10fe0a:	ea83 0507 	eor.w	r5, r3, r7
  10fe0e:	faa5 f58c 	sel	r5, r5, ip
  10fe12:	b995      	cbnz	r5, 10fe3a <strcmp+0xb2>
  10fe14:	e950 2302 	ldrd	r2, r3, [r0, #-8]
  10fe18:	e951 6702 	ldrd	r6, r7, [r1, #-8]
  10fe1c:	fa82 f54c 	uadd8	r5, r2, ip
  10fe20:	ea82 0406 	eor.w	r4, r2, r6
  10fe24:	faa4 f48c 	sel	r4, r4, ip
  10fe28:	fa83 f54c 	uadd8	r5, r3, ip
  10fe2c:	ea83 0507 	eor.w	r5, r3, r7
  10fe30:	faa5 f58c 	sel	r5, r5, ip
  10fe34:	4325      	orrs	r5, r4
  10fe36:	d0db      	beq.n	10fdf0 <strcmp+0x68>
  10fe38:	b99c      	cbnz	r4, 10fe62 <strcmp+0xda>
  10fe3a:	ba2d      	rev	r5, r5
  10fe3c:	fab5 f485 	clz	r4, r5
  10fe40:	f024 0407 	bic.w	r4, r4, #7
  10fe44:	fa27 f104 	lsr.w	r1, r7, r4
  10fe48:	e9dd 6702 	ldrd	r6, r7, [sp, #8]
  10fe4c:	fa23 f304 	lsr.w	r3, r3, r4
  10fe50:	f003 00ff 	and.w	r0, r3, #255	; 0xff
  10fe54:	f001 01ff 	and.w	r1, r1, #255	; 0xff
  10fe58:	e8fd 4504 	ldrd	r4, r5, [sp], #16
  10fe5c:	eba0 0001 	sub.w	r0, r0, r1
  10fe60:	4770      	bx	lr
  10fe62:	ba24      	rev	r4, r4
  10fe64:	fab4 f484 	clz	r4, r4
  10fe68:	f024 0407 	bic.w	r4, r4, #7
  10fe6c:	fa26 f104 	lsr.w	r1, r6, r4
  10fe70:	e9dd 6702 	ldrd	r6, r7, [sp, #8]
  10fe74:	fa22 f204 	lsr.w	r2, r2, r4
  10fe78:	f002 00ff 	and.w	r0, r2, #255	; 0xff
  10fe7c:	f001 01ff 	and.w	r1, r1, #255	; 0xff
  10fe80:	e8fd 4504 	ldrd	r4, r5, [sp], #16
  10fe84:	eba0 0001 	sub.w	r0, r0, r1
  10fe88:	4770      	bx	lr
  10fe8a:	f014 0f03 	tst.w	r4, #3
  10fe8e:	d13c      	bne.n	10ff0a <strcmp+0x182>
  10fe90:	f010 0403 	ands.w	r4, r0, #3
  10fe94:	d128      	bne.n	10fee8 <strcmp+0x160>
  10fe96:	f850 2b08 	ldr.w	r2, [r0], #8
  10fe9a:	f851 3b08 	ldr.w	r3, [r1], #8
  10fe9e:	fa82 f54c 	uadd8	r5, r2, ip
  10fea2:	ea82 0503 	eor.w	r5, r2, r3
  10fea6:	faa5 f58c 	sel	r5, r5, ip
  10feaa:	b95d      	cbnz	r5, 10fec4 <strcmp+0x13c>
  10feac:	f850 2c04 	ldr.w	r2, [r0, #-4]
  10feb0:	f851 3c04 	ldr.w	r3, [r1, #-4]
  10feb4:	fa82 f54c 	uadd8	r5, r2, ip
  10feb8:	ea82 0503 	eor.w	r5, r2, r3
  10febc:	faa5 f58c 	sel	r5, r5, ip
  10fec0:	2d00      	cmp	r5, #0
  10fec2:	d0e8      	beq.n	10fe96 <strcmp+0x10e>
  10fec4:	ba2d      	rev	r5, r5
  10fec6:	fab5 f485 	clz	r4, r5
  10feca:	f024 0407 	bic.w	r4, r4, #7
  10fece:	fa23 f104 	lsr.w	r1, r3, r4
  10fed2:	fa22 f204 	lsr.w	r2, r2, r4
  10fed6:	f002 00ff 	and.w	r0, r2, #255	; 0xff
  10feda:	f001 01ff 	and.w	r1, r1, #255	; 0xff
  10fede:	e8fd 4504 	ldrd	r4, r5, [sp], #16
  10fee2:	eba0 0001 	sub.w	r0, r0, r1
  10fee6:	4770      	bx	lr
  10fee8:	ea4f 04c4 	mov.w	r4, r4, lsl #3
  10feec:	f020 0003 	bic.w	r0, r0, #3
  10fef0:	f850 2b08 	ldr.w	r2, [r0], #8
  10fef4:	f021 0103 	bic.w	r1, r1, #3
  10fef8:	f851 3b08 	ldr.w	r3, [r1], #8
  10fefc:	fa0c f404 	lsl.w	r4, ip, r4
  10ff00:	ea62 0204 	orn	r2, r2, r4
  10ff04:	ea63 0304 	orn	r3, r3, r4
  10ff08:	e7c9      	b.n	10fe9e <strcmp+0x116>
  10ff0a:	f010 0403 	ands.w	r4, r0, #3
  10ff0e:	d01a      	beq.n	10ff46 <strcmp+0x1be>
  10ff10:	eba1 0104 	sub.w	r1, r1, r4
  10ff14:	f020 0003 	bic.w	r0, r0, #3
  10ff18:	07e4      	lsls	r4, r4, #31
  10ff1a:	f850 2b04 	ldr.w	r2, [r0], #4
  10ff1e:	d006      	beq.n	10ff2e <strcmp+0x1a6>
  10ff20:	d20f      	bcs.n	10ff42 <strcmp+0x1ba>
  10ff22:	788b      	ldrb	r3, [r1, #2]
  10ff24:	fa5f f4a2 	uxtb.w	r4, r2, ror #16
  10ff28:	1ae4      	subs	r4, r4, r3
  10ff2a:	d106      	bne.n	10ff3a <strcmp+0x1b2>
  10ff2c:	b12b      	cbz	r3, 10ff3a <strcmp+0x1b2>
  10ff2e:	78cb      	ldrb	r3, [r1, #3]
  10ff30:	fa5f f4b2 	uxtb.w	r4, r2, ror #24
  10ff34:	1ae4      	subs	r4, r4, r3
  10ff36:	d100      	bne.n	10ff3a <strcmp+0x1b2>
  10ff38:	b91b      	cbnz	r3, 10ff42 <strcmp+0x1ba>
  10ff3a:	4620      	mov	r0, r4
  10ff3c:	f85d 4b10 	ldr.w	r4, [sp], #16
  10ff40:	4770      	bx	lr
  10ff42:	f101 0104 	add.w	r1, r1, #4
  10ff46:	f850 2b04 	ldr.w	r2, [r0], #4
  10ff4a:	07cc      	lsls	r4, r1, #31
  10ff4c:	f021 0103 	bic.w	r1, r1, #3
  10ff50:	f851 3b04 	ldr.w	r3, [r1], #4
  10ff54:	d848      	bhi.n	10ffe8 <strcmp+0x260>
  10ff56:	d224      	bcs.n	10ffa2 <strcmp+0x21a>
  10ff58:	f022 447f 	bic.w	r4, r2, #4278190080	; 0xff000000
  10ff5c:	fa82 f54c 	uadd8	r5, r2, ip
  10ff60:	ea94 2513 	eors.w	r5, r4, r3, lsr #8
  10ff64:	faa5 f58c 	sel	r5, r5, ip
  10ff68:	d10a      	bne.n	10ff80 <strcmp+0x1f8>
  10ff6a:	b965      	cbnz	r5, 10ff86 <strcmp+0x1fe>
  10ff6c:	f851 3b04 	ldr.w	r3, [r1], #4
  10ff70:	ea84 0402 	eor.w	r4, r4, r2
  10ff74:	ebb4 6f03 	cmp.w	r4, r3, lsl #24
  10ff78:	d10e      	bne.n	10ff98 <strcmp+0x210>
  10ff7a:	f850 2b04 	ldr.w	r2, [r0], #4
  10ff7e:	e7eb      	b.n	10ff58 <strcmp+0x1d0>
  10ff80:	ea4f 2313 	mov.w	r3, r3, lsr #8
  10ff84:	e055      	b.n	110032 <strcmp+0x2aa>
  10ff86:	f035 457f 	bics.w	r5, r5, #4278190080	; 0xff000000
  10ff8a:	d14d      	bne.n	110028 <strcmp+0x2a0>
  10ff8c:	7808      	ldrb	r0, [r1, #0]
  10ff8e:	e8fd 4504 	ldrd	r4, r5, [sp], #16
  10ff92:	f1c0 0000 	rsb	r0, r0, #0
  10ff96:	4770      	bx	lr
  10ff98:	ea4f 6212 	mov.w	r2, r2, lsr #24
  10ff9c:	f003 03ff 	and.w	r3, r3, #255	; 0xff
  10ffa0:	e047      	b.n	110032 <strcmp+0x2aa>
  10ffa2:	ea02 441c 	and.w	r4, r2, ip, lsr #16
  10ffa6:	fa82 f54c 	uadd8	r5, r2, ip
  10ffaa:	ea94 4513 	eors.w	r5, r4, r3, lsr #16
  10ffae:	faa5 f58c 	sel	r5, r5, ip
  10ffb2:	d10a      	bne.n	10ffca <strcmp+0x242>
  10ffb4:	b965      	cbnz	r5, 10ffd0 <strcmp+0x248>
  10ffb6:	f851 3b04 	ldr.w	r3, [r1], #4
  10ffba:	ea84 0402 	eor.w	r4, r4, r2
  10ffbe:	ebb4 4f03 	cmp.w	r4, r3, lsl #16
  10ffc2:	d10c      	bne.n	10ffde <strcmp+0x256>
  10ffc4:	f850 2b04 	ldr.w	r2, [r0], #4
  10ffc8:	e7eb      	b.n	10ffa2 <strcmp+0x21a>
  10ffca:	ea4f 4313 	mov.w	r3, r3, lsr #16
  10ffce:	e030      	b.n	110032 <strcmp+0x2aa>
  10ffd0:	ea15 451c 	ands.w	r5, r5, ip, lsr #16
  10ffd4:	d128      	bne.n	110028 <strcmp+0x2a0>
  10ffd6:	880b      	ldrh	r3, [r1, #0]
  10ffd8:	ea4f 4212 	mov.w	r2, r2, lsr #16
  10ffdc:	e029      	b.n	110032 <strcmp+0x2aa>
  10ffde:	ea4f 4212 	mov.w	r2, r2, lsr #16
  10ffe2:	ea03 431c 	and.w	r3, r3, ip, lsr #16
  10ffe6:	e024      	b.n	110032 <strcmp+0x2aa>
  10ffe8:	f002 04ff 	and.w	r4, r2, #255	; 0xff
  10ffec:	fa82 f54c 	uadd8	r5, r2, ip
  10fff0:	ea94 6513 	eors.w	r5, r4, r3, lsr #24
  10fff4:	faa5 f58c 	sel	r5, r5, ip
  10fff8:	d10a      	bne.n	110010 <strcmp+0x288>
  10fffa:	b965      	cbnz	r5, 110016 <strcmp+0x28e>
  10fffc:	f851 3b04 	ldr.w	r3, [r1], #4
  110000:	ea84 0402 	eor.w	r4, r4, r2
  110004:	ebb4 2f03 	cmp.w	r4, r3, lsl #8
  110008:	d109      	bne.n	11001e <strcmp+0x296>
  11000a:	f850 2b04 	ldr.w	r2, [r0], #4
  11000e:	e7eb      	b.n	10ffe8 <strcmp+0x260>
  110010:	ea4f 6313 	mov.w	r3, r3, lsr #24
  110014:	e00d      	b.n	110032 <strcmp+0x2aa>
  110016:	f015 0fff 	tst.w	r5, #255	; 0xff
  11001a:	d105      	bne.n	110028 <strcmp+0x2a0>
  11001c:	680b      	ldr	r3, [r1, #0]
  11001e:	ea4f 2212 	mov.w	r2, r2, lsr #8
  110022:	f023 437f 	bic.w	r3, r3, #4278190080	; 0xff000000
  110026:	e004      	b.n	110032 <strcmp+0x2aa>
  110028:	f04f 0000 	mov.w	r0, #0
  11002c:	e8fd 4504 	ldrd	r4, r5, [sp], #16
  110030:	4770      	bx	lr
  110032:	ba12      	rev	r2, r2
  110034:	ba1b      	rev	r3, r3
  110036:	fa82 f44c 	uadd8	r4, r2, ip
  11003a:	ea82 0403 	eor.w	r4, r2, r3
  11003e:	faa4 f58c 	sel	r5, r4, ip
  110042:	fab5 f485 	clz	r4, r5
  110046:	fa02 f204 	lsl.w	r2, r2, r4
  11004a:	fa03 f304 	lsl.w	r3, r3, r4
  11004e:	ea4f 6012 	mov.w	r0, r2, lsr #24
  110052:	e8fd 4504 	ldrd	r4, r5, [sp], #16
  110056:	eba0 6013 	sub.w	r0, r0, r3, lsr #24
  11005a:	4770      	bx	lr
  11005c:	f3af 8000 	nop.w

00110060 <__sprint_r.part.0>:
  110060:	e5913064 	ldr	r3, [r1, #100]	; 0x64
  110064:	e92d47f0 	push	{r4, r5, r6, r7, r8, r9, sl, lr}
  110068:	e1a07001 	mov	r7, r1
  11006c:	e1a0a002 	mov	sl, r2
  110070:	e3130a02 	tst	r3, #8192	; 0x2000
  110074:	0a000020 	beq	1100fc <__sprint_r.part.0+0x9c>
  110078:	e5923008 	ldr	r3, [r2, #8]
  11007c:	e5929000 	ldr	r9, [r2]
  110080:	e3530000 	cmp	r3, #0
  110084:	11a08000 	movne	r8, r0
  110088:	12899008 	addne	r9, r9, #8
  11008c:	0a000018 	beq	1100f4 <__sprint_r.part.0+0x94>
  110090:	e9190060 	ldmdb	r9, {r5, r6}
  110094:	e1b06126 	lsrs	r6, r6, #2
  110098:	12455004 	subne	r5, r5, #4
  11009c:	13a04000 	movne	r4, #0
  1100a0:	1a000002 	bne	1100b0 <__sprint_r.part.0+0x50>
  1100a4:	ea00000c 	b	1100dc <__sprint_r.part.0+0x7c>
  1100a8:	e1560004 	cmp	r6, r4
  1100ac:	0a00000a 	beq	1100dc <__sprint_r.part.0+0x7c>
  1100b0:	e1a00008 	mov	r0, r8
  1100b4:	e5b51004 	ldr	r1, [r5, #4]!
  1100b8:	e1a02007 	mov	r2, r7
  1100bc:	e2844001 	add	r4, r4, #1
  1100c0:	eb000554 	bl	111618 <_fputwc_r>
  1100c4:	e3700001 	cmn	r0, #1
  1100c8:	1afffff6 	bne	1100a8 <__sprint_r.part.0+0x48>
  1100cc:	e3a03000 	mov	r3, #0
  1100d0:	e58a3008 	str	r3, [sl, #8]
  1100d4:	e58a3004 	str	r3, [sl, #4]
  1100d8:	e8bd87f0 	pop	{r4, r5, r6, r7, r8, r9, sl, pc}
  1100dc:	e59a3008 	ldr	r3, [sl, #8]
  1100e0:	e2899008 	add	r9, r9, #8
  1100e4:	e0436106 	sub	r6, r3, r6, lsl #2
  1100e8:	e3560000 	cmp	r6, #0
  1100ec:	e58a6008 	str	r6, [sl, #8]
  1100f0:	1affffe6 	bne	110090 <__sprint_r.part.0+0x30>
  1100f4:	e3a00000 	mov	r0, #0
  1100f8:	eafffff3 	b	1100cc <__sprint_r.part.0+0x6c>
  1100fc:	ebfff464 	bl	10d294 <__sfvwrite_r>
  110100:	eafffff1 	b	1100cc <__sprint_r.part.0+0x6c>

00110104 <__sprint_r>:
  110104:	e5923008 	ldr	r3, [r2, #8]
  110108:	e3530000 	cmp	r3, #0
  11010c:	0a000000 	beq	110114 <__sprint_r+0x10>
  110110:	eaffffd2 	b	110060 <__sprint_r.part.0>
  110114:	e5823004 	str	r3, [r2, #4]
  110118:	e1a00003 	mov	r0, r3
  11011c:	e12fff1e 	bx	lr

00110120 <_vfiprintf_r>:
  110120:	e250c000 	subs	ip, r0, #0
  110124:	e92d4ff0 	push	{r4, r5, r6, r7, r8, r9, sl, fp, lr}
  110128:	e24dd0b4 	sub	sp, sp, #180	; 0xb4
  11012c:	e1a04003 	mov	r4, r3
  110130:	e1a07002 	mov	r7, r2
  110134:	e58dc00c 	str	ip, [sp, #12]
  110138:	e58d1004 	str	r1, [sp, #4]
  11013c:	e58d301c 	str	r3, [sp, #28]
  110140:	0a000002 	beq	110150 <_vfiprintf_r+0x30>
  110144:	e59c3038 	ldr	r3, [ip, #56]	; 0x38
  110148:	e3530000 	cmp	r3, #0
  11014c:	0a0000bb 	beq	110440 <_vfiprintf_r+0x320>
  110150:	e59d3004 	ldr	r3, [sp, #4]
  110154:	e1d310bc 	ldrh	r1, [r3, #12]
  110158:	e6ff2071 	uxth	r2, r1
  11015c:	e3120a02 	tst	r2, #8192	; 0x2000
  110160:	1a000006 	bne	110180 <_vfiprintf_r+0x60>
  110164:	e1a00003 	mov	r0, r3
  110168:	e3811a02 	orr	r1, r1, #8192	; 0x2000
  11016c:	e5933064 	ldr	r3, [r3, #100]	; 0x64
  110170:	e6ff2071 	uxth	r2, r1
  110174:	e1c010bc 	strh	r1, [r0, #12]
  110178:	e3c33a02 	bic	r3, r3, #8192	; 0x2000
  11017c:	e5803064 	str	r3, [r0, #100]	; 0x64
  110180:	e3120008 	tst	r2, #8
  110184:	0a000095 	beq	1103e0 <_vfiprintf_r+0x2c0>
  110188:	e59d3004 	ldr	r3, [sp, #4]
  11018c:	e5933010 	ldr	r3, [r3, #16]
  110190:	e3530000 	cmp	r3, #0
  110194:	0a000091 	beq	1103e0 <_vfiprintf_r+0x2c0>
  110198:	e202201a 	and	r2, r2, #26
  11019c:	e352000a 	cmp	r2, #10
  1101a0:	0a000098 	beq	110408 <_vfiprintf_r+0x2e8>
  1101a4:	e28db070 	add	fp, sp, #112	; 0x70
  1101a8:	e1a08007 	mov	r8, r7
  1101ac:	e1a0a00b 	mov	sl, fp
  1101b0:	e3a03000 	mov	r3, #0
  1101b4:	e58d3028 	str	r3, [sp, #40]	; 0x28
  1101b8:	e58d3010 	str	r3, [sp, #16]
  1101bc:	e58d3044 	str	r3, [sp, #68]	; 0x44
  1101c0:	e58d3040 	str	r3, [sp, #64]	; 0x40
  1101c4:	e58db03c 	str	fp, [sp, #60]	; 0x3c
  1101c8:	e5d83000 	ldrb	r3, [r8]
  1101cc:	e1a04008 	mov	r4, r8
  1101d0:	e3530025 	cmp	r3, #37	; 0x25
  1101d4:	13530000 	cmpne	r3, #0
  1101d8:	0a000013 	beq	11022c <_vfiprintf_r+0x10c>
  1101dc:	e5f43001 	ldrb	r3, [r4, #1]!
  1101e0:	e3530025 	cmp	r3, #37	; 0x25
  1101e4:	13530000 	cmpne	r3, #0
  1101e8:	1afffffb 	bne	1101dc <_vfiprintf_r+0xbc>
  1101ec:	e0545008 	subs	r5, r4, r8
  1101f0:	0a00000d 	beq	11022c <_vfiprintf_r+0x10c>
  1101f4:	e59d3040 	ldr	r3, [sp, #64]	; 0x40
  1101f8:	e59d2044 	ldr	r2, [sp, #68]	; 0x44
  1101fc:	e58a8000 	str	r8, [sl]
  110200:	e2833001 	add	r3, r3, #1
  110204:	e58a5004 	str	r5, [sl, #4]
  110208:	e3530007 	cmp	r3, #7
  11020c:	e0852002 	add	r2, r5, r2
  110210:	e58d3040 	str	r3, [sp, #64]	; 0x40
  110214:	d28aa008 	addle	sl, sl, #8
  110218:	e58d2044 	str	r2, [sp, #68]	; 0x44
  11021c:	ca00006a 	bgt	1103cc <_vfiprintf_r+0x2ac>
  110220:	e59d3010 	ldr	r3, [sp, #16]
  110224:	e0833005 	add	r3, r3, r5
  110228:	e58d3010 	str	r3, [sp, #16]
  11022c:	e5d43000 	ldrb	r3, [r4]
  110230:	e3530000 	cmp	r3, #0
  110234:	0a0003fc 	beq	11122c <_vfiprintf_r+0x110c>
  110238:	e5d43001 	ldrb	r3, [r4, #1]
  11023c:	e3a01000 	mov	r1, #0
  110240:	e1a02001 	mov	r2, r1
  110244:	e1a09001 	mov	r9, r1
  110248:	e2840001 	add	r0, r4, #1
  11024c:	e5cd1037 	strb	r1, [sp, #55]	; 0x37
  110250:	e3e05000 	mvn	r5, #0
  110254:	e2808001 	add	r8, r0, #1
  110258:	e2430020 	sub	r0, r3, #32
  11025c:	e3500058 	cmp	r0, #88	; 0x58
  110260:	979ff100 	ldrls	pc, [pc, r0, lsl #2]
  110264:	ea0001f8 	b	110a4c <_vfiprintf_r+0x92c>
  110268:	0011086c 	.word	0x0011086c
  11026c:	00110a4c 	.word	0x00110a4c
  110270:	00110a4c 	.word	0x00110a4c
  110274:	00110880 	.word	0x00110880
  110278:	00110a4c 	.word	0x00110a4c
  11027c:	00110a4c 	.word	0x00110a4c
  110280:	00110a4c 	.word	0x00110a4c
  110284:	00110a4c 	.word	0x00110a4c
  110288:	00110a4c 	.word	0x00110a4c
  11028c:	00110a4c 	.word	0x00110a4c
  110290:	00110890 	.word	0x00110890
  110294:	001108b4 	.word	0x001108b4
  110298:	00110a4c 	.word	0x00110a4c
  11029c:	00110638 	.word	0x00110638
  1102a0:	001106dc 	.word	0x001106dc
  1102a4:	00110a4c 	.word	0x00110a4c
  1102a8:	00110914 	.word	0x00110914
  1102ac:	00110924 	.word	0x00110924
  1102b0:	00110924 	.word	0x00110924
  1102b4:	00110924 	.word	0x00110924
  1102b8:	00110924 	.word	0x00110924
  1102bc:	00110924 	.word	0x00110924
  1102c0:	00110924 	.word	0x00110924
  1102c4:	00110924 	.word	0x00110924
  1102c8:	00110924 	.word	0x00110924
  1102cc:	00110924 	.word	0x00110924
  1102d0:	00110a4c 	.word	0x00110a4c
  1102d4:	00110a4c 	.word	0x00110a4c
  1102d8:	00110a4c 	.word	0x00110a4c
  1102dc:	00110a4c 	.word	0x00110a4c
  1102e0:	00110a4c 	.word	0x00110a4c
  1102e4:	00110a4c 	.word	0x00110a4c
  1102e8:	00110a4c 	.word	0x00110a4c
  1102ec:	00110a4c 	.word	0x00110a4c
  1102f0:	00110a4c 	.word	0x00110a4c
  1102f4:	00110a4c 	.word	0x00110a4c
  1102f8:	0011094c 	.word	0x0011094c
  1102fc:	00110a4c 	.word	0x00110a4c
  110300:	00110a4c 	.word	0x00110a4c
  110304:	00110a4c 	.word	0x00110a4c
  110308:	00110a4c 	.word	0x00110a4c
  11030c:	00110a4c 	.word	0x00110a4c
  110310:	00110a4c 	.word	0x00110a4c
  110314:	00110a4c 	.word	0x00110a4c
  110318:	00110a4c 	.word	0x00110a4c
  11031c:	00110a4c 	.word	0x00110a4c
  110320:	00110a4c 	.word	0x00110a4c
  110324:	00110990 	.word	0x00110990
  110328:	00110a4c 	.word	0x00110a4c
  11032c:	00110a4c 	.word	0x00110a4c
  110330:	00110a4c 	.word	0x00110a4c
  110334:	00110a4c 	.word	0x00110a4c
  110338:	00110a4c 	.word	0x00110a4c
  11033c:	001109cc 	.word	0x001109cc
  110340:	00110a4c 	.word	0x00110a4c
  110344:	00110a4c 	.word	0x00110a4c
  110348:	00110a08 	.word	0x00110a08
  11034c:	00110a4c 	.word	0x00110a4c
  110350:	00110a4c 	.word	0x00110a4c
  110354:	00110a4c 	.word	0x00110a4c
  110358:	00110a4c 	.word	0x00110a4c
  11035c:	00110a4c 	.word	0x00110a4c
  110360:	00110a4c 	.word	0x00110a4c
  110364:	00110a4c 	.word	0x00110a4c
  110368:	00110a4c 	.word	0x00110a4c
  11036c:	00110a4c 	.word	0x00110a4c
  110370:	00110a4c 	.word	0x00110a4c
  110374:	001107e0 	.word	0x001107e0
  110378:	00110820 	.word	0x00110820
  11037c:	00110a4c 	.word	0x00110a4c
  110380:	00110a4c 	.word	0x00110a4c
  110384:	00110a4c 	.word	0x00110a4c
  110388:	001107d0 	.word	0x001107d0
  11038c:	00110820 	.word	0x00110820
  110390:	00110a4c 	.word	0x00110a4c
  110394:	00110a4c 	.word	0x00110a4c
  110398:	00110780 	.word	0x00110780
  11039c:	00110a4c 	.word	0x00110a4c
  1103a0:	001107a0 	.word	0x001107a0
  1103a4:	00110648 	.word	0x00110648
  1103a8:	001108c4 	.word	0x001108c4
  1103ac:	00110904 	.word	0x00110904
  1103b0:	00110a4c 	.word	0x00110a4c
  1103b4:	00110674 	.word	0x00110674
  1103b8:	00110a4c 	.word	0x00110a4c
  1103bc:	00110448 	.word	0x00110448
  1103c0:	00110a4c 	.word	0x00110a4c
  1103c4:	00110a4c 	.word	0x00110a4c
  1103c8:	00110724 	.word	0x00110724
  1103cc:	e3520000 	cmp	r2, #0
  1103d0:	1a000327 	bne	111074 <_vfiprintf_r+0xf54>
  1103d4:	e58d2040 	str	r2, [sp, #64]	; 0x40
  1103d8:	e1a0a00b 	mov	sl, fp
  1103dc:	eaffff8f 	b	110220 <_vfiprintf_r+0x100>
  1103e0:	e59d000c 	ldr	r0, [sp, #12]
  1103e4:	e59d1004 	ldr	r1, [sp, #4]
  1103e8:	ebffebd4 	bl	10b340 <__swsetup_r>
  1103ec:	e3500000 	cmp	r0, #0
  1103f0:	1a00000f 	bne	110434 <_vfiprintf_r+0x314>
  1103f4:	e59d3004 	ldr	r3, [sp, #4]
  1103f8:	e1d320bc 	ldrh	r2, [r3, #12]
  1103fc:	e202201a 	and	r2, r2, #26
  110400:	e352000a 	cmp	r2, #10
  110404:	1affff66 	bne	1101a4 <_vfiprintf_r+0x84>
  110408:	e59d3004 	ldr	r3, [sp, #4]
  11040c:	e1d330fe 	ldrsh	r3, [r3, #14]
  110410:	e3530000 	cmp	r3, #0
  110414:	baffff62 	blt	1101a4 <_vfiprintf_r+0x84>
  110418:	e59d000c 	ldr	r0, [sp, #12]
  11041c:	e1a02007 	mov	r2, r7
  110420:	e59d1004 	ldr	r1, [sp, #4]
  110424:	e1a03004 	mov	r3, r4
  110428:	eb0003cb 	bl	11135c <__sbprintf>
  11042c:	e28dd0b4 	add	sp, sp, #180	; 0xb4
  110430:	e8bd8ff0 	pop	{r4, r5, r6, r7, r8, r9, sl, fp, pc}
  110434:	e3e00000 	mvn	r0, #0
  110438:	e28dd0b4 	add	sp, sp, #180	; 0xb4
  11043c:	e8bd8ff0 	pop	{r4, r5, r6, r7, r8, r9, sl, fp, pc}
  110440:	ebfff294 	bl	10ce98 <__sinit>
  110444:	eaffff41 	b	110150 <_vfiprintf_r+0x30>
  110448:	e3190020 	tst	r9, #32
  11044c:	e58d2018 	str	r2, [sp, #24]
  110450:	e59d301c 	ldr	r3, [sp, #28]
  110454:	0a000161 	beq	1109e0 <_vfiprintf_r+0x8c0>
  110458:	e2836007 	add	r6, r3, #7
  11045c:	e3a02001 	mov	r2, #1
  110460:	e3c63007 	bic	r3, r6, #7
  110464:	e1c360d0 	ldrd	r6, [r3]
  110468:	e2831008 	add	r1, r3, #8
  11046c:	e58d101c 	str	r1, [sp, #28]
  110470:	e3a04000 	mov	r4, #0
  110474:	e58d5014 	str	r5, [sp, #20]
  110478:	e5cd4037 	strb	r4, [sp, #55]	; 0x37
  11047c:	e3550000 	cmp	r5, #0
  110480:	a3c99080 	bicge	r9, r9, #128	; 0x80
  110484:	e1963007 	orrs	r3, r6, r7
  110488:	13a03001 	movne	r3, #1
  11048c:	03a03000 	moveq	r3, #0
  110490:	e3550000 	cmp	r5, #0
  110494:	01a05003 	moveq	r5, r3
  110498:	13835001 	orrne	r5, r3, #1
  11049c:	e3550000 	cmp	r5, #0
  1104a0:	0a000250 	beq	110de8 <_vfiprintf_r+0xcc8>
  1104a4:	e3520001 	cmp	r2, #1
  1104a8:	0a0002c7 	beq	110fcc <_vfiprintf_r+0xeac>
  1104ac:	e3520002 	cmp	r2, #2
  1104b0:	1a0002a4 	bne	110f48 <_vfiprintf_r+0xe28>
  1104b4:	e59d1028 	ldr	r1, [sp, #40]	; 0x28
  1104b8:	e1a0300b 	mov	r3, fp
  1104bc:	e206200f 	and	r2, r6, #15
  1104c0:	e1a06226 	lsr	r6, r6, #4
  1104c4:	e7d12002 	ldrb	r2, [r1, r2]
  1104c8:	e1866e07 	orr	r6, r6, r7, lsl #28
  1104cc:	e1a07227 	lsr	r7, r7, #4
  1104d0:	e1960007 	orrs	r0, r6, r7
  1104d4:	e5632001 	strb	r2, [r3, #-1]!
  1104d8:	1afffff7 	bne	1104bc <_vfiprintf_r+0x39c>
  1104dc:	e58d3024 	str	r3, [sp, #36]	; 0x24
  1104e0:	e063500b 	rsb	r5, r3, fp
  1104e4:	e59d3014 	ldr	r3, [sp, #20]
  1104e8:	e1550003 	cmp	r5, r3
  1104ec:	a1a03005 	movge	r3, r5
  1104f0:	e3540000 	cmp	r4, #0
  1104f4:	e58d3008 	str	r3, [sp, #8]
  1104f8:	12833001 	addne	r3, r3, #1
  1104fc:	158d3008 	strne	r3, [sp, #8]
  110500:	e2193002 	ands	r3, r9, #2
  110504:	159d2008 	ldrne	r2, [sp, #8]
  110508:	12822002 	addne	r2, r2, #2
  11050c:	158d2008 	strne	r2, [sp, #8]
  110510:	e2192084 	ands	r2, r9, #132	; 0x84
  110514:	e58d2020 	str	r2, [sp, #32]
  110518:	1a000158 	bne	110a80 <_vfiprintf_r+0x960>
  11051c:	e59d2018 	ldr	r2, [sp, #24]
  110520:	e59d1008 	ldr	r1, [sp, #8]
  110524:	e0614002 	rsb	r4, r1, r2
  110528:	e3540000 	cmp	r4, #0
  11052c:	da000153 	ble	110a80 <_vfiprintf_r+0x960>
  110530:	e3540010 	cmp	r4, #16
  110534:	da00035b 	ble	1112a8 <_vfiprintf_r+0x1188>
  110538:	e3026a78 	movw	r6, #10872	; 0x2a78
  11053c:	e58d502c 	str	r5, [sp, #44]	; 0x2c
  110540:	e3406011 	movt	r6, #17
  110544:	e59d2044 	ldr	r2, [sp, #68]	; 0x44
  110548:	e1a05006 	mov	r5, r6
  11054c:	e59dc040 	ldr	ip, [sp, #64]	; 0x40
  110550:	e3a07010 	mov	r7, #16
  110554:	e1a06003 	mov	r6, r3
  110558:	ea000002 	b	110568 <_vfiprintf_r+0x448>
  11055c:	e2444010 	sub	r4, r4, #16
  110560:	e3540010 	cmp	r4, #16
  110564:	da00001b 	ble	1105d8 <_vfiprintf_r+0x4b8>
  110568:	e28c0001 	add	r0, ip, #1
  11056c:	e2822010 	add	r2, r2, #16
  110570:	e3500007 	cmp	r0, #7
  110574:	e58a5000 	str	r5, [sl]
  110578:	e28c1002 	add	r1, ip, #2
  11057c:	e58a7004 	str	r7, [sl, #4]
  110580:	e58d2044 	str	r2, [sp, #68]	; 0x44
  110584:	e1a0c000 	mov	ip, r0
  110588:	e58d0040 	str	r0, [sp, #64]	; 0x40
  11058c:	d28aa008 	addle	sl, sl, #8
  110590:	dafffff1 	ble	11055c <_vfiprintf_r+0x43c>
  110594:	e3520000 	cmp	r2, #0
  110598:	e1a0c002 	mov	ip, r2
  11059c:	e3a01001 	mov	r1, #1
  1105a0:	e1a0a00b 	mov	sl, fp
  1105a4:	0affffec 	beq	11055c <_vfiprintf_r+0x43c>
  1105a8:	e59d000c 	ldr	r0, [sp, #12]
  1105ac:	e28d203c 	add	r2, sp, #60	; 0x3c
  1105b0:	e59d1004 	ldr	r1, [sp, #4]
  1105b4:	ebfffea9 	bl	110060 <__sprint_r.part.0>
  1105b8:	e3500000 	cmp	r0, #0
  1105bc:	1a0001e1 	bne	110d48 <_vfiprintf_r+0xc28>
  1105c0:	e59dc040 	ldr	ip, [sp, #64]	; 0x40
  1105c4:	e2444010 	sub	r4, r4, #16
  1105c8:	e3540010 	cmp	r4, #16
  1105cc:	e59d2044 	ldr	r2, [sp, #68]	; 0x44
  1105d0:	e28c1001 	add	r1, ip, #1
  1105d4:	caffffe3 	bgt	110568 <_vfiprintf_r+0x448>
  1105d8:	e1a03006 	mov	r3, r6
  1105dc:	e1a06005 	mov	r6, r5
  1105e0:	e59d502c 	ldr	r5, [sp, #44]	; 0x2c
  1105e4:	e3510007 	cmp	r1, #7
  1105e8:	e0842002 	add	r2, r4, r2
  1105ec:	e58a6000 	str	r6, [sl]
  1105f0:	d2810001 	addle	r0, r1, #1
  1105f4:	e58a4004 	str	r4, [sl, #4]
  1105f8:	d28aa008 	addle	sl, sl, #8
  1105fc:	e58d2044 	str	r2, [sp, #68]	; 0x44
  110600:	e58d1040 	str	r1, [sp, #64]	; 0x40
  110604:	da000120 	ble	110a8c <_vfiprintf_r+0x96c>
  110608:	e3520000 	cmp	r2, #0
  11060c:	1a0002f9 	bne	1111f8 <_vfiprintf_r+0x10d8>
  110610:	e5dd1037 	ldrb	r1, [sp, #55]	; 0x37
  110614:	e3510000 	cmp	r1, #0
  110618:	0a0002d9 	beq	111184 <_vfiprintf_r+0x1064>
  11061c:	e3a02001 	mov	r2, #1
  110620:	e28d1037 	add	r1, sp, #55	; 0x37
  110624:	e1a00002 	mov	r0, r2
  110628:	e58d2074 	str	r2, [sp, #116]	; 0x74
  11062c:	e58d1070 	str	r1, [sp, #112]	; 0x70
  110630:	e1a0a00b 	mov	sl, fp
  110634:	ea000120 	b	110abc <_vfiprintf_r+0x99c>
  110638:	e1a00008 	mov	r0, r8
  11063c:	e3899004 	orr	r9, r9, #4
  110640:	e5d83000 	ldrb	r3, [r8]
  110644:	eaffff02 	b	110254 <_vfiprintf_r+0x134>
  110648:	e58d2018 	str	r2, [sp, #24]
  11064c:	e2192020 	ands	r2, r9, #32
  110650:	0a0000d2 	beq	1109a0 <_vfiprintf_r+0x880>
  110654:	e59d301c 	ldr	r3, [sp, #28]
  110658:	e3a02000 	mov	r2, #0
  11065c:	e2836007 	add	r6, r3, #7
  110660:	e3c63007 	bic	r3, r6, #7
  110664:	e2831008 	add	r1, r3, #8
  110668:	e1c360d0 	ldrd	r6, [r3]
  11066c:	e58d101c 	str	r1, [sp, #28]
  110670:	eaffff7e 	b	110470 <_vfiprintf_r+0x350>
  110674:	e59d301c 	ldr	r3, [sp, #28]
  110678:	e58d2018 	str	r2, [sp, #24]
  11067c:	e5932000 	ldr	r2, [r3]
  110680:	e2836004 	add	r6, r3, #4
  110684:	e3a03000 	mov	r3, #0
  110688:	e5cd3037 	strb	r3, [sp, #55]	; 0x37
  11068c:	e1520003 	cmp	r2, r3
  110690:	e58d2024 	str	r2, [sp, #36]	; 0x24
  110694:	0a000309 	beq	1112c0 <_vfiprintf_r+0x11a0>
  110698:	e3550000 	cmp	r5, #0
  11069c:	ba0002ee 	blt	11125c <_vfiprintf_r+0x113c>
  1106a0:	e59d4024 	ldr	r4, [sp, #36]	; 0x24
  1106a4:	e3a01000 	mov	r1, #0
  1106a8:	e1a02005 	mov	r2, r5
  1106ac:	e1a00004 	mov	r0, r4
  1106b0:	fafff6ce 	blx	10e1f0 <memchr>
  1106b4:	e3500000 	cmp	r0, #0
  1106b8:	0a000310 	beq	111300 <_vfiprintf_r+0x11e0>
  1106bc:	e0643000 	rsb	r3, r4, r0
  1106c0:	e58d601c 	str	r6, [sp, #28]
  1106c4:	e1530005 	cmp	r3, r5
  1106c8:	e5dd4037 	ldrb	r4, [sp, #55]	; 0x37
  1106cc:	b1a05003 	movlt	r5, r3
  1106d0:	e3a03000 	mov	r3, #0
  1106d4:	e58d3014 	str	r3, [sp, #20]
  1106d8:	eaffff81 	b	1104e4 <_vfiprintf_r+0x3c4>
  1106dc:	e5d83000 	ldrb	r3, [r8]
  1106e0:	e2880001 	add	r0, r8, #1
  1106e4:	e353002a 	cmp	r3, #42	; 0x2a
  1106e8:	0a000308 	beq	111310 <_vfiprintf_r+0x11f0>
  1106ec:	e243c030 	sub	ip, r3, #48	; 0x30
  1106f0:	e1a08000 	mov	r8, r0
  1106f4:	e35c0009 	cmp	ip, #9
  1106f8:	e3a05000 	mov	r5, #0
  1106fc:	8afffed5 	bhi	110258 <_vfiprintf_r+0x138>
  110700:	e1a00185 	lsl	r0, r5, #3
  110704:	e4d83001 	ldrb	r3, [r8], #1
  110708:	e0805085 	add	r5, r0, r5, lsl #1
  11070c:	e08c5005 	add	r5, ip, r5
  110710:	e243c030 	sub	ip, r3, #48	; 0x30
  110714:	e35c0009 	cmp	ip, #9
  110718:	9afffff8 	bls	110700 <_vfiprintf_r+0x5e0>
  11071c:	e1855fc5 	orr	r5, r5, r5, asr #31
  110720:	eafffecc 	b	110258 <_vfiprintf_r+0x138>
  110724:	e58d2018 	str	r2, [sp, #24]
  110728:	e3190020 	tst	r9, #32
  11072c:	e302290c 	movw	r2, #10508	; 0x290c
  110730:	e5cd1037 	strb	r1, [sp, #55]	; 0x37
  110734:	e3402011 	movt	r2, #17
  110738:	e58d2028 	str	r2, [sp, #40]	; 0x28
  11073c:	e59d201c 	ldr	r2, [sp, #28]
  110740:	0a0000b8 	beq	110a28 <_vfiprintf_r+0x908>
  110744:	e2826007 	add	r6, r2, #7
  110748:	e3c62007 	bic	r2, r6, #7
  11074c:	e1c260d0 	ldrd	r6, [r2]
  110750:	e2821008 	add	r1, r2, #8
  110754:	e58d101c 	str	r1, [sp, #28]
  110758:	e3190001 	tst	r9, #1
  11075c:	0a000211 	beq	110fa8 <_vfiprintf_r+0xe88>
  110760:	e1962007 	orrs	r2, r6, r7
  110764:	0a00020f 	beq	110fa8 <_vfiprintf_r+0xe88>
  110768:	e3a02030 	mov	r2, #48	; 0x30
  11076c:	e5cd3039 	strb	r3, [sp, #57]	; 0x39
  110770:	e5cd2038 	strb	r2, [sp, #56]	; 0x38
  110774:	e3899002 	orr	r9, r9, #2
  110778:	e3a02002 	mov	r2, #2
  11077c:	eaffff3b 	b	110470 <_vfiprintf_r+0x350>
  110780:	e5d83000 	ldrb	r3, [r8]
  110784:	e353006c 	cmp	r3, #108	; 0x6c
  110788:	03899020 	orreq	r9, r9, #32
  11078c:	02880001 	addeq	r0, r8, #1
  110790:	05d83001 	ldrbeq	r3, [r8, #1]
  110794:	13899010 	orrne	r9, r9, #16
  110798:	11a00008 	movne	r0, r8
  11079c:	eafffeac 	b	110254 <_vfiprintf_r+0x134>
  1107a0:	e3190020 	tst	r9, #32
  1107a4:	e5cd1037 	strb	r1, [sp, #55]	; 0x37
  1107a8:	0a000280 	beq	1111b0 <_vfiprintf_r+0x1090>
  1107ac:	e59d1010 	ldr	r1, [sp, #16]
  1107b0:	e59d201c 	ldr	r2, [sp, #28]
  1107b4:	ee801b90 	vdup.32	d16, r1
  1107b8:	e2822004 	add	r2, r2, #4
  1107bc:	e5123004 	ldr	r3, [r2, #-4]
  1107c0:	f2e000b0 	vshr.s64	d16, d16, #32
  1107c4:	e58d201c 	str	r2, [sp, #28]
  1107c8:	edc30b00 	vstr	d16, [r3]
  1107cc:	eafffe7d 	b	1101c8 <_vfiprintf_r+0xa8>
  1107d0:	e3899040 	orr	r9, r9, #64	; 0x40
  1107d4:	e5d83000 	ldrb	r3, [r8]
  1107d8:	e1a00008 	mov	r0, r8
  1107dc:	eafffe9c 	b	110254 <_vfiprintf_r+0x134>
  1107e0:	e59d101c 	ldr	r1, [sp, #28]
  1107e4:	e58d2018 	str	r2, [sp, #24]
  1107e8:	e3a02001 	mov	r2, #1
  1107ec:	e58d2008 	str	r2, [sp, #8]
  1107f0:	e1a05002 	mov	r5, r2
  1107f4:	e5913000 	ldr	r3, [r1]
  1107f8:	e2811004 	add	r1, r1, #4
  1107fc:	e58d101c 	str	r1, [sp, #28]
  110800:	e28d2048 	add	r2, sp, #72	; 0x48
  110804:	e3a01000 	mov	r1, #0
  110808:	e58d2024 	str	r2, [sp, #36]	; 0x24
  11080c:	e5cd1037 	strb	r1, [sp, #55]	; 0x37
  110810:	e5cd3048 	strb	r3, [sp, #72]	; 0x48
  110814:	e3a03000 	mov	r3, #0
  110818:	e58d3014 	str	r3, [sp, #20]
  11081c:	eaffff37 	b	110500 <_vfiprintf_r+0x3e0>
  110820:	e3190020 	tst	r9, #32
  110824:	e58d2018 	str	r2, [sp, #24]
  110828:	e5cd1037 	strb	r1, [sp, #55]	; 0x37
  11082c:	e59d301c 	ldr	r3, [sp, #28]
  110830:	0a00004b 	beq	110964 <_vfiprintf_r+0x844>
  110834:	e2836007 	add	r6, r3, #7
  110838:	e3c66007 	bic	r6, r6, #7
  11083c:	e1c620d0 	ldrd	r2, [r6]
  110840:	e2861008 	add	r1, r6, #8
  110844:	e58d101c 	str	r1, [sp, #28]
  110848:	e1a06002 	mov	r6, r2
  11084c:	e1a07003 	mov	r7, r3
  110850:	e3520000 	cmp	r2, #0
  110854:	e2d33000 	sbcs	r3, r3, #0
  110858:	ba000242 	blt	111168 <_vfiprintf_r+0x1048>
  11085c:	e5dd4037 	ldrb	r4, [sp, #55]	; 0x37
  110860:	e3a02001 	mov	r2, #1
  110864:	e58d5014 	str	r5, [sp, #20]
  110868:	eaffff03 	b	11047c <_vfiprintf_r+0x35c>
  11086c:	e3510000 	cmp	r1, #0
  110870:	e5d83000 	ldrb	r3, [r8]
  110874:	e1a00008 	mov	r0, r8
  110878:	03a01020 	moveq	r1, #32
  11087c:	eafffe74 	b	110254 <_vfiprintf_r+0x134>
  110880:	e3899001 	orr	r9, r9, #1
  110884:	e5d83000 	ldrb	r3, [r8]
  110888:	e1a00008 	mov	r0, r8
  11088c:	eafffe70 	b	110254 <_vfiprintf_r+0x134>
  110890:	e59d301c 	ldr	r3, [sp, #28]
  110894:	e5932000 	ldr	r2, [r3]
  110898:	e2833004 	add	r3, r3, #4
  11089c:	e3520000 	cmp	r2, #0
  1108a0:	ba000269 	blt	11124c <_vfiprintf_r+0x112c>
  1108a4:	e58d301c 	str	r3, [sp, #28]
  1108a8:	e1a00008 	mov	r0, r8
  1108ac:	e5d83000 	ldrb	r3, [r8]
  1108b0:	eafffe67 	b	110254 <_vfiprintf_r+0x134>
  1108b4:	e5d83000 	ldrb	r3, [r8]
  1108b8:	e1a00008 	mov	r0, r8
  1108bc:	e3a0102b 	mov	r1, #43	; 0x2b
  1108c0:	eafffe63 	b	110254 <_vfiprintf_r+0x134>
  1108c4:	e59d001c 	ldr	r0, [sp, #28]
  1108c8:	e302190c 	movw	r1, #10508	; 0x290c
  1108cc:	e58d2018 	str	r2, [sp, #24]
  1108d0:	e3a03078 	mov	r3, #120	; 0x78
  1108d4:	e3a02030 	mov	r2, #48	; 0x30
  1108d8:	e3401011 	movt	r1, #17
  1108dc:	e5906000 	ldr	r6, [r0]
  1108e0:	e2800004 	add	r0, r0, #4
  1108e4:	e5cd2038 	strb	r2, [sp, #56]	; 0x38
  1108e8:	e3899002 	orr	r9, r9, #2
  1108ec:	e58d001c 	str	r0, [sp, #28]
  1108f0:	e3a07000 	mov	r7, #0
  1108f4:	e5cd3039 	strb	r3, [sp, #57]	; 0x39
  1108f8:	e3a02002 	mov	r2, #2
  1108fc:	e58d1028 	str	r1, [sp, #40]	; 0x28
  110900:	eafffeda 	b	110470 <_vfiprintf_r+0x350>
  110904:	e3899020 	orr	r9, r9, #32
  110908:	e5d83000 	ldrb	r3, [r8]
  11090c:	e1a00008 	mov	r0, r8
  110910:	eafffe4f 	b	110254 <_vfiprintf_r+0x134>
  110914:	e3899080 	orr	r9, r9, #128	; 0x80
  110918:	e5d83000 	ldrb	r3, [r8]
  11091c:	e1a00008 	mov	r0, r8
  110920:	eafffe4b 	b	110254 <_vfiprintf_r+0x134>
  110924:	e243c030 	sub	ip, r3, #48	; 0x30
  110928:	e3a02000 	mov	r2, #0
  11092c:	e1a00182 	lsl	r0, r2, #3
  110930:	e4d83001 	ldrb	r3, [r8], #1
  110934:	e0802082 	add	r2, r0, r2, lsl #1
  110938:	e082200c 	add	r2, r2, ip
  11093c:	e243c030 	sub	ip, r3, #48	; 0x30
  110940:	e35c0009 	cmp	ip, #9
  110944:	9afffff8 	bls	11092c <_vfiprintf_r+0x80c>
  110948:	eafffe42 	b	110258 <_vfiprintf_r+0x138>
  11094c:	e3899010 	orr	r9, r9, #16
  110950:	e58d2018 	str	r2, [sp, #24]
  110954:	e3190020 	tst	r9, #32
  110958:	e5cd1037 	strb	r1, [sp, #55]	; 0x37
  11095c:	e59d301c 	ldr	r3, [sp, #28]
  110960:	1affffb3 	bne	110834 <_vfiprintf_r+0x714>
  110964:	e3190010 	tst	r9, #16
  110968:	1a0001a9 	bne	111014 <_vfiprintf_r+0xef4>
  11096c:	e3190040 	tst	r9, #64	; 0x40
  110970:	0a0001a7 	beq	111014 <_vfiprintf_r+0xef4>
  110974:	e1d360f0 	ldrsh	r6, [r3]
  110978:	e2833004 	add	r3, r3, #4
  11097c:	e58d301c 	str	r3, [sp, #28]
  110980:	e1a02006 	mov	r2, r6
  110984:	e1a07fc6 	asr	r7, r6, #31
  110988:	e1a03007 	mov	r3, r7
  11098c:	eaffffaf 	b	110850 <_vfiprintf_r+0x730>
  110990:	e3899010 	orr	r9, r9, #16
  110994:	e58d2018 	str	r2, [sp, #24]
  110998:	e2192020 	ands	r2, r9, #32
  11099c:	1affff2c 	bne	110654 <_vfiprintf_r+0x534>
  1109a0:	e2193010 	ands	r3, r9, #16
  1109a4:	1a0001ac 	bne	11105c <_vfiprintf_r+0xf3c>
  1109a8:	e2192040 	ands	r2, r9, #64	; 0x40
  1109ac:	0a0001aa 	beq	11105c <_vfiprintf_r+0xf3c>
  1109b0:	e1a02003 	mov	r2, r3
  1109b4:	e59d301c 	ldr	r3, [sp, #28]
  1109b8:	e3a07000 	mov	r7, #0
  1109bc:	e1d360b0 	ldrh	r6, [r3]
  1109c0:	e2833004 	add	r3, r3, #4
  1109c4:	e58d301c 	str	r3, [sp, #28]
  1109c8:	eafffea8 	b	110470 <_vfiprintf_r+0x350>
  1109cc:	e3899010 	orr	r9, r9, #16
  1109d0:	e58d2018 	str	r2, [sp, #24]
  1109d4:	e3190020 	tst	r9, #32
  1109d8:	e59d301c 	ldr	r3, [sp, #28]
  1109dc:	1afffe9d 	bne	110458 <_vfiprintf_r+0x338>
  1109e0:	e3190010 	tst	r9, #16
  1109e4:	1a000191 	bne	111030 <_vfiprintf_r+0xf10>
  1109e8:	e3190040 	tst	r9, #64	; 0x40
  1109ec:	0a00018f 	beq	111030 <_vfiprintf_r+0xf10>
  1109f0:	e1d360b0 	ldrh	r6, [r3]
  1109f4:	e2833004 	add	r3, r3, #4
  1109f8:	e3a07000 	mov	r7, #0
  1109fc:	e3a02001 	mov	r2, #1
  110a00:	e58d301c 	str	r3, [sp, #28]
  110a04:	eafffe99 	b	110470 <_vfiprintf_r+0x350>
  110a08:	e58d2018 	str	r2, [sp, #24]
  110a0c:	e3190020 	tst	r9, #32
  110a10:	e30228f8 	movw	r2, #10488	; 0x28f8
  110a14:	e5cd1037 	strb	r1, [sp, #55]	; 0x37
  110a18:	e3402011 	movt	r2, #17
  110a1c:	e58d2028 	str	r2, [sp, #40]	; 0x28
  110a20:	e59d201c 	ldr	r2, [sp, #28]
  110a24:	1affff46 	bne	110744 <_vfiprintf_r+0x624>
  110a28:	e3190010 	tst	r9, #16
  110a2c:	1a000185 	bne	111048 <_vfiprintf_r+0xf28>
  110a30:	e3190040 	tst	r9, #64	; 0x40
  110a34:	0a000183 	beq	111048 <_vfiprintf_r+0xf28>
  110a38:	e1d260b0 	ldrh	r6, [r2]
  110a3c:	e2822004 	add	r2, r2, #4
  110a40:	e3a07000 	mov	r7, #0
  110a44:	e58d201c 	str	r2, [sp, #28]
  110a48:	eaffff42 	b	110758 <_vfiprintf_r+0x638>
  110a4c:	e3530000 	cmp	r3, #0
  110a50:	e58d2018 	str	r2, [sp, #24]
  110a54:	e5cd1037 	strb	r1, [sp, #55]	; 0x37
  110a58:	0a0001f3 	beq	11122c <_vfiprintf_r+0x110c>
  110a5c:	e5cd3048 	strb	r3, [sp, #72]	; 0x48
  110a60:	e3a03000 	mov	r3, #0
  110a64:	e3a02001 	mov	r2, #1
  110a68:	e5cd3037 	strb	r3, [sp, #55]	; 0x37
  110a6c:	e28d3048 	add	r3, sp, #72	; 0x48
  110a70:	e58d2008 	str	r2, [sp, #8]
  110a74:	e1a05002 	mov	r5, r2
  110a78:	e58d3024 	str	r3, [sp, #36]	; 0x24
  110a7c:	eaffff64 	b	110814 <_vfiprintf_r+0x6f4>
  110a80:	e59d1040 	ldr	r1, [sp, #64]	; 0x40
  110a84:	e59d2044 	ldr	r2, [sp, #68]	; 0x44
  110a88:	e2810001 	add	r0, r1, #1
  110a8c:	e5ddc037 	ldrb	ip, [sp, #55]	; 0x37
  110a90:	e35c0000 	cmp	ip, #0
  110a94:	0a00000b 	beq	110ac8 <_vfiprintf_r+0x9a8>
  110a98:	e3500007 	cmp	r0, #7
  110a9c:	e2822001 	add	r2, r2, #1
  110aa0:	e28dc037 	add	ip, sp, #55	; 0x37
  110aa4:	e3a01001 	mov	r1, #1
  110aa8:	e58d2044 	str	r2, [sp, #68]	; 0x44
  110aac:	e58d0040 	str	r0, [sp, #64]	; 0x40
  110ab0:	e58ac000 	str	ip, [sl]
  110ab4:	e58a1004 	str	r1, [sl, #4]
  110ab8:	ca000111 	bgt	110f04 <_vfiprintf_r+0xde4>
  110abc:	e1a01000 	mov	r1, r0
  110ac0:	e28aa008 	add	sl, sl, #8
  110ac4:	e2800001 	add	r0, r0, #1
  110ac8:	e3530000 	cmp	r3, #0
  110acc:	0a00000a 	beq	110afc <_vfiprintf_r+0x9dc>
  110ad0:	e3500007 	cmp	r0, #7
  110ad4:	e2822002 	add	r2, r2, #2
  110ad8:	e28d1038 	add	r1, sp, #56	; 0x38
  110adc:	e3a03002 	mov	r3, #2
  110ae0:	e58d2044 	str	r2, [sp, #68]	; 0x44
  110ae4:	e58d0040 	str	r0, [sp, #64]	; 0x40
  110ae8:	e88a000a 	stm	sl, {r1, r3}
  110aec:	ca00010f 	bgt	110f30 <_vfiprintf_r+0xe10>
  110af0:	e1a01000 	mov	r1, r0
  110af4:	e28aa008 	add	sl, sl, #8
  110af8:	e2800001 	add	r0, r0, #1
  110afc:	e59d3020 	ldr	r3, [sp, #32]
  110b00:	e3530080 	cmp	r3, #128	; 0x80
  110b04:	0a0000c4 	beq	110e1c <_vfiprintf_r+0xcfc>
  110b08:	e59d3014 	ldr	r3, [sp, #20]
  110b0c:	e0654003 	rsb	r4, r5, r3
  110b10:	e3540000 	cmp	r4, #0
  110b14:	da00009c 	ble	110d8c <_vfiprintf_r+0xc6c>
  110b18:	e59f6810 	ldr	r6, [pc, #2064]	; 111330 <_vfiprintf_r+0x1210>
  110b1c:	e3540010 	cmp	r4, #16
  110b20:	c3a07010 	movgt	r7, #16
  110b24:	c1a03006 	movgt	r3, r6
  110b28:	c1a06005 	movgt	r6, r5
  110b2c:	c1a05003 	movgt	r5, r3
  110b30:	ca000003 	bgt	110b44 <_vfiprintf_r+0xa24>
  110b34:	ea000021 	b	110bc0 <_vfiprintf_r+0xaa0>
  110b38:	e2444010 	sub	r4, r4, #16
  110b3c:	e3540010 	cmp	r4, #16
  110b40:	da00001b 	ble	110bb4 <_vfiprintf_r+0xa94>
  110b44:	e281c001 	add	ip, r1, #1
  110b48:	e2822010 	add	r2, r2, #16
  110b4c:	e35c0007 	cmp	ip, #7
  110b50:	e58a5000 	str	r5, [sl]
  110b54:	e2810002 	add	r0, r1, #2
  110b58:	e58a7004 	str	r7, [sl, #4]
  110b5c:	e58d2044 	str	r2, [sp, #68]	; 0x44
  110b60:	e1a0100c 	mov	r1, ip
  110b64:	e58dc040 	str	ip, [sp, #64]	; 0x40
  110b68:	d28aa008 	addle	sl, sl, #8
  110b6c:	dafffff1 	ble	110b38 <_vfiprintf_r+0xa18>
  110b70:	e3520000 	cmp	r2, #0
  110b74:	e3a00001 	mov	r0, #1
  110b78:	e1a01002 	mov	r1, r2
  110b7c:	e1a0a00b 	mov	sl, fp
  110b80:	0affffec 	beq	110b38 <_vfiprintf_r+0xa18>
  110b84:	e59d000c 	ldr	r0, [sp, #12]
  110b88:	e28d203c 	add	r2, sp, #60	; 0x3c
  110b8c:	e59d1004 	ldr	r1, [sp, #4]
  110b90:	ebfffd32 	bl	110060 <__sprint_r.part.0>
  110b94:	e3500000 	cmp	r0, #0
  110b98:	1a00006a 	bne	110d48 <_vfiprintf_r+0xc28>
  110b9c:	e59d1040 	ldr	r1, [sp, #64]	; 0x40
  110ba0:	e2444010 	sub	r4, r4, #16
  110ba4:	e3540010 	cmp	r4, #16
  110ba8:	e59d2044 	ldr	r2, [sp, #68]	; 0x44
  110bac:	e2810001 	add	r0, r1, #1
  110bb0:	caffffe3 	bgt	110b44 <_vfiprintf_r+0xa24>
  110bb4:	e1a03005 	mov	r3, r5
  110bb8:	e1a05006 	mov	r5, r6
  110bbc:	e1a06003 	mov	r6, r3
  110bc0:	e3500007 	cmp	r0, #7
  110bc4:	e0822004 	add	r2, r2, r4
  110bc8:	e58a6000 	str	r6, [sl]
  110bcc:	e58a4004 	str	r4, [sl, #4]
  110bd0:	d28aa008 	addle	sl, sl, #8
  110bd4:	e58d0040 	str	r0, [sp, #64]	; 0x40
  110bd8:	d2800001 	addle	r0, r0, #1
  110bdc:	e58d2044 	str	r2, [sp, #68]	; 0x44
  110be0:	da000069 	ble	110d8c <_vfiprintf_r+0xc6c>
  110be4:	e3520000 	cmp	r2, #0
  110be8:	1a00005d 	bne	110d64 <_vfiprintf_r+0xc44>
  110bec:	e59d1024 	ldr	r1, [sp, #36]	; 0x24
  110bf0:	e1a02005 	mov	r2, r5
  110bf4:	e1a0a00b 	mov	sl, fp
  110bf8:	e3a03001 	mov	r3, #1
  110bfc:	e58d5074 	str	r5, [sp, #116]	; 0x74
  110c00:	e58d5044 	str	r5, [sp, #68]	; 0x44
  110c04:	e58d1070 	str	r1, [sp, #112]	; 0x70
  110c08:	e58d3040 	str	r3, [sp, #64]	; 0x40
  110c0c:	e28aa008 	add	sl, sl, #8
  110c10:	e3190004 	tst	r9, #4
  110c14:	0a00003c 	beq	110d0c <_vfiprintf_r+0xbec>
  110c18:	e59d3018 	ldr	r3, [sp, #24]
  110c1c:	e59d1008 	ldr	r1, [sp, #8]
  110c20:	e0614003 	rsb	r4, r1, r3
  110c24:	e3540000 	cmp	r4, #0
  110c28:	da000037 	ble	110d0c <_vfiprintf_r+0xbec>
  110c2c:	e3540010 	cmp	r4, #16
  110c30:	da0001ab 	ble	1112e4 <_vfiprintf_r+0x11c4>
  110c34:	e3026a78 	movw	r6, #10872	; 0x2a78
  110c38:	e59d1040 	ldr	r1, [sp, #64]	; 0x40
  110c3c:	e3406011 	movt	r6, #17
  110c40:	e3a05010 	mov	r5, #16
  110c44:	e59d700c 	ldr	r7, [sp, #12]
  110c48:	e59d9004 	ldr	r9, [sp, #4]
  110c4c:	ea000002 	b	110c5c <_vfiprintf_r+0xb3c>
  110c50:	e2444010 	sub	r4, r4, #16
  110c54:	e3540010 	cmp	r4, #16
  110c58:	da00001b 	ble	110ccc <_vfiprintf_r+0xbac>
  110c5c:	e2813001 	add	r3, r1, #1
  110c60:	e2822010 	add	r2, r2, #16
  110c64:	e3530007 	cmp	r3, #7
  110c68:	e58a6000 	str	r6, [sl]
  110c6c:	e2810002 	add	r0, r1, #2
  110c70:	e58a5004 	str	r5, [sl, #4]
  110c74:	e58d2044 	str	r2, [sp, #68]	; 0x44
  110c78:	e1a01003 	mov	r1, r3
  110c7c:	e58d3040 	str	r3, [sp, #64]	; 0x40
  110c80:	d28aa008 	addle	sl, sl, #8
  110c84:	dafffff1 	ble	110c50 <_vfiprintf_r+0xb30>
  110c88:	e3520000 	cmp	r2, #0
  110c8c:	e3a00001 	mov	r0, #1
  110c90:	e1a01002 	mov	r1, r2
  110c94:	e1a0a00b 	mov	sl, fp
  110c98:	0affffec 	beq	110c50 <_vfiprintf_r+0xb30>
  110c9c:	e1a00007 	mov	r0, r7
  110ca0:	e1a01009 	mov	r1, r9
  110ca4:	e28d203c 	add	r2, sp, #60	; 0x3c
  110ca8:	ebfffcec 	bl	110060 <__sprint_r.part.0>
  110cac:	e3500000 	cmp	r0, #0
  110cb0:	1a000024 	bne	110d48 <_vfiprintf_r+0xc28>
  110cb4:	e59d1040 	ldr	r1, [sp, #64]	; 0x40
  110cb8:	e2444010 	sub	r4, r4, #16
  110cbc:	e3540010 	cmp	r4, #16
  110cc0:	e59d2044 	ldr	r2, [sp, #68]	; 0x44
  110cc4:	e2810001 	add	r0, r1, #1
  110cc8:	caffffe3 	bgt	110c5c <_vfiprintf_r+0xb3c>
  110ccc:	e3500007 	cmp	r0, #7
  110cd0:	e0822004 	add	r2, r2, r4
  110cd4:	e58d2044 	str	r2, [sp, #68]	; 0x44
  110cd8:	e58a6000 	str	r6, [sl]
  110cdc:	e58a4004 	str	r4, [sl, #4]
  110ce0:	e58d0040 	str	r0, [sp, #64]	; 0x40
  110ce4:	da000008 	ble	110d0c <_vfiprintf_r+0xbec>
  110ce8:	e3520000 	cmp	r2, #0
  110cec:	0a000032 	beq	110dbc <_vfiprintf_r+0xc9c>
  110cf0:	e59d000c 	ldr	r0, [sp, #12]
  110cf4:	e28d203c 	add	r2, sp, #60	; 0x3c
  110cf8:	e59d1004 	ldr	r1, [sp, #4]
  110cfc:	ebfffcd7 	bl	110060 <__sprint_r.part.0>
  110d00:	e3500000 	cmp	r0, #0
  110d04:	1a00000f 	bne	110d48 <_vfiprintf_r+0xc28>
  110d08:	e59d2044 	ldr	r2, [sp, #68]	; 0x44
  110d0c:	e59d3010 	ldr	r3, [sp, #16]
  110d10:	e59d1008 	ldr	r1, [sp, #8]
  110d14:	e59d0018 	ldr	r0, [sp, #24]
  110d18:	e1510000 	cmp	r1, r0
  110d1c:	a0833001 	addge	r3, r3, r1
  110d20:	b0833000 	addlt	r3, r3, r0
  110d24:	e3520000 	cmp	r2, #0
  110d28:	e58d3010 	str	r3, [sp, #16]
  110d2c:	0a000029 	beq	110dd8 <_vfiprintf_r+0xcb8>
  110d30:	e59d000c 	ldr	r0, [sp, #12]
  110d34:	e28d203c 	add	r2, sp, #60	; 0x3c
  110d38:	e59d1004 	ldr	r1, [sp, #4]
  110d3c:	ebfffcc7 	bl	110060 <__sprint_r.part.0>
  110d40:	e3500000 	cmp	r0, #0
  110d44:	0a000023 	beq	110dd8 <_vfiprintf_r+0xcb8>
  110d48:	e59d3004 	ldr	r3, [sp, #4]
  110d4c:	e1d330bc 	ldrh	r3, [r3, #12]
  110d50:	e3130040 	tst	r3, #64	; 0x40
  110d54:	1afffdb6 	bne	110434 <_vfiprintf_r+0x314>
  110d58:	e59d0010 	ldr	r0, [sp, #16]
  110d5c:	e28dd0b4 	add	sp, sp, #180	; 0xb4
  110d60:	e8bd8ff0 	pop	{r4, r5, r6, r7, r8, r9, sl, fp, pc}
  110d64:	e59d000c 	ldr	r0, [sp, #12]
  110d68:	e28d203c 	add	r2, sp, #60	; 0x3c
  110d6c:	e59d1004 	ldr	r1, [sp, #4]
  110d70:	ebfffcba 	bl	110060 <__sprint_r.part.0>
  110d74:	e3500000 	cmp	r0, #0
  110d78:	1afffff2 	bne	110d48 <_vfiprintf_r+0xc28>
  110d7c:	e59d0040 	ldr	r0, [sp, #64]	; 0x40
  110d80:	e1a0a00b 	mov	sl, fp
  110d84:	e59d2044 	ldr	r2, [sp, #68]	; 0x44
  110d88:	e2800001 	add	r0, r0, #1
  110d8c:	e59d3024 	ldr	r3, [sp, #36]	; 0x24
  110d90:	e3500007 	cmp	r0, #7
  110d94:	e0822005 	add	r2, r2, r5
  110d98:	e58d0040 	str	r0, [sp, #64]	; 0x40
  110d9c:	e58d2044 	str	r2, [sp, #68]	; 0x44
  110da0:	e88a0028 	stm	sl, {r3, r5}
  110da4:	daffff98 	ble	110c0c <_vfiprintf_r+0xaec>
  110da8:	e3520000 	cmp	r2, #0
  110dac:	1a00008f 	bne	110ff0 <_vfiprintf_r+0xed0>
  110db0:	e3190004 	tst	r9, #4
  110db4:	e58d2040 	str	r2, [sp, #64]	; 0x40
  110db8:	1a00007c 	bne	110fb0 <_vfiprintf_r+0xe90>
  110dbc:	e59d3010 	ldr	r3, [sp, #16]
  110dc0:	e59d2008 	ldr	r2, [sp, #8]
  110dc4:	e59d1018 	ldr	r1, [sp, #24]
  110dc8:	e1520001 	cmp	r2, r1
  110dcc:	a0833002 	addge	r3, r3, r2
  110dd0:	b0833001 	addlt	r3, r3, r1
  110dd4:	e58d3010 	str	r3, [sp, #16]
  110dd8:	e3a03000 	mov	r3, #0
  110ddc:	e1a0a00b 	mov	sl, fp
  110de0:	e58d3040 	str	r3, [sp, #64]	; 0x40
  110de4:	eafffcf7 	b	1101c8 <_vfiprintf_r+0xa8>
  110de8:	e3520000 	cmp	r2, #0
  110dec:	1a000008 	bne	110e14 <_vfiprintf_r+0xcf4>
  110df0:	e3190001 	tst	r9, #1
  110df4:	0a000005 	beq	110e10 <_vfiprintf_r+0xcf0>
  110df8:	e28d30b0 	add	r3, sp, #176	; 0xb0
  110dfc:	e3a02030 	mov	r2, #48	; 0x30
  110e00:	e5632041 	strb	r2, [r3, #-65]!	; 0xffffffbf
  110e04:	e063500b 	rsb	r5, r3, fp
  110e08:	e58d3024 	str	r3, [sp, #36]	; 0x24
  110e0c:	eafffdb4 	b	1104e4 <_vfiprintf_r+0x3c4>
  110e10:	e1a05002 	mov	r5, r2
  110e14:	e58db024 	str	fp, [sp, #36]	; 0x24
  110e18:	eafffdb1 	b	1104e4 <_vfiprintf_r+0x3c4>
  110e1c:	e59d3018 	ldr	r3, [sp, #24]
  110e20:	e59dc008 	ldr	ip, [sp, #8]
  110e24:	e06c4003 	rsb	r4, ip, r3
  110e28:	e3540000 	cmp	r4, #0
  110e2c:	daffff35 	ble	110b08 <_vfiprintf_r+0x9e8>
  110e30:	e3540010 	cmp	r4, #16
  110e34:	e59f64f4 	ldr	r6, [pc, #1268]	; 111330 <_vfiprintf_r+0x1210>
  110e38:	da00012e 	ble	1112f8 <_vfiprintf_r+0x11d8>
  110e3c:	e1a03006 	mov	r3, r6
  110e40:	e3a07010 	mov	r7, #16
  110e44:	e1a06005 	mov	r6, r5
  110e48:	e1a05003 	mov	r5, r3
  110e4c:	ea000002 	b	110e5c <_vfiprintf_r+0xd3c>
  110e50:	e2444010 	sub	r4, r4, #16
  110e54:	e3540010 	cmp	r4, #16
  110e58:	da00001b 	ble	110ecc <_vfiprintf_r+0xdac>
  110e5c:	e2810001 	add	r0, r1, #1
  110e60:	e2822010 	add	r2, r2, #16
  110e64:	e3500007 	cmp	r0, #7
  110e68:	e58a5000 	str	r5, [sl]
  110e6c:	e281c002 	add	ip, r1, #2
  110e70:	e58a7004 	str	r7, [sl, #4]
  110e74:	e58d2044 	str	r2, [sp, #68]	; 0x44
  110e78:	e1a01000 	mov	r1, r0
  110e7c:	e58d0040 	str	r0, [sp, #64]	; 0x40
  110e80:	d28aa008 	addle	sl, sl, #8
  110e84:	dafffff1 	ble	110e50 <_vfiprintf_r+0xd30>
  110e88:	e3520000 	cmp	r2, #0
  110e8c:	e3a0c001 	mov	ip, #1
  110e90:	e1a01002 	mov	r1, r2
  110e94:	e1a0a00b 	mov	sl, fp
  110e98:	0affffec 	beq	110e50 <_vfiprintf_r+0xd30>
  110e9c:	e59d000c 	ldr	r0, [sp, #12]
  110ea0:	e28d203c 	add	r2, sp, #60	; 0x3c
  110ea4:	e59d1004 	ldr	r1, [sp, #4]
  110ea8:	ebfffc6c 	bl	110060 <__sprint_r.part.0>
  110eac:	e3500000 	cmp	r0, #0
  110eb0:	1affffa4 	bne	110d48 <_vfiprintf_r+0xc28>
  110eb4:	e59d1040 	ldr	r1, [sp, #64]	; 0x40
  110eb8:	e2444010 	sub	r4, r4, #16
  110ebc:	e3540010 	cmp	r4, #16
  110ec0:	e59d2044 	ldr	r2, [sp, #68]	; 0x44
  110ec4:	e281c001 	add	ip, r1, #1
  110ec8:	caffffe3 	bgt	110e5c <_vfiprintf_r+0xd3c>
  110ecc:	e1a03005 	mov	r3, r5
  110ed0:	e1a05006 	mov	r5, r6
  110ed4:	e1a06003 	mov	r6, r3
  110ed8:	e35c0007 	cmp	ip, #7
  110edc:	e0822004 	add	r2, r2, r4
  110ee0:	e58d2044 	str	r2, [sp, #68]	; 0x44
  110ee4:	e58a6000 	str	r6, [sl]
  110ee8:	e58a4004 	str	r4, [sl, #4]
  110eec:	e58dc040 	str	ip, [sp, #64]	; 0x40
  110ef0:	ca000083 	bgt	111104 <_vfiprintf_r+0xfe4>
  110ef4:	e28aa008 	add	sl, sl, #8
  110ef8:	e28c0001 	add	r0, ip, #1
  110efc:	e1a0100c 	mov	r1, ip
  110f00:	eaffff00 	b	110b08 <_vfiprintf_r+0x9e8>
  110f04:	e3520000 	cmp	r2, #0
  110f08:	1a000065 	bne	1110a4 <_vfiprintf_r+0xf84>
  110f0c:	e3530000 	cmp	r3, #0
  110f10:	0a00005f 	beq	111094 <_vfiprintf_r+0xf74>
  110f14:	e28d3038 	add	r3, sp, #56	; 0x38
  110f18:	e3a02002 	mov	r2, #2
  110f1c:	e1a00001 	mov	r0, r1
  110f20:	e58d3070 	str	r3, [sp, #112]	; 0x70
  110f24:	e58d2074 	str	r2, [sp, #116]	; 0x74
  110f28:	e1a0a00b 	mov	sl, fp
  110f2c:	eafffeef 	b	110af0 <_vfiprintf_r+0x9d0>
  110f30:	e3520000 	cmp	r2, #0
  110f34:	1a000067 	bne	1110d8 <_vfiprintf_r+0xfb8>
  110f38:	e3a00001 	mov	r0, #1
  110f3c:	e1a01002 	mov	r1, r2
  110f40:	e1a0a00b 	mov	sl, fp
  110f44:	eafffeec 	b	110afc <_vfiprintf_r+0x9dc>
  110f48:	e1a0200b 	mov	r2, fp
  110f4c:	e2063007 	and	r3, r6, #7
  110f50:	e1a061a6 	lsr	r6, r6, #3
  110f54:	e2833030 	add	r3, r3, #48	; 0x30
  110f58:	e1866e87 	orr	r6, r6, r7, lsl #29
  110f5c:	e1a071a7 	lsr	r7, r7, #3
  110f60:	e5623001 	strb	r3, [r2, #-1]!
  110f64:	e1961007 	orrs	r1, r6, r7
  110f68:	1afffff7 	bne	110f4c <_vfiprintf_r+0xe2c>
  110f6c:	e3190001 	tst	r9, #1
  110f70:	e58d2024 	str	r2, [sp, #36]	; 0x24
  110f74:	01a03002 	moveq	r3, r2
  110f78:	0063500b 	rsbeq	r5, r3, fp
  110f7c:	0afffd58 	beq	1104e4 <_vfiprintf_r+0x3c4>
  110f80:	e3530030 	cmp	r3, #48	; 0x30
  110f84:	e59d3024 	ldr	r3, [sp, #36]	; 0x24
  110f88:	0afffd54 	beq	1104e0 <_vfiprintf_r+0x3c0>
  110f8c:	e2433001 	sub	r3, r3, #1
  110f90:	e1a01003 	mov	r1, r3
  110f94:	e58d3024 	str	r3, [sp, #36]	; 0x24
  110f98:	e3a03030 	mov	r3, #48	; 0x30
  110f9c:	e061500b 	rsb	r5, r1, fp
  110fa0:	e5423001 	strb	r3, [r2, #-1]
  110fa4:	eafffd4e 	b	1104e4 <_vfiprintf_r+0x3c4>
  110fa8:	e3a02002 	mov	r2, #2
  110fac:	eafffd2f 	b	110470 <_vfiprintf_r+0x350>
  110fb0:	e59d3018 	ldr	r3, [sp, #24]
  110fb4:	e1a0a00b 	mov	sl, fp
  110fb8:	e59d1008 	ldr	r1, [sp, #8]
  110fbc:	e0614003 	rsb	r4, r1, r3
  110fc0:	e3540000 	cmp	r4, #0
  110fc4:	caffff18 	bgt	110c2c <_vfiprintf_r+0xb0c>
  110fc8:	eaffff7b 	b	110dbc <_vfiprintf_r+0xc9c>
  110fcc:	e3570000 	cmp	r7, #0
  110fd0:	03560009 	cmpeq	r6, #9
  110fd4:	8a000050 	bhi	11111c <_vfiprintf_r+0xffc>
  110fd8:	e28d30b0 	add	r3, sp, #176	; 0xb0
  110fdc:	e2866030 	add	r6, r6, #48	; 0x30
  110fe0:	e5636041 	strb	r6, [r3, #-65]!	; 0xffffffbf
  110fe4:	e063500b 	rsb	r5, r3, fp
  110fe8:	e58d3024 	str	r3, [sp, #36]	; 0x24
  110fec:	eafffd3c 	b	1104e4 <_vfiprintf_r+0x3c4>
  110ff0:	e59d000c 	ldr	r0, [sp, #12]
  110ff4:	e28d203c 	add	r2, sp, #60	; 0x3c
  110ff8:	e59d1004 	ldr	r1, [sp, #4]
  110ffc:	ebfffc17 	bl	110060 <__sprint_r.part.0>
  111000:	e3500000 	cmp	r0, #0
  111004:	1affff4f 	bne	110d48 <_vfiprintf_r+0xc28>
  111008:	e59d2044 	ldr	r2, [sp, #68]	; 0x44
  11100c:	e1a0a00b 	mov	sl, fp
  111010:	eafffefe 	b	110c10 <_vfiprintf_r+0xaf0>
  111014:	e5936000 	ldr	r6, [r3]
  111018:	e2833004 	add	r3, r3, #4
  11101c:	e58d301c 	str	r3, [sp, #28]
  111020:	e1a02006 	mov	r2, r6
  111024:	e1a07fc6 	asr	r7, r6, #31
  111028:	e1a03007 	mov	r3, r7
  11102c:	eafffe07 	b	110850 <_vfiprintf_r+0x730>
  111030:	e5936000 	ldr	r6, [r3]
  111034:	e2833004 	add	r3, r3, #4
  111038:	e3a02001 	mov	r2, #1
  11103c:	e58d301c 	str	r3, [sp, #28]
  111040:	e3a07000 	mov	r7, #0
  111044:	eafffd09 	b	110470 <_vfiprintf_r+0x350>
  111048:	e5926000 	ldr	r6, [r2]
  11104c:	e2822004 	add	r2, r2, #4
  111050:	e58d201c 	str	r2, [sp, #28]
  111054:	e3a07000 	mov	r7, #0
  111058:	eafffdbe 	b	110758 <_vfiprintf_r+0x638>
  11105c:	e59d301c 	ldr	r3, [sp, #28]
  111060:	e3a07000 	mov	r7, #0
  111064:	e5936000 	ldr	r6, [r3]
  111068:	e2833004 	add	r3, r3, #4
  11106c:	e58d301c 	str	r3, [sp, #28]
  111070:	eafffcfe 	b	110470 <_vfiprintf_r+0x350>
  111074:	e59d000c 	ldr	r0, [sp, #12]
  111078:	e28d203c 	add	r2, sp, #60	; 0x3c
  11107c:	e59d1004 	ldr	r1, [sp, #4]
  111080:	ebfffbf6 	bl	110060 <__sprint_r.part.0>
  111084:	e3500000 	cmp	r0, #0
  111088:	1affff2e 	bne	110d48 <_vfiprintf_r+0xc28>
  11108c:	e1a0a00b 	mov	sl, fp
  111090:	eafffc62 	b	110220 <_vfiprintf_r+0x100>
  111094:	e1a00001 	mov	r0, r1
  111098:	e1a0a00b 	mov	sl, fp
  11109c:	e1a01002 	mov	r1, r2
  1110a0:	eafffe95 	b	110afc <_vfiprintf_r+0x9dc>
  1110a4:	e59d000c 	ldr	r0, [sp, #12]
  1110a8:	e28d203c 	add	r2, sp, #60	; 0x3c
  1110ac:	e59d1004 	ldr	r1, [sp, #4]
  1110b0:	e58d302c 	str	r3, [sp, #44]	; 0x2c
  1110b4:	ebfffbe9 	bl	110060 <__sprint_r.part.0>
  1110b8:	e3500000 	cmp	r0, #0
  1110bc:	1affff21 	bne	110d48 <_vfiprintf_r+0xc28>
  1110c0:	e59d1040 	ldr	r1, [sp, #64]	; 0x40
  1110c4:	e1a0a00b 	mov	sl, fp
  1110c8:	e59d2044 	ldr	r2, [sp, #68]	; 0x44
  1110cc:	e59d302c 	ldr	r3, [sp, #44]	; 0x2c
  1110d0:	e2810001 	add	r0, r1, #1
  1110d4:	eafffe7b 	b	110ac8 <_vfiprintf_r+0x9a8>
  1110d8:	e59d000c 	ldr	r0, [sp, #12]
  1110dc:	e28d203c 	add	r2, sp, #60	; 0x3c
  1110e0:	e59d1004 	ldr	r1, [sp, #4]
  1110e4:	ebfffbdd 	bl	110060 <__sprint_r.part.0>
  1110e8:	e3500000 	cmp	r0, #0
  1110ec:	1affff15 	bne	110d48 <_vfiprintf_r+0xc28>
  1110f0:	e59d1040 	ldr	r1, [sp, #64]	; 0x40
  1110f4:	e1a0a00b 	mov	sl, fp
  1110f8:	e59d2044 	ldr	r2, [sp, #68]	; 0x44
  1110fc:	e2810001 	add	r0, r1, #1
  111100:	eafffe7d 	b	110afc <_vfiprintf_r+0x9dc>
  111104:	e3520000 	cmp	r2, #0
  111108:	1a00005b 	bne	11127c <_vfiprintf_r+0x115c>
  11110c:	e3a00001 	mov	r0, #1
  111110:	e1a01002 	mov	r1, r2
  111114:	e1a0a00b 	mov	sl, fp
  111118:	eafffe7a 	b	110b08 <_vfiprintf_r+0x9e8>
  11111c:	e1a0500b 	mov	r5, fp
  111120:	e1a00006 	mov	r0, r6
  111124:	e1a01007 	mov	r1, r7
  111128:	e3a0200a 	mov	r2, #10
  11112c:	e3a03000 	mov	r3, #0
  111130:	eb0003e4 	bl	1120c8 <__aeabi_uldivmod>
  111134:	e2822030 	add	r2, r2, #48	; 0x30
  111138:	e1a00006 	mov	r0, r6
  11113c:	e1a01007 	mov	r1, r7
  111140:	e5652001 	strb	r2, [r5, #-1]!
  111144:	e3a03000 	mov	r3, #0
  111148:	e3a0200a 	mov	r2, #10
  11114c:	eb0003dd 	bl	1120c8 <__aeabi_uldivmod>
  111150:	e1a06000 	mov	r6, r0
  111154:	e1a07001 	mov	r7, r1
  111158:	e1963007 	orrs	r3, r6, r7
  11115c:	1affffef 	bne	111120 <_vfiprintf_r+0x1000>
  111160:	e1a03005 	mov	r3, r5
  111164:	eafffcdc 	b	1104dc <_vfiprintf_r+0x3bc>
  111168:	e3a0402d 	mov	r4, #45	; 0x2d
  11116c:	e2766000 	rsbs	r6, r6, #0
  111170:	e2e77000 	rsc	r7, r7, #0
  111174:	e5cd4037 	strb	r4, [sp, #55]	; 0x37
  111178:	e58d5014 	str	r5, [sp, #20]
  11117c:	e3a02001 	mov	r2, #1
  111180:	eafffcbd 	b	11047c <_vfiprintf_r+0x35c>
  111184:	e3530000 	cmp	r3, #0
  111188:	e1a01002 	mov	r1, r2
  11118c:	e3a00001 	mov	r0, #1
  111190:	e1a0a00b 	mov	sl, fp
  111194:	0afffe5b 	beq	110b08 <_vfiprintf_r+0x9e8>
  111198:	e28d2038 	add	r2, sp, #56	; 0x38
  11119c:	e3a03002 	mov	r3, #2
  1111a0:	e58b2000 	str	r2, [fp]
  1111a4:	e1a02003 	mov	r2, r3
  1111a8:	e58b3004 	str	r3, [fp, #4]
  1111ac:	eafffe4f 	b	110af0 <_vfiprintf_r+0x9d0>
  1111b0:	e3190010 	tst	r9, #16
  1111b4:	1a000008 	bne	1111dc <_vfiprintf_r+0x10bc>
  1111b8:	e3190040 	tst	r9, #64	; 0x40
  1111bc:	0a000006 	beq	1111dc <_vfiprintf_r+0x10bc>
  1111c0:	e59d201c 	ldr	r2, [sp, #28]
  1111c4:	e5923000 	ldr	r3, [r2]
  1111c8:	e2822004 	add	r2, r2, #4
  1111cc:	e58d201c 	str	r2, [sp, #28]
  1111d0:	e1dd21b0 	ldrh	r2, [sp, #16]
  1111d4:	e1c320b0 	strh	r2, [r3]
  1111d8:	eafffbfa 	b	1101c8 <_vfiprintf_r+0xa8>
  1111dc:	e59d201c 	ldr	r2, [sp, #28]
  1111e0:	e5923000 	ldr	r3, [r2]
  1111e4:	e2822004 	add	r2, r2, #4
  1111e8:	e58d201c 	str	r2, [sp, #28]
  1111ec:	e59d2010 	ldr	r2, [sp, #16]
  1111f0:	e5832000 	str	r2, [r3]
  1111f4:	eafffbf3 	b	1101c8 <_vfiprintf_r+0xa8>
  1111f8:	e59d000c 	ldr	r0, [sp, #12]
  1111fc:	e28d203c 	add	r2, sp, #60	; 0x3c
  111200:	e59d1004 	ldr	r1, [sp, #4]
  111204:	e58d302c 	str	r3, [sp, #44]	; 0x2c
  111208:	ebfffb94 	bl	110060 <__sprint_r.part.0>
  11120c:	e3500000 	cmp	r0, #0
  111210:	1afffecc 	bne	110d48 <_vfiprintf_r+0xc28>
  111214:	e59d1040 	ldr	r1, [sp, #64]	; 0x40
  111218:	e1a0a00b 	mov	sl, fp
  11121c:	e59d2044 	ldr	r2, [sp, #68]	; 0x44
  111220:	e59d302c 	ldr	r3, [sp, #44]	; 0x2c
  111224:	e2810001 	add	r0, r1, #1
  111228:	eafffe17 	b	110a8c <_vfiprintf_r+0x96c>
  11122c:	e59d3044 	ldr	r3, [sp, #68]	; 0x44
  111230:	e3530000 	cmp	r3, #0
  111234:	0afffec3 	beq	110d48 <_vfiprintf_r+0xc28>
  111238:	e59d000c 	ldr	r0, [sp, #12]
  11123c:	e28d203c 	add	r2, sp, #60	; 0x3c
  111240:	e59d1004 	ldr	r1, [sp, #4]
  111244:	ebfffb85 	bl	110060 <__sprint_r.part.0>
  111248:	eafffebe 	b	110d48 <_vfiprintf_r+0xc28>
  11124c:	e2622000 	rsb	r2, r2, #0
  111250:	e58d301c 	str	r3, [sp, #28]
  111254:	e1a00008 	mov	r0, r8
  111258:	eafffcf7 	b	11063c <_vfiprintf_r+0x51c>
  11125c:	e59d0024 	ldr	r0, [sp, #36]	; 0x24
  111260:	e58d601c 	str	r6, [sp, #28]
  111264:	faffe005 	blx	109280 <strlen>
  111268:	e3a03000 	mov	r3, #0
  11126c:	e1a05000 	mov	r5, r0
  111270:	e5dd4037 	ldrb	r4, [sp, #55]	; 0x37
  111274:	e58d3014 	str	r3, [sp, #20]
  111278:	eafffc99 	b	1104e4 <_vfiprintf_r+0x3c4>
  11127c:	e59d000c 	ldr	r0, [sp, #12]
  111280:	e28d203c 	add	r2, sp, #60	; 0x3c
  111284:	e59d1004 	ldr	r1, [sp, #4]
  111288:	ebfffb74 	bl	110060 <__sprint_r.part.0>
  11128c:	e3500000 	cmp	r0, #0
  111290:	1afffeac 	bne	110d48 <_vfiprintf_r+0xc28>
  111294:	e59d1040 	ldr	r1, [sp, #64]	; 0x40
  111298:	e1a0a00b 	mov	sl, fp
  11129c:	e59d2044 	ldr	r2, [sp, #68]	; 0x44
  1112a0:	e2810001 	add	r0, r1, #1
  1112a4:	eafffe17 	b	110b08 <_vfiprintf_r+0x9e8>
  1112a8:	e59d1040 	ldr	r1, [sp, #64]	; 0x40
  1112ac:	e3026a78 	movw	r6, #10872	; 0x2a78
  1112b0:	e3406011 	movt	r6, #17
  1112b4:	e59d2044 	ldr	r2, [sp, #68]	; 0x44
  1112b8:	e2811001 	add	r1, r1, #1
  1112bc:	eafffcc8 	b	1105e4 <_vfiprintf_r+0x4c4>
  1112c0:	e3550006 	cmp	r5, #6
  1112c4:	e3023920 	movw	r3, #10528	; 0x2920
  1112c8:	23a05006 	movcs	r5, #6
  1112cc:	e3403011 	movt	r3, #17
  1112d0:	e1c52fc5 	bic	r2, r5, r5, asr #31
  1112d4:	e58d601c 	str	r6, [sp, #28]
  1112d8:	e58d3024 	str	r3, [sp, #36]	; 0x24
  1112dc:	e58d2008 	str	r2, [sp, #8]
  1112e0:	eafffd4b 	b	110814 <_vfiprintf_r+0x6f4>
  1112e4:	e59d0040 	ldr	r0, [sp, #64]	; 0x40
  1112e8:	e3026a78 	movw	r6, #10872	; 0x2a78
  1112ec:	e3406011 	movt	r6, #17
  1112f0:	e2800001 	add	r0, r0, #1
  1112f4:	eafffe74 	b	110ccc <_vfiprintf_r+0xbac>
  1112f8:	e1a0c000 	mov	ip, r0
  1112fc:	eafffef5 	b	110ed8 <_vfiprintf_r+0xdb8>
  111300:	e5dd4037 	ldrb	r4, [sp, #55]	; 0x37
  111304:	e58d601c 	str	r6, [sp, #28]
  111308:	e58d0014 	str	r0, [sp, #20]
  11130c:	eafffc74 	b	1104e4 <_vfiprintf_r+0x3c4>
  111310:	e59d301c 	ldr	r3, [sp, #28]
  111314:	e5935000 	ldr	r5, [r3]
  111318:	e283c004 	add	ip, r3, #4
  11131c:	e58dc01c 	str	ip, [sp, #28]
  111320:	e5d83001 	ldrb	r3, [r8, #1]
  111324:	e3550000 	cmp	r5, #0
  111328:	aafffbc9 	bge	110254 <_vfiprintf_r+0x134>
  11132c:	eafffbc7 	b	110250 <_vfiprintf_r+0x130>
  111330:	00112a88 	.word	0x00112a88

00111334 <vfiprintf>:
  111334:	e302cb08 	movw	ip, #11016	; 0x2b08
  111338:	e52de004 	push	{lr}		; (str lr, [sp, #-4]!)
  11133c:	e340c011 	movt	ip, #17
  111340:	e1a0e001 	mov	lr, r1
  111344:	e1a03002 	mov	r3, r2
  111348:	e1a01000 	mov	r1, r0
  11134c:	e1a0200e 	mov	r2, lr
  111350:	e59c0000 	ldr	r0, [ip]
  111354:	e49de004 	pop	{lr}		; (ldr lr, [sp], #4)
  111358:	eafffb70 	b	110120 <_vfiprintf_r>

0011135c <__sbprintf>:
  11135c:	e1d1c0bc 	ldrh	ip, [r1, #12]
  111360:	e92d47f0 	push	{r4, r5, r6, r7, r8, r9, sl, lr}
  111364:	e1a04001 	mov	r4, r1
  111368:	e1d490be 	ldrh	r9, [r4, #14]
  11136c:	e24dde46 	sub	sp, sp, #1120	; 0x460
  111370:	e24dd008 	sub	sp, sp, #8
  111374:	e3ccc002 	bic	ip, ip, #2
  111378:	e594a064 	ldr	sl, [r4, #100]	; 0x64
  11137c:	e28d6068 	add	r6, sp, #104	; 0x68
  111380:	e594801c 	ldr	r8, [r4, #28]
  111384:	e3a0eb01 	mov	lr, #1024	; 0x400
  111388:	e5947024 	ldr	r7, [r4, #36]	; 0x24
  11138c:	e1a0100d 	mov	r1, sp
  111390:	e1cdc0bc 	strh	ip, [sp, #12]
  111394:	e3a0c000 	mov	ip, #0
  111398:	e1cd90be 	strh	r9, [sp, #14]
  11139c:	e1a09000 	mov	r9, r0
  1113a0:	e58d6000 	str	r6, [sp]
  1113a4:	e58d6010 	str	r6, [sp, #16]
  1113a8:	e58da064 	str	sl, [sp, #100]	; 0x64
  1113ac:	e58d801c 	str	r8, [sp, #28]
  1113b0:	e58d7024 	str	r7, [sp, #36]	; 0x24
  1113b4:	e58de008 	str	lr, [sp, #8]
  1113b8:	e58de014 	str	lr, [sp, #20]
  1113bc:	e58dc018 	str	ip, [sp, #24]
  1113c0:	ebfffb56 	bl	110120 <_vfiprintf_r>
  1113c4:	e2506000 	subs	r6, r0, #0
  1113c8:	ba000004 	blt	1113e0 <__sbprintf+0x84>
  1113cc:	e1a00009 	mov	r0, r9
  1113d0:	e1a0100d 	mov	r1, sp
  1113d4:	ebffede0 	bl	10cb5c <_fflush_r>
  1113d8:	e3500000 	cmp	r0, #0
  1113dc:	13e06000 	mvnne	r6, #0
  1113e0:	e1dd30bc 	ldrh	r3, [sp, #12]
  1113e4:	e1a00006 	mov	r0, r6
  1113e8:	e3130040 	tst	r3, #64	; 0x40
  1113ec:	11d430bc 	ldrhne	r3, [r4, #12]
  1113f0:	13833040 	orrne	r3, r3, #64	; 0x40
  1113f4:	11c430bc 	strhne	r3, [r4, #12]
  1113f8:	e28dde46 	add	sp, sp, #1120	; 0x460
  1113fc:	e28dd008 	add	sp, sp, #8
  111400:	e8bd87f0 	pop	{r4, r5, r6, r7, r8, r9, sl, pc}

00111404 <_write_r>:
  111404:	e92d4038 	push	{r3, r4, r5, lr}
  111408:	e303443c 	movw	r4, #13372	; 0x343c
  11140c:	e3a0c000 	mov	ip, #0
  111410:	e1a05000 	mov	r5, r0
  111414:	e3404011 	movt	r4, #17
  111418:	e1a00001 	mov	r0, r1
  11141c:	e1a01002 	mov	r1, r2
  111420:	e1a02003 	mov	r2, r3
  111424:	e584c000 	str	ip, [r4]
  111428:	ebffbccd 	bl	100764 <_write>
  11142c:	e3700001 	cmn	r0, #1
  111430:	18bd8038 	popne	{r3, r4, r5, pc}
  111434:	e5943000 	ldr	r3, [r4]
  111438:	e3530000 	cmp	r3, #0
  11143c:	15853000 	strne	r3, [r5]
  111440:	e8bd8038 	pop	{r3, r4, r5, pc}

00111444 <_calloc_r>:
  111444:	e92d4010 	push	{r4, lr}
  111448:	e0010192 	mul	r1, r2, r1
  11144c:	ebfff188 	bl	10da74 <_malloc_r>
  111450:	e2504000 	subs	r4, r0, #0
  111454:	0a00000b 	beq	111488 <_calloc_r+0x44>
  111458:	e5142004 	ldr	r2, [r4, #-4]
  11145c:	e3c22003 	bic	r2, r2, #3
  111460:	e2422004 	sub	r2, r2, #4
  111464:	e3520024 	cmp	r2, #36	; 0x24
  111468:	8a000016 	bhi	1114c8 <_calloc_r+0x84>
  11146c:	e3520013 	cmp	r2, #19
  111470:	91a03004 	movls	r3, r4
  111474:	8a000005 	bhi	111490 <_calloc_r+0x4c>
  111478:	e3a02000 	mov	r2, #0
  11147c:	e5832000 	str	r2, [r3]
  111480:	e5832004 	str	r2, [r3, #4]
  111484:	e5832008 	str	r2, [r3, #8]
  111488:	e1a00004 	mov	r0, r4
  11148c:	e8bd8010 	pop	{r4, pc}
  111490:	e352001b 	cmp	r2, #27
  111494:	e3a01000 	mov	r1, #0
  111498:	e5841000 	str	r1, [r4]
  11149c:	92843008 	addls	r3, r4, #8
  1114a0:	e5841004 	str	r1, [r4, #4]
  1114a4:	9afffff3 	bls	111478 <_calloc_r+0x34>
  1114a8:	e3520024 	cmp	r2, #36	; 0x24
  1114ac:	e5841008 	str	r1, [r4, #8]
  1114b0:	e584100c 	str	r1, [r4, #12]
  1114b4:	12843010 	addne	r3, r4, #16
  1114b8:	05841010 	streq	r1, [r4, #16]
  1114bc:	02843018 	addeq	r3, r4, #24
  1114c0:	05841014 	streq	r1, [r4, #20]
  1114c4:	eaffffeb 	b	111478 <_calloc_r+0x34>
  1114c8:	e3a01000 	mov	r1, #0
  1114cc:	ebfff506 	bl	10e8ec <memset>
  1114d0:	e1a00004 	mov	r0, r4
  1114d4:	e8bd8010 	pop	{r4, pc}

001114d8 <_close_r>:
  1114d8:	e92d4038 	push	{r3, r4, r5, lr}
  1114dc:	e303443c 	movw	r4, #13372	; 0x343c
  1114e0:	e3a03000 	mov	r3, #0
  1114e4:	e1a05000 	mov	r5, r0
  1114e8:	e3404011 	movt	r4, #17
  1114ec:	e1a00001 	mov	r0, r1
  1114f0:	e5843000 	str	r3, [r4]
  1114f4:	ebffbc54 	bl	10064c <_close>
  1114f8:	e3700001 	cmn	r0, #1
  1114fc:	18bd8038 	popne	{r3, r4, r5, pc}
  111500:	e5943000 	ldr	r3, [r4]
  111504:	e3530000 	cmp	r3, #0
  111508:	15853000 	strne	r3, [r5]
  11150c:	e8bd8038 	pop	{r3, r4, r5, pc}

00111510 <_fclose_r>:
  111510:	e3510000 	cmp	r1, #0
  111514:	0a000038 	beq	1115fc <_fclose_r+0xec>
  111518:	e3500000 	cmp	r0, #0
  11151c:	e92d4070 	push	{r4, r5, r6, lr}
  111520:	e1a06000 	mov	r6, r0
  111524:	e1a04001 	mov	r4, r1
  111528:	0a000002 	beq	111538 <_fclose_r+0x28>
  11152c:	e5903038 	ldr	r3, [r0, #56]	; 0x38
  111530:	e3530000 	cmp	r3, #0
  111534:	0a00002a 	beq	1115e4 <_fclose_r+0xd4>
  111538:	e1d430fc 	ldrsh	r3, [r4, #12]
  11153c:	e3530000 	cmp	r3, #0
  111540:	1a000001 	bne	11154c <_fclose_r+0x3c>
  111544:	e3a00000 	mov	r0, #0
  111548:	e8bd8070 	pop	{r4, r5, r6, pc}
  11154c:	e1a00006 	mov	r0, r6
  111550:	e1a01004 	mov	r1, r4
  111554:	ebffecf1 	bl	10c920 <__sflush_r>
  111558:	e594302c 	ldr	r3, [r4, #44]	; 0x2c
  11155c:	e1a05000 	mov	r5, r0
  111560:	e3530000 	cmp	r3, #0
  111564:	0a000004 	beq	11157c <_fclose_r+0x6c>
  111568:	e1a00006 	mov	r0, r6
  11156c:	e594101c 	ldr	r1, [r4, #28]
  111570:	e12fff33 	blx	r3
  111574:	e3500000 	cmp	r0, #0
  111578:	b3e05000 	mvnlt	r5, #0
  11157c:	e1d430bc 	ldrh	r3, [r4, #12]
  111580:	e3130080 	tst	r3, #128	; 0x80
  111584:	1a000018 	bne	1115ec <_fclose_r+0xdc>
  111588:	e5941030 	ldr	r1, [r4, #48]	; 0x30
  11158c:	e3510000 	cmp	r1, #0
  111590:	0a000006 	beq	1115b0 <_fclose_r+0xa0>
  111594:	e2843040 	add	r3, r4, #64	; 0x40
  111598:	e1510003 	cmp	r1, r3
  11159c:	0a000001 	beq	1115a8 <_fclose_r+0x98>
  1115a0:	e1a00006 	mov	r0, r6
  1115a4:	ebffee8e 	bl	10cfe4 <_free_r>
  1115a8:	e3a03000 	mov	r3, #0
  1115ac:	e5843030 	str	r3, [r4, #48]	; 0x30
  1115b0:	e5941044 	ldr	r1, [r4, #68]	; 0x44
  1115b4:	e3510000 	cmp	r1, #0
  1115b8:	0a000003 	beq	1115cc <_fclose_r+0xbc>
  1115bc:	e1a00006 	mov	r0, r6
  1115c0:	ebffee87 	bl	10cfe4 <_free_r>
  1115c4:	e3a03000 	mov	r3, #0
  1115c8:	e5843044 	str	r3, [r4, #68]	; 0x44
  1115cc:	ebffee35 	bl	10cea8 <__sfp_lock_acquire>
  1115d0:	e3a03000 	mov	r3, #0
  1115d4:	e1c430bc 	strh	r3, [r4, #12]
  1115d8:	ebffee33 	bl	10ceac <__sfp_lock_release>
  1115dc:	e1a00005 	mov	r0, r5
  1115e0:	e8bd8070 	pop	{r4, r5, r6, pc}
  1115e4:	ebffee2b 	bl	10ce98 <__sinit>
  1115e8:	eaffffd2 	b	111538 <_fclose_r+0x28>
  1115ec:	e1a00006 	mov	r0, r6
  1115f0:	e5941010 	ldr	r1, [r4, #16]
  1115f4:	ebffee7a 	bl	10cfe4 <_free_r>
  1115f8:	eaffffe2 	b	111588 <_fclose_r+0x78>
  1115fc:	e3a00000 	mov	r0, #0
  111600:	e12fff1e 	bx	lr

00111604 <fclose>:
  111604:	e3023b08 	movw	r3, #11016	; 0x2b08
  111608:	e1a01000 	mov	r1, r0
  11160c:	e3403011 	movt	r3, #17
  111610:	e5930000 	ldr	r0, [r3]
  111614:	eaffffbd 	b	111510 <_fclose_r>

00111618 <_fputwc_r>:
  111618:	e1d230bc 	ldrh	r3, [r2, #12]
  11161c:	e92d41f0 	push	{r4, r5, r6, r7, r8, lr}
  111620:	e1a04002 	mov	r4, r2
  111624:	e24dd008 	sub	sp, sp, #8
  111628:	e1a07000 	mov	r7, r0
  11162c:	e3130a02 	tst	r3, #8192	; 0x2000
  111630:	e1a06001 	mov	r6, r1
  111634:	05922064 	ldreq	r2, [r2, #100]	; 0x64
  111638:	03833a02 	orreq	r3, r3, #8192	; 0x2000
  11163c:	01c430bc 	strheq	r3, [r4, #12]
  111640:	03823a02 	orreq	r3, r2, #8192	; 0x2000
  111644:	05843064 	streq	r3, [r4, #100]	; 0x64
  111648:	ebfff09b 	bl	10d8bc <__locale_mb_cur_max>
  11164c:	e3500001 	cmp	r0, #1
  111650:	0a000035 	beq	11172c <_fputwc_r+0x114>
  111654:	e1a00007 	mov	r0, r7
  111658:	e28d1004 	add	r1, sp, #4
  11165c:	e1a02006 	mov	r2, r6
  111660:	e284305c 	add	r3, r4, #92	; 0x5c
  111664:	eb00011f 	bl	111ae8 <_wcrtomb_r>
  111668:	e3700001 	cmn	r0, #1
  11166c:	e1a08000 	mov	r8, r0
  111670:	0a000028 	beq	111718 <_fputwc_r+0x100>
  111674:	e3500000 	cmp	r0, #0
  111678:	15dd1004 	ldrbne	r1, [sp, #4]
  11167c:	0a000031 	beq	111748 <_fputwc_r+0x130>
  111680:	e3a05000 	mov	r5, #0
  111684:	ea000009 	b	1116b0 <_fputwc_r+0x98>
  111688:	e5943000 	ldr	r3, [r4]
  11168c:	e5c31000 	strb	r1, [r3]
  111690:	e5943000 	ldr	r3, [r4]
  111694:	e2833001 	add	r3, r3, #1
  111698:	e5843000 	str	r3, [r4]
  11169c:	e2855001 	add	r5, r5, #1
  1116a0:	e1580005 	cmp	r8, r5
  1116a4:	9a000027 	bls	111748 <_fputwc_r+0x130>
  1116a8:	e28d3004 	add	r3, sp, #4
  1116ac:	e7d31005 	ldrb	r1, [r3, r5]
  1116b0:	e5943008 	ldr	r3, [r4, #8]
  1116b4:	e2433001 	sub	r3, r3, #1
  1116b8:	e3530000 	cmp	r3, #0
  1116bc:	e5843008 	str	r3, [r4, #8]
  1116c0:	aafffff0 	bge	111688 <_fputwc_r+0x70>
  1116c4:	e5942018 	ldr	r2, [r4, #24]
  1116c8:	e1530002 	cmp	r3, r2
  1116cc:	ba000006 	blt	1116ec <_fputwc_r+0xd4>
  1116d0:	e5943000 	ldr	r3, [r4]
  1116d4:	e5c31000 	strb	r1, [r3]
  1116d8:	e5943000 	ldr	r3, [r4]
  1116dc:	e5d31000 	ldrb	r1, [r3]
  1116e0:	e2833001 	add	r3, r3, #1
  1116e4:	e351000a 	cmp	r1, #10
  1116e8:	1affffea 	bne	111698 <_fputwc_r+0x80>
  1116ec:	e1a00007 	mov	r0, r7
  1116f0:	e1a02004 	mov	r2, r4
  1116f4:	eb0000ac 	bl	1119ac <__swbuf_r>
  1116f8:	e3700001 	cmn	r0, #1
  1116fc:	13a00000 	movne	r0, #0
  111700:	03a00001 	moveq	r0, #1
  111704:	e3500000 	cmp	r0, #0
  111708:	0affffe3 	beq	11169c <_fputwc_r+0x84>
  11170c:	e3e00000 	mvn	r0, #0
  111710:	e28dd008 	add	sp, sp, #8
  111714:	e8bd81f0 	pop	{r4, r5, r6, r7, r8, pc}
  111718:	e1d430bc 	ldrh	r3, [r4, #12]
  11171c:	e3833040 	orr	r3, r3, #64	; 0x40
  111720:	e1c430bc 	strh	r3, [r4, #12]
  111724:	e28dd008 	add	sp, sp, #8
  111728:	e8bd81f0 	pop	{r4, r5, r6, r7, r8, pc}
  11172c:	e2463001 	sub	r3, r6, #1
  111730:	e35300fe 	cmp	r3, #254	; 0xfe
  111734:	8affffc6 	bhi	111654 <_fputwc_r+0x3c>
  111738:	e6ef1076 	uxtb	r1, r6
  11173c:	e1a08000 	mov	r8, r0
  111740:	e5cd1004 	strb	r1, [sp, #4]
  111744:	eaffffcd 	b	111680 <_fputwc_r+0x68>
  111748:	e1a00006 	mov	r0, r6
  11174c:	e28dd008 	add	sp, sp, #8
  111750:	e8bd81f0 	pop	{r4, r5, r6, r7, r8, pc}

00111754 <fputwc>:
  111754:	e3023b08 	movw	r3, #11016	; 0x2b08
  111758:	e92d4070 	push	{r4, r5, r6, lr}
  11175c:	e3403011 	movt	r3, #17
  111760:	e1a06000 	mov	r6, r0
  111764:	e1a05001 	mov	r5, r1
  111768:	e5934000 	ldr	r4, [r3]
  11176c:	e3540000 	cmp	r4, #0
  111770:	0a000004 	beq	111788 <fputwc+0x34>
  111774:	e5943038 	ldr	r3, [r4, #56]	; 0x38
  111778:	e3530000 	cmp	r3, #0
  11177c:	1a000001 	bne	111788 <fputwc+0x34>
  111780:	e1a00004 	mov	r0, r4
  111784:	ebffedc3 	bl	10ce98 <__sinit>
  111788:	e1a00004 	mov	r0, r4
  11178c:	e1a01006 	mov	r1, r6
  111790:	e1a02005 	mov	r2, r5
  111794:	e8bd4070 	pop	{r4, r5, r6, lr}
  111798:	eaffff9e 	b	111618 <_fputwc_r>

0011179c <_fstat_r>:
  11179c:	e92d4038 	push	{r3, r4, r5, lr}
  1117a0:	e303443c 	movw	r4, #13372	; 0x343c
  1117a4:	e3a03000 	mov	r3, #0
  1117a8:	e1a05000 	mov	r5, r0
  1117ac:	e3404011 	movt	r4, #17
  1117b0:	e1a00001 	mov	r0, r1
  1117b4:	e1a01002 	mov	r1, r2
  1117b8:	e5843000 	str	r3, [r4]
  1117bc:	ebffbbb0 	bl	100684 <_fstat>
  1117c0:	e3700001 	cmn	r0, #1
  1117c4:	18bd8038 	popne	{r3, r4, r5, pc}
  1117c8:	e5943000 	ldr	r3, [r4]
  1117cc:	e3530000 	cmp	r3, #0
  1117d0:	15853000 	strne	r3, [r5]
  1117d4:	e8bd8038 	pop	{r3, r4, r5, pc}

001117d8 <_isatty_r>:
  1117d8:	e92d4038 	push	{r3, r4, r5, lr}
  1117dc:	e303443c 	movw	r4, #13372	; 0x343c
  1117e0:	e3a03000 	mov	r3, #0
  1117e4:	e1a05000 	mov	r5, r0
  1117e8:	e3404011 	movt	r4, #17
  1117ec:	e1a00001 	mov	r0, r1
  1117f0:	e5843000 	str	r3, [r4]
  1117f4:	ebffbbb1 	bl	1006c0 <_isatty>
  1117f8:	e3700001 	cmn	r0, #1
  1117fc:	18bd8038 	popne	{r3, r4, r5, pc}
  111800:	e5943000 	ldr	r3, [r4]
  111804:	e3530000 	cmp	r3, #0
  111808:	15853000 	strne	r3, [r5]
  11180c:	e8bd8038 	pop	{r3, r4, r5, pc}

00111810 <_lseek_r>:
  111810:	e92d4038 	push	{r3, r4, r5, lr}
  111814:	e303443c 	movw	r4, #13372	; 0x343c
  111818:	e3a0c000 	mov	ip, #0
  11181c:	e1a05000 	mov	r5, r0
  111820:	e3404011 	movt	r4, #17
  111824:	e1a00001 	mov	r0, r1
  111828:	e1a01002 	mov	r1, r2
  11182c:	e1a02003 	mov	r2, r3
  111830:	e584c000 	str	ip, [r4]
  111834:	ebffbbaf 	bl	1006f8 <_lseek>
  111838:	e3700001 	cmn	r0, #1
  11183c:	18bd8038 	popne	{r3, r4, r5, pc}
  111840:	e5943000 	ldr	r3, [r4]
  111844:	e3530000 	cmp	r3, #0
  111848:	15853000 	strne	r3, [r5]
  11184c:	e8bd8038 	pop	{r3, r4, r5, pc}

00111850 <_read_r>:
  111850:	e92d4038 	push	{r3, r4, r5, lr}
  111854:	e303443c 	movw	r4, #13372	; 0x343c
  111858:	e3a0c000 	mov	ip, #0
  11185c:	e1a05000 	mov	r5, r0
  111860:	e3404011 	movt	r4, #17
  111864:	e1a00001 	mov	r0, r1
  111868:	e1a01002 	mov	r1, r2
  11186c:	e1a02003 	mov	r2, r3
  111870:	e584c000 	str	ip, [r4]
  111874:	ebffbbaf 	bl	100738 <_read>
  111878:	e3700001 	cmn	r0, #1
  11187c:	18bd8038 	popne	{r3, r4, r5, pc}
  111880:	e5943000 	ldr	r3, [r4]
  111884:	e3530000 	cmp	r3, #0
  111888:	15853000 	strne	r3, [r5]
  11188c:	e8bd8038 	pop	{r3, r4, r5, pc}

00111890 <cleanup_glue>:
  111890:	e92d4038 	push	{r3, r4, r5, lr}
  111894:	e1a04001 	mov	r4, r1
  111898:	e5911000 	ldr	r1, [r1]
  11189c:	e1a05000 	mov	r5, r0
  1118a0:	e3510000 	cmp	r1, #0
  1118a4:	0a000000 	beq	1118ac <cleanup_glue+0x1c>
  1118a8:	ebfffff8 	bl	111890 <cleanup_glue>
  1118ac:	e1a00005 	mov	r0, r5
  1118b0:	e1a01004 	mov	r1, r4
  1118b4:	e8bd4038 	pop	{r3, r4, r5, lr}
  1118b8:	eaffedc9 	b	10cfe4 <_free_r>

001118bc <_reclaim_reent>:
  1118bc:	e3023b08 	movw	r3, #11016	; 0x2b08
  1118c0:	e3403011 	movt	r3, #17
  1118c4:	e5933000 	ldr	r3, [r3]
  1118c8:	e1500003 	cmp	r0, r3
  1118cc:	012fff1e 	bxeq	lr
  1118d0:	e590304c 	ldr	r3, [r0, #76]	; 0x4c
  1118d4:	e92d4070 	push	{r4, r5, r6, lr}
  1118d8:	e1a05000 	mov	r5, r0
  1118dc:	e3530000 	cmp	r3, #0
  1118e0:	0a00000f 	beq	111924 <_reclaim_reent+0x68>
  1118e4:	e3a06000 	mov	r6, #0
  1118e8:	e7931006 	ldr	r1, [r3, r6]
  1118ec:	e3510000 	cmp	r1, #0
  1118f0:	0a000005 	beq	11190c <_reclaim_reent+0x50>
  1118f4:	e5914000 	ldr	r4, [r1]
  1118f8:	e1a00005 	mov	r0, r5
  1118fc:	ebffedb8 	bl	10cfe4 <_free_r>
  111900:	e2541000 	subs	r1, r4, #0
  111904:	1afffffa 	bne	1118f4 <_reclaim_reent+0x38>
  111908:	e595304c 	ldr	r3, [r5, #76]	; 0x4c
  11190c:	e2866004 	add	r6, r6, #4
  111910:	e3560080 	cmp	r6, #128	; 0x80
  111914:	1afffff3 	bne	1118e8 <_reclaim_reent+0x2c>
  111918:	e1a01003 	mov	r1, r3
  11191c:	e1a00005 	mov	r0, r5
  111920:	ebffedaf 	bl	10cfe4 <_free_r>
  111924:	e5951040 	ldr	r1, [r5, #64]	; 0x40
  111928:	e3510000 	cmp	r1, #0
  11192c:	0a000001 	beq	111938 <_reclaim_reent+0x7c>
  111930:	e1a00005 	mov	r0, r5
  111934:	ebffedaa 	bl	10cfe4 <_free_r>
  111938:	e5951148 	ldr	r1, [r5, #328]	; 0x148
  11193c:	e3510000 	cmp	r1, #0
  111940:	0a000008 	beq	111968 <_reclaim_reent+0xac>
  111944:	e2856f53 	add	r6, r5, #332	; 0x14c
  111948:	e1510006 	cmp	r1, r6
  11194c:	0a000005 	beq	111968 <_reclaim_reent+0xac>
  111950:	e5914000 	ldr	r4, [r1]
  111954:	e1a00005 	mov	r0, r5
  111958:	ebffeda1 	bl	10cfe4 <_free_r>
  11195c:	e1560004 	cmp	r6, r4
  111960:	e1a01004 	mov	r1, r4
  111964:	1afffff9 	bne	111950 <_reclaim_reent+0x94>
  111968:	e5951054 	ldr	r1, [r5, #84]	; 0x54
  11196c:	e3510000 	cmp	r1, #0
  111970:	0a000001 	beq	11197c <_reclaim_reent+0xc0>
  111974:	e1a00005 	mov	r0, r5
  111978:	ebffed99 	bl	10cfe4 <_free_r>
  11197c:	e5953038 	ldr	r3, [r5, #56]	; 0x38
  111980:	e3530000 	cmp	r3, #0
  111984:	08bd8070 	popeq	{r4, r5, r6, pc}
  111988:	e595303c 	ldr	r3, [r5, #60]	; 0x3c
  11198c:	e1a00005 	mov	r0, r5
  111990:	e12fff33 	blx	r3
  111994:	e59512e0 	ldr	r1, [r5, #736]	; 0x2e0
  111998:	e3510000 	cmp	r1, #0
  11199c:	08bd8070 	popeq	{r4, r5, r6, pc}
  1119a0:	e1a00005 	mov	r0, r5
  1119a4:	e8bd4070 	pop	{r4, r5, r6, lr}
  1119a8:	eaffffb8 	b	111890 <cleanup_glue>

001119ac <__swbuf_r>:
  1119ac:	e92d4070 	push	{r4, r5, r6, lr}
  1119b0:	e2506000 	subs	r6, r0, #0
  1119b4:	e1a05001 	mov	r5, r1
  1119b8:	e1a04002 	mov	r4, r2
  1119bc:	0a000002 	beq	1119cc <__swbuf_r+0x20>
  1119c0:	e5963038 	ldr	r3, [r6, #56]	; 0x38
  1119c4:	e3530000 	cmp	r3, #0
  1119c8:	0a00003e 	beq	111ac8 <__swbuf_r+0x11c>
  1119cc:	e1d420bc 	ldrh	r2, [r4, #12]
  1119d0:	e5943018 	ldr	r3, [r4, #24]
  1119d4:	e6ffc072 	uxth	ip, r2
  1119d8:	e5843008 	str	r3, [r4, #8]
  1119dc:	e31c0008 	tst	ip, #8
  1119e0:	0a000020 	beq	111a68 <__swbuf_r+0xbc>
  1119e4:	e5943010 	ldr	r3, [r4, #16]
  1119e8:	e3530000 	cmp	r3, #0
  1119ec:	0a00001d 	beq	111a68 <__swbuf_r+0xbc>
  1119f0:	e31c0a02 	tst	ip, #8192	; 0x2000
  1119f4:	e6ef5075 	uxtb	r5, r5
  1119f8:	05941064 	ldreq	r1, [r4, #100]	; 0x64
  1119fc:	03822a02 	orreq	r2, r2, #8192	; 0x2000
  111a00:	01c420bc 	strheq	r2, [r4, #12]
  111a04:	03c12a02 	biceq	r2, r1, #8192	; 0x2000
  111a08:	e5941014 	ldr	r1, [r4, #20]
  111a0c:	05842064 	streq	r2, [r4, #100]	; 0x64
  111a10:	e5942000 	ldr	r2, [r4]
  111a14:	e0633002 	rsb	r3, r3, r2
  111a18:	e1530001 	cmp	r3, r1
  111a1c:	b2833001 	addlt	r3, r3, #1
  111a20:	aa000019 	bge	111a8c <__swbuf_r+0xe0>
  111a24:	e5941008 	ldr	r1, [r4, #8]
  111a28:	e2820001 	add	r0, r2, #1
  111a2c:	e5840000 	str	r0, [r4]
  111a30:	e2411001 	sub	r1, r1, #1
  111a34:	e5841008 	str	r1, [r4, #8]
  111a38:	e5c25000 	strb	r5, [r2]
  111a3c:	e5942014 	ldr	r2, [r4, #20]
  111a40:	e1520003 	cmp	r2, r3
  111a44:	0a000018 	beq	111aac <__swbuf_r+0x100>
  111a48:	e1d430bc 	ldrh	r3, [r4, #12]
  111a4c:	e355000a 	cmp	r5, #10
  111a50:	13a03000 	movne	r3, #0
  111a54:	02033001 	andeq	r3, r3, #1
  111a58:	e3530000 	cmp	r3, #0
  111a5c:	1a000012 	bne	111aac <__swbuf_r+0x100>
  111a60:	e1a00005 	mov	r0, r5
  111a64:	e8bd8070 	pop	{r4, r5, r6, pc}
  111a68:	e1a00006 	mov	r0, r6
  111a6c:	e1a01004 	mov	r1, r4
  111a70:	ebffe632 	bl	10b340 <__swsetup_r>
  111a74:	e3500000 	cmp	r0, #0
  111a78:	1a000010 	bne	111ac0 <__swbuf_r+0x114>
  111a7c:	e1d420bc 	ldrh	r2, [r4, #12]
  111a80:	e5943010 	ldr	r3, [r4, #16]
  111a84:	e6ffc072 	uxth	ip, r2
  111a88:	eaffffd8 	b	1119f0 <__swbuf_r+0x44>
  111a8c:	e1a00006 	mov	r0, r6
  111a90:	e1a01004 	mov	r1, r4
  111a94:	ebffec30 	bl	10cb5c <_fflush_r>
  111a98:	e3500000 	cmp	r0, #0
  111a9c:	1a000007 	bne	111ac0 <__swbuf_r+0x114>
  111aa0:	e5942000 	ldr	r2, [r4]
  111aa4:	e3a03001 	mov	r3, #1
  111aa8:	eaffffdd 	b	111a24 <__swbuf_r+0x78>
  111aac:	e1a00006 	mov	r0, r6
  111ab0:	e1a01004 	mov	r1, r4
  111ab4:	ebffec28 	bl	10cb5c <_fflush_r>
  111ab8:	e3500000 	cmp	r0, #0
  111abc:	0affffe7 	beq	111a60 <__swbuf_r+0xb4>
  111ac0:	e3e00000 	mvn	r0, #0
  111ac4:	e8bd8070 	pop	{r4, r5, r6, pc}
  111ac8:	ebffecf2 	bl	10ce98 <__sinit>
  111acc:	eaffffbe 	b	1119cc <__swbuf_r+0x20>

00111ad0 <__swbuf>:
  111ad0:	e3023b08 	movw	r3, #11016	; 0x2b08
  111ad4:	e1a02001 	mov	r2, r1
  111ad8:	e3403011 	movt	r3, #17
  111adc:	e1a01000 	mov	r1, r0
  111ae0:	e5930000 	ldr	r0, [r3]
  111ae4:	eaffffb0 	b	1119ac <__swbuf_r>

00111ae8 <_wcrtomb_r>:
  111ae8:	e92d41f0 	push	{r4, r5, r6, r7, r8, lr}
  111aec:	e2516000 	subs	r6, r1, #0
  111af0:	e24dd018 	sub	sp, sp, #24
  111af4:	e1a04000 	mov	r4, r0
  111af8:	e1a05003 	mov	r5, r3
  111afc:	0a000011 	beq	111b48 <_wcrtomb_r+0x60>
  111b00:	e303c3c4 	movw	ip, #13252	; 0x33c4
  111b04:	e1a07002 	mov	r7, r2
  111b08:	e340c011 	movt	ip, #17
  111b0c:	e59c8000 	ldr	r8, [ip]
  111b10:	ebffef66 	bl	10d8b0 <__locale_charset>
  111b14:	e58d5000 	str	r5, [sp]
  111b18:	e1a03000 	mov	r3, r0
  111b1c:	e1a01006 	mov	r1, r6
  111b20:	e1a00004 	mov	r0, r4
  111b24:	e1a02007 	mov	r2, r7
  111b28:	e12fff38 	blx	r8
  111b2c:	e3700001 	cmn	r0, #1
  111b30:	03a02000 	moveq	r2, #0
  111b34:	03a0308a 	moveq	r3, #138	; 0x8a
  111b38:	05852000 	streq	r2, [r5]
  111b3c:	05843000 	streq	r3, [r4]
  111b40:	e28dd018 	add	sp, sp, #24
  111b44:	e8bd81f0 	pop	{r4, r5, r6, r7, r8, pc}
  111b48:	e30333c4 	movw	r3, #13252	; 0x33c4
  111b4c:	e3403011 	movt	r3, #17
  111b50:	e5937000 	ldr	r7, [r3]
  111b54:	ebffef55 	bl	10d8b0 <__locale_charset>
  111b58:	e58d5000 	str	r5, [sp]
  111b5c:	e1a03000 	mov	r3, r0
  111b60:	e1a02006 	mov	r2, r6
  111b64:	e1a00004 	mov	r0, r4
  111b68:	e28d100c 	add	r1, sp, #12
  111b6c:	e12fff37 	blx	r7
  111b70:	eaffffed 	b	111b2c <_wcrtomb_r+0x44>

00111b74 <wcrtomb>:
  111b74:	e92d41f0 	push	{r4, r5, r6, r7, r8, lr}
  111b78:	e3023b08 	movw	r3, #11016	; 0x2b08
  111b7c:	e2506000 	subs	r6, r0, #0
  111b80:	e3403011 	movt	r3, #17
  111b84:	e24dd018 	sub	sp, sp, #24
  111b88:	e1a05002 	mov	r5, r2
  111b8c:	e5934000 	ldr	r4, [r3]
  111b90:	0a000011 	beq	111bdc <wcrtomb+0x68>
  111b94:	e30333c4 	movw	r3, #13252	; 0x33c4
  111b98:	e1a07001 	mov	r7, r1
  111b9c:	e3403011 	movt	r3, #17
  111ba0:	e5938000 	ldr	r8, [r3]
  111ba4:	ebffef41 	bl	10d8b0 <__locale_charset>
  111ba8:	e58d5000 	str	r5, [sp]
  111bac:	e1a03000 	mov	r3, r0
  111bb0:	e1a01006 	mov	r1, r6
  111bb4:	e1a00004 	mov	r0, r4
  111bb8:	e1a02007 	mov	r2, r7
  111bbc:	e12fff38 	blx	r8
  111bc0:	e3700001 	cmn	r0, #1
  111bc4:	03a02000 	moveq	r2, #0
  111bc8:	03a0308a 	moveq	r3, #138	; 0x8a
  111bcc:	05852000 	streq	r2, [r5]
  111bd0:	05843000 	streq	r3, [r4]
  111bd4:	e28dd018 	add	sp, sp, #24
  111bd8:	e8bd81f0 	pop	{r4, r5, r6, r7, r8, pc}
  111bdc:	e30333c4 	movw	r3, #13252	; 0x33c4
  111be0:	e3403011 	movt	r3, #17
  111be4:	e5937000 	ldr	r7, [r3]
  111be8:	ebffef30 	bl	10d8b0 <__locale_charset>
  111bec:	e58d5000 	str	r5, [sp]
  111bf0:	e1a03000 	mov	r3, r0
  111bf4:	e1a02006 	mov	r2, r6
  111bf8:	e1a00004 	mov	r0, r4
  111bfc:	e28d100c 	add	r1, sp, #12
  111c00:	e12fff37 	blx	r7
  111c04:	eaffffed 	b	111bc0 <wcrtomb+0x4c>

00111c08 <__ascii_wctomb>:
  111c08:	e3510000 	cmp	r1, #0
  111c0c:	0a000005 	beq	111c28 <__ascii_wctomb+0x20>
  111c10:	e35200ff 	cmp	r2, #255	; 0xff
  111c14:	95c12000 	strbls	r2, [r1]
  111c18:	83e01000 	mvnhi	r1, #0
  111c1c:	93a01001 	movls	r1, #1
  111c20:	83a0308a 	movhi	r3, #138	; 0x8a
  111c24:	85803000 	strhi	r3, [r0]
  111c28:	e1a00001 	mov	r0, r1
  111c2c:	e12fff1e 	bx	lr

00111c30 <_wctomb_r>:
  111c30:	e303c3c4 	movw	ip, #13252	; 0x33c4
  111c34:	e92d41f0 	push	{r4, r5, r6, r7, r8, lr}
  111c38:	e340c011 	movt	ip, #17
  111c3c:	e24dd008 	sub	sp, sp, #8
  111c40:	e1a07003 	mov	r7, r3
  111c44:	e1a08000 	mov	r8, r0
  111c48:	e1a06001 	mov	r6, r1
  111c4c:	e1a05002 	mov	r5, r2
  111c50:	e59c4000 	ldr	r4, [ip]
  111c54:	ebffef15 	bl	10d8b0 <__locale_charset>
  111c58:	e58d7000 	str	r7, [sp]
  111c5c:	e1a03000 	mov	r3, r0
  111c60:	e1a01006 	mov	r1, r6
  111c64:	e1a00008 	mov	r0, r8
  111c68:	e1a02005 	mov	r2, r5
  111c6c:	e12fff34 	blx	r4
  111c70:	e28dd008 	add	sp, sp, #8
  111c74:	e8bd81f0 	pop	{r4, r5, r6, r7, r8, pc}

00111c78 <__aeabi_uidiv>:
  111c78:	e2512001 	subs	r2, r1, #1
  111c7c:	012fff1e 	bxeq	lr
  111c80:	3a000074 	bcc	111e58 <__aeabi_uidiv+0x1e0>
  111c84:	e1500001 	cmp	r0, r1
  111c88:	9a00006b 	bls	111e3c <__aeabi_uidiv+0x1c4>
  111c8c:	e1110002 	tst	r1, r2
  111c90:	0a00006c 	beq	111e48 <__aeabi_uidiv+0x1d0>
  111c94:	e16f3f10 	clz	r3, r0
  111c98:	e16f2f11 	clz	r2, r1
  111c9c:	e0423003 	sub	r3, r2, r3
  111ca0:	e273301f 	rsbs	r3, r3, #31
  111ca4:	10833083 	addne	r3, r3, r3, lsl #1
  111ca8:	e3a02000 	mov	r2, #0
  111cac:	108ff103 	addne	pc, pc, r3, lsl #2
  111cb0:	e320f000 	nop	{0}
  111cb4:	e1500f81 	cmp	r0, r1, lsl #31
  111cb8:	e0a22002 	adc	r2, r2, r2
  111cbc:	20400f81 	subcs	r0, r0, r1, lsl #31
  111cc0:	e1500f01 	cmp	r0, r1, lsl #30
  111cc4:	e0a22002 	adc	r2, r2, r2
  111cc8:	20400f01 	subcs	r0, r0, r1, lsl #30
  111ccc:	e1500e81 	cmp	r0, r1, lsl #29
  111cd0:	e0a22002 	adc	r2, r2, r2
  111cd4:	20400e81 	subcs	r0, r0, r1, lsl #29
  111cd8:	e1500e01 	cmp	r0, r1, lsl #28
  111cdc:	e0a22002 	adc	r2, r2, r2
  111ce0:	20400e01 	subcs	r0, r0, r1, lsl #28
  111ce4:	e1500d81 	cmp	r0, r1, lsl #27
  111ce8:	e0a22002 	adc	r2, r2, r2
  111cec:	20400d81 	subcs	r0, r0, r1, lsl #27
  111cf0:	e1500d01 	cmp	r0, r1, lsl #26
  111cf4:	e0a22002 	adc	r2, r2, r2
  111cf8:	20400d01 	subcs	r0, r0, r1, lsl #26
  111cfc:	e1500c81 	cmp	r0, r1, lsl #25
  111d00:	e0a22002 	adc	r2, r2, r2
  111d04:	20400c81 	subcs	r0, r0, r1, lsl #25
  111d08:	e1500c01 	cmp	r0, r1, lsl #24
  111d0c:	e0a22002 	adc	r2, r2, r2
  111d10:	20400c01 	subcs	r0, r0, r1, lsl #24
  111d14:	e1500b81 	cmp	r0, r1, lsl #23
  111d18:	e0a22002 	adc	r2, r2, r2
  111d1c:	20400b81 	subcs	r0, r0, r1, lsl #23
  111d20:	e1500b01 	cmp	r0, r1, lsl #22
  111d24:	e0a22002 	adc	r2, r2, r2
  111d28:	20400b01 	subcs	r0, r0, r1, lsl #22
  111d2c:	e1500a81 	cmp	r0, r1, lsl #21
  111d30:	e0a22002 	adc	r2, r2, r2
  111d34:	20400a81 	subcs	r0, r0, r1, lsl #21
  111d38:	e1500a01 	cmp	r0, r1, lsl #20
  111d3c:	e0a22002 	adc	r2, r2, r2
  111d40:	20400a01 	subcs	r0, r0, r1, lsl #20
  111d44:	e1500981 	cmp	r0, r1, lsl #19
  111d48:	e0a22002 	adc	r2, r2, r2
  111d4c:	20400981 	subcs	r0, r0, r1, lsl #19
  111d50:	e1500901 	cmp	r0, r1, lsl #18
  111d54:	e0a22002 	adc	r2, r2, r2
  111d58:	20400901 	subcs	r0, r0, r1, lsl #18
  111d5c:	e1500881 	cmp	r0, r1, lsl #17
  111d60:	e0a22002 	adc	r2, r2, r2
  111d64:	20400881 	subcs	r0, r0, r1, lsl #17
  111d68:	e1500801 	cmp	r0, r1, lsl #16
  111d6c:	e0a22002 	adc	r2, r2, r2
  111d70:	20400801 	subcs	r0, r0, r1, lsl #16
  111d74:	e1500781 	cmp	r0, r1, lsl #15
  111d78:	e0a22002 	adc	r2, r2, r2
  111d7c:	20400781 	subcs	r0, r0, r1, lsl #15
  111d80:	e1500701 	cmp	r0, r1, lsl #14
  111d84:	e0a22002 	adc	r2, r2, r2
  111d88:	20400701 	subcs	r0, r0, r1, lsl #14
  111d8c:	e1500681 	cmp	r0, r1, lsl #13
  111d90:	e0a22002 	adc	r2, r2, r2
  111d94:	20400681 	subcs	r0, r0, r1, lsl #13
  111d98:	e1500601 	cmp	r0, r1, lsl #12
  111d9c:	e0a22002 	adc	r2, r2, r2
  111da0:	20400601 	subcs	r0, r0, r1, lsl #12
  111da4:	e1500581 	cmp	r0, r1, lsl #11
  111da8:	e0a22002 	adc	r2, r2, r2
  111dac:	20400581 	subcs	r0, r0, r1, lsl #11
  111db0:	e1500501 	cmp	r0, r1, lsl #10
  111db4:	e0a22002 	adc	r2, r2, r2
  111db8:	20400501 	subcs	r0, r0, r1, lsl #10
  111dbc:	e1500481 	cmp	r0, r1, lsl #9
  111dc0:	e0a22002 	adc	r2, r2, r2
  111dc4:	20400481 	subcs	r0, r0, r1, lsl #9
  111dc8:	e1500401 	cmp	r0, r1, lsl #8
  111dcc:	e0a22002 	adc	r2, r2, r2
  111dd0:	20400401 	subcs	r0, r0, r1, lsl #8
  111dd4:	e1500381 	cmp	r0, r1, lsl #7
  111dd8:	e0a22002 	adc	r2, r2, r2
  111ddc:	20400381 	subcs	r0, r0, r1, lsl #7
  111de0:	e1500301 	cmp	r0, r1, lsl #6
  111de4:	e0a22002 	adc	r2, r2, r2
  111de8:	20400301 	subcs	r0, r0, r1, lsl #6
  111dec:	e1500281 	cmp	r0, r1, lsl #5
  111df0:	e0a22002 	adc	r2, r2, r2
  111df4:	20400281 	subcs	r0, r0, r1, lsl #5
  111df8:	e1500201 	cmp	r0, r1, lsl #4
  111dfc:	e0a22002 	adc	r2, r2, r2
  111e00:	20400201 	subcs	r0, r0, r1, lsl #4
  111e04:	e1500181 	cmp	r0, r1, lsl #3
  111e08:	e0a22002 	adc	r2, r2, r2
  111e0c:	20400181 	subcs	r0, r0, r1, lsl #3
  111e10:	e1500101 	cmp	r0, r1, lsl #2
  111e14:	e0a22002 	adc	r2, r2, r2
  111e18:	20400101 	subcs	r0, r0, r1, lsl #2
  111e1c:	e1500081 	cmp	r0, r1, lsl #1
  111e20:	e0a22002 	adc	r2, r2, r2
  111e24:	20400081 	subcs	r0, r0, r1, lsl #1
  111e28:	e1500001 	cmp	r0, r1
  111e2c:	e0a22002 	adc	r2, r2, r2
  111e30:	20400001 	subcs	r0, r0, r1
  111e34:	e1a00002 	mov	r0, r2
  111e38:	e12fff1e 	bx	lr
  111e3c:	03a00001 	moveq	r0, #1
  111e40:	13a00000 	movne	r0, #0
  111e44:	e12fff1e 	bx	lr
  111e48:	e16f2f11 	clz	r2, r1
  111e4c:	e262201f 	rsb	r2, r2, #31
  111e50:	e1a00230 	lsr	r0, r0, r2
  111e54:	e12fff1e 	bx	lr
  111e58:	e3500000 	cmp	r0, #0
  111e5c:	13e00000 	mvnne	r0, #0
  111e60:	ea000097 	b	1120c4 <__aeabi_idiv0>

00111e64 <__aeabi_uidivmod>:
  111e64:	e3510000 	cmp	r1, #0
  111e68:	0afffffa 	beq	111e58 <__aeabi_uidiv+0x1e0>
  111e6c:	e92d4003 	push	{r0, r1, lr}
  111e70:	ebffff80 	bl	111c78 <__aeabi_uidiv>
  111e74:	e8bd4006 	pop	{r1, r2, lr}
  111e78:	e0030092 	mul	r3, r2, r0
  111e7c:	e0411003 	sub	r1, r1, r3
  111e80:	e12fff1e 	bx	lr

00111e84 <__aeabi_idiv>:
  111e84:	e3510000 	cmp	r1, #0
  111e88:	0a000081 	beq	112094 <.divsi3_skip_div0_test+0x208>

00111e8c <.divsi3_skip_div0_test>:
  111e8c:	e020c001 	eor	ip, r0, r1
  111e90:	42611000 	rsbmi	r1, r1, #0
  111e94:	e2512001 	subs	r2, r1, #1
  111e98:	0a000070 	beq	112060 <.divsi3_skip_div0_test+0x1d4>
  111e9c:	e1b03000 	movs	r3, r0
  111ea0:	42603000 	rsbmi	r3, r0, #0
  111ea4:	e1530001 	cmp	r3, r1
  111ea8:	9a00006f 	bls	11206c <.divsi3_skip_div0_test+0x1e0>
  111eac:	e1110002 	tst	r1, r2
  111eb0:	0a000071 	beq	11207c <.divsi3_skip_div0_test+0x1f0>
  111eb4:	e16f2f13 	clz	r2, r3
  111eb8:	e16f0f11 	clz	r0, r1
  111ebc:	e0402002 	sub	r2, r0, r2
  111ec0:	e272201f 	rsbs	r2, r2, #31
  111ec4:	10822082 	addne	r2, r2, r2, lsl #1
  111ec8:	e3a00000 	mov	r0, #0
  111ecc:	108ff102 	addne	pc, pc, r2, lsl #2
  111ed0:	e320f000 	nop	{0}
  111ed4:	e1530f81 	cmp	r3, r1, lsl #31
  111ed8:	e0a00000 	adc	r0, r0, r0
  111edc:	20433f81 	subcs	r3, r3, r1, lsl #31
  111ee0:	e1530f01 	cmp	r3, r1, lsl #30
  111ee4:	e0a00000 	adc	r0, r0, r0
  111ee8:	20433f01 	subcs	r3, r3, r1, lsl #30
  111eec:	e1530e81 	cmp	r3, r1, lsl #29
  111ef0:	e0a00000 	adc	r0, r0, r0
  111ef4:	20433e81 	subcs	r3, r3, r1, lsl #29
  111ef8:	e1530e01 	cmp	r3, r1, lsl #28
  111efc:	e0a00000 	adc	r0, r0, r0
  111f00:	20433e01 	subcs	r3, r3, r1, lsl #28
  111f04:	e1530d81 	cmp	r3, r1, lsl #27
  111f08:	e0a00000 	adc	r0, r0, r0
  111f0c:	20433d81 	subcs	r3, r3, r1, lsl #27
  111f10:	e1530d01 	cmp	r3, r1, lsl #26
  111f14:	e0a00000 	adc	r0, r0, r0
  111f18:	20433d01 	subcs	r3, r3, r1, lsl #26
  111f1c:	e1530c81 	cmp	r3, r1, lsl #25
  111f20:	e0a00000 	adc	r0, r0, r0
  111f24:	20433c81 	subcs	r3, r3, r1, lsl #25
  111f28:	e1530c01 	cmp	r3, r1, lsl #24
  111f2c:	e0a00000 	adc	r0, r0, r0
  111f30:	20433c01 	subcs	r3, r3, r1, lsl #24
  111f34:	e1530b81 	cmp	r3, r1, lsl #23
  111f38:	e0a00000 	adc	r0, r0, r0
  111f3c:	20433b81 	subcs	r3, r3, r1, lsl #23
  111f40:	e1530b01 	cmp	r3, r1, lsl #22
  111f44:	e0a00000 	adc	r0, r0, r0
  111f48:	20433b01 	subcs	r3, r3, r1, lsl #22
  111f4c:	e1530a81 	cmp	r3, r1, lsl #21
  111f50:	e0a00000 	adc	r0, r0, r0
  111f54:	20433a81 	subcs	r3, r3, r1, lsl #21
  111f58:	e1530a01 	cmp	r3, r1, lsl #20
  111f5c:	e0a00000 	adc	r0, r0, r0
  111f60:	20433a01 	subcs	r3, r3, r1, lsl #20
  111f64:	e1530981 	cmp	r3, r1, lsl #19
  111f68:	e0a00000 	adc	r0, r0, r0
  111f6c:	20433981 	subcs	r3, r3, r1, lsl #19
  111f70:	e1530901 	cmp	r3, r1, lsl #18
  111f74:	e0a00000 	adc	r0, r0, r0
  111f78:	20433901 	subcs	r3, r3, r1, lsl #18
  111f7c:	e1530881 	cmp	r3, r1, lsl #17
  111f80:	e0a00000 	adc	r0, r0, r0
  111f84:	20433881 	subcs	r3, r3, r1, lsl #17
  111f88:	e1530801 	cmp	r3, r1, lsl #16
  111f8c:	e0a00000 	adc	r0, r0, r0
  111f90:	20433801 	subcs	r3, r3, r1, lsl #16
  111f94:	e1530781 	cmp	r3, r1, lsl #15
  111f98:	e0a00000 	adc	r0, r0, r0
  111f9c:	20433781 	subcs	r3, r3, r1, lsl #15
  111fa0:	e1530701 	cmp	r3, r1, lsl #14
  111fa4:	e0a00000 	adc	r0, r0, r0
  111fa8:	20433701 	subcs	r3, r3, r1, lsl #14
  111fac:	e1530681 	cmp	r3, r1, lsl #13
  111fb0:	e0a00000 	adc	r0, r0, r0
  111fb4:	20433681 	subcs	r3, r3, r1, lsl #13
  111fb8:	e1530601 	cmp	r3, r1, lsl #12
  111fbc:	e0a00000 	adc	r0, r0, r0
  111fc0:	20433601 	subcs	r3, r3, r1, lsl #12
  111fc4:	e1530581 	cmp	r3, r1, lsl #11
  111fc8:	e0a00000 	adc	r0, r0, r0
  111fcc:	20433581 	subcs	r3, r3, r1, lsl #11
  111fd0:	e1530501 	cmp	r3, r1, lsl #10
  111fd4:	e0a00000 	adc	r0, r0, r0
  111fd8:	20433501 	subcs	r3, r3, r1, lsl #10
  111fdc:	e1530481 	cmp	r3, r1, lsl #9
  111fe0:	e0a00000 	adc	r0, r0, r0
  111fe4:	20433481 	subcs	r3, r3, r1, lsl #9
  111fe8:	e1530401 	cmp	r3, r1, lsl #8
  111fec:	e0a00000 	adc	r0, r0, r0
  111ff0:	20433401 	subcs	r3, r3, r1, lsl #8
  111ff4:	e1530381 	cmp	r3, r1, lsl #7
  111ff8:	e0a00000 	adc	r0, r0, r0
  111ffc:	20433381 	subcs	r3, r3, r1, lsl #7
  112000:	e1530301 	cmp	r3, r1, lsl #6
  112004:	e0a00000 	adc	r0, r0, r0
  112008:	20433301 	subcs	r3, r3, r1, lsl #6
  11200c:	e1530281 	cmp	r3, r1, lsl #5
  112010:	e0a00000 	adc	r0, r0, r0
  112014:	20433281 	subcs	r3, r3, r1, lsl #5
  112018:	e1530201 	cmp	r3, r1, lsl #4
  11201c:	e0a00000 	adc	r0, r0, r0
  112020:	20433201 	subcs	r3, r3, r1, lsl #4
  112024:	e1530181 	cmp	r3, r1, lsl #3
  112028:	e0a00000 	adc	r0, r0, r0
  11202c:	20433181 	subcs	r3, r3, r1, lsl #3
  112030:	e1530101 	cmp	r3, r1, lsl #2
  112034:	e0a00000 	adc	r0, r0, r0
  112038:	20433101 	subcs	r3, r3, r1, lsl #2
  11203c:	e1530081 	cmp	r3, r1, lsl #1
  112040:	e0a00000 	adc	r0, r0, r0
  112044:	20433081 	subcs	r3, r3, r1, lsl #1
  112048:	e1530001 	cmp	r3, r1
  11204c:	e0a00000 	adc	r0, r0, r0
  112050:	20433001 	subcs	r3, r3, r1
  112054:	e35c0000 	cmp	ip, #0
  112058:	42600000 	rsbmi	r0, r0, #0
  11205c:	e12fff1e 	bx	lr
  112060:	e13c0000 	teq	ip, r0
  112064:	42600000 	rsbmi	r0, r0, #0
  112068:	e12fff1e 	bx	lr
  11206c:	33a00000 	movcc	r0, #0
  112070:	01a00fcc 	asreq	r0, ip, #31
  112074:	03800001 	orreq	r0, r0, #1
  112078:	e12fff1e 	bx	lr
  11207c:	e16f2f11 	clz	r2, r1
  112080:	e262201f 	rsb	r2, r2, #31
  112084:	e35c0000 	cmp	ip, #0
  112088:	e1a00233 	lsr	r0, r3, r2
  11208c:	42600000 	rsbmi	r0, r0, #0
  112090:	e12fff1e 	bx	lr
  112094:	e3500000 	cmp	r0, #0
  112098:	c3e00102 	mvngt	r0, #-2147483648	; 0x80000000
  11209c:	b3a00102 	movlt	r0, #-2147483648	; 0x80000000
  1120a0:	ea000007 	b	1120c4 <__aeabi_idiv0>

001120a4 <__aeabi_idivmod>:
  1120a4:	e3510000 	cmp	r1, #0
  1120a8:	0afffff9 	beq	112094 <.divsi3_skip_div0_test+0x208>
  1120ac:	e92d4003 	push	{r0, r1, lr}
  1120b0:	ebffff75 	bl	111e8c <.divsi3_skip_div0_test>
  1120b4:	e8bd4006 	pop	{r1, r2, lr}
  1120b8:	e0030092 	mul	r3, r2, r0
  1120bc:	e0411003 	sub	r1, r1, r3
  1120c0:	e12fff1e 	bx	lr

001120c4 <__aeabi_idiv0>:
  1120c4:	e12fff1e 	bx	lr

001120c8 <__aeabi_uldivmod>:
  1120c8:	e3530000 	cmp	r3, #0
  1120cc:	03520000 	cmpeq	r2, #0
  1120d0:	1a000004 	bne	1120e8 <__aeabi_uldivmod+0x20>
  1120d4:	e3510000 	cmp	r1, #0
  1120d8:	03500000 	cmpeq	r0, #0
  1120dc:	13e01000 	mvnne	r1, #0
  1120e0:	13e00000 	mvnne	r0, #0
  1120e4:	eafffff6 	b	1120c4 <__aeabi_idiv0>
  1120e8:	e24dd008 	sub	sp, sp, #8
  1120ec:	e92d6000 	push	{sp, lr}
  1120f0:	eb000012 	bl	112140 <__gnu_uldivmod_helper>
  1120f4:	e59de004 	ldr	lr, [sp, #4]
  1120f8:	e28dd008 	add	sp, sp, #8
  1120fc:	e8bd000c 	pop	{r2, r3}
  112100:	e12fff1e 	bx	lr

00112104 <__gnu_ldivmod_helper>:
  112104:	e92d41f0 	push	{r4, r5, r6, r7, r8, lr}
  112108:	e1a08002 	mov	r8, r2
  11210c:	e1a04000 	mov	r4, r0
  112110:	e1a05001 	mov	r5, r1
  112114:	e1a06003 	mov	r6, r3
  112118:	e59d7018 	ldr	r7, [sp, #24]
  11211c:	eb000017 	bl	112180 <__divdi3>
  112120:	e00e0198 	mul	lr, r8, r1
  112124:	e0832098 	umull	r2, r3, r8, r0
  112128:	e026e690 	mla	r6, r0, r6, lr
  11212c:	e0863003 	add	r3, r6, r3
  112130:	e0542002 	subs	r2, r4, r2
  112134:	e0c53003 	sbc	r3, r5, r3
  112138:	e1c720f0 	strd	r2, [r7]
  11213c:	e8bd81f0 	pop	{r4, r5, r6, r7, r8, pc}

00112140 <__gnu_uldivmod_helper>:
  112140:	e92d43f8 	push	{r3, r4, r5, r6, r7, r8, r9, lr}
  112144:	e1a05003 	mov	r5, r3
  112148:	e1a06002 	mov	r6, r2
  11214c:	e1a08000 	mov	r8, r0
  112150:	e1a09001 	mov	r9, r1
  112154:	e59d7020 	ldr	r7, [sp, #32]
  112158:	eb000074 	bl	112330 <__udivdi3>
  11215c:	e0030590 	mul	r3, r0, r5
  112160:	e0854690 	umull	r4, r5, r0, r6
  112164:	e0263196 	mla	r6, r6, r1, r3
  112168:	e0865005 	add	r5, r6, r5
  11216c:	e0584004 	subs	r4, r8, r4
  112170:	e0c95005 	sbc	r5, r9, r5
  112174:	e1c740f0 	strd	r4, [r7]
  112178:	e8bd83f8 	pop	{r3, r4, r5, r6, r7, r8, r9, pc}
  11217c:	00000000 	andeq	r0, r0, r0

00112180 <__divdi3>:
  112180:	e3510000 	cmp	r1, #0
  112184:	e92d43f0 	push	{r4, r5, r6, r7, r8, r9, lr}
  112188:	a3a0c000 	movge	ip, #0
  11218c:	a1a08000 	movge	r8, r0
  112190:	a1a09001 	movge	r9, r1
  112194:	ba00005e 	blt	112314 <__divdi3+0x194>
  112198:	e3530000 	cmp	r3, #0
  11219c:	a1a00002 	movge	r0, r2
  1121a0:	a1a01003 	movge	r1, r3
  1121a4:	ba000056 	blt	112304 <__divdi3+0x184>
  1121a8:	e1590001 	cmp	r9, r1
  1121ac:	e1a04008 	mov	r4, r8
  1121b0:	01580000 	cmpeq	r8, r0
  1121b4:	e1a05009 	mov	r5, r9
  1121b8:	33a04000 	movcc	r4, #0
  1121bc:	33a05000 	movcc	r5, #0
  1121c0:	3a000016 	bcc	112220 <__divdi3+0xa0>
  1121c4:	e3510000 	cmp	r1, #0
  1121c8:	016f3f10 	clzeq	r3, r0
  1121cc:	116f2f11 	clzne	r2, r1
  1121d0:	02832020 	addeq	r2, r3, #32
  1121d4:	e3590000 	cmp	r9, #0
  1121d8:	016f3f18 	clzeq	r3, r8
  1121dc:	02833020 	addeq	r3, r3, #32
  1121e0:	116f3f19 	clzne	r3, r9
  1121e4:	e0633002 	rsb	r3, r3, r2
  1121e8:	e1a07311 	lsl	r7, r1, r3
  1121ec:	e2432020 	sub	r2, r3, #32
  1121f0:	e263e020 	rsb	lr, r3, #32
  1121f4:	e1a06310 	lsl	r6, r0, r3
  1121f8:	e1877210 	orr	r7, r7, r0, lsl r2
  1121fc:	e1a02003 	mov	r2, r3
  112200:	e1877e30 	orr	r7, r7, r0, lsr lr
  112204:	e1590007 	cmp	r9, r7
  112208:	01580006 	cmpeq	r8, r6
  11220c:	2a00000d 	bcs	112248 <__divdi3+0xc8>
  112210:	e3530000 	cmp	r3, #0
  112214:	f2c00010 	vmov.i32	d16, #0	; 0x00000000
  112218:	1a000013 	bne	11226c <__divdi3+0xec>
  11221c:	ec554b30 	vmov	r4, r5, d16
  112220:	e29c0000 	adds	r0, ip, #0
  112224:	e3a01000 	mov	r1, #0
  112228:	13a00001 	movne	r0, #1
  11222c:	e2702000 	rsbs	r2, r0, #0
  112230:	e2e13000 	rsc	r3, r1, #0
  112234:	e0244002 	eor	r4, r4, r2
  112238:	e0255003 	eor	r5, r5, r3
  11223c:	e0900004 	adds	r0, r0, r4
  112240:	e0a11005 	adc	r1, r1, r5
  112244:	e8bd83f0 	pop	{r4, r5, r6, r7, r8, r9, pc}
  112248:	eddf0b36 	vldr	d16, [pc, #216]	; 112328 <__divdi3+0x1a8>
  11224c:	e1a04008 	mov	r4, r8
  112250:	e1a05009 	mov	r5, r9
  112254:	ee013b90 	vmov.32	d17[0], r3
  112258:	e0544006 	subs	r4, r4, r6
  11225c:	e0c55007 	sbc	r5, r5, r7
  112260:	e3530000 	cmp	r3, #0
  112264:	f37104a0 	vshl.u64	d16, d16, d17
  112268:	0affffeb 	beq	11221c <__divdi3+0x9c>
  11226c:	e1b010a7 	lsrs	r1, r7, #1
  112270:	e1a00066 	rrx	r0, r6
  112274:	ea000007 	b	112298 <__divdi3+0x118>
  112278:	e0544000 	subs	r4, r4, r0
  11227c:	e0c55001 	sbc	r5, r5, r1
  112280:	e0944004 	adds	r4, r4, r4
  112284:	e0a55005 	adc	r5, r5, r5
  112288:	e2944001 	adds	r4, r4, #1
  11228c:	e2a55000 	adc	r5, r5, #0
  112290:	e2533001 	subs	r3, r3, #1
  112294:	0a000006 	beq	1122b4 <__divdi3+0x134>
  112298:	e1510005 	cmp	r1, r5
  11229c:	01500004 	cmpeq	r0, r4
  1122a0:	9afffff4 	bls	112278 <__divdi3+0xf8>
  1122a4:	e0944004 	adds	r4, r4, r4
  1122a8:	e0a55005 	adc	r5, r5, r5
  1122ac:	e2533001 	subs	r3, r3, #1
  1122b0:	1afffff8 	bne	112298 <__divdi3+0x118>
  1122b4:	e1a00234 	lsr	r0, r4, r2
  1122b8:	e2623020 	rsb	r3, r2, #32
  1122bc:	e242e020 	sub	lr, r2, #32
  1122c0:	e1a01235 	lsr	r1, r5, r2
  1122c4:	e1800315 	orr	r0, r0, r5, lsl r3
  1122c8:	ee022b90 	vmov.32	d18[0], r2
  1122cc:	e1800e35 	orr	r0, r0, r5, lsr lr
  1122d0:	ec410b31 	vmov	d17, r0, r1
  1122d4:	ec510b30 	vmov	r0, r1, d16
  1122d8:	f37204a1 	vshl.u64	d16, d17, d18
  1122dc:	e0900004 	adds	r0, r0, r4
  1122e0:	e0a11005 	adc	r1, r1, r5
  1122e4:	e1a04000 	mov	r4, r0
  1122e8:	e1a05001 	mov	r5, r1
  1122ec:	ec532b30 	vmov	r2, r3, d16
  1122f0:	e0542002 	subs	r2, r4, r2
  1122f4:	e0c53003 	sbc	r3, r5, r3
  1122f8:	e1a04002 	mov	r4, r2
  1122fc:	e1a05003 	mov	r5, r3
  112300:	eaffffc6 	b	112220 <__divdi3+0xa0>
  112304:	e2720000 	rsbs	r0, r2, #0
  112308:	e1e0c00c 	mvn	ip, ip
  11230c:	e2e31000 	rsc	r1, r3, #0
  112310:	eaffffa4 	b	1121a8 <__divdi3+0x28>
  112314:	e2708000 	rsbs	r8, r0, #0
  112318:	e3e0c000 	mvn	ip, #0
  11231c:	e2e19000 	rsc	r9, r1, #0
  112320:	eaffff9c 	b	112198 <__divdi3+0x18>
  112324:	e320f000 	nop	{0}
  112328:	00000001 	.word	0x00000001
  11232c:	00000000 	.word	0x00000000

00112330 <__udivdi3>:
  112330:	e1510003 	cmp	r1, r3
  112334:	e92d0030 	push	{r4, r5}
  112338:	01500002 	cmpeq	r0, r2
  11233c:	e1a04002 	mov	r4, r2
  112340:	e1a05003 	mov	r5, r3
  112344:	3a00003a 	bcc	112434 <__udivdi3+0x104>
  112348:	e3530000 	cmp	r3, #0
  11234c:	016f3f12 	clzeq	r3, r2
  112350:	116fcf13 	clzne	ip, r3
  112354:	0283c020 	addeq	ip, r3, #32
  112358:	e3510000 	cmp	r1, #0
  11235c:	016f3f10 	clzeq	r3, r0
  112360:	02833020 	addeq	r3, r3, #32
  112364:	116f3f11 	clzne	r3, r1
  112368:	e063300c 	rsb	r3, r3, ip
  11236c:	ec454b30 	vmov	d16, r4, r5
  112370:	e1a02003 	mov	r2, r3
  112374:	ee013b90 	vmov.32	d17[0], r3
  112378:	f37104a0 	vshl.u64	d16, d16, d17
  11237c:	ec554b30 	vmov	r4, r5, d16
  112380:	e1510005 	cmp	r1, r5
  112384:	01500004 	cmpeq	r0, r4
  112388:	2a000023 	bcs	11241c <__udivdi3+0xec>
  11238c:	f2c00010 	vmov.i32	d16, #0	; 0x00000000
  112390:	e3530000 	cmp	r3, #0
  112394:	0a00001d 	beq	112410 <__udivdi3+0xe0>
  112398:	e1b050a5 	lsrs	r5, r5, #1
  11239c:	e1a04064 	rrx	r4, r4
  1123a0:	ea000007 	b	1123c4 <__udivdi3+0x94>
  1123a4:	e0500004 	subs	r0, r0, r4
  1123a8:	e0c11005 	sbc	r1, r1, r5
  1123ac:	e0900000 	adds	r0, r0, r0
  1123b0:	e0a11001 	adc	r1, r1, r1
  1123b4:	e2900001 	adds	r0, r0, #1
  1123b8:	e2a11000 	adc	r1, r1, #0
  1123bc:	e2533001 	subs	r3, r3, #1
  1123c0:	0a000006 	beq	1123e0 <__udivdi3+0xb0>
  1123c4:	e1550001 	cmp	r5, r1
  1123c8:	01540000 	cmpeq	r4, r0
  1123cc:	9afffff4 	bls	1123a4 <__udivdi3+0x74>
  1123d0:	e0900000 	adds	r0, r0, r0
  1123d4:	e0a11001 	adc	r1, r1, r1
  1123d8:	e2533001 	subs	r3, r3, #1
  1123dc:	1afffff8 	bne	1123c4 <__udivdi3+0x94>
  1123e0:	ec410b32 	vmov	d18, r0, r1
  1123e4:	e1a00230 	lsr	r0, r0, r2
  1123e8:	e2623020 	rsb	r3, r2, #32
  1123ec:	e1800311 	orr	r0, r0, r1, lsl r3
  1123f0:	e242c020 	sub	ip, r2, #32
  1123f4:	f27218a0 	vadd.i64	d17, d18, d16
  1123f8:	e1800c31 	orr	r0, r0, r1, lsr ip
  1123fc:	e1a01231 	lsr	r1, r1, r2
  112400:	ee022b90 	vmov.32	d18[0], r2
  112404:	ec410b30 	vmov	d16, r0, r1
  112408:	f37204a0 	vshl.u64	d16, d16, d18
  11240c:	f37108a0 	vsub.i64	d16, d17, d16
  112410:	ec510b30 	vmov	r0, r1, d16
  112414:	e8bd0030 	pop	{r4, r5}
  112418:	e12fff1e 	bx	lr
  11241c:	eddf0b09 	vldr	d16, [pc, #36]	; 112448 <__udivdi3+0x118>
  112420:	e0500004 	subs	r0, r0, r4
  112424:	e0c11005 	sbc	r1, r1, r5
  112428:	ee013b90 	vmov.32	d17[0], r3
  11242c:	f37104a0 	vshl.u64	d16, d16, d17
  112430:	eaffffd6 	b	112390 <__udivdi3+0x60>
  112434:	f2c00010 	vmov.i32	d16, #0	; 0x00000000
  112438:	e8bd0030 	pop	{r4, r5}
  11243c:	ec510b30 	vmov	r0, r1, d16
  112440:	e12fff1e 	bx	lr
  112444:	e320f000 	nop	{0}
  112448:	00000001 	.word	0x00000001
  11244c:	00000000 	.word	0x00000000

00112450 <__cs3_premain>:
  112450:	e92d4008 	push	{r3, lr}
  112454:	eb000052 	bl	1125a4 <__libc_init_array>
  112458:	e3003000 	movw	r3, #0
  11245c:	e3a02000 	mov	r2, #0
  112460:	e3403000 	movt	r3, #0
  112464:	e3530000 	cmp	r3, #0
  112468:	15930000 	ldrne	r0, [r3]
  11246c:	01a00003 	moveq	r0, r3
  112470:	e3003000 	movw	r3, #0
  112474:	e3403000 	movt	r3, #0
  112478:	e3530000 	cmp	r3, #0
  11247c:	15931000 	ldrne	r1, [r3]
  112480:	01a01003 	moveq	r1, r3
  112484:	ebffb7b8 	bl	10036c <main>
  112488:	e3003000 	movw	r3, #0
  11248c:	e3403000 	movt	r3, #0
  112490:	e3530000 	cmp	r3, #0
  112494:	0a000000 	beq	11249c <__cs3_premain+0x4c>
  112498:	e320f000 	nop	{0}
  11249c:	eafffffe 	b	11249c <__cs3_premain+0x4c>

001124a0 <__vfp_init>:
  1124a0:	ee100f10 	mrc	15, 0, r0, cr0, cr0, {0}
  1124a4:	e3100702 	tst	r0, #524288	; 0x80000
  1124a8:	1a000006 	bne	1124c8 <__vfp_init+0x28>
  1124ac:	e2101a0f 	ands	r1, r0, #61440	; 0xf000
  1124b0:	0a000009 	beq	1124dc <__vfp_init+0x3c>
  1124b4:	e3510a07 	cmp	r1, #28672	; 0x7000
  1124b8:	0a000007 	beq	1124dc <__vfp_init+0x3c>
  1124bc:	e200180f 	and	r1, r0, #983040	; 0xf0000
  1124c0:	e3510807 	cmp	r1, #458752	; 0x70000
  1124c4:	ba000004 	blt	1124dc <__vfp_init+0x3c>
  1124c8:	ee110f50 	mrc	15, 0, r0, cr1, cr0, {2}
  1124cc:	e380060f 	orr	r0, r0, #15728640	; 0xf00000
  1124d0:	ee010f50 	mcr	15, 0, r0, cr1, cr0, {2}
  1124d4:	e3a00000 	mov	r0, #0
  1124d8:	ee071f95 	mcr	15, 0, r1, cr7, cr5, {4}
  1124dc:	e3a00101 	mov	r0, #1073741824	; 0x40000000
  1124e0:	eee80a10 	vmsr	fpexc, r0
  1124e4:	eef00a10 	vmrs	r0, fpsid
  1124e8:	e20014ff 	and	r1, r0, #-16777216	; 0xff000000
  1124ec:	e3510441 	cmp	r1, #1090519040	; 0x41000000
  1124f0:	1a000004 	bne	112508 <__vfp_init+0x68>
  1124f4:	e20010f0 	and	r1, r0, #240	; 0xf0
  1124f8:	e35100b0 	cmp	r1, #176	; 0xb0
  1124fc:	ca000001 	bgt	112508 <__vfp_init+0x68>
  112500:	e3a00403 	mov	r0, #50331648	; 0x3000000
  112504:	eee10a10 	vmsr	fpscr, r0
  112508:	e12fff1e 	bx	lr

0011250c <_sbrk>:
  11250c:	e30323c8 	movw	r2, #13256	; 0x33c8
  112510:	e30313cc 	movw	r1, #13260	; 0x33cc
  112514:	e3402011 	movt	r2, #17
  112518:	e92d4008 	push	{r3, lr}
  11251c:	e3401011 	movt	r1, #17
  112520:	e5923000 	ldr	r3, [r2]
  112524:	e5911000 	ldr	r1, [r1]
  112528:	e0830000 	add	r0, r3, r0
  11252c:	e3510000 	cmp	r1, #0
  112530:	11510000 	cmpne	r1, r0
  112534:	3a000009 	bcc	112560 <_sbrk+0x54>
  112538:	e1a0100d 	mov	r1, sp
  11253c:	e1530001 	cmp	r3, r1
  112540:	9a000002 	bls	112550 <_sbrk+0x44>
  112544:	e5820000 	str	r0, [r2]
  112548:	e1a00003 	mov	r0, r3
  11254c:	e8bd8008 	pop	{r3, pc}
  112550:	e2801c01 	add	r1, r0, #256	; 0x100
  112554:	e1a0c00d 	mov	ip, sp
  112558:	e15c0001 	cmp	ip, r1
  11255c:	2afffff8 	bcs	112544 <_sbrk+0x38>
  112560:	eb00000b 	bl	112594 <__errno>
  112564:	e3a0200c 	mov	r2, #12
  112568:	e3e03000 	mvn	r3, #0
  11256c:	e5802000 	str	r2, [r0]
  112570:	e1a00003 	mov	r0, r3
  112574:	e8bd8008 	pop	{r3, pc}

00112578 <__cs3_isr_interrupt>:
  112578:	eafffffe 	b	112578 <__cs3_isr_interrupt>

0011257c <__cs3_isr_undef>:
  11257c:	eafffffe 	b	11257c <__cs3_isr_undef>

00112580 <__cs3_isr_swi>:
  112580:	eafffffe 	b	112580 <__cs3_isr_swi>

00112584 <__cs3_isr_pabort>:
  112584:	eafffffe 	b	112584 <__cs3_isr_pabort>

00112588 <__cs3_isr_dabort>:
  112588:	eafffffe 	b	112588 <__cs3_isr_dabort>

0011258c <__cs3_isr_irq>:
  11258c:	eafffffe 	b	11258c <__cs3_isr_irq>

00112590 <__cs3_isr_fiq>:
  112590:	eafffffe 	b	112590 <__cs3_isr_fiq>

00112594 <__errno>:
  112594:	e3023b08 	movw	r3, #11016	; 0x2b08
  112598:	e3403011 	movt	r3, #17
  11259c:	e5930000 	ldr	r0, [r3]
  1125a0:	e12fff1e 	bx	lr

001125a4 <__libc_init_array>:
  1125a4:	e92d4070 	push	{r4, r5, r6, lr}
  1125a8:	e3026ab4 	movw	r6, #10932	; 0x2ab4
  1125ac:	e3025ab0 	movw	r5, #10928	; 0x2ab0
  1125b0:	e3406011 	movt	r6, #17
  1125b4:	e3405011 	movt	r5, #17
  1125b8:	e0656006 	rsb	r6, r5, r6
  1125bc:	e1b06146 	asrs	r6, r6, #2
  1125c0:	13a04000 	movne	r4, #0
  1125c4:	0a000004 	beq	1125dc <__libc_init_array+0x38>
  1125c8:	e2844001 	add	r4, r4, #1
  1125cc:	e4953004 	ldr	r3, [r5], #4
  1125d0:	e12fff33 	blx	r3
  1125d4:	e1560004 	cmp	r6, r4
  1125d8:	1afffffa 	bne	1125c8 <__libc_init_array+0x24>
  1125dc:	e3026ab8 	movw	r6, #10936	; 0x2ab8
  1125e0:	e3025ab4 	movw	r5, #10932	; 0x2ab4
  1125e4:	e3406011 	movt	r6, #17
  1125e8:	e3405011 	movt	r5, #17
  1125ec:	e0656006 	rsb	r6, r5, r6
  1125f0:	eb000128 	bl	112a98 <_init>
  1125f4:	e1b06146 	asrs	r6, r6, #2
  1125f8:	0a000006 	beq	112618 <__libc_init_array+0x74>
  1125fc:	e3a04000 	mov	r4, #0
  112600:	e2844001 	add	r4, r4, #1
  112604:	e4953004 	ldr	r3, [r5], #4
  112608:	e12fff33 	blx	r3
  11260c:	e1560004 	cmp	r6, r4
  112610:	1afffffa 	bne	112600 <__libc_init_array+0x5c>
  112614:	e8bd8070 	pop	{r4, r5, r6, pc}
  112618:	e8bd8070 	pop	{r4, r5, r6, pc}

Disassembly of section .rodata:

00112698 <blanks.7710-0x230>:
  112698:	4f464e49 	.word	0x4f464e49
  11269c:	6553203a 	.word	0x6553203a
  1126a0:	6e697474 	.word	0x6e697474
  1126a4:	70752067 	.word	0x70752067
  1126a8:	414d4420 	.word	0x414d4420
  1126ac:	000d0a2e 	.word	0x000d0a2e
  1126b0:	00000d0a 	.word	0x00000d0a
  1126b4:	4f464e49 	.word	0x4f464e49
  1126b8:	7953203a 	.word	0x7953203a
  1126bc:	6d657473 	.word	0x6d657473
  1126c0:	75687320 	.word	0x75687320
  1126c4:	776f6474 	.word	0x776f6474
  1126c8:	0d0a2e6e 	.word	0x0d0a2e6e
  1126cc:	00000000 	.word	0x00000000
  1126d0:	6c6c6548 	.word	0x6c6c6548
  1126d4:	2121316f 	.word	0x2121316f
  1126d8:	000d0a21 	.word	0x000d0a21
  1126dc:	4f464e49 	.word	0x4f464e49
  1126e0:	6c41203a 	.word	0x6c41203a
  1126e4:	61636f6c 	.word	0x61636f6c
  1126e8:	676e6974 	.word	0x676e6974
  1126ec:	414d4420 	.word	0x414d4420
  1126f0:	61686320 	.word	0x61686320
  1126f4:	6c656e6e 	.word	0x6c656e6e
  1126f8:	000d0a2e 	.word	0x000d0a2e
  1126fc:	4f464e49 	.word	0x4f464e49
  112700:	6544203a 	.word	0x6544203a
  112704:	44206f6d 	.word	0x44206f6d
  112708:	6d20414d 	.word	0x6d20414d
  11270c:	726f6d65 	.word	0x726f6d65
  112710:	6f742079 	.word	0x6f742079
  112714:	6d656d20 	.word	0x6d656d20
  112718:	2079726f 	.word	0x2079726f
  11271c:	6e617274 	.word	0x6e617274
  112720:	72656673 	.word	0x72656673
  112724:	000d0a2e 	.word	0x000d0a2e
  112728:	4f464e49 	.word	0x4f464e49
  11272c:	6f43203a 	.word	0x6f43203a
  112730:	6e697970 	.word	0x6e697970
  112734:	72662067 	.word	0x72662067
  112738:	30206d6f 	.word	0x30206d6f
  11273c:	38302578 	.word	0x38302578
  112740:	6f742078 	.word	0x6f742078
  112744:	25783020 	.word	0x25783020
  112748:	20783830 	.word	0x20783830
  11274c:	657a6973 	.word	0x657a6973
  112750:	25203d20 	.word	0x25203d20
  112754:	79622064 	.word	0x79622064
  112758:	2e736574 	.word	0x2e736574
  11275c:	00000d0a 	.word	0x00000d0a
  112760:	4f464e49 	.word	0x4f464e49
  112764:	6157203a 	.word	0x6157203a
  112768:	6e697469 	.word	0x6e697469
  11276c:	6f662067 	.word	0x6f662067
  112770:	4d442072 	.word	0x4d442072
  112774:	72742041 	.word	0x72742041
  112778:	66736e61 	.word	0x66736e61
  11277c:	74207265 	.word	0x74207265
  112780:	6f63206f 	.word	0x6f63206f
  112784:	656c706d 	.word	0x656c706d
  112788:	0a2e6574 	.word	0x0a2e6574
  11278c:	0000000d 	.word	0x0000000d
  112790:	4f525245 	.word	0x4f525245
  112794:	44203a52 	.word	0x44203a52
  112798:	4320414d 	.word	0x4320414d
  11279c:	6e6e6148 	.word	0x6e6e6148
  1127a0:	46206c65 	.word	0x46206c65
  1127a4:	746c7561 	.word	0x746c7561
  1127a8:	6425203a 	.word	0x6425203a
  1127ac:	00000d0a 	.word	0x00000d0a
  1127b0:	4f464e49 	.word	0x4f464e49
  1127b4:	6f43203a 	.word	0x6f43203a
  1127b8:	7261706d 	.word	0x7261706d
  1127bc:	20676e69 	.word	0x20676e69
  1127c0:	72756f73 	.word	0x72756f73
  1127c4:	61206563 	.word	0x61206563
  1127c8:	6420646e 	.word	0x6420646e
  1127cc:	69747365 	.word	0x69747365
  1127d0:	6974616e 	.word	0x6974616e
  1127d4:	62206e6f 	.word	0x62206e6f
  1127d8:	65666675 	.word	0x65666675
  1127dc:	0a2e7372 	.word	0x0a2e7372
  1127e0:	0000000d 	.word	0x0000000d
  1127e4:	4f464e49 	.word	0x4f464e49
  1127e8:	6544203a 	.word	0x6544203a
  1127ec:	44206f6d 	.word	0x44206f6d
  1127f0:	6d20414d 	.word	0x6d20414d
  1127f4:	726f6d65 	.word	0x726f6d65
  1127f8:	6f742079 	.word	0x6f742079
  1127fc:	6d656d20 	.word	0x6d656d20
  112800:	2079726f 	.word	0x2079726f
  112804:	63637573 	.word	0x63637573
  112808:	65646565 	.word	0x65646565
  11280c:	0d0a2e64 	.word	0x0d0a2e64
  112810:	00000000 	.word	0x00000000
  112814:	4f525245 	.word	0x4f525245
  112818:	44203a52 	.word	0x44203a52
  11281c:	206f6d65 	.word	0x206f6d65
  112820:	20414d44 	.word	0x20414d44
  112824:	6f6d656d 	.word	0x6f6d656d
  112828:	74207972 	.word	0x74207972
  11282c:	656d206f 	.word	0x656d206f
  112830:	79726f6d 	.word	0x79726f6d
  112834:	69616620 	.word	0x69616620
  112838:	2e64656c 	.word	0x2e64656c
  11283c:	00000d0a 	.word	0x00000d0a
  112840:	55534552 	.word	0x55534552
  112844:	203a544c 	.word	0x203a544c
  112848:	206c6c41 	.word	0x206c6c41
  11284c:	74736574 	.word	0x74736574
  112850:	75732073 	.word	0x75732073
  112854:	73656363 	.word	0x73656363
  112858:	6c756673 	.word	0x6c756673
  11285c:	000d0a2e 	.word	0x000d0a2e
  112860:	55534552 	.word	0x55534552
  112864:	203a544c 	.word	0x203a544c
  112868:	656d6f53 	.word	0x656d6f53
  11286c:	69616620 	.word	0x69616620
  112870:	6572756c 	.word	0x6572756c
  112874:	65642073 	.word	0x65642073
  112878:	74636574 	.word	0x74636574
  11287c:	0a2e6465 	.word	0x0a2e6465
  112880:	0000000d 	.word	0x0000000d
  112884:	5b414d44 	.word	0x5b414d44
  112888:	503e2d4d 	.word	0x503e2d4d
  11288c:	32495b5d 	.word	0x32495b5d
  112890:	203a5d43 	.word	0x203a5d43
  112894:	6f727245 	.word	0x6f727245
  112898:	43203a72 	.word	0x43203a72
  11289c:	6f6e6e61 	.word	0x6f6e6e61
  1128a0:	65672074 	.word	0x65672074
  1128a4:	41562074 	.word	0x41562074
  1128a8:	2d6f742d 	.word	0x2d6f742d
  1128ac:	6f204150 	.word	0x6f204150
  1128b0:	63732066 	.word	0x63732066
  1128b4:	63746172 	.word	0x63746172
  1128b8:	75622068 	.word	0x75622068
  1128bc:	72656666 	.word	0x72656666
  1128c0:	0000002e 	.word	0x0000002e
  1128c4:	0000000a 	.word	0x0000000a

001128c8 <blanks.7710>:
  1128c8:	20202020 20202020 20202020 20202020                     

001128d8 <zeroes.7711>:
  1128d8:	30303030 30303030 30303030 30303030     0000000000000000
  1128e8:	00464e49 00666e69 004e414e 006e616e     INF.inf.NAN.nan.
  1128f8:	33323130 37363534 42413938 46454443     0123456789ABCDEF
  112908:	00000000 33323130 37363534 62613938     ....0123456789ab
  112918:	66656463 00000000 6c756e28 0000296c     cdef....(null)..
  112928:	00000030 69666e49 7974696e 00000000     0...Infinity....
  112938:	004e614e                                NaN.

0011293c <_global_impure_ptr>:
  11293c:	00112b10 00000043 49534f50 00000058     .+..C...POSIX...
  11294c:	0000002e                                ....

00112950 <p05.6169>:
  112950:	00000005 00000019 0000007d 00000000     ........}.......

00112960 <__mprec_tens>:
  112960:	00000000 3ff00000 00000000 40240000     .......?......$@
  112970:	00000000 40590000 00000000 408f4000     ......Y@.....@.@
  112980:	00000000 40c38800 00000000 40f86a00     .......@.....j.@
  112990:	00000000 412e8480 00000000 416312d0     .......A......cA
  1129a0:	00000000 4197d784 00000000 41cdcd65     .......A....e..A
  1129b0:	20000000 4202a05f e8000000 42374876     ... _..B....vH7B
  1129c0:	a2000000 426d1a94 e5400000 42a2309c     ......mB..@..0.B
  1129d0:	1e900000 42d6bcc4 26340000 430c6bf5     .......B..4&.k.C
  1129e0:	37e08000 4341c379 85d8a000 43763457     ...7y.AC....W4vC
  1129f0:	674ec800 43abc16d 60913d00 43e158e4     ..Ngm..C.=.`.X.C
  112a00:	78b58c40 4415af1d d6e2ef50 444b1ae4     @..x...DP.....KD
  112a10:	064dd592 4480f0cf c7e14af6 44b52d02     ..M....D.J...-.D
  112a20:	79d99db4 44ea7843                       ...yCx.D

00112a28 <__mprec_tinytens>:
  112a28:	97d889bc 3c9cd2b2 d5a8a733 3949f623     .......<3...#.I9
  112a38:	44f4a73d 32a50ffd cf8c979d 255bba08     =..D...2......[%
  112a48:	64ac6f43 0ac80628                       Co.d(...

00112a50 <__mprec_bigtens>:
  112a50:	37e08000 4341c379 b5056e17 4693b8b5     ...7y.AC.n.....F
  112a60:	e93ff9f5 4d384f03 f9301d32 5a827748     ..?..O8M2.0.Hw.Z
  112a70:	7f73bf3c 75154fdd                       <.s..O.u

00112a78 <blanks.7653>:
  112a78:	20202020 20202020 20202020 20202020                     

00112a88 <zeroes.7654>:
  112a88:	30303030 30303030 30303030 30303030     0000000000000000

00112a98 <_init>:
  112a98:	e1a0c00d 	mov	ip, sp
  112a9c:	e92ddff8 	push	{r3, r4, r5, r6, r7, r8, r9, sl, fp, ip, lr, pc}
  112aa0:	e24cb004 	sub	fp, ip, #4
  112aa4:	e24bd028 	sub	sp, fp, #40	; 0x28
  112aa8:	e89d6ff0 	ldm	sp, {r4, r5, r6, r7, r8, r9, sl, fp, sp, lr}
  112aac:	e12fff1e 	bx	lr

00112ab0 <__preinit_array_start>:
  112ab0:	001124a0 	.word	0x001124a0

00112ab4 <__init_array_start>:
  112ab4:	001001c8 	.word	0x001001c8

00112ab8 <_fini>:
  112ab8:	e1a0c00d 	mov	ip, sp
  112abc:	e92ddff8 	push	{r3, r4, r5, r6, r7, r8, r9, sl, fp, ip, lr, pc}
  112ac0:	e24cb004 	sub	fp, ip, #4
  112ac4:	e24bd028 	sub	sp, fp, #40	; 0x28
  112ac8:	e89d6ff0 	ldm	sp, {r4, r5, r6, r7, r8, r9, sl, fp, sp, lr}
  112acc:	e12fff1e 	bx	lr

00112ad0 <__fini_array_start>:
  112ad0:	00100184 	.word	0x00100184

00112ad4 <__cs3_regions>:
  112ad4:	00000000 	.word	0x00000000
  112ad8:	ffff0000 	.word	0xffff0000
  112adc:	ffff0000 	.word	0xffff0000
	...
  112aec:	00100040 	.word	0x00100040
  112af0:	00100040 	.word	0x00100040
  112af4:	00013390 	.word	0x00013390
  112af8:	00000070 	.word	0x00000070

00112afc <__cs3_regions_end>:
  112afc:	00000000 	.word	0x00000000
