
dma_demo.axf:     file format elf32-littlearm


Disassembly of section .text:

00100040 <__cs3_interrupt_vector>:
  100040:	18 f0 9f e5 18 f0 9f e5 18 f0 9f e5 18 f0 9f e5     ................
  100050:	18 f0 9f e5 18 f0 9f e5 18 f0 9f e5 18 f0 9f e5     ................
  100060:	80 00 10 00 7c 25 11 00 80 25 11 00 84 25 11 00     ....|%...%...%..
  100070:	88 25 11 00 78 25 11 00 8c 25 11 00 90 25 11 00     .%..x%...%...%..

00100080 <__cs3_reset>:
  100080:	ea000022 	b	100110 <_start>

00100084 <__cs3_start_c>:
  100084:	e3008002 	movw	r8, #2
  100088:	e92d4080 	push	{r7, lr}
  10008c:	e3408000 	movt	r8, #0
  100090:	e3580000 	cmp	r8, #0
  100094:	e2488001 	sub	r8, r8, #1
  100098:	1302ead4 	movwne	lr, #10964	; 0x2ad4
  10009c:	13a04000 	movne	r4, #0
  1000a0:	13a05000 	movne	r5, #0
  1000a4:	1340e011 	movtne	lr, #17
  1000a8:	0a000017 	beq	10010c <__cs3_start_c+0x88>
  1000ac:	e99e1005 	ldmib	lr, {r0, r2, ip}
  1000b0:	e1500002 	cmp	r0, r2
  1000b4:	0082200c 	addeq	r2, r2, ip
  1000b8:	0a000007 	beq	1000dc <__cs3_start_c+0x58>
  1000bc:	e35c0000 	cmp	ip, #0
  1000c0:	0a000005 	beq	1000dc <__cs3_start_c+0x58>
  1000c4:	e1a03000 	mov	r3, r0
  1000c8:	e0c360d8 	ldrd	r6, [r3], #8
  1000cc:	e0601003 	rsb	r1, r0, r3
  1000d0:	e0c260f8 	strd	r6, [r2], #8
  1000d4:	e15c0001 	cmp	ip, r1
  1000d8:	1afffffa 	bne	1000c8 <__cs3_start_c+0x44>
  1000dc:	e59e0010 	ldr	r0, [lr, #16]
  1000e0:	e3500000 	cmp	r0, #0
  1000e4:	11a03002 	movne	r3, r2
  1000e8:	0a000003 	beq	1000fc <__cs3_start_c+0x78>
  1000ec:	e0c340f8 	strd	r4, [r3], #8
  1000f0:	e0621003 	rsb	r1, r2, r3
  1000f4:	e1500001 	cmp	r0, r1
  1000f8:	1afffffb 	bne	1000ec <__cs3_start_c+0x68>
  1000fc:	e2488001 	sub	r8, r8, #1
  100100:	e28ee014 	add	lr, lr, #20
  100104:	e3780001 	cmn	r8, #1
  100108:	1affffe7 	bne	1000ac <__cs3_start_c+0x28>
  10010c:	eb0048cf 	bl	112450 <__cs3_premain>

00100110 <_start>:
  100110:	e51fd000 	ldr	sp, [pc, #-0]	; 100118 <_start+0x8>
  100114:	eaffffda 	b	100084 <__cs3_start_c>
  100118:	01100040 	.word	0x01100040

0010011c <deregister_tm_clones>:
  10011c:	e59f3024 	ldr	r3, [pc, #36]	; 100148 <deregister_tm_clones+0x2c>
  100120:	e30303d0 	movw	r0, #13264	; 0x33d0
  100124:	e3400011 	movt	r0, #17
  100128:	e0603003 	rsb	r3, r0, r3
  10012c:	e3530006 	cmp	r3, #6
  100130:	912fff1e 	bxls	lr
  100134:	e3003000 	movw	r3, #0
  100138:	e3403000 	movt	r3, #0
  10013c:	e3530000 	cmp	r3, #0
  100140:	012fff1e 	bxeq	lr
  100144:	e12fff13 	bx	r3
  100148:	001133d3 	.word	0x001133d3

0010014c <register_tm_clones>:
  10014c:	e30333d0 	movw	r3, #13264	; 0x33d0
  100150:	e30303d0 	movw	r0, #13264	; 0x33d0
  100154:	e3403011 	movt	r3, #17
  100158:	e3400011 	movt	r0, #17
  10015c:	e0601003 	rsb	r1, r0, r3
  100160:	e1a01141 	asr	r1, r1, #2
  100164:	e0811fa1 	add	r1, r1, r1, lsr #31
  100168:	e1b010c1 	asrs	r1, r1, #1
  10016c:	012fff1e 	bxeq	lr
  100170:	e3003000 	movw	r3, #0
  100174:	e3403000 	movt	r3, #0
  100178:	e3530000 	cmp	r3, #0
  10017c:	012fff1e 	bxeq	lr
  100180:	e12fff13 	bx	r3

00100184 <__do_global_dtors_aux>:
  100184:	e92d4010 	push	{r4, lr}
  100188:	e30343d0 	movw	r4, #13264	; 0x33d0
  10018c:	e3404011 	movt	r4, #17
  100190:	e5d43000 	ldrb	r3, [r4]
  100194:	e3530000 	cmp	r3, #0
  100198:	18bd8010 	popne	{r4, pc}
  10019c:	ebffffde 	bl	10011c <deregister_tm_clones>
  1001a0:	e3003000 	movw	r3, #0
  1001a4:	e3403000 	movt	r3, #0
  1001a8:	e3530000 	cmp	r3, #0
  1001ac:	0a000002 	beq	1001bc <__do_global_dtors_aux+0x38>
  1001b0:	e302061c 	movw	r0, #9756	; 0x261c
  1001b4:	e3400011 	movt	r0, #17
  1001b8:	e320f000 	nop	{0}
  1001bc:	e3a03001 	mov	r3, #1
  1001c0:	e5c43000 	strb	r3, [r4]
  1001c4:	e8bd8010 	pop	{r4, pc}

001001c8 <frame_dummy>:
  1001c8:	e92d4008 	push	{r3, lr}
  1001cc:	e3003000 	movw	r3, #0
  1001d0:	e3403000 	movt	r3, #0
  1001d4:	e3530000 	cmp	r3, #0
  1001d8:	0a000004 	beq	1001f0 <frame_dummy+0x28>
  1001dc:	e302061c 	movw	r0, #9756	; 0x261c
  1001e0:	e30313d4 	movw	r1, #13268	; 0x33d4
  1001e4:	e3400011 	movt	r0, #17
  1001e8:	e3401011 	movt	r1, #17
  1001ec:	e320f000 	nop	{0}
  1001f0:	e3020b00 	movw	r0, #11008	; 0x2b00
  1001f4:	e3400011 	movt	r0, #17
  1001f8:	e5903000 	ldr	r3, [r0]
  1001fc:	e3530000 	cmp	r3, #0
  100200:	1a000001 	bne	10020c <frame_dummy+0x44>
  100204:	e8bd4008 	pop	{r3, lr}
  100208:	eaffffcf 	b	10014c <register_tm_clones>
  10020c:	e3003000 	movw	r3, #0
  100210:	e3403000 	movt	r3, #0
  100214:	e3530000 	cmp	r3, #0
  100218:	0afffff9 	beq	100204 <frame_dummy+0x3c>
  10021c:	e12fff33 	blx	r3
  100220:	eafffff7 	b	100204 <frame_dummy+0x3c>

00100224 <system_init>:
  100224:	e92d4800 	push	{fp, lr}
  100228:	e28db004 	add	fp, sp, #4
  10022c:	e24dd040 	sub	sp, sp, #64	; 0x40
  100230:	e3a03000 	mov	r3, #0
  100234:	e50b3008 	str	r3, [fp, #-8]
  100238:	e3020698 	movw	r0, #9880	; 0x2698
  10023c:	e3400011 	movt	r0, #17
  100240:	eb0023b6 	bl	109120 <printf>
  100244:	e51b3008 	ldr	r3, [fp, #-8]
  100248:	e3530000 	cmp	r3, #0
  10024c:	1a000001 	bne	100258 <system_init+0x34>
  100250:	eb0004c3 	bl	101564 <alt_dma_uninit>
  100254:	e50b0008 	str	r0, [fp, #-8]
  100258:	e51b3008 	ldr	r3, [fp, #-8]
  10025c:	e3530000 	cmp	r3, #0
  100260:	1a00002f 	bne	100324 <system_init+0x100>
  100264:	e3a03000 	mov	r3, #0
  100268:	e54b3044 	strb	r3, [fp, #-68]	; 0xffffffbc
  10026c:	e3a03000 	mov	r3, #0
  100270:	e50b300c 	str	r3, [fp, #-12]
  100274:	ea000007 	b	100298 <system_init+0x74>
  100278:	e24b2044 	sub	r2, fp, #68	; 0x44
  10027c:	e51b300c 	ldr	r3, [fp, #-12]
  100280:	e0823003 	add	r3, r2, r3
  100284:	e3a02000 	mov	r2, #0
  100288:	e5c32001 	strb	r2, [r3, #1]
  10028c:	e51b300c 	ldr	r3, [fp, #-12]
  100290:	e2833001 	add	r3, r3, #1
  100294:	e50b300c 	str	r3, [fp, #-12]
  100298:	e51b300c 	ldr	r3, [fp, #-12]
  10029c:	e3530007 	cmp	r3, #7
  1002a0:	dafffff4 	ble	100278 <system_init+0x54>
  1002a4:	e3a03000 	mov	r3, #0
  1002a8:	e50b3010 	str	r3, [fp, #-16]
  1002ac:	ea000007 	b	1002d0 <system_init+0xac>
  1002b0:	e24b203c 	sub	r2, fp, #60	; 0x3c
  1002b4:	e51b3010 	ldr	r3, [fp, #-16]
  1002b8:	e0823003 	add	r3, r2, r3
  1002bc:	e3a02000 	mov	r2, #0
  1002c0:	e5c32001 	strb	r2, [r3, #1]
  1002c4:	e51b3010 	ldr	r3, [fp, #-16]
  1002c8:	e2833001 	add	r3, r3, #1
  1002cc:	e50b3010 	str	r3, [fp, #-16]
  1002d0:	e51b3010 	ldr	r3, [fp, #-16]
  1002d4:	e353001f 	cmp	r3, #31
  1002d8:	dafffff4 	ble	1002b0 <system_init+0x8c>
  1002dc:	e3a03000 	mov	r3, #0
  1002e0:	e50b3014 	str	r3, [fp, #-20]	; 0xffffffec
  1002e4:	ea000007 	b	100308 <system_init+0xe4>
  1002e8:	e24b201c 	sub	r2, fp, #28
  1002ec:	e51b3014 	ldr	r3, [fp, #-20]	; 0xffffffec
  1002f0:	e0823003 	add	r3, r2, r3
  1002f4:	e3a02000 	mov	r2, #0
  1002f8:	e5c32001 	strb	r2, [r3, #1]
  1002fc:	e51b3014 	ldr	r3, [fp, #-20]	; 0xffffffec
  100300:	e2833001 	add	r3, r3, #1
  100304:	e50b3014 	str	r3, [fp, #-20]	; 0xffffffec
  100308:	e51b3014 	ldr	r3, [fp, #-20]	; 0xffffffec
  10030c:	e3530003 	cmp	r3, #3
  100310:	dafffff4 	ble	1002e8 <system_init+0xc4>
  100314:	e24b3044 	sub	r3, fp, #68	; 0x44
  100318:	e1a00003 	mov	r0, r3
  10031c:	eb0003d6 	bl	10127c <alt_dma_init>
  100320:	e50b0008 	str	r0, [fp, #-8]
  100324:	e30206b0 	movw	r0, #9904	; 0x26b0
  100328:	e3400011 	movt	r0, #17
  10032c:	eb00237b 	bl	109120 <printf>
  100330:	e51b3008 	ldr	r3, [fp, #-8]
  100334:	e1a00003 	mov	r0, r3
  100338:	e24bd004 	sub	sp, fp, #4
  10033c:	e8bd8800 	pop	{fp, pc}

00100340 <system_uninit>:
  100340:	e92d4800 	push	{fp, lr}
  100344:	e28db004 	add	fp, sp, #4
  100348:	e30206b4 	movw	r0, #9908	; 0x26b4
  10034c:	e3400011 	movt	r0, #17
  100350:	eb002372 	bl	109120 <printf>
  100354:	e30206b0 	movw	r0, #9904	; 0x26b0
  100358:	e3400011 	movt	r0, #17
  10035c:	eb00236f 	bl	109120 <printf>
  100360:	e3a03000 	mov	r3, #0
  100364:	e1a00003 	mov	r0, r3
  100368:	e8bd8800 	pop	{fp, pc}

0010036c <main>:
  10036c:	e92d4810 	push	{r4, fp, lr}
  100370:	e28db008 	add	fp, sp, #8
  100374:	e24dde67 	sub	sp, sp, #1648	; 0x670
  100378:	e24dd004 	sub	sp, sp, #4
  10037c:	e30206d0 	movw	r0, #9936	; 0x26d0
  100380:	e3400011 	movt	r0, #17
  100384:	eb002365 	bl	109120 <printf>
  100388:	e3a03103 	mov	r3, #-1073741824	; 0xc0000000
  10038c:	e50b3018 	str	r3, [fp, #-24]	; 0xffffffe8
  100390:	e3a03000 	mov	r3, #0
  100394:	e50b3010 	str	r3, [fp, #-16]
  100398:	e51b3010 	ldr	r3, [fp, #-16]
  10039c:	e3530000 	cmp	r3, #0
  1003a0:	1a000001 	bne	1003ac <main+0x40>
  1003a4:	ebffff9e 	bl	100224 <system_init>
  1003a8:	e50b0010 	str	r0, [fp, #-16]
  1003ac:	e51b3010 	ldr	r3, [fp, #-16]
  1003b0:	e3530000 	cmp	r3, #0
  1003b4:	1a000008 	bne	1003dc <main+0x70>
  1003b8:	e30206dc 	movw	r0, #9948	; 0x26dc
  1003bc:	e3400011 	movt	r0, #17
  1003c0:	eb002356 	bl	109120 <printf>
  1003c4:	e24b3e42 	sub	r3, fp, #1056	; 0x420
  1003c8:	e243300c 	sub	r3, r3, #12
  1003cc:	e2433001 	sub	r3, r3, #1
  1003d0:	e1a00003 	mov	r0, r3
  1003d4:	eb0004ad 	bl	101690 <alt_dma_channel_alloc_any>
  1003d8:	e50b0010 	str	r0, [fp, #-16]
  1003dc:	e3a03000 	mov	r3, #0
  1003e0:	e50b301c 	str	r3, [fp, #-28]	; 0xffffffe4
  1003e4:	e3a03000 	mov	r3, #0
  1003e8:	e50b3020 	str	r3, [fp, #-32]	; 0xffffffe0
  1003ec:	e3a03b01 	mov	r3, #1024	; 0x400
  1003f0:	e50b3024 	str	r3, [fp, #-36]	; 0xffffffdc
  1003f4:	e3a03000 	mov	r3, #0
  1003f8:	e50b3014 	str	r3, [fp, #-20]	; 0xffffffec
  1003fc:	ea000012 	b	10044c <main+0xe0>
  100400:	eb002386 	bl	109220 <rand>
  100404:	e1a03000 	mov	r3, r0
  100408:	e6ef1073 	uxtb	r1, r3
  10040c:	e24b2e42 	sub	r2, fp, #1056	; 0x420
  100410:	e242200c 	sub	r2, r2, #12
  100414:	e51b3014 	ldr	r3, [fp, #-20]	; 0xffffffec
  100418:	e0823003 	add	r3, r2, r3
  10041c:	e1a02001 	mov	r2, r1
  100420:	e5c32000 	strb	r2, [r3]
  100424:	e51b3014 	ldr	r3, [fp, #-20]	; 0xffffffec
  100428:	e51b2018 	ldr	r2, [fp, #-24]	; 0xffffffe8
  10042c:	e0824003 	add	r4, r2, r3
  100430:	eb00237a 	bl	109220 <rand>
  100434:	e1a03000 	mov	r3, r0
  100438:	e6ef3073 	uxtb	r3, r3
  10043c:	e5c43000 	strb	r3, [r4]
  100440:	e51b3014 	ldr	r3, [fp, #-20]	; 0xffffffec
  100444:	e2833001 	add	r3, r3, #1
  100448:	e50b3014 	str	r3, [fp, #-20]	; 0xffffffec
  10044c:	e51b3014 	ldr	r3, [fp, #-20]	; 0xffffffec
  100450:	e3530b01 	cmp	r3, #1024	; 0x400
  100454:	baffffe9 	blt	100400 <main+0x94>
  100458:	e51b2018 	ldr	r2, [fp, #-24]	; 0xffffffe8
  10045c:	e51b3020 	ldr	r3, [fp, #-32]	; 0xffffffe0
  100460:	e0823003 	add	r3, r2, r3
  100464:	e50b3028 	str	r3, [fp, #-40]	; 0xffffffd8
  100468:	e24b2e42 	sub	r2, fp, #1056	; 0x420
  10046c:	e242200c 	sub	r2, r2, #12
  100470:	e51b301c 	ldr	r3, [fp, #-28]	; 0xffffffe4
  100474:	e0823003 	add	r3, r2, r3
  100478:	e50b302c 	str	r3, [fp, #-44]	; 0xffffffd4
  10047c:	e30206fc 	movw	r0, #9980	; 0x26fc
  100480:	e3400011 	movt	r0, #17
  100484:	eb002325 	bl	109120 <printf>
  100488:	e51b3010 	ldr	r3, [fp, #-16]
  10048c:	e3530000 	cmp	r3, #0
  100490:	1a000015 	bne	1004ec <main+0x180>
  100494:	e51b102c 	ldr	r1, [fp, #-44]	; 0xffffffd4
  100498:	e51b2028 	ldr	r2, [fp, #-40]	; 0xffffffd8
  10049c:	e51b3024 	ldr	r3, [fp, #-36]	; 0xffffffdc
  1004a0:	e3020728 	movw	r0, #10024	; 0x2728
  1004a4:	e3400011 	movt	r0, #17
  1004a8:	eb00231c 	bl	109120 <printf>
  1004ac:	e55b142d 	ldrb	r1, [fp, #-1069]	; 0xfffffbd3
  1004b0:	e24b3e65 	sub	r3, fp, #1616	; 0x650
  1004b4:	e243300c 	sub	r3, r3, #12
  1004b8:	e2433004 	sub	r3, r3, #4
  1004bc:	e51b2024 	ldr	r2, [fp, #-36]	; 0xffffffdc
  1004c0:	e58d2000 	str	r2, [sp]
  1004c4:	e3a02000 	mov	r2, #0
  1004c8:	e58d2004 	str	r2, [sp, #4]
  1004cc:	e3a02000 	mov	r2, #0
  1004d0:	e58d2008 	str	r2, [sp, #8]
  1004d4:	e1a00001 	mov	r0, r1
  1004d8:	e1a01003 	mov	r1, r3
  1004dc:	e51b2028 	ldr	r2, [fp, #-40]	; 0xffffffd8
  1004e0:	e51b302c 	ldr	r3, [fp, #-44]	; 0xffffffd4
  1004e4:	eb000863 	bl	102678 <alt_dma_memory_to_memory>
  1004e8:	e50b0010 	str	r0, [fp, #-16]
  1004ec:	e51b3010 	ldr	r3, [fp, #-16]
  1004f0:	e3530000 	cmp	r3, #0
  1004f4:	1a000024 	bne	10058c <main+0x220>
  1004f8:	e3020760 	movw	r0, #10080	; 0x2760
  1004fc:	e3400011 	movt	r0, #17
  100500:	eb002306 	bl	109120 <printf>
  100504:	e3a03001 	mov	r3, #1
  100508:	e54b3665 	strb	r3, [fp, #-1637]	; 0xfffff99b
  10050c:	ea000018 	b	100574 <main+0x208>
  100510:	e55b242d 	ldrb	r2, [fp, #-1069]	; 0xfffffbd3
  100514:	e24b3e65 	sub	r3, fp, #1616	; 0x650
  100518:	e243300c 	sub	r3, r3, #12
  10051c:	e2433009 	sub	r3, r3, #9
  100520:	e1a00002 	mov	r0, r2
  100524:	e1a01003 	mov	r1, r3
  100528:	eb0005d4 	bl	101c80 <alt_dma_channel_state_get>
  10052c:	e50b0010 	str	r0, [fp, #-16]
  100530:	e55b3665 	ldrb	r3, [fp, #-1637]	; 0xfffff99b
  100534:	e353000f 	cmp	r3, #15
  100538:	1a00000d 	bne	100574 <main+0x208>
  10053c:	e55b242d 	ldrb	r2, [fp, #-1069]	; 0xfffffbd3
  100540:	e24b3e65 	sub	r3, fp, #1616	; 0x650
  100544:	e243300c 	sub	r3, r3, #12
  100548:	e2433008 	sub	r3, r3, #8
  10054c:	e1a00002 	mov	r0, r2
  100550:	e1a01003 	mov	r1, r3
  100554:	eb0005f6 	bl	101d34 <alt_dma_channel_fault_status_get>
  100558:	e51b3664 	ldr	r3, [fp, #-1636]	; 0xfffff99c
  10055c:	e3020790 	movw	r0, #10128	; 0x2790
  100560:	e3400011 	movt	r0, #17
  100564:	e1a01003 	mov	r1, r3
  100568:	eb0022ec 	bl	109120 <printf>
  10056c:	e3e03000 	mvn	r3, #0
  100570:	e50b3010 	str	r3, [fp, #-16]
  100574:	e51b3010 	ldr	r3, [fp, #-16]
  100578:	e3530000 	cmp	r3, #0
  10057c:	1a000002 	bne	10058c <main+0x220>
  100580:	e55b3665 	ldrb	r3, [fp, #-1637]	; 0xfffff99b
  100584:	e3530000 	cmp	r3, #0
  100588:	1affffe0 	bne	100510 <main+0x1a4>
  10058c:	e51b3010 	ldr	r3, [fp, #-16]
  100590:	e3530000 	cmp	r3, #0
  100594:	1a00000b 	bne	1005c8 <main+0x25c>
  100598:	e30207b0 	movw	r0, #10160	; 0x27b0
  10059c:	e3400011 	movt	r0, #17
  1005a0:	eb0022de 	bl	109120 <printf>
  1005a4:	e51b002c 	ldr	r0, [fp, #-44]	; 0xffffffd4
  1005a8:	e51b1028 	ldr	r1, [fp, #-40]	; 0xffffffd8
  1005ac:	e51b2024 	ldr	r2, [fp, #-36]	; 0xffffffdc
  1005b0:	eb0022a3 	bl	109044 <memcmp>
  1005b4:	e1a03000 	mov	r3, r0
  1005b8:	e3530000 	cmp	r3, #0
  1005bc:	0a000001 	beq	1005c8 <main+0x25c>
  1005c0:	e3e03000 	mvn	r3, #0
  1005c4:	e50b3010 	str	r3, [fp, #-16]
  1005c8:	e51b3010 	ldr	r3, [fp, #-16]
  1005cc:	e3530000 	cmp	r3, #0
  1005d0:	1a000003 	bne	1005e4 <main+0x278>
  1005d4:	e30207e4 	movw	r0, #10212	; 0x27e4
  1005d8:	e3400011 	movt	r0, #17
  1005dc:	eb0022cf 	bl	109120 <printf>
  1005e0:	ea000002 	b	1005f0 <main+0x284>
  1005e4:	e3020814 	movw	r0, #10260	; 0x2814
  1005e8:	e3400011 	movt	r0, #17
  1005ec:	eb0022cb 	bl	109120 <printf>
  1005f0:	e30206b0 	movw	r0, #9904	; 0x26b0
  1005f4:	e3400011 	movt	r0, #17
  1005f8:	eb0022c8 	bl	109120 <printf>
  1005fc:	e51b3010 	ldr	r3, [fp, #-16]
  100600:	e3530000 	cmp	r3, #0
  100604:	1a000001 	bne	100610 <main+0x2a4>
  100608:	ebffff4c 	bl	100340 <system_uninit>
  10060c:	e50b0010 	str	r0, [fp, #-16]
  100610:	e51b3010 	ldr	r3, [fp, #-16]
  100614:	e3530000 	cmp	r3, #0
  100618:	1a000004 	bne	100630 <main+0x2c4>
  10061c:	e3020840 	movw	r0, #10304	; 0x2840
  100620:	e3400011 	movt	r0, #17
  100624:	eb0022bd 	bl	109120 <printf>
  100628:	e3a03000 	mov	r3, #0
  10062c:	ea000003 	b	100640 <main+0x2d4>
  100630:	e3020860 	movw	r0, #10336	; 0x2860
  100634:	e3400011 	movt	r0, #17
  100638:	eb0022b8 	bl	109120 <printf>
  10063c:	e3a03001 	mov	r3, #1
  100640:	e1a00003 	mov	r0, r3
  100644:	e24bd008 	sub	sp, fp, #8
  100648:	e8bd8810 	pop	{r4, fp, pc}

0010064c <_close>:
  10064c:	e52db004 	push	{fp}		; (str fp, [sp, #-4]!)
  100650:	e28db000 	add	fp, sp, #0
  100654:	e24dd00c 	sub	sp, sp, #12
  100658:	e50b0008 	str	r0, [fp, #-8]
  10065c:	e51b3008 	ldr	r3, [fp, #-8]
  100660:	e3530001 	cmp	r3, #1
  100664:	1a000001 	bne	100670 <_close+0x24>
  100668:	e3a03000 	mov	r3, #0
  10066c:	ea000000 	b	100674 <_close+0x28>
  100670:	e3e03000 	mvn	r3, #0
  100674:	e1a00003 	mov	r0, r3
  100678:	e24bd000 	sub	sp, fp, #0
  10067c:	e49db004 	pop	{fp}		; (ldr fp, [sp], #4)
  100680:	e12fff1e 	bx	lr

00100684 <_fstat>:
  100684:	e52db004 	push	{fp}		; (str fp, [sp, #-4]!)
  100688:	e28db000 	add	fp, sp, #0
  10068c:	e24dd00c 	sub	sp, sp, #12
  100690:	e50b0008 	str	r0, [fp, #-8]
  100694:	e50b100c 	str	r1, [fp, #-12]
  100698:	e51b3008 	ldr	r3, [fp, #-8]
  10069c:	e3530001 	cmp	r3, #1
  1006a0:	1a000001 	bne	1006ac <_fstat+0x28>
  1006a4:	e3a03000 	mov	r3, #0
  1006a8:	ea000000 	b	1006b0 <_fstat+0x2c>
  1006ac:	e3e03000 	mvn	r3, #0
  1006b0:	e1a00003 	mov	r0, r3
  1006b4:	e24bd000 	sub	sp, fp, #0
  1006b8:	e49db004 	pop	{fp}		; (ldr fp, [sp], #4)
  1006bc:	e12fff1e 	bx	lr

001006c0 <_isatty>:
  1006c0:	e52db004 	push	{fp}		; (str fp, [sp, #-4]!)
  1006c4:	e28db000 	add	fp, sp, #0
  1006c8:	e24dd00c 	sub	sp, sp, #12
  1006cc:	e50b0008 	str	r0, [fp, #-8]
  1006d0:	e51b3008 	ldr	r3, [fp, #-8]
  1006d4:	e3530001 	cmp	r3, #1
  1006d8:	1a000001 	bne	1006e4 <_isatty+0x24>
  1006dc:	e3a03001 	mov	r3, #1
  1006e0:	ea000000 	b	1006e8 <_isatty+0x28>
  1006e4:	e3e03000 	mvn	r3, #0
  1006e8:	e1a00003 	mov	r0, r3
  1006ec:	e24bd000 	sub	sp, fp, #0
  1006f0:	e49db004 	pop	{fp}		; (ldr fp, [sp], #4)
  1006f4:	e12fff1e 	bx	lr

001006f8 <_lseek>:
  1006f8:	e52db004 	push	{fp}		; (str fp, [sp, #-4]!)
  1006fc:	e28db000 	add	fp, sp, #0
  100700:	e24dd014 	sub	sp, sp, #20
  100704:	e50b0008 	str	r0, [fp, #-8]
  100708:	e50b100c 	str	r1, [fp, #-12]
  10070c:	e50b2010 	str	r2, [fp, #-16]
  100710:	e51b3008 	ldr	r3, [fp, #-8]
  100714:	e3530001 	cmp	r3, #1
  100718:	1a000001 	bne	100724 <_lseek+0x2c>
  10071c:	e3a03000 	mov	r3, #0
  100720:	ea000000 	b	100728 <_lseek+0x30>
  100724:	e3e03000 	mvn	r3, #0
  100728:	e1a00003 	mov	r0, r3
  10072c:	e24bd000 	sub	sp, fp, #0
  100730:	e49db004 	pop	{fp}		; (ldr fp, [sp], #4)
  100734:	e12fff1e 	bx	lr

00100738 <_read>:
  100738:	e52db004 	push	{fp}		; (str fp, [sp, #-4]!)
  10073c:	e28db000 	add	fp, sp, #0
  100740:	e24dd014 	sub	sp, sp, #20
  100744:	e50b0008 	str	r0, [fp, #-8]
  100748:	e50b100c 	str	r1, [fp, #-12]
  10074c:	e50b2010 	str	r2, [fp, #-16]
  100750:	e3e03000 	mvn	r3, #0
  100754:	e1a00003 	mov	r0, r3
  100758:	e24bd000 	sub	sp, fp, #0
  10075c:	e49db004 	pop	{fp}		; (ldr fp, [sp], #4)
  100760:	e12fff1e 	bx	lr

00100764 <_write>:
  100764:	e52db004 	push	{fp}		; (str fp, [sp, #-4]!)
  100768:	e28db000 	add	fp, sp, #0
  10076c:	e24dd01c 	sub	sp, sp, #28
  100770:	e50b0010 	str	r0, [fp, #-16]
  100774:	e50b1014 	str	r1, [fp, #-20]	; 0xffffffec
  100778:	e50b2018 	str	r2, [fp, #-24]	; 0xffffffe8
  10077c:	e50b301c 	str	r3, [fp, #-28]	; 0xffffffe4
  100780:	e51b3010 	ldr	r3, [fp, #-16]
  100784:	e3530001 	cmp	r3, #1
  100788:	0a000001 	beq	100794 <_write+0x30>
  10078c:	e3e03000 	mvn	r3, #0
  100790:	ea000019 	b	1007fc <_write+0x98>
  100794:	e3a03000 	mov	r3, #0
  100798:	e50b3008 	str	r3, [fp, #-8]
  10079c:	ea000011 	b	1007e8 <_write+0x84>
  1007a0:	e1a00000 	nop			; (mov r0, r0)
  1007a4:	e3023014 	movw	r3, #8212	; 0x2014
  1007a8:	e34f3fc0 	movt	r3, #65472	; 0xffc0
  1007ac:	e5933000 	ldr	r3, [r3]
  1007b0:	e2033020 	and	r3, r3, #32
  1007b4:	e1a032a3 	lsr	r3, r3, #5
  1007b8:	e3530001 	cmp	r3, #1
  1007bc:	1afffff8 	bne	1007a4 <_write+0x40>
  1007c0:	e3a03a02 	mov	r3, #8192	; 0x2000
  1007c4:	e34f3fc0 	movt	r3, #65472	; 0xffc0
  1007c8:	e51b2008 	ldr	r2, [fp, #-8]
  1007cc:	e51b1014 	ldr	r1, [fp, #-20]	; 0xffffffec
  1007d0:	e0812002 	add	r2, r1, r2
  1007d4:	e5d22000 	ldrb	r2, [r2]
  1007d8:	e5832000 	str	r2, [r3]
  1007dc:	e51b3008 	ldr	r3, [fp, #-8]
  1007e0:	e2833001 	add	r3, r3, #1
  1007e4:	e50b3008 	str	r3, [fp, #-8]
  1007e8:	e51b2008 	ldr	r2, [fp, #-8]
  1007ec:	e51b3018 	ldr	r3, [fp, #-24]	; 0xffffffe8
  1007f0:	e1520003 	cmp	r2, r3
  1007f4:	3affffe9 	bcc	1007a0 <_write+0x3c>
  1007f8:	e51b3018 	ldr	r3, [fp, #-24]	; 0xffffffe8
  1007fc:	e1a00003 	mov	r0, r3
  100800:	e24bd000 	sub	sp, fp, #0
  100804:	e49db004 	pop	{fp}		; (ldr fp, [sp], #4)
  100808:	e12fff1e 	bx	lr

0010080c <alt_globaltmr_is_running>:
  10080c:	e52db004 	push	{fp}		; (str fp, [sp, #-4]!)
  100810:	e28db000 	add	fp, sp, #0
  100814:	e30c3208 	movw	r3, #49672	; 0xc208
  100818:	e34f3ffe 	movt	r3, #65534	; 0xfffe
  10081c:	e5933000 	ldr	r3, [r3]
  100820:	e2033001 	and	r3, r3, #1
  100824:	e3530000 	cmp	r3, #0
  100828:	13a03001 	movne	r3, #1
  10082c:	03a03000 	moveq	r3, #0
  100830:	e6ef3073 	uxtb	r3, r3
  100834:	e1a00003 	mov	r0, r3
  100838:	e24bd000 	sub	sp, fp, #0
  10083c:	e49db004 	pop	{fp}		; (ldr fp, [sp], #4)
  100840:	e12fff1e 	bx	lr

00100844 <alt_globaltmr_uninit>:
  100844:	e52db004 	push	{fp}		; (str fp, [sp, #-4]!)
  100848:	e28db000 	add	fp, sp, #0
  10084c:	e30c3208 	movw	r3, #49672	; 0xc208
  100850:	e34f3ffe 	movt	r3, #65534	; 0xfffe
  100854:	e30c2208 	movw	r2, #49672	; 0xc208
  100858:	e34f2ffe 	movt	r2, #65534	; 0xfffe
  10085c:	e5922000 	ldr	r2, [r2]
  100860:	e3c2200e 	bic	r2, r2, #14
  100864:	e5832000 	str	r2, [r3]
  100868:	e30c3210 	movw	r3, #49680	; 0xc210
  10086c:	e34f3ffe 	movt	r3, #65534	; 0xfffe
  100870:	e3a02000 	mov	r2, #0
  100874:	e5832000 	str	r2, [r3]
  100878:	e30c3214 	movw	r3, #49684	; 0xc214
  10087c:	e34f3ffe 	movt	r3, #65534	; 0xfffe
  100880:	e3a02000 	mov	r2, #0
  100884:	e5832000 	str	r2, [r3]
  100888:	e30c3218 	movw	r3, #49688	; 0xc218
  10088c:	e34f3ffe 	movt	r3, #65534	; 0xfffe
  100890:	e3a02000 	mov	r2, #0
  100894:	e5832000 	str	r2, [r3]
  100898:	e30c320c 	movw	r3, #49676	; 0xc20c
  10089c:	e34f3ffe 	movt	r3, #65534	; 0xfffe
  1008a0:	e3a02001 	mov	r2, #1
  1008a4:	e5832000 	str	r2, [r3]
  1008a8:	e3a03000 	mov	r3, #0
  1008ac:	e1a00003 	mov	r0, r3
  1008b0:	e24bd000 	sub	sp, fp, #0
  1008b4:	e49db004 	pop	{fp}		; (ldr fp, [sp], #4)
  1008b8:	e12fff1e 	bx	lr

001008bc <alt_globaltmr_init>:
  1008bc:	e92d4800 	push	{fp, lr}
  1008c0:	e28db004 	add	fp, sp, #4
  1008c4:	ebffffde 	bl	100844 <alt_globaltmr_uninit>
  1008c8:	e30c3208 	movw	r3, #49672	; 0xc208
  1008cc:	e34f3ffe 	movt	r3, #65534	; 0xfffe
  1008d0:	e30c2208 	movw	r2, #49672	; 0xc208
  1008d4:	e34f2ffe 	movt	r2, #65534	; 0xfffe
  1008d8:	e5922000 	ldr	r2, [r2]
  1008dc:	e3822001 	orr	r2, r2, #1
  1008e0:	e5832000 	str	r2, [r3]
  1008e4:	e3a03000 	mov	r3, #0
  1008e8:	e1a00003 	mov	r0, r3
  1008ec:	e8bd8800 	pop	{fp, pc}

001008f0 <alt_globaltmr_stop>:
  1008f0:	e52db004 	push	{fp}		; (str fp, [sp, #-4]!)
  1008f4:	e28db000 	add	fp, sp, #0
  1008f8:	e24dd00c 	sub	sp, sp, #12
  1008fc:	e30c3208 	movw	r3, #49672	; 0xc208
  100900:	e34f3ffe 	movt	r3, #65534	; 0xfffe
  100904:	e5933000 	ldr	r3, [r3]
  100908:	e50b3008 	str	r3, [fp, #-8]
  10090c:	e30c3208 	movw	r3, #49672	; 0xc208
  100910:	e34f3ffe 	movt	r3, #65534	; 0xfffe
  100914:	e51b2008 	ldr	r2, [fp, #-8]
  100918:	e3c22002 	bic	r2, r2, #2
  10091c:	e5832000 	str	r2, [r3]
  100920:	e3a03000 	mov	r3, #0
  100924:	e1a00003 	mov	r0, r3
  100928:	e24bd000 	sub	sp, fp, #0
  10092c:	e49db004 	pop	{fp}		; (ldr fp, [sp], #4)
  100930:	e12fff1e 	bx	lr

00100934 <alt_globaltmr_start>:
  100934:	e52db004 	push	{fp}		; (str fp, [sp, #-4]!)
  100938:	e28db000 	add	fp, sp, #0
  10093c:	e24dd00c 	sub	sp, sp, #12
  100940:	e30c3208 	movw	r3, #49672	; 0xc208
  100944:	e34f3ffe 	movt	r3, #65534	; 0xfffe
  100948:	e5933000 	ldr	r3, [r3]
  10094c:	e50b3008 	str	r3, [fp, #-8]
  100950:	e30c3208 	movw	r3, #49672	; 0xc208
  100954:	e34f3ffe 	movt	r3, #65534	; 0xfffe
  100958:	e51b2008 	ldr	r2, [fp, #-8]
  10095c:	e3822003 	orr	r2, r2, #3
  100960:	e5832000 	str	r2, [r3]
  100964:	e3a03000 	mov	r3, #0
  100968:	e1a00003 	mov	r0, r3
  10096c:	e24bd000 	sub	sp, fp, #0
  100970:	e49db004 	pop	{fp}		; (ldr fp, [sp], #4)
  100974:	e12fff1e 	bx	lr

00100978 <alt_globaltmr_get>:
  100978:	e52db004 	push	{fp}		; (str fp, [sp, #-4]!)
  10097c:	e28db000 	add	fp, sp, #0
  100980:	e24dd024 	sub	sp, sp, #36	; 0x24
  100984:	e50b0020 	str	r0, [fp, #-32]	; 0xffffffe0
  100988:	e50b1024 	str	r1, [fp, #-36]	; 0xffffffdc
  10098c:	e3e03000 	mvn	r3, #0
  100990:	e50b3008 	str	r3, [fp, #-8]
  100994:	e3a03003 	mov	r3, #3
  100998:	e50b3010 	str	r3, [fp, #-16]
  10099c:	e51b3020 	ldr	r3, [fp, #-32]	; 0xffffffe0
  1009a0:	e3530000 	cmp	r3, #0
  1009a4:	0a000002 	beq	1009b4 <alt_globaltmr_get+0x3c>
  1009a8:	e51b3024 	ldr	r3, [fp, #-36]	; 0xffffffdc
  1009ac:	e3530000 	cmp	r3, #0
  1009b0:	1a000002 	bne	1009c0 <alt_globaltmr_get+0x48>
  1009b4:	e3e03008 	mvn	r3, #8
  1009b8:	e50b3008 	str	r3, [fp, #-8]
  1009bc:	ea000021 	b	100a48 <alt_globaltmr_get+0xd0>
  1009c0:	e30c3204 	movw	r3, #49668	; 0xc204
  1009c4:	e34f3ffe 	movt	r3, #65534	; 0xfffe
  1009c8:	e5933000 	ldr	r3, [r3]
  1009cc:	e50b300c 	str	r3, [fp, #-12]
  1009d0:	e51b300c 	ldr	r3, [fp, #-12]
  1009d4:	e50b3014 	str	r3, [fp, #-20]	; 0xffffffec
  1009d8:	e3a03cc2 	mov	r3, #49664	; 0xc200
  1009dc:	e34f3ffe 	movt	r3, #65534	; 0xfffe
  1009e0:	e5933000 	ldr	r3, [r3]
  1009e4:	e50b3018 	str	r3, [fp, #-24]	; 0xffffffe8
  1009e8:	e30c3204 	movw	r3, #49668	; 0xc204
  1009ec:	e34f3ffe 	movt	r3, #65534	; 0xfffe
  1009f0:	e5933000 	ldr	r3, [r3]
  1009f4:	e50b300c 	str	r3, [fp, #-12]
  1009f8:	e51b2014 	ldr	r2, [fp, #-20]	; 0xffffffec
  1009fc:	e51b300c 	ldr	r3, [fp, #-12]
  100a00:	e1520003 	cmp	r2, r3
  100a04:	0a000004 	beq	100a1c <alt_globaltmr_get+0xa4>
  100a08:	e51b3010 	ldr	r3, [fp, #-16]
  100a0c:	e2432001 	sub	r2, r3, #1
  100a10:	e50b2010 	str	r2, [fp, #-16]
  100a14:	e3530000 	cmp	r3, #0
  100a18:	1affffec 	bne	1009d0 <alt_globaltmr_get+0x58>
  100a1c:	e51b3010 	ldr	r3, [fp, #-16]
  100a20:	e3530000 	cmp	r3, #0
  100a24:	0a000007 	beq	100a48 <alt_globaltmr_get+0xd0>
  100a28:	e51b3020 	ldr	r3, [fp, #-32]	; 0xffffffe0
  100a2c:	e51b200c 	ldr	r2, [fp, #-12]
  100a30:	e5832000 	str	r2, [r3]
  100a34:	e51b3024 	ldr	r3, [fp, #-36]	; 0xffffffdc
  100a38:	e51b2018 	ldr	r2, [fp, #-24]	; 0xffffffe8
  100a3c:	e5832000 	str	r2, [r3]
  100a40:	e3a03000 	mov	r3, #0
  100a44:	e50b3008 	str	r3, [fp, #-8]
  100a48:	e51b3008 	ldr	r3, [fp, #-8]
  100a4c:	e1a00003 	mov	r0, r3
  100a50:	e24bd000 	sub	sp, fp, #0
  100a54:	e49db004 	pop	{fp}		; (ldr fp, [sp], #4)
  100a58:	e12fff1e 	bx	lr

00100a5c <alt_globaltmr_get64>:
  100a5c:	e52db004 	push	{fp}		; (str fp, [sp, #-4]!)
  100a60:	e28db000 	add	fp, sp, #0
  100a64:	e24dd01c 	sub	sp, sp, #28
  100a68:	f2c00010 	vmov.i32	d16, #0	; 0x00000000
  100a6c:	ed4b0b03 	vstr	d16, [fp, #-12]
  100a70:	e3a03003 	mov	r3, #3
  100a74:	e50b3014 	str	r3, [fp, #-20]	; 0xffffffec
  100a78:	e30c3204 	movw	r3, #49668	; 0xc204
  100a7c:	e34f3ffe 	movt	r3, #65534	; 0xfffe
  100a80:	e5933000 	ldr	r3, [r3]
  100a84:	e50b3010 	str	r3, [fp, #-16]
  100a88:	e51b3010 	ldr	r3, [fp, #-16]
  100a8c:	e50b3018 	str	r3, [fp, #-24]	; 0xffffffe8
  100a90:	e3a03cc2 	mov	r3, #49664	; 0xc200
  100a94:	e34f3ffe 	movt	r3, #65534	; 0xfffe
  100a98:	e5933000 	ldr	r3, [r3]
  100a9c:	e50b301c 	str	r3, [fp, #-28]	; 0xffffffe4
  100aa0:	e30c3204 	movw	r3, #49668	; 0xc204
  100aa4:	e34f3ffe 	movt	r3, #65534	; 0xfffe
  100aa8:	e5933000 	ldr	r3, [r3]
  100aac:	e50b3010 	str	r3, [fp, #-16]
  100ab0:	e51b2018 	ldr	r2, [fp, #-24]	; 0xffffffe8
  100ab4:	e51b3010 	ldr	r3, [fp, #-16]
  100ab8:	e1520003 	cmp	r2, r3
  100abc:	0a000004 	beq	100ad4 <alt_globaltmr_get64+0x78>
  100ac0:	e51b3014 	ldr	r3, [fp, #-20]	; 0xffffffec
  100ac4:	e2432001 	sub	r2, r3, #1
  100ac8:	e50b2014 	str	r2, [fp, #-20]	; 0xffffffec
  100acc:	e3530000 	cmp	r3, #0
  100ad0:	1affffec 	bne	100a88 <alt_globaltmr_get64+0x2c>
  100ad4:	e51b3014 	ldr	r3, [fp, #-20]	; 0xffffffec
  100ad8:	e3530000 	cmp	r3, #0
  100adc:	0a00000c 	beq	100b14 <alt_globaltmr_get64+0xb8>
  100ae0:	e51b3010 	ldr	r3, [fp, #-16]
  100ae4:	e1a02003 	mov	r2, r3
  100ae8:	e3a03000 	mov	r3, #0
  100aec:	e14b20fc 	strd	r2, [fp, #-12]
  100af0:	ed5b0b03 	vldr	d16, [fp, #-12]
  100af4:	f2e015b0 	vshl.s64	d17, d16, #32
  100af8:	ec510b31 	vmov	r0, r1, d17
  100afc:	e51b301c 	ldr	r3, [fp, #-28]	; 0xffffffe4
  100b00:	e1a02003 	mov	r2, r3
  100b04:	e3a03000 	mov	r3, #0
  100b08:	e1822000 	orr	r2, r2, r0
  100b0c:	e1833001 	orr	r3, r3, r1
  100b10:	e14b20fc 	strd	r2, [fp, #-12]
  100b14:	e14b20dc 	ldrd	r2, [fp, #-12]
  100b18:	e1a00002 	mov	r0, r2
  100b1c:	e1a01003 	mov	r1, r3
  100b20:	e24bd000 	sub	sp, fp, #0
  100b24:	e49db004 	pop	{fp}		; (ldr fp, [sp], #4)
  100b28:	e12fff1e 	bx	lr

00100b2c <alt_globaltmr_counter_get_low32>:
  100b2c:	e52db004 	push	{fp}		; (str fp, [sp, #-4]!)
  100b30:	e28db000 	add	fp, sp, #0
  100b34:	e3a03cc2 	mov	r3, #49664	; 0xc200
  100b38:	e34f3ffe 	movt	r3, #65534	; 0xfffe
  100b3c:	e5933000 	ldr	r3, [r3]
  100b40:	e1a00003 	mov	r0, r3
  100b44:	e24bd000 	sub	sp, fp, #0
  100b48:	e49db004 	pop	{fp}		; (ldr fp, [sp], #4)
  100b4c:	e12fff1e 	bx	lr

00100b50 <alt_globaltmr_counter_get_hi32>:
  100b50:	e52db004 	push	{fp}		; (str fp, [sp, #-4]!)
  100b54:	e28db000 	add	fp, sp, #0
  100b58:	e30c3204 	movw	r3, #49668	; 0xc204
  100b5c:	e34f3ffe 	movt	r3, #65534	; 0xfffe
  100b60:	e5933000 	ldr	r3, [r3]
  100b64:	e1a00003 	mov	r0, r3
  100b68:	e24bd000 	sub	sp, fp, #0
  100b6c:	e49db004 	pop	{fp}		; (ldr fp, [sp], #4)
  100b70:	e12fff1e 	bx	lr

00100b74 <alt_globaltmr_comp_set>:
  100b74:	e92d4800 	push	{fp, lr}
  100b78:	e28db004 	add	fp, sp, #4
  100b7c:	e24dd010 	sub	sp, sp, #16
  100b80:	e50b0010 	str	r0, [fp, #-16]
  100b84:	e50b1014 	str	r1, [fp, #-20]	; 0xffffffec
  100b88:	e3a03000 	mov	r3, #0
  100b8c:	e54b3005 	strb	r3, [fp, #-5]
  100b90:	e3e03000 	mvn	r3, #0
  100b94:	e50b300c 	str	r3, [fp, #-12]
  100b98:	eb0000a7 	bl	100e3c <alt_globaltmr_is_comp_mode>
  100b9c:	e1a03000 	mov	r3, r0
  100ba0:	e3530000 	cmp	r3, #0
  100ba4:	0a000008 	beq	100bcc <alt_globaltmr_comp_set+0x58>
  100ba8:	e3a03001 	mov	r3, #1
  100bac:	e54b3005 	strb	r3, [fp, #-5]
  100bb0:	eb000093 	bl	100e04 <alt_globaltmr_comp_mode_stop>
  100bb4:	e50b000c 	str	r0, [fp, #-12]
  100bb8:	e51b300c 	ldr	r3, [fp, #-12]
  100bbc:	e3530000 	cmp	r3, #0
  100bc0:	0a000001 	beq	100bcc <alt_globaltmr_comp_set+0x58>
  100bc4:	e51b300c 	ldr	r3, [fp, #-12]
  100bc8:	ea00000f 	b	100c0c <alt_globaltmr_comp_set+0x98>
  100bcc:	e30c3210 	movw	r3, #49680	; 0xc210
  100bd0:	e34f3ffe 	movt	r3, #65534	; 0xfffe
  100bd4:	e51b2014 	ldr	r2, [fp, #-20]	; 0xffffffec
  100bd8:	e5832000 	str	r2, [r3]
  100bdc:	e30c3214 	movw	r3, #49684	; 0xc214
  100be0:	e34f3ffe 	movt	r3, #65534	; 0xfffe
  100be4:	e51b2010 	ldr	r2, [fp, #-16]
  100be8:	e5832000 	str	r2, [r3]
  100bec:	e3a03000 	mov	r3, #0
  100bf0:	e50b300c 	str	r3, [fp, #-12]
  100bf4:	e55b3005 	ldrb	r3, [fp, #-5]
  100bf8:	e3530000 	cmp	r3, #0
  100bfc:	0a000001 	beq	100c08 <alt_globaltmr_comp_set+0x94>
  100c00:	eb000071 	bl	100dcc <alt_globaltmr_comp_mode_start>
  100c04:	e50b000c 	str	r0, [fp, #-12]
  100c08:	e51b300c 	ldr	r3, [fp, #-12]
  100c0c:	e1a00003 	mov	r0, r3
  100c10:	e24bd004 	sub	sp, fp, #4
  100c14:	e8bd8800 	pop	{fp, pc}

00100c18 <alt_globaltmr_comp_set64>:
  100c18:	e92d4800 	push	{fp, lr}
  100c1c:	e28db004 	add	fp, sp, #4
  100c20:	e24dd010 	sub	sp, sp, #16
  100c24:	e14b01f4 	strd	r0, [fp, #-20]	; 0xffffffec
  100c28:	e3e03000 	mvn	r3, #0
  100c2c:	e50b3008 	str	r3, [fp, #-8]
  100c30:	e3a03000 	mov	r3, #0
  100c34:	e54b3009 	strb	r3, [fp, #-9]
  100c38:	eb00007f 	bl	100e3c <alt_globaltmr_is_comp_mode>
  100c3c:	e1a03000 	mov	r3, r0
  100c40:	e3530000 	cmp	r3, #0
  100c44:	0a000008 	beq	100c6c <alt_globaltmr_comp_set64+0x54>
  100c48:	e3a03001 	mov	r3, #1
  100c4c:	e54b3009 	strb	r3, [fp, #-9]
  100c50:	eb00006b 	bl	100e04 <alt_globaltmr_comp_mode_stop>
  100c54:	e50b0008 	str	r0, [fp, #-8]
  100c58:	e51b3008 	ldr	r3, [fp, #-8]
  100c5c:	e3530000 	cmp	r3, #0
  100c60:	0a000001 	beq	100c6c <alt_globaltmr_comp_set64+0x54>
  100c64:	e51b3008 	ldr	r3, [fp, #-8]
  100c68:	ea000012 	b	100cb8 <alt_globaltmr_comp_set64+0xa0>
  100c6c:	e30c3210 	movw	r3, #49680	; 0xc210
  100c70:	e34f3ffe 	movt	r3, #65534	; 0xfffe
  100c74:	e51b2014 	ldr	r2, [fp, #-20]	; 0xffffffec
  100c78:	e5832000 	str	r2, [r3]
  100c7c:	e30c3214 	movw	r3, #49684	; 0xc214
  100c80:	e34f3ffe 	movt	r3, #65534	; 0xfffe
  100c84:	e14b01d4 	ldrd	r0, [fp, #-20]	; 0xffffffec
  100c88:	e1a00001 	mov	r0, r1
  100c8c:	e3a01000 	mov	r1, #0
  100c90:	e1a02000 	mov	r2, r0
  100c94:	e5832000 	str	r2, [r3]
  100c98:	e3a03000 	mov	r3, #0
  100c9c:	e50b3008 	str	r3, [fp, #-8]
  100ca0:	e55b3009 	ldrb	r3, [fp, #-9]
  100ca4:	e3530000 	cmp	r3, #0
  100ca8:	0a000001 	beq	100cb4 <alt_globaltmr_comp_set64+0x9c>
  100cac:	eb000046 	bl	100dcc <alt_globaltmr_comp_mode_start>
  100cb0:	e50b0008 	str	r0, [fp, #-8]
  100cb4:	e51b3008 	ldr	r3, [fp, #-8]
  100cb8:	e1a00003 	mov	r0, r3
  100cbc:	e24bd004 	sub	sp, fp, #4
  100cc0:	e8bd8800 	pop	{fp, pc}

00100cc4 <alt_globaltmr_comp_get>:
  100cc4:	e52db004 	push	{fp}		; (str fp, [sp, #-4]!)
  100cc8:	e28db000 	add	fp, sp, #0
  100ccc:	e24dd00c 	sub	sp, sp, #12
  100cd0:	e50b0008 	str	r0, [fp, #-8]
  100cd4:	e50b100c 	str	r1, [fp, #-12]
  100cd8:	e51b3008 	ldr	r3, [fp, #-8]
  100cdc:	e3530000 	cmp	r3, #0
  100ce0:	0a000002 	beq	100cf0 <alt_globaltmr_comp_get+0x2c>
  100ce4:	e51b300c 	ldr	r3, [fp, #-12]
  100ce8:	e3530000 	cmp	r3, #0
  100cec:	1a000001 	bne	100cf8 <alt_globaltmr_comp_get+0x34>
  100cf0:	e3e03000 	mvn	r3, #0
  100cf4:	ea00000a 	b	100d24 <alt_globaltmr_comp_get+0x60>
  100cf8:	e30c3210 	movw	r3, #49680	; 0xc210
  100cfc:	e34f3ffe 	movt	r3, #65534	; 0xfffe
  100d00:	e5932000 	ldr	r2, [r3]
  100d04:	e51b300c 	ldr	r3, [fp, #-12]
  100d08:	e5832000 	str	r2, [r3]
  100d0c:	e30c3214 	movw	r3, #49684	; 0xc214
  100d10:	e34f3ffe 	movt	r3, #65534	; 0xfffe
  100d14:	e5932000 	ldr	r2, [r3]
  100d18:	e51b3008 	ldr	r3, [fp, #-8]
  100d1c:	e5832000 	str	r2, [r3]
  100d20:	e3a03000 	mov	r3, #0
  100d24:	e1a00003 	mov	r0, r3
  100d28:	e24bd000 	sub	sp, fp, #0
  100d2c:	e49db004 	pop	{fp}		; (ldr fp, [sp], #4)
  100d30:	e12fff1e 	bx	lr

00100d34 <alt_globaltmr_comp_get64>:
  100d34:	e52db004 	push	{fp}		; (str fp, [sp, #-4]!)
  100d38:	e28db000 	add	fp, sp, #0
  100d3c:	e24dd00c 	sub	sp, sp, #12
  100d40:	e30c3214 	movw	r3, #49684	; 0xc214
  100d44:	e34f3ffe 	movt	r3, #65534	; 0xfffe
  100d48:	e5933000 	ldr	r3, [r3]
  100d4c:	ee803b90 	vdup.32	d16, r3
  100d50:	f3e000b0 	vshr.u64	d16, d16, #32
  100d54:	f2e005b0 	vshl.s64	d16, d16, #32
  100d58:	ed4b0b03 	vstr	d16, [fp, #-12]
  100d5c:	e30c3210 	movw	r3, #49680	; 0xc210
  100d60:	e34f3ffe 	movt	r3, #65534	; 0xfffe
  100d64:	e5933000 	ldr	r3, [r3]
  100d68:	e1a02003 	mov	r2, r3
  100d6c:	e3a03000 	mov	r3, #0
  100d70:	e14b00dc 	ldrd	r0, [fp, #-12]
  100d74:	e1822000 	orr	r2, r2, r0
  100d78:	e1833001 	orr	r3, r3, r1
  100d7c:	e14b20fc 	strd	r2, [fp, #-12]
  100d80:	e14b20dc 	ldrd	r2, [fp, #-12]
  100d84:	e1a00002 	mov	r0, r2
  100d88:	e1a01003 	mov	r1, r3
  100d8c:	e24bd000 	sub	sp, fp, #0
  100d90:	e49db004 	pop	{fp}		; (ldr fp, [sp], #4)
  100d94:	e12fff1e 	bx	lr

00100d98 <alt_globaltmr_remain_get>:
  100d98:	e92d4818 	push	{r3, r4, fp, lr}
  100d9c:	e28db00c 	add	fp, sp, #12
  100da0:	ebffffe3 	bl	100d34 <alt_globaltmr_comp_get64>
  100da4:	e1a02000 	mov	r2, r0
  100da8:	e1a03001 	mov	r3, r1
  100dac:	e1a04002 	mov	r4, r2
  100db0:	ebffff29 	bl	100a5c <alt_globaltmr_get64>
  100db4:	e1a02000 	mov	r2, r0
  100db8:	e1a03001 	mov	r3, r1
  100dbc:	e1a03002 	mov	r3, r2
  100dc0:	e0633004 	rsb	r3, r3, r4
  100dc4:	e1a00003 	mov	r0, r3
  100dc8:	e8bd8818 	pop	{r3, r4, fp, pc}

00100dcc <alt_globaltmr_comp_mode_start>:
  100dcc:	e52db004 	push	{fp}		; (str fp, [sp, #-4]!)
  100dd0:	e28db000 	add	fp, sp, #0
  100dd4:	e30c3208 	movw	r3, #49672	; 0xc208
  100dd8:	e34f3ffe 	movt	r3, #65534	; 0xfffe
  100ddc:	e30c2208 	movw	r2, #49672	; 0xc208
  100de0:	e34f2ffe 	movt	r2, #65534	; 0xfffe
  100de4:	e5922000 	ldr	r2, [r2]
  100de8:	e3822002 	orr	r2, r2, #2
  100dec:	e5832000 	str	r2, [r3]
  100df0:	e3a03000 	mov	r3, #0
  100df4:	e1a00003 	mov	r0, r3
  100df8:	e24bd000 	sub	sp, fp, #0
  100dfc:	e49db004 	pop	{fp}		; (ldr fp, [sp], #4)
  100e00:	e12fff1e 	bx	lr

00100e04 <alt_globaltmr_comp_mode_stop>:
  100e04:	e52db004 	push	{fp}		; (str fp, [sp, #-4]!)
  100e08:	e28db000 	add	fp, sp, #0
  100e0c:	e30c3208 	movw	r3, #49672	; 0xc208
  100e10:	e34f3ffe 	movt	r3, #65534	; 0xfffe
  100e14:	e30c2208 	movw	r2, #49672	; 0xc208
  100e18:	e34f2ffe 	movt	r2, #65534	; 0xfffe
  100e1c:	e5922000 	ldr	r2, [r2]
  100e20:	e3c22002 	bic	r2, r2, #2
  100e24:	e5832000 	str	r2, [r3]
  100e28:	e3a03000 	mov	r3, #0
  100e2c:	e1a00003 	mov	r0, r3
  100e30:	e24bd000 	sub	sp, fp, #0
  100e34:	e49db004 	pop	{fp}		; (ldr fp, [sp], #4)
  100e38:	e12fff1e 	bx	lr

00100e3c <alt_globaltmr_is_comp_mode>:
  100e3c:	e52db004 	push	{fp}		; (str fp, [sp, #-4]!)
  100e40:	e28db000 	add	fp, sp, #0
  100e44:	e30c3208 	movw	r3, #49672	; 0xc208
  100e48:	e34f3ffe 	movt	r3, #65534	; 0xfffe
  100e4c:	e5933000 	ldr	r3, [r3]
  100e50:	e2033002 	and	r3, r3, #2
  100e54:	e3530000 	cmp	r3, #0
  100e58:	13a03001 	movne	r3, #1
  100e5c:	03a03000 	moveq	r3, #0
  100e60:	e6ef3073 	uxtb	r3, r3
  100e64:	e1a00003 	mov	r0, r3
  100e68:	e24bd000 	sub	sp, fp, #0
  100e6c:	e49db004 	pop	{fp}		; (ldr fp, [sp], #4)
  100e70:	e12fff1e 	bx	lr

00100e74 <alt_globaltmr_prescaler_get>:
  100e74:	e52db004 	push	{fp}		; (str fp, [sp, #-4]!)
  100e78:	e28db000 	add	fp, sp, #0
  100e7c:	e30c3208 	movw	r3, #49672	; 0xc208
  100e80:	e34f3ffe 	movt	r3, #65534	; 0xfffe
  100e84:	e5933000 	ldr	r3, [r3]
  100e88:	e2033cff 	and	r3, r3, #65280	; 0xff00
  100e8c:	e1a03423 	lsr	r3, r3, #8
  100e90:	e1a00003 	mov	r0, r3
  100e94:	e24bd000 	sub	sp, fp, #0
  100e98:	e49db004 	pop	{fp}		; (ldr fp, [sp], #4)
  100e9c:	e12fff1e 	bx	lr

00100ea0 <alt_globaltmr_prescaler_set>:
  100ea0:	e52db004 	push	{fp}		; (str fp, [sp, #-4]!)
  100ea4:	e28db000 	add	fp, sp, #0
  100ea8:	e24dd014 	sub	sp, sp, #20
  100eac:	e50b0010 	str	r0, [fp, #-16]
  100eb0:	e51b3010 	ldr	r3, [fp, #-16]
  100eb4:	e35300ff 	cmp	r3, #255	; 0xff
  100eb8:	9a000001 	bls	100ec4 <alt_globaltmr_prescaler_set+0x24>
  100ebc:	e3e03008 	mvn	r3, #8
  100ec0:	ea00000c 	b	100ef8 <alt_globaltmr_prescaler_set+0x58>
  100ec4:	e30c3208 	movw	r3, #49672	; 0xc208
  100ec8:	e34f3ffe 	movt	r3, #65534	; 0xfffe
  100ecc:	e5933000 	ldr	r3, [r3]
  100ed0:	e3c33cff 	bic	r3, r3, #65280	; 0xff00
  100ed4:	e50b3008 	str	r3, [fp, #-8]
  100ed8:	e30c3208 	movw	r3, #49672	; 0xc208
  100edc:	e34f3ffe 	movt	r3, #65534	; 0xfffe
  100ee0:	e51b2010 	ldr	r2, [fp, #-16]
  100ee4:	e1a01402 	lsl	r1, r2, #8
  100ee8:	e51b2008 	ldr	r2, [fp, #-8]
  100eec:	e1812002 	orr	r2, r1, r2
  100ef0:	e5832000 	str	r2, [r3]
  100ef4:	e3a03000 	mov	r3, #0
  100ef8:	e1a00003 	mov	r0, r3
  100efc:	e24bd000 	sub	sp, fp, #0
  100f00:	e49db004 	pop	{fp}		; (ldr fp, [sp], #4)
  100f04:	e12fff1e 	bx	lr

00100f08 <alt_globaltmr_autoinc_set>:
  100f08:	e92d4800 	push	{fp, lr}
  100f0c:	e28db004 	add	fp, sp, #4
  100f10:	e24dd010 	sub	sp, sp, #16
  100f14:	e50b0010 	str	r0, [fp, #-16]
  100f18:	e3e03000 	mvn	r3, #0
  100f1c:	e50b3008 	str	r3, [fp, #-8]
  100f20:	e3a03000 	mov	r3, #0
  100f24:	e54b3009 	strb	r3, [fp, #-9]
  100f28:	ebffffc3 	bl	100e3c <alt_globaltmr_is_comp_mode>
  100f2c:	e1a03000 	mov	r3, r0
  100f30:	e3530000 	cmp	r3, #0
  100f34:	0a000008 	beq	100f5c <alt_globaltmr_autoinc_set+0x54>
  100f38:	e3a03001 	mov	r3, #1
  100f3c:	e54b3009 	strb	r3, [fp, #-9]
  100f40:	ebffffaf 	bl	100e04 <alt_globaltmr_comp_mode_stop>
  100f44:	e50b0008 	str	r0, [fp, #-8]
  100f48:	e51b3008 	ldr	r3, [fp, #-8]
  100f4c:	e3530000 	cmp	r3, #0
  100f50:	0a000001 	beq	100f5c <alt_globaltmr_autoinc_set+0x54>
  100f54:	e51b3008 	ldr	r3, [fp, #-8]
  100f58:	ea00000b 	b	100f8c <alt_globaltmr_autoinc_set+0x84>
  100f5c:	e30c3218 	movw	r3, #49688	; 0xc218
  100f60:	e34f3ffe 	movt	r3, #65534	; 0xfffe
  100f64:	e51b2010 	ldr	r2, [fp, #-16]
  100f68:	e5832000 	str	r2, [r3]
  100f6c:	e3a03000 	mov	r3, #0
  100f70:	e50b3008 	str	r3, [fp, #-8]
  100f74:	e55b3009 	ldrb	r3, [fp, #-9]
  100f78:	e3530000 	cmp	r3, #0
  100f7c:	0a000001 	beq	100f88 <alt_globaltmr_autoinc_set+0x80>
  100f80:	ebffff91 	bl	100dcc <alt_globaltmr_comp_mode_start>
  100f84:	e50b0008 	str	r0, [fp, #-8]
  100f88:	e51b3008 	ldr	r3, [fp, #-8]
  100f8c:	e1a00003 	mov	r0, r3
  100f90:	e24bd004 	sub	sp, fp, #4
  100f94:	e8bd8800 	pop	{fp, pc}

00100f98 <alt_globaltmr_autoinc_get>:
  100f98:	e52db004 	push	{fp}		; (str fp, [sp, #-4]!)
  100f9c:	e28db000 	add	fp, sp, #0
  100fa0:	e30c3218 	movw	r3, #49688	; 0xc218
  100fa4:	e34f3ffe 	movt	r3, #65534	; 0xfffe
  100fa8:	e5933000 	ldr	r3, [r3]
  100fac:	e1a00003 	mov	r0, r3
  100fb0:	e24bd000 	sub	sp, fp, #0
  100fb4:	e49db004 	pop	{fp}		; (ldr fp, [sp], #4)
  100fb8:	e12fff1e 	bx	lr

00100fbc <alt_globaltmr_autoinc_mode_start>:
  100fbc:	e52db004 	push	{fp}		; (str fp, [sp, #-4]!)
  100fc0:	e28db000 	add	fp, sp, #0
  100fc4:	e30c3208 	movw	r3, #49672	; 0xc208
  100fc8:	e34f3ffe 	movt	r3, #65534	; 0xfffe
  100fcc:	e30c2208 	movw	r2, #49672	; 0xc208
  100fd0:	e34f2ffe 	movt	r2, #65534	; 0xfffe
  100fd4:	e5922000 	ldr	r2, [r2]
  100fd8:	e3822008 	orr	r2, r2, #8
  100fdc:	e5832000 	str	r2, [r3]
  100fe0:	e3a03000 	mov	r3, #0
  100fe4:	e1a00003 	mov	r0, r3
  100fe8:	e24bd000 	sub	sp, fp, #0
  100fec:	e49db004 	pop	{fp}		; (ldr fp, [sp], #4)
  100ff0:	e12fff1e 	bx	lr

00100ff4 <alt_globaltmr_autoinc_mode_stop>:
  100ff4:	e52db004 	push	{fp}		; (str fp, [sp, #-4]!)
  100ff8:	e28db000 	add	fp, sp, #0
  100ffc:	e30c3208 	movw	r3, #49672	; 0xc208
  101000:	e34f3ffe 	movt	r3, #65534	; 0xfffe
  101004:	e30c2208 	movw	r2, #49672	; 0xc208
  101008:	e34f2ffe 	movt	r2, #65534	; 0xfffe
  10100c:	e5922000 	ldr	r2, [r2]
  101010:	e3c22008 	bic	r2, r2, #8
  101014:	e5832000 	str	r2, [r3]
  101018:	e3a03000 	mov	r3, #0
  10101c:	e1a00003 	mov	r0, r3
  101020:	e24bd000 	sub	sp, fp, #0
  101024:	e49db004 	pop	{fp}		; (ldr fp, [sp], #4)
  101028:	e12fff1e 	bx	lr

0010102c <alt_globaltmr_is_autoinc_mode>:
  10102c:	e52db004 	push	{fp}		; (str fp, [sp, #-4]!)
  101030:	e28db000 	add	fp, sp, #0
  101034:	e30c3208 	movw	r3, #49672	; 0xc208
  101038:	e34f3ffe 	movt	r3, #65534	; 0xfffe
  10103c:	e5933000 	ldr	r3, [r3]
  101040:	e2033008 	and	r3, r3, #8
  101044:	e3530000 	cmp	r3, #0
  101048:	13a03001 	movne	r3, #1
  10104c:	03a03000 	moveq	r3, #0
  101050:	e6ef3073 	uxtb	r3, r3
  101054:	e1a00003 	mov	r0, r3
  101058:	e24bd000 	sub	sp, fp, #0
  10105c:	e49db004 	pop	{fp}		; (ldr fp, [sp], #4)
  101060:	e12fff1e 	bx	lr

00101064 <alt_globaltmr_maxcounter_get>:
  101064:	e52db004 	push	{fp}		; (str fp, [sp, #-4]!)
  101068:	e28db000 	add	fp, sp, #0
  10106c:	e3e03000 	mvn	r3, #0
  101070:	e1a00003 	mov	r0, r3
  101074:	e24bd000 	sub	sp, fp, #0
  101078:	e49db004 	pop	{fp}		; (ldr fp, [sp], #4)
  10107c:	e12fff1e 	bx	lr

00101080 <alt_globaltmr_int_disable>:
  101080:	e52db004 	push	{fp}		; (str fp, [sp, #-4]!)
  101084:	e28db000 	add	fp, sp, #0
  101088:	e30c3208 	movw	r3, #49672	; 0xc208
  10108c:	e34f3ffe 	movt	r3, #65534	; 0xfffe
  101090:	e30c2208 	movw	r2, #49672	; 0xc208
  101094:	e34f2ffe 	movt	r2, #65534	; 0xfffe
  101098:	e5922000 	ldr	r2, [r2]
  10109c:	e3c22004 	bic	r2, r2, #4
  1010a0:	e5832000 	str	r2, [r3]
  1010a4:	e3a03000 	mov	r3, #0
  1010a8:	e1a00003 	mov	r0, r3
  1010ac:	e24bd000 	sub	sp, fp, #0
  1010b0:	e49db004 	pop	{fp}		; (ldr fp, [sp], #4)
  1010b4:	e12fff1e 	bx	lr

001010b8 <alt_globaltmr_int_enable>:
  1010b8:	e92d4800 	push	{fp, lr}
  1010bc:	e28db004 	add	fp, sp, #4
  1010c0:	ebfffdd1 	bl	10080c <alt_globaltmr_is_running>
  1010c4:	e1a03000 	mov	r3, r0
  1010c8:	e2233001 	eor	r3, r3, #1
  1010cc:	e6ef3073 	uxtb	r3, r3
  1010d0:	e3530000 	cmp	r3, #0
  1010d4:	0a000005 	beq	1010f0 <alt_globaltmr_int_enable+0x38>
  1010d8:	ebfffe15 	bl	100934 <alt_globaltmr_start>
  1010dc:	e1a03000 	mov	r3, r0
  1010e0:	e3530000 	cmp	r3, #0
  1010e4:	0a000001 	beq	1010f0 <alt_globaltmr_int_enable+0x38>
  1010e8:	e3e03000 	mvn	r3, #0
  1010ec:	ea000007 	b	101110 <alt_globaltmr_int_enable+0x58>
  1010f0:	e30c3208 	movw	r3, #49672	; 0xc208
  1010f4:	e34f3ffe 	movt	r3, #65534	; 0xfffe
  1010f8:	e30c2208 	movw	r2, #49672	; 0xc208
  1010fc:	e34f2ffe 	movt	r2, #65534	; 0xfffe
  101100:	e5922000 	ldr	r2, [r2]
  101104:	e3822004 	orr	r2, r2, #4
  101108:	e5832000 	str	r2, [r3]
  10110c:	e3a03000 	mov	r3, #0
  101110:	e1a00003 	mov	r0, r3
  101114:	e8bd8800 	pop	{fp, pc}

00101118 <alt_globaltmr_int_is_enabled>:
  101118:	e52db004 	push	{fp}		; (str fp, [sp, #-4]!)
  10111c:	e28db000 	add	fp, sp, #0
  101120:	e30c3208 	movw	r3, #49672	; 0xc208
  101124:	e34f3ffe 	movt	r3, #65534	; 0xfffe
  101128:	e5933000 	ldr	r3, [r3]
  10112c:	e2033004 	and	r3, r3, #4
  101130:	e3530000 	cmp	r3, #0
  101134:	13a03001 	movne	r3, #1
  101138:	03a03000 	moveq	r3, #0
  10113c:	e6ef3073 	uxtb	r3, r3
  101140:	e1a00003 	mov	r0, r3
  101144:	e24bd000 	sub	sp, fp, #0
  101148:	e49db004 	pop	{fp}		; (ldr fp, [sp], #4)
  10114c:	e12fff1e 	bx	lr

00101150 <alt_globaltmr_int_clear_pending>:
  101150:	e52db004 	push	{fp}		; (str fp, [sp, #-4]!)
  101154:	e28db000 	add	fp, sp, #0
  101158:	e30c320c 	movw	r3, #49676	; 0xc20c
  10115c:	e34f3ffe 	movt	r3, #65534	; 0xfffe
  101160:	e3a02001 	mov	r2, #1
  101164:	e5832000 	str	r2, [r3]
  101168:	e3a03000 	mov	r3, #0
  10116c:	e1a00003 	mov	r0, r3
  101170:	e24bd000 	sub	sp, fp, #0
  101174:	e49db004 	pop	{fp}		; (ldr fp, [sp], #4)
  101178:	e12fff1e 	bx	lr

0010117c <alt_globaltmr_int_is_pending>:
  10117c:	e52db004 	push	{fp}		; (str fp, [sp, #-4]!)
  101180:	e28db000 	add	fp, sp, #0
  101184:	e30c320c 	movw	r3, #49676	; 0xc20c
  101188:	e34f3ffe 	movt	r3, #65534	; 0xfffe
  10118c:	e5933000 	ldr	r3, [r3]
  101190:	e2033001 	and	r3, r3, #1
  101194:	e3530000 	cmp	r3, #0
  101198:	13a03001 	movne	r3, #1
  10119c:	03a03000 	moveq	r3, #0
  1011a0:	e6ef3073 	uxtb	r3, r3
  1011a4:	e1a00003 	mov	r0, r3
  1011a8:	e24bd000 	sub	sp, fp, #0
  1011ac:	e49db004 	pop	{fp}		; (ldr fp, [sp], #4)
  1011b0:	e12fff1e 	bx	lr

001011b4 <alt_globaltmr_int_if_pending_clear>:
  1011b4:	e52db004 	push	{fp}		; (str fp, [sp, #-4]!)
  1011b8:	e28db000 	add	fp, sp, #0
  1011bc:	e24dd00c 	sub	sp, sp, #12
  1011c0:	e30c320c 	movw	r3, #49676	; 0xc20c
  1011c4:	e34f3ffe 	movt	r3, #65534	; 0xfffe
  1011c8:	e5933000 	ldr	r3, [r3]
  1011cc:	e2033001 	and	r3, r3, #1
  1011d0:	e3530000 	cmp	r3, #0
  1011d4:	13a03001 	movne	r3, #1
  1011d8:	03a03000 	moveq	r3, #0
  1011dc:	e54b3005 	strb	r3, [fp, #-5]
  1011e0:	e55b3005 	ldrb	r3, [fp, #-5]
  1011e4:	e3530000 	cmp	r3, #0
  1011e8:	0a000003 	beq	1011fc <alt_globaltmr_int_if_pending_clear+0x48>
  1011ec:	e30c320c 	movw	r3, #49676	; 0xc20c
  1011f0:	e34f3ffe 	movt	r3, #65534	; 0xfffe
  1011f4:	e3a02001 	mov	r2, #1
  1011f8:	e5832000 	str	r2, [r3]
  1011fc:	e55b3005 	ldrb	r3, [fp, #-5]
  101200:	e1a00003 	mov	r0, r3
  101204:	e24bd000 	sub	sp, fp, #0
  101208:	e49db004 	pop	{fp}		; (ldr fp, [sp], #4)
  10120c:	e12fff1e 	bx	lr

00101210 <alt_mmu_va_to_pa>:
  101210:	e52db004 	push	{fp}		; (str fp, [sp, #-4]!)
  101214:	e28db000 	add	fp, sp, #0
  101218:	e24dd014 	sub	sp, sp, #20
  10121c:	e50b0008 	str	r0, [fp, #-8]
  101220:	e50b100c 	str	r1, [fp, #-12]
  101224:	e50b2010 	str	r2, [fp, #-16]
  101228:	e51b300c 	ldr	r3, [fp, #-12]
  10122c:	e3e02000 	mvn	r2, #0
  101230:	e5832000 	str	r2, [r3]
  101234:	e51b3010 	ldr	r3, [fp, #-16]
  101238:	e3a02000 	mov	r2, #0
  10123c:	e5832000 	str	r2, [r3]
  101240:	e51b3008 	ldr	r3, [fp, #-8]
  101244:	e1a00003 	mov	r0, r3
  101248:	e24bd000 	sub	sp, fp, #0
  10124c:	e49db004 	pop	{fp}		; (ldr fp, [sp], #4)
  101250:	e12fff1e 	bx	lr

00101254 <alt_cache_system_clean>:
  101254:	e52db004 	push	{fp}		; (str fp, [sp, #-4]!)
  101258:	e28db000 	add	fp, sp, #0
  10125c:	e24dd00c 	sub	sp, sp, #12
  101260:	e50b0008 	str	r0, [fp, #-8]
  101264:	e50b100c 	str	r1, [fp, #-12]
  101268:	e3a03000 	mov	r3, #0
  10126c:	e1a00003 	mov	r0, r3
  101270:	e24bd000 	sub	sp, fp, #0
  101274:	e49db004 	pop	{fp}		; (ldr fp, [sp], #4)
  101278:	e12fff1e 	bx	lr

0010127c <alt_dma_init>:
  10127c:	e52db004 	push	{fp}		; (str fp, [sp, #-4]!)
  101280:	e28db000 	add	fp, sp, #0
  101284:	e24dd024 	sub	sp, sp, #36	; 0x24
  101288:	e50b0020 	str	r0, [fp, #-32]	; 0xffffffe0
  10128c:	e3083018 	movw	r3, #32792	; 0x8018
  101290:	e34f3fd0 	movt	r3, #65488	; 0xffd0
  101294:	e5933000 	ldr	r3, [r3]
  101298:	e2033002 	and	r3, r3, #2
  10129c:	e1a030a3 	lsr	r3, r3, #1
  1012a0:	e3530001 	cmp	r3, #1
  1012a4:	03a03001 	moveq	r3, #1
  1012a8:	13a03000 	movne	r3, #0
  1012ac:	e6ef2073 	uxtb	r2, r3
  1012b0:	e30333ec 	movw	r3, #13292	; 0x33ec
  1012b4:	e3403011 	movt	r3, #17
  1012b8:	e5c32008 	strb	r2, [r3, #8]
  1012bc:	e3a03000 	mov	r3, #0
  1012c0:	e50b3008 	str	r3, [fp, #-8]
  1012c4:	ea000008 	b	1012ec <alt_dma_init+0x70>
  1012c8:	e30333ec 	movw	r3, #13292	; 0x33ec
  1012cc:	e3403011 	movt	r3, #17
  1012d0:	e51b2008 	ldr	r2, [fp, #-8]
  1012d4:	e0833002 	add	r3, r3, r2
  1012d8:	e3a02000 	mov	r2, #0
  1012dc:	e5c32000 	strb	r2, [r3]
  1012e0:	e51b3008 	ldr	r3, [fp, #-8]
  1012e4:	e2833001 	add	r3, r3, #1
  1012e8:	e50b3008 	str	r3, [fp, #-8]
  1012ec:	e51b3008 	ldr	r3, [fp, #-8]
  1012f0:	e3530007 	cmp	r3, #7
  1012f4:	9afffff3 	bls	1012c8 <alt_dma_init+0x4c>
  1012f8:	e30333ec 	movw	r3, #13292	; 0x33ec
  1012fc:	e3403011 	movt	r3, #17
  101300:	e3a02000 	mov	r2, #0
  101304:	e583200c 	str	r2, [r3, #12]
  101308:	e3a03000 	mov	r3, #0
  10130c:	e50b300c 	str	r3, [fp, #-12]
  101310:	ea000024 	b	1013a8 <alt_dma_init+0x12c>
  101314:	e51b2020 	ldr	r2, [fp, #-32]	; 0xffffffe0
  101318:	e51b300c 	ldr	r3, [fp, #-12]
  10131c:	e0823003 	add	r3, r2, r3
  101320:	e2833028 	add	r3, r3, #40	; 0x28
  101324:	e5d33001 	ldrb	r3, [r3, #1]
  101328:	e3530000 	cmp	r3, #0
  10132c:	ba000017 	blt	101390 <alt_dma_init+0x114>
  101330:	e3530001 	cmp	r3, #1
  101334:	da000017 	ble	101398 <alt_dma_init+0x11c>
  101338:	e3530002 	cmp	r3, #2
  10133c:	1a000013 	bne	101390 <alt_dma_init+0x114>
  101340:	e30333ec 	movw	r3, #13292	; 0x33ec
  101344:	e3403011 	movt	r3, #17
  101348:	e5d33008 	ldrb	r3, [r3, #8]
  10134c:	e2233001 	eor	r3, r3, #1
  101350:	e6ef3073 	uxtb	r3, r3
  101354:	e3530000 	cmp	r3, #0
  101358:	0a000001 	beq	101364 <alt_dma_init+0xe8>
  10135c:	e3e03008 	mvn	r3, #8
  101360:	ea00007b 	b	101554 <alt_dma_init+0x2d8>
  101364:	e30333ec 	movw	r3, #13292	; 0x33ec
  101368:	e3403011 	movt	r3, #17
  10136c:	e593300c 	ldr	r3, [r3, #12]
  101370:	e3a01001 	mov	r1, #1
  101374:	e51b200c 	ldr	r2, [fp, #-12]
  101378:	e1a02211 	lsl	r2, r1, r2
  10137c:	e1832002 	orr	r2, r3, r2
  101380:	e30333ec 	movw	r3, #13292	; 0x33ec
  101384:	e3403011 	movt	r3, #17
  101388:	e583200c 	str	r2, [r3, #12]
  10138c:	ea000002 	b	10139c <alt_dma_init+0x120>
  101390:	e3e03000 	mvn	r3, #0
  101394:	ea00006e 	b	101554 <alt_dma_init+0x2d8>
  101398:	e1a00000 	nop			; (mov r0, r0)
  10139c:	e51b300c 	ldr	r3, [fp, #-12]
  1013a0:	e2833001 	add	r3, r3, #1
  1013a4:	e50b300c 	str	r3, [fp, #-12]
  1013a8:	e51b300c 	ldr	r3, [fp, #-12]
  1013ac:	e3530003 	cmp	r3, #3
  1013b0:	9affffd7 	bls	101314 <alt_dma_init+0x98>
  1013b4:	e51b3020 	ldr	r3, [fp, #-32]	; 0xffffffe0
  1013b8:	e5d33000 	ldrb	r3, [r3]
  1013bc:	e3530000 	cmp	r3, #0
  1013c0:	ba00000b 	blt	1013f4 <alt_dma_init+0x178>
  1013c4:	e3530001 	cmp	r3, #1
  1013c8:	da00000b 	ble	1013fc <alt_dma_init+0x180>
  1013cc:	e3530002 	cmp	r3, #2
  1013d0:	1a000007 	bne	1013f4 <alt_dma_init+0x178>
  1013d4:	e30333ec 	movw	r3, #13292	; 0x33ec
  1013d8:	e3403011 	movt	r3, #17
  1013dc:	e593300c 	ldr	r3, [r3, #12]
  1013e0:	e3832010 	orr	r2, r3, #16
  1013e4:	e30333ec 	movw	r3, #13292	; 0x33ec
  1013e8:	e3403011 	movt	r3, #17
  1013ec:	e583200c 	str	r2, [r3, #12]
  1013f0:	ea000002 	b	101400 <alt_dma_init+0x184>
  1013f4:	e3e03000 	mvn	r3, #0
  1013f8:	ea000055 	b	101554 <alt_dma_init+0x2d8>
  1013fc:	e1a00000 	nop			; (mov r0, r0)
  101400:	e3a03000 	mov	r3, #0
  101404:	e50b3010 	str	r3, [fp, #-16]
  101408:	ea00001b 	b	10147c <alt_dma_init+0x200>
  10140c:	e51b2020 	ldr	r2, [fp, #-32]	; 0xffffffe0
  101410:	e51b3010 	ldr	r3, [fp, #-16]
  101414:	e0823003 	add	r3, r2, r3
  101418:	e5d33001 	ldrb	r3, [r3, #1]
  10141c:	e3530000 	cmp	r3, #0
  101420:	ba00000f 	blt	101464 <alt_dma_init+0x1e8>
  101424:	e3530001 	cmp	r3, #1
  101428:	da00000f 	ble	10146c <alt_dma_init+0x1f0>
  10142c:	e3530002 	cmp	r3, #2
  101430:	1a00000b 	bne	101464 <alt_dma_init+0x1e8>
  101434:	e30333ec 	movw	r3, #13292	; 0x33ec
  101438:	e3403011 	movt	r3, #17
  10143c:	e593300c 	ldr	r3, [r3, #12]
  101440:	e51b2010 	ldr	r2, [fp, #-16]
  101444:	e2822005 	add	r2, r2, #5
  101448:	e3a01001 	mov	r1, #1
  10144c:	e1a02211 	lsl	r2, r1, r2
  101450:	e1832002 	orr	r2, r3, r2
  101454:	e30333ec 	movw	r3, #13292	; 0x33ec
  101458:	e3403011 	movt	r3, #17
  10145c:	e583200c 	str	r2, [r3, #12]
  101460:	ea000002 	b	101470 <alt_dma_init+0x1f4>
  101464:	e3e03000 	mvn	r3, #0
  101468:	ea000039 	b	101554 <alt_dma_init+0x2d8>
  10146c:	e1a00000 	nop			; (mov r0, r0)
  101470:	e51b3010 	ldr	r3, [fp, #-16]
  101474:	e2833001 	add	r3, r3, #1
  101478:	e50b3010 	str	r3, [fp, #-16]
  10147c:	e51b3010 	ldr	r3, [fp, #-16]
  101480:	e3530007 	cmp	r3, #7
  101484:	daffffe0 	ble	10140c <alt_dma_init+0x190>
  101488:	e3083070 	movw	r3, #32880	; 0x8070
  10148c:	e34f3fd0 	movt	r3, #65488	; 0xffd0
  101490:	e30323ec 	movw	r2, #13292	; 0x33ec
  101494:	e3402011 	movt	r2, #17
  101498:	e592200c 	ldr	r2, [r2, #12]
  10149c:	e5832000 	str	r2, [r3]
  1014a0:	e3a03000 	mov	r3, #0
  1014a4:	e50b3014 	str	r3, [fp, #-20]	; 0xffffffec
  1014a8:	e3a03000 	mov	r3, #0
  1014ac:	e50b3018 	str	r3, [fp, #-24]	; 0xffffffe8
  1014b0:	ea000018 	b	101518 <alt_dma_init+0x29c>
  1014b4:	e51b2020 	ldr	r2, [fp, #-32]	; 0xffffffe0
  1014b8:	e51b3018 	ldr	r3, [fp, #-24]	; 0xffffffe8
  1014bc:	e0823003 	add	r3, r2, r3
  1014c0:	e2833008 	add	r3, r3, #8
  1014c4:	e5d33001 	ldrb	r3, [r3, #1]
  1014c8:	e3530000 	cmp	r3, #0
  1014cc:	ba00000b 	blt	101500 <alt_dma_init+0x284>
  1014d0:	e3530001 	cmp	r3, #1
  1014d4:	da00000b 	ble	101508 <alt_dma_init+0x28c>
  1014d8:	e3530002 	cmp	r3, #2
  1014dc:	1a000007 	bne	101500 <alt_dma_init+0x284>
  1014e0:	e3a02001 	mov	r2, #1
  1014e4:	e51b3018 	ldr	r3, [fp, #-24]	; 0xffffffe8
  1014e8:	e1a03312 	lsl	r3, r2, r3
  1014ec:	e1a02003 	mov	r2, r3
  1014f0:	e51b3014 	ldr	r3, [fp, #-20]	; 0xffffffec
  1014f4:	e1833002 	orr	r3, r3, r2
  1014f8:	e50b3014 	str	r3, [fp, #-20]	; 0xffffffec
  1014fc:	ea000002 	b	10150c <alt_dma_init+0x290>
  101500:	e3e03000 	mvn	r3, #0
  101504:	ea000012 	b	101554 <alt_dma_init+0x2d8>
  101508:	e1a00000 	nop			; (mov r0, r0)
  10150c:	e51b3018 	ldr	r3, [fp, #-24]	; 0xffffffe8
  101510:	e2833001 	add	r3, r3, #1
  101514:	e50b3018 	str	r3, [fp, #-24]	; 0xffffffe8
  101518:	e51b3018 	ldr	r3, [fp, #-24]	; 0xffffffe8
  10151c:	e353001f 	cmp	r3, #31
  101520:	9affffe3 	bls	1014b4 <alt_dma_init+0x238>
  101524:	e3083074 	movw	r3, #32884	; 0x8074
  101528:	e34f3fd0 	movt	r3, #65488	; 0xffd0
  10152c:	e51b2014 	ldr	r2, [fp, #-20]	; 0xffffffec
  101530:	e5832000 	str	r2, [r3]
  101534:	e3053014 	movw	r3, #20500	; 0x5014
  101538:	e34f3fd0 	movt	r3, #65488	; 0xffd0
  10153c:	e3052014 	movw	r2, #20500	; 0x5014
  101540:	e34f2fd0 	movt	r2, #65488	; 0xffd0
  101544:	e5922000 	ldr	r2, [r2]
  101548:	e3c22201 	bic	r2, r2, #268435456	; 0x10000000
  10154c:	e5832000 	str	r2, [r3]
  101550:	e3a03000 	mov	r3, #0
  101554:	e1a00003 	mov	r0, r3
  101558:	e24bd000 	sub	sp, fp, #0
  10155c:	e49db004 	pop	{fp}		; (ldr fp, [sp], #4)
  101560:	e12fff1e 	bx	lr

00101564 <alt_dma_uninit>:
  101564:	e92d4800 	push	{fp, lr}
  101568:	e28db004 	add	fp, sp, #4
  10156c:	e24dd008 	sub	sp, sp, #8
  101570:	e3a03000 	mov	r3, #0
  101574:	e50b3008 	str	r3, [fp, #-8]
  101578:	ea000012 	b	1015c8 <alt_dma_uninit+0x64>
  10157c:	e30333ec 	movw	r3, #13292	; 0x33ec
  101580:	e3403011 	movt	r3, #17
  101584:	e51b2008 	ldr	r2, [fp, #-8]
  101588:	e0833002 	add	r3, r3, r2
  10158c:	e5d33000 	ldrb	r3, [r3]
  101590:	e2033001 	and	r3, r3, #1
  101594:	e3530000 	cmp	r3, #0
  101598:	0a000007 	beq	1015bc <alt_dma_uninit+0x58>
  10159c:	e51b3008 	ldr	r3, [fp, #-8]
  1015a0:	e6ef3073 	uxtb	r3, r3
  1015a4:	e1a00003 	mov	r0, r3
  1015a8:	eb000107 	bl	1019cc <alt_dma_channel_kill>
  1015ac:	e51b3008 	ldr	r3, [fp, #-8]
  1015b0:	e6ef3073 	uxtb	r3, r3
  1015b4:	e1a00003 	mov	r0, r3
  1015b8:	eb00005b 	bl	10172c <alt_dma_channel_free>
  1015bc:	e51b3008 	ldr	r3, [fp, #-8]
  1015c0:	e2833001 	add	r3, r3, #1
  1015c4:	e50b3008 	str	r3, [fp, #-8]
  1015c8:	e51b3008 	ldr	r3, [fp, #-8]
  1015cc:	e3530007 	cmp	r3, #7
  1015d0:	9affffe9 	bls	10157c <alt_dma_uninit+0x18>
  1015d4:	e3053014 	movw	r3, #20500	; 0x5014
  1015d8:	e34f3fd0 	movt	r3, #65488	; 0xffd0
  1015dc:	e3052014 	movw	r2, #20500	; 0x5014
  1015e0:	e34f2fd0 	movt	r2, #65488	; 0xffd0
  1015e4:	e5922000 	ldr	r2, [r2]
  1015e8:	e3822201 	orr	r2, r2, #268435456	; 0x10000000
  1015ec:	e5832000 	str	r2, [r3]
  1015f0:	e3a03000 	mov	r3, #0
  1015f4:	e1a00003 	mov	r0, r3
  1015f8:	e24bd004 	sub	sp, fp, #4
  1015fc:	e8bd8800 	pop	{fp, pc}

00101600 <alt_dma_channel_alloc>:
  101600:	e52db004 	push	{fp}		; (str fp, [sp, #-4]!)
  101604:	e28db000 	add	fp, sp, #0
  101608:	e24dd00c 	sub	sp, sp, #12
  10160c:	e1a03000 	mov	r3, r0
  101610:	e54b3005 	strb	r3, [fp, #-5]
  101614:	e55b3005 	ldrb	r3, [fp, #-5]
  101618:	e2833000 	add	r3, r3, #0
  10161c:	e3530007 	cmp	r3, #7
  101620:	9a000001 	bls	10162c <alt_dma_channel_alloc+0x2c>
  101624:	e3e03008 	mvn	r3, #8
  101628:	ea000014 	b	101680 <alt_dma_channel_alloc+0x80>
  10162c:	e1a00000 	nop			; (mov r0, r0)
  101630:	e55b2005 	ldrb	r2, [fp, #-5]
  101634:	e30333ec 	movw	r3, #13292	; 0x33ec
  101638:	e3403011 	movt	r3, #17
  10163c:	e7d33002 	ldrb	r3, [r3, r2]
  101640:	e2033001 	and	r3, r3, #1
  101644:	e3530000 	cmp	r3, #0
  101648:	0a000001 	beq	101654 <alt_dma_channel_alloc+0x54>
  10164c:	e3e03000 	mvn	r3, #0
  101650:	ea00000a 	b	101680 <alt_dma_channel_alloc+0x80>
  101654:	e55b2005 	ldrb	r2, [fp, #-5]
  101658:	e55b1005 	ldrb	r1, [fp, #-5]
  10165c:	e30333ec 	movw	r3, #13292	; 0x33ec
  101660:	e3403011 	movt	r3, #17
  101664:	e7d33001 	ldrb	r3, [r3, r1]
  101668:	e3833001 	orr	r3, r3, #1
  10166c:	e6ef1073 	uxtb	r1, r3
  101670:	e30333ec 	movw	r3, #13292	; 0x33ec
  101674:	e3403011 	movt	r3, #17
  101678:	e7c31002 	strb	r1, [r3, r2]
  10167c:	e3a03000 	mov	r3, #0
  101680:	e1a00003 	mov	r0, r3
  101684:	e24bd000 	sub	sp, fp, #0
  101688:	e49db004 	pop	{fp}		; (ldr fp, [sp], #4)
  10168c:	e12fff1e 	bx	lr

00101690 <alt_dma_channel_alloc_any>:
  101690:	e92d4800 	push	{fp, lr}
  101694:	e28db004 	add	fp, sp, #4
  101698:	e24dd010 	sub	sp, sp, #16
  10169c:	e50b0010 	str	r0, [fp, #-16]
  1016a0:	e3a03000 	mov	r3, #0
  1016a4:	e50b3008 	str	r3, [fp, #-8]
  1016a8:	ea000018 	b	101710 <alt_dma_channel_alloc_any+0x80>
  1016ac:	e30333ec 	movw	r3, #13292	; 0x33ec
  1016b0:	e3403011 	movt	r3, #17
  1016b4:	e51b2008 	ldr	r2, [fp, #-8]
  1016b8:	e0833002 	add	r3, r3, r2
  1016bc:	e5d33000 	ldrb	r3, [r3]
  1016c0:	e2033001 	and	r3, r3, #1
  1016c4:	e3530000 	cmp	r3, #0
  1016c8:	1a00000d 	bne	101704 <alt_dma_channel_alloc_any+0x74>
  1016cc:	e51b3008 	ldr	r3, [fp, #-8]
  1016d0:	e6ef3073 	uxtb	r3, r3
  1016d4:	e1a00003 	mov	r0, r3
  1016d8:	ebffffc8 	bl	101600 <alt_dma_channel_alloc>
  1016dc:	e50b000c 	str	r0, [fp, #-12]
  1016e0:	e51b300c 	ldr	r3, [fp, #-12]
  1016e4:	e3530000 	cmp	r3, #0
  1016e8:	1a000003 	bne	1016fc <alt_dma_channel_alloc_any+0x6c>
  1016ec:	e51b3008 	ldr	r3, [fp, #-8]
  1016f0:	e6ef2073 	uxtb	r2, r3
  1016f4:	e51b3010 	ldr	r3, [fp, #-16]
  1016f8:	e5c32000 	strb	r2, [r3]
  1016fc:	e51b300c 	ldr	r3, [fp, #-12]
  101700:	ea000006 	b	101720 <alt_dma_channel_alloc_any+0x90>
  101704:	e51b3008 	ldr	r3, [fp, #-8]
  101708:	e2833001 	add	r3, r3, #1
  10170c:	e50b3008 	str	r3, [fp, #-8]
  101710:	e51b3008 	ldr	r3, [fp, #-8]
  101714:	e3530007 	cmp	r3, #7
  101718:	9affffe3 	bls	1016ac <alt_dma_channel_alloc_any+0x1c>
  10171c:	e3e03000 	mvn	r3, #0
  101720:	e1a00003 	mov	r0, r3
  101724:	e24bd004 	sub	sp, fp, #4
  101728:	e8bd8800 	pop	{fp, pc}

0010172c <alt_dma_channel_free>:
  10172c:	e92d4800 	push	{fp, lr}
  101730:	e28db004 	add	fp, sp, #4
  101734:	e24dd010 	sub	sp, sp, #16
  101738:	e1a03000 	mov	r3, r0
  10173c:	e54b300d 	strb	r3, [fp, #-13]
  101740:	e55b300d 	ldrb	r3, [fp, #-13]
  101744:	e2833000 	add	r3, r3, #0
  101748:	e3530007 	cmp	r3, #7
  10174c:	9a000001 	bls	101758 <alt_dma_channel_free+0x2c>
  101750:	e3e03008 	mvn	r3, #8
  101754:	ea000024 	b	1017ec <alt_dma_channel_free+0xc0>
  101758:	e1a00000 	nop			; (mov r0, r0)
  10175c:	e55b200d 	ldrb	r2, [fp, #-13]
  101760:	e30333ec 	movw	r3, #13292	; 0x33ec
  101764:	e3403011 	movt	r3, #17
  101768:	e7d33002 	ldrb	r3, [r3, r2]
  10176c:	e2033001 	and	r3, r3, #1
  101770:	e3530000 	cmp	r3, #0
  101774:	1a000001 	bne	101780 <alt_dma_channel_free+0x54>
  101778:	e3e03000 	mvn	r3, #0
  10177c:	ea00001a 	b	1017ec <alt_dma_channel_free+0xc0>
  101780:	e55b200d 	ldrb	r2, [fp, #-13]
  101784:	e24b3009 	sub	r3, fp, #9
  101788:	e1a00002 	mov	r0, r2
  10178c:	e1a01003 	mov	r1, r3
  101790:	eb00013a 	bl	101c80 <alt_dma_channel_state_get>
  101794:	e50b0008 	str	r0, [fp, #-8]
  101798:	e51b3008 	ldr	r3, [fp, #-8]
  10179c:	e3530000 	cmp	r3, #0
  1017a0:	0a000001 	beq	1017ac <alt_dma_channel_free+0x80>
  1017a4:	e51b3008 	ldr	r3, [fp, #-8]
  1017a8:	ea00000f 	b	1017ec <alt_dma_channel_free+0xc0>
  1017ac:	e55b3009 	ldrb	r3, [fp, #-9]
  1017b0:	e3530000 	cmp	r3, #0
  1017b4:	0a000001 	beq	1017c0 <alt_dma_channel_free+0x94>
  1017b8:	e3e03000 	mvn	r3, #0
  1017bc:	ea00000a 	b	1017ec <alt_dma_channel_free+0xc0>
  1017c0:	e55b200d 	ldrb	r2, [fp, #-13]
  1017c4:	e55b100d 	ldrb	r1, [fp, #-13]
  1017c8:	e30333ec 	movw	r3, #13292	; 0x33ec
  1017cc:	e3403011 	movt	r3, #17
  1017d0:	e7d33001 	ldrb	r3, [r3, r1]
  1017d4:	e3c33001 	bic	r3, r3, #1
  1017d8:	e6ef1073 	uxtb	r1, r3
  1017dc:	e30333ec 	movw	r3, #13292	; 0x33ec
  1017e0:	e3403011 	movt	r3, #17
  1017e4:	e7c31002 	strb	r1, [r3, r2]
  1017e8:	e3a03000 	mov	r3, #0
  1017ec:	e1a00003 	mov	r0, r3
  1017f0:	e24bd004 	sub	sp, fp, #4
  1017f4:	e8bd8800 	pop	{fp, pc}

001017f8 <alt_dma_channel_exec>:
  1017f8:	e92d4800 	push	{fp, lr}
  1017fc:	e28db004 	add	fp, sp, #4
  101800:	e24dd028 	sub	sp, sp, #40	; 0x28
  101804:	e1a03000 	mov	r3, r0
  101808:	e50b102c 	str	r1, [fp, #-44]	; 0xffffffd4
  10180c:	e54b3025 	strb	r3, [fp, #-37]	; 0xffffffdb
  101810:	e55b3025 	ldrb	r3, [fp, #-37]	; 0xffffffdb
  101814:	e2833000 	add	r3, r3, #0
  101818:	e3530007 	cmp	r3, #7
  10181c:	9a000001 	bls	101828 <alt_dma_channel_exec+0x30>
  101820:	e3e03008 	mvn	r3, #8
  101824:	ea000065 	b	1019c0 <alt_dma_channel_exec+0x1c8>
  101828:	e1a00000 	nop			; (mov r0, r0)
  10182c:	e55b2025 	ldrb	r2, [fp, #-37]	; 0xffffffdb
  101830:	e30333ec 	movw	r3, #13292	; 0x33ec
  101834:	e3403011 	movt	r3, #17
  101838:	e7d33002 	ldrb	r3, [r3, r2]
  10183c:	e2033001 	and	r3, r3, #1
  101840:	e3530000 	cmp	r3, #0
  101844:	1a000001 	bne	101850 <alt_dma_channel_exec+0x58>
  101848:	e3e03000 	mvn	r3, #0
  10184c:	ea00005b 	b	1019c0 <alt_dma_channel_exec+0x1c8>
  101850:	e3a03000 	mov	r3, #0
  101854:	e50b3008 	str	r3, [fp, #-8]
  101858:	e3a03000 	mov	r3, #0
  10185c:	e50b300c 	str	r3, [fp, #-12]
  101860:	e51b3008 	ldr	r3, [fp, #-8]
  101864:	e3530000 	cmp	r3, #0
  101868:	1a00000a 	bne	101898 <alt_dma_channel_exec+0xa0>
  10186c:	e55b2025 	ldrb	r2, [fp, #-37]	; 0xffffffdb
  101870:	e24b3019 	sub	r3, fp, #25
  101874:	e1a00002 	mov	r0, r2
  101878:	e1a01003 	mov	r1, r3
  10187c:	eb0000ff 	bl	101c80 <alt_dma_channel_state_get>
  101880:	e50b0008 	str	r0, [fp, #-8]
  101884:	e55b3019 	ldrb	r3, [fp, #-25]	; 0xffffffe7
  101888:	e3530000 	cmp	r3, #0
  10188c:	0a000001 	beq	101898 <alt_dma_channel_exec+0xa0>
  101890:	e3e03000 	mvn	r3, #0
  101894:	ea000049 	b	1019c0 <alt_dma_channel_exec+0x1c8>
  101898:	e51b3008 	ldr	r3, [fp, #-8]
  10189c:	e3530000 	cmp	r3, #0
  1018a0:	1a000002 	bne	1018b0 <alt_dma_channel_exec+0xb8>
  1018a4:	e51b002c 	ldr	r0, [fp, #-44]	; 0xffffffd4
  1018a8:	eb0017c0 	bl	1077b0 <alt_dma_program_validate>
  1018ac:	e50b0008 	str	r0, [fp, #-8]
  1018b0:	e51b3008 	ldr	r3, [fp, #-8]
  1018b4:	e3530000 	cmp	r3, #0
  1018b8:	1a00001a 	bne	101928 <alt_dma_channel_exec+0x130>
  1018bc:	e51b302c 	ldr	r3, [fp, #-44]	; 0xffffffd4
  1018c0:	e1d330b4 	ldrh	r3, [r3, #4]
  1018c4:	e2833010 	add	r3, r3, #16
  1018c8:	e51b202c 	ldr	r2, [fp, #-44]	; 0xffffffd4
  1018cc:	e0823003 	add	r3, r2, r3
  1018d0:	e3c3301f 	bic	r3, r3, #31
  1018d4:	e50b3010 	str	r3, [fp, #-16]
  1018d8:	e51b302c 	ldr	r3, [fp, #-44]	; 0xffffffd4
  1018dc:	e1d330b4 	ldrh	r3, [r3, #4]
  1018e0:	e1a02003 	mov	r2, r3
  1018e4:	e51b302c 	ldr	r3, [fp, #-44]	; 0xffffffd4
  1018e8:	e1d330b6 	ldrh	r3, [r3, #6]
  1018ec:	e0823003 	add	r3, r2, r3
  1018f0:	e2833010 	add	r3, r3, #16
  1018f4:	e51b202c 	ldr	r2, [fp, #-44]	; 0xffffffd4
  1018f8:	e0823003 	add	r3, r2, r3
  1018fc:	e283301f 	add	r3, r3, #31
  101900:	e3c3301f 	bic	r3, r3, #31
  101904:	e50b3014 	str	r3, [fp, #-20]	; 0xffffffec
  101908:	e51b2014 	ldr	r2, [fp, #-20]	; 0xffffffec
  10190c:	e51b3010 	ldr	r3, [fp, #-16]
  101910:	e0633002 	rsb	r3, r3, r2
  101914:	e50b3018 	str	r3, [fp, #-24]	; 0xffffffe8
  101918:	e51b0010 	ldr	r0, [fp, #-16]
  10191c:	e51b1018 	ldr	r1, [fp, #-24]	; 0xffffffe8
  101920:	ebfffe4b 	bl	101254 <alt_cache_system_clean>
  101924:	e50b0008 	str	r0, [fp, #-8]
  101928:	e51b3008 	ldr	r3, [fp, #-8]
  10192c:	e3530000 	cmp	r3, #0
  101930:	1a000010 	bne	101978 <alt_dma_channel_exec+0x180>
  101934:	e51b302c 	ldr	r3, [fp, #-44]	; 0xffffffd4
  101938:	e1d330b4 	ldrh	r3, [r3, #4]
  10193c:	e2833010 	add	r3, r3, #16
  101940:	e51b202c 	ldr	r2, [fp, #-44]	; 0xffffffd4
  101944:	e0821003 	add	r1, r2, r3
  101948:	e24b2024 	sub	r2, fp, #36	; 0x24
  10194c:	e24b3020 	sub	r3, fp, #32
  101950:	e1a00001 	mov	r0, r1
  101954:	e1a01002 	mov	r1, r2
  101958:	e1a02003 	mov	r2, r3
  10195c:	ebfffe2b 	bl	101210 <alt_mmu_va_to_pa>
  101960:	e50b000c 	str	r0, [fp, #-12]
  101964:	e51b3020 	ldr	r3, [fp, #-32]	; 0xffffffe0
  101968:	e3530000 	cmp	r3, #0
  10196c:	0a000001 	beq	101978 <alt_dma_channel_exec+0x180>
  101970:	e3e03000 	mvn	r3, #0
  101974:	e50b3008 	str	r3, [fp, #-8]
  101978:	e51b3008 	ldr	r3, [fp, #-8]
  10197c:	e3530000 	cmp	r3, #0
  101980:	1a00000d 	bne	1019bc <alt_dma_channel_exec+0x1c4>
  101984:	e3013d08 	movw	r3, #7432	; 0x1d08
  101988:	e34f3fe0 	movt	r3, #65504	; 0xffe0
  10198c:	e55b2025 	ldrb	r2, [fp, #-37]	; 0xffffffdb
  101990:	e1a02c02 	lsl	r2, r2, #24
  101994:	e382260a 	orr	r2, r2, #10485760	; 0xa00000
  101998:	e5832000 	str	r2, [r3]
  10199c:	e3013d0c 	movw	r3, #7436	; 0x1d0c
  1019a0:	e34f3fe0 	movt	r3, #65504	; 0xffe0
  1019a4:	e51b200c 	ldr	r2, [fp, #-12]
  1019a8:	e5832000 	str	r2, [r3]
  1019ac:	e3013d04 	movw	r3, #7428	; 0x1d04
  1019b0:	e34f3fe0 	movt	r3, #65504	; 0xffe0
  1019b4:	e3a02000 	mov	r2, #0
  1019b8:	e5832000 	str	r2, [r3]
  1019bc:	e51b3008 	ldr	r3, [fp, #-8]
  1019c0:	e1a00003 	mov	r0, r3
  1019c4:	e24bd004 	sub	sp, fp, #4
  1019c8:	e8bd8800 	pop	{fp, pc}

001019cc <alt_dma_channel_kill>:
  1019cc:	e92d4800 	push	{fp, lr}
  1019d0:	e28db004 	add	fp, sp, #4
  1019d4:	e24dd018 	sub	sp, sp, #24
  1019d8:	e1a03000 	mov	r3, r0
  1019dc:	e54b3015 	strb	r3, [fp, #-21]	; 0xffffffeb
  1019e0:	e55b3015 	ldrb	r3, [fp, #-21]	; 0xffffffeb
  1019e4:	e2833000 	add	r3, r3, #0
  1019e8:	e3530007 	cmp	r3, #7
  1019ec:	9a000001 	bls	1019f8 <alt_dma_channel_kill+0x2c>
  1019f0:	e3e03008 	mvn	r3, #8
  1019f4:	ea000036 	b	101ad4 <alt_dma_channel_kill+0x108>
  1019f8:	e1a00000 	nop			; (mov r0, r0)
  1019fc:	e55b2015 	ldrb	r2, [fp, #-21]	; 0xffffffeb
  101a00:	e30333ec 	movw	r3, #13292	; 0x33ec
  101a04:	e3403011 	movt	r3, #17
  101a08:	e7d33002 	ldrb	r3, [r3, r2]
  101a0c:	e2033001 	and	r3, r3, #1
  101a10:	e3530000 	cmp	r3, #0
  101a14:	1a000001 	bne	101a20 <alt_dma_channel_kill+0x54>
  101a18:	e3e03000 	mvn	r3, #0
  101a1c:	ea00002c 	b	101ad4 <alt_dma_channel_kill+0x108>
  101a20:	e3013d08 	movw	r3, #7432	; 0x1d08
  101a24:	e34f3fe0 	movt	r3, #65504	; 0xffe0
  101a28:	e55b2015 	ldrb	r2, [fp, #-21]	; 0xffffffeb
  101a2c:	e2022007 	and	r2, r2, #7
  101a30:	e1a02402 	lsl	r2, r2, #8
  101a34:	e3822801 	orr	r2, r2, #65536	; 0x10000
  101a38:	e3822001 	orr	r2, r2, #1
  101a3c:	e5832000 	str	r2, [r3]
  101a40:	e3013d04 	movw	r3, #7428	; 0x1d04
  101a44:	e34f3fe0 	movt	r3, #65504	; 0xffe0
  101a48:	e3a02000 	mov	r2, #0
  101a4c:	e5832000 	str	r2, [r3]
  101a50:	e3a03000 	mov	r3, #0
  101a54:	e50b3008 	str	r3, [fp, #-8]
  101a58:	e3043e20 	movw	r3, #20000	; 0x4e20
  101a5c:	e50b300c 	str	r3, [fp, #-12]
  101a60:	ea00000f 	b	101aa4 <alt_dma_channel_kill+0xd8>
  101a64:	e55b2015 	ldrb	r2, [fp, #-21]	; 0xffffffeb
  101a68:	e24b300d 	sub	r3, fp, #13
  101a6c:	e1a00002 	mov	r0, r2
  101a70:	e1a01003 	mov	r1, r3
  101a74:	eb000081 	bl	101c80 <alt_dma_channel_state_get>
  101a78:	e50b0008 	str	r0, [fp, #-8]
  101a7c:	e51b3008 	ldr	r3, [fp, #-8]
  101a80:	e3530000 	cmp	r3, #0
  101a84:	0a000000 	beq	101a8c <alt_dma_channel_kill+0xc0>
  101a88:	ea00000b 	b	101abc <alt_dma_channel_kill+0xf0>
  101a8c:	e55b300d 	ldrb	r3, [fp, #-13]
  101a90:	e3530008 	cmp	r3, #8
  101a94:	0a000008 	beq	101abc <alt_dma_channel_kill+0xf0>
  101a98:	e55b300d 	ldrb	r3, [fp, #-13]
  101a9c:	e3530000 	cmp	r3, #0
  101aa0:	0a000005 	beq	101abc <alt_dma_channel_kill+0xf0>
  101aa4:	e51b300c 	ldr	r3, [fp, #-12]
  101aa8:	e2433001 	sub	r3, r3, #1
  101aac:	e50b300c 	str	r3, [fp, #-12]
  101ab0:	e51b300c 	ldr	r3, [fp, #-12]
  101ab4:	e3530000 	cmp	r3, #0
  101ab8:	1affffe9 	bne	101a64 <alt_dma_channel_kill+0x98>
  101abc:	e51b300c 	ldr	r3, [fp, #-12]
  101ac0:	e3530000 	cmp	r3, #0
  101ac4:	1a000001 	bne	101ad0 <alt_dma_channel_kill+0x104>
  101ac8:	e3e0300b 	mvn	r3, #11
  101acc:	e50b3008 	str	r3, [fp, #-8]
  101ad0:	e51b3008 	ldr	r3, [fp, #-8]
  101ad4:	e1a00003 	mov	r0, r3
  101ad8:	e24bd004 	sub	sp, fp, #4
  101adc:	e8bd8800 	pop	{fp, pc}

00101ae0 <alt_dma_channel_reg_get>:
  101ae0:	e52db004 	push	{fp}		; (str fp, [sp, #-4]!)
  101ae4:	e28db000 	add	fp, sp, #0
  101ae8:	e24dd00c 	sub	sp, sp, #12
  101aec:	e1a03000 	mov	r3, r0
  101af0:	e50b200c 	str	r2, [fp, #-12]
  101af4:	e54b3005 	strb	r3, [fp, #-5]
  101af8:	e1a03001 	mov	r3, r1
  101afc:	e54b3006 	strb	r3, [fp, #-6]
  101b00:	e55b3005 	ldrb	r3, [fp, #-5]
  101b04:	e2833000 	add	r3, r3, #0
  101b08:	e3530007 	cmp	r3, #7
  101b0c:	9a000001 	bls	101b18 <alt_dma_channel_reg_get+0x38>
  101b10:	e3e03008 	mvn	r3, #8
  101b14:	ea000027 	b	101bb8 <alt_dma_channel_reg_get+0xd8>
  101b18:	e1a00000 	nop			; (mov r0, r0)
  101b1c:	e55b3006 	ldrb	r3, [fp, #-6]
  101b20:	e3530001 	cmp	r3, #1
  101b24:	0a000016 	beq	101b84 <alt_dma_channel_reg_get+0xa4>
  101b28:	e3530002 	cmp	r3, #2
  101b2c:	0a00000a 	beq	101b5c <alt_dma_channel_reg_get+0x7c>
  101b30:	e3530000 	cmp	r3, #0
  101b34:	1a00001c 	bne	101bac <alt_dma_channel_reg_get+0xcc>
  101b38:	e55b3005 	ldrb	r3, [fp, #-5]
  101b3c:	e2833020 	add	r3, r3, #32
  101b40:	e1a03283 	lsl	r3, r3, #5
  101b44:	e243397f 	sub	r3, r3, #2080768	; 0x1fc000
  101b48:	e2433a03 	sub	r3, r3, #12288	; 0x3000
  101b4c:	e5932000 	ldr	r2, [r3]
  101b50:	e51b300c 	ldr	r3, [fp, #-12]
  101b54:	e5832000 	str	r2, [r3]
  101b58:	ea000015 	b	101bb4 <alt_dma_channel_reg_get+0xd4>
  101b5c:	e55b3005 	ldrb	r3, [fp, #-5]
  101b60:	e1a03283 	lsl	r3, r3, #5
  101b64:	e2833b01 	add	r3, r3, #1024	; 0x400
  101b68:	e2833004 	add	r3, r3, #4
  101b6c:	e243397f 	sub	r3, r3, #2080768	; 0x1fc000
  101b70:	e2433a03 	sub	r3, r3, #12288	; 0x3000
  101b74:	e5932000 	ldr	r2, [r3]
  101b78:	e51b300c 	ldr	r3, [fp, #-12]
  101b7c:	e5832000 	str	r2, [r3]
  101b80:	ea00000b 	b	101bb4 <alt_dma_channel_reg_get+0xd4>
  101b84:	e55b3005 	ldrb	r3, [fp, #-5]
  101b88:	e1a03283 	lsl	r3, r3, #5
  101b8c:	e2833b01 	add	r3, r3, #1024	; 0x400
  101b90:	e2833008 	add	r3, r3, #8
  101b94:	e243397f 	sub	r3, r3, #2080768	; 0x1fc000
  101b98:	e2433a03 	sub	r3, r3, #12288	; 0x3000
  101b9c:	e5932000 	ldr	r2, [r3]
  101ba0:	e51b300c 	ldr	r3, [fp, #-12]
  101ba4:	e5832000 	str	r2, [r3]
  101ba8:	ea000001 	b	101bb4 <alt_dma_channel_reg_get+0xd4>
  101bac:	e3e03008 	mvn	r3, #8
  101bb0:	ea000000 	b	101bb8 <alt_dma_channel_reg_get+0xd8>
  101bb4:	e3a03000 	mov	r3, #0
  101bb8:	e1a00003 	mov	r0, r3
  101bbc:	e24bd000 	sub	sp, fp, #0
  101bc0:	e49db004 	pop	{fp}		; (ldr fp, [sp], #4)
  101bc4:	e12fff1e 	bx	lr

00101bc8 <alt_dma_send_event>:
  101bc8:	e52db004 	push	{fp}		; (str fp, [sp, #-4]!)
  101bcc:	e28db000 	add	fp, sp, #0
  101bd0:	e24dd00c 	sub	sp, sp, #12
  101bd4:	e1a03000 	mov	r3, r0
  101bd8:	e54b3005 	strb	r3, [fp, #-5]
  101bdc:	e55b3005 	ldrb	r3, [fp, #-5]
  101be0:	e2833000 	add	r3, r3, #0
  101be4:	e3530008 	cmp	r3, #8
  101be8:	9a000001 	bls	101bf4 <alt_dma_send_event+0x2c>
  101bec:	e3e03008 	mvn	r3, #8
  101bf0:	ea00000b 	b	101c24 <alt_dma_send_event+0x5c>
  101bf4:	e1a00000 	nop			; (mov r0, r0)
  101bf8:	e3013d08 	movw	r3, #7432	; 0x1d08
  101bfc:	e34f3fe0 	movt	r3, #65504	; 0xffe0
  101c00:	e55b2005 	ldrb	r2, [fp, #-5]
  101c04:	e1a02d82 	lsl	r2, r2, #27
  101c08:	e382270d 	orr	r2, r2, #3407872	; 0x340000
  101c0c:	e5832000 	str	r2, [r3]
  101c10:	e3013d04 	movw	r3, #7428	; 0x1d04
  101c14:	e34f3fe0 	movt	r3, #65504	; 0xffe0
  101c18:	e3a02000 	mov	r2, #0
  101c1c:	e5832000 	str	r2, [r3]
  101c20:	e3a03000 	mov	r3, #0
  101c24:	e1a00003 	mov	r0, r3
  101c28:	e24bd000 	sub	sp, fp, #0
  101c2c:	e49db004 	pop	{fp}		; (ldr fp, [sp], #4)
  101c30:	e12fff1e 	bx	lr

00101c34 <alt_dma_manager_state_get>:
  101c34:	e52db004 	push	{fp}		; (str fp, [sp, #-4]!)
  101c38:	e28db000 	add	fp, sp, #0
  101c3c:	e24dd014 	sub	sp, sp, #20
  101c40:	e50b0010 	str	r0, [fp, #-16]
  101c44:	e3a03a01 	mov	r3, #4096	; 0x1000
  101c48:	e34f3fe0 	movt	r3, #65504	; 0xffe0
  101c4c:	e5933000 	ldr	r3, [r3]
  101c50:	e50b3008 	str	r3, [fp, #-8]
  101c54:	e51b3008 	ldr	r3, [fp, #-8]
  101c58:	e6ef3073 	uxtb	r3, r3
  101c5c:	e203300f 	and	r3, r3, #15
  101c60:	e6ef2073 	uxtb	r2, r3
  101c64:	e51b3010 	ldr	r3, [fp, #-16]
  101c68:	e5c32000 	strb	r2, [r3]
  101c6c:	e3a03000 	mov	r3, #0
  101c70:	e1a00003 	mov	r0, r3
  101c74:	e24bd000 	sub	sp, fp, #0
  101c78:	e49db004 	pop	{fp}		; (ldr fp, [sp], #4)
  101c7c:	e12fff1e 	bx	lr

00101c80 <alt_dma_channel_state_get>:
  101c80:	e52db004 	push	{fp}		; (str fp, [sp, #-4]!)
  101c84:	e28db000 	add	fp, sp, #0
  101c88:	e24dd014 	sub	sp, sp, #20
  101c8c:	e1a03000 	mov	r3, r0
  101c90:	e50b1014 	str	r1, [fp, #-20]	; 0xffffffec
  101c94:	e54b300d 	strb	r3, [fp, #-13]
  101c98:	e55b300d 	ldrb	r3, [fp, #-13]
  101c9c:	e2833000 	add	r3, r3, #0
  101ca0:	e3530007 	cmp	r3, #7
  101ca4:	9a000001 	bls	101cb0 <alt_dma_channel_state_get+0x30>
  101ca8:	e3e03008 	mvn	r3, #8
  101cac:	ea00000e 	b	101cec <alt_dma_channel_state_get+0x6c>
  101cb0:	e1a00000 	nop			; (mov r0, r0)
  101cb4:	e55b300d 	ldrb	r3, [fp, #-13]
  101cb8:	e2833020 	add	r3, r3, #32
  101cbc:	e1a03183 	lsl	r3, r3, #3
  101cc0:	e243397f 	sub	r3, r3, #2080768	; 0x1fc000
  101cc4:	e2433a03 	sub	r3, r3, #12288	; 0x3000
  101cc8:	e5933000 	ldr	r3, [r3]
  101ccc:	e50b3008 	str	r3, [fp, #-8]
  101cd0:	e51b3008 	ldr	r3, [fp, #-8]
  101cd4:	e6ef3073 	uxtb	r3, r3
  101cd8:	e203300f 	and	r3, r3, #15
  101cdc:	e6ef2073 	uxtb	r2, r3
  101ce0:	e51b3014 	ldr	r3, [fp, #-20]	; 0xffffffec
  101ce4:	e5c32000 	strb	r2, [r3]
  101ce8:	e3a03000 	mov	r3, #0
  101cec:	e1a00003 	mov	r0, r3
  101cf0:	e24bd000 	sub	sp, fp, #0
  101cf4:	e49db004 	pop	{fp}		; (ldr fp, [sp], #4)
  101cf8:	e12fff1e 	bx	lr

00101cfc <alt_dma_manager_fault_status_get>:
  101cfc:	e52db004 	push	{fp}		; (str fp, [sp, #-4]!)
  101d00:	e28db000 	add	fp, sp, #0
  101d04:	e24dd00c 	sub	sp, sp, #12
  101d08:	e50b0008 	str	r0, [fp, #-8]
  101d0c:	e3013030 	movw	r3, #4144	; 0x1030
  101d10:	e34f3fe0 	movt	r3, #65504	; 0xffe0
  101d14:	e5932000 	ldr	r2, [r3]
  101d18:	e51b3008 	ldr	r3, [fp, #-8]
  101d1c:	e5832000 	str	r2, [r3]
  101d20:	e3a03000 	mov	r3, #0
  101d24:	e1a00003 	mov	r0, r3
  101d28:	e24bd000 	sub	sp, fp, #0
  101d2c:	e49db004 	pop	{fp}		; (ldr fp, [sp], #4)
  101d30:	e12fff1e 	bx	lr

00101d34 <alt_dma_channel_fault_status_get>:
  101d34:	e52db004 	push	{fp}		; (str fp, [sp, #-4]!)
  101d38:	e28db000 	add	fp, sp, #0
  101d3c:	e24dd00c 	sub	sp, sp, #12
  101d40:	e1a03000 	mov	r3, r0
  101d44:	e50b100c 	str	r1, [fp, #-12]
  101d48:	e54b3005 	strb	r3, [fp, #-5]
  101d4c:	e55b3005 	ldrb	r3, [fp, #-5]
  101d50:	e2833000 	add	r3, r3, #0
  101d54:	e3530007 	cmp	r3, #7
  101d58:	9a000001 	bls	101d64 <alt_dma_channel_fault_status_get+0x30>
  101d5c:	e3e03008 	mvn	r3, #8
  101d60:	ea00000a 	b	101d90 <alt_dma_channel_fault_status_get+0x5c>
  101d64:	e1a00000 	nop			; (mov r0, r0)
  101d68:	e55b3005 	ldrb	r3, [fp, #-5]
  101d6c:	e2833010 	add	r3, r3, #16
  101d70:	e1a03103 	lsl	r3, r3, #2
  101d74:	e243397f 	sub	r3, r3, #2080768	; 0x1fc000
  101d78:	e2433a03 	sub	r3, r3, #12288	; 0x3000
  101d7c:	e5933000 	ldr	r3, [r3]
  101d80:	e1a02003 	mov	r2, r3
  101d84:	e51b300c 	ldr	r3, [fp, #-12]
  101d88:	e5832000 	str	r2, [r3]
  101d8c:	e3a03000 	mov	r3, #0
  101d90:	e1a00003 	mov	r0, r3
  101d94:	e24bd000 	sub	sp, fp, #0
  101d98:	e49db004 	pop	{fp}		; (ldr fp, [sp], #4)
  101d9c:	e12fff1e 	bx	lr

00101da0 <alt_dma_event_int_select>:
  101da0:	e52db004 	push	{fp}		; (str fp, [sp, #-4]!)
  101da4:	e28db000 	add	fp, sp, #0
  101da8:	e24dd00c 	sub	sp, sp, #12
  101dac:	e1a03000 	mov	r3, r0
  101db0:	e1a02001 	mov	r2, r1
  101db4:	e54b3005 	strb	r3, [fp, #-5]
  101db8:	e1a03002 	mov	r3, r2
  101dbc:	e54b3006 	strb	r3, [fp, #-6]
  101dc0:	e55b3005 	ldrb	r3, [fp, #-5]
  101dc4:	e2833000 	add	r3, r3, #0
  101dc8:	e3530008 	cmp	r3, #8
  101dcc:	9a000001 	bls	101dd8 <alt_dma_event_int_select+0x38>
  101dd0:	e3e03008 	mvn	r3, #8
  101dd4:	ea000020 	b	101e5c <alt_dma_event_int_select+0xbc>
  101dd8:	e1a00000 	nop			; (mov r0, r0)
  101ddc:	e55b3006 	ldrb	r3, [fp, #-6]
  101de0:	e3530000 	cmp	r3, #0
  101de4:	0a000002 	beq	101df4 <alt_dma_event_int_select+0x54>
  101de8:	e3530001 	cmp	r3, #1
  101dec:	0a00000c 	beq	101e24 <alt_dma_event_int_select+0x84>
  101df0:	ea000016 	b	101e50 <alt_dma_event_int_select+0xb0>
  101df4:	e3013020 	movw	r3, #4128	; 0x1020
  101df8:	e34f3fe0 	movt	r3, #65504	; 0xffe0
  101dfc:	e3012020 	movw	r2, #4128	; 0x1020
  101e00:	e34f2fe0 	movt	r2, #65504	; 0xffe0
  101e04:	e5922000 	ldr	r2, [r2]
  101e08:	e55b1005 	ldrb	r1, [fp, #-5]
  101e0c:	e3a00001 	mov	r0, #1
  101e10:	e1a01110 	lsl	r1, r0, r1
  101e14:	e1e01001 	mvn	r1, r1
  101e18:	e0022001 	and	r2, r2, r1
  101e1c:	e5832000 	str	r2, [r3]
  101e20:	ea00000c 	b	101e58 <alt_dma_event_int_select+0xb8>
  101e24:	e3013020 	movw	r3, #4128	; 0x1020
  101e28:	e34f3fe0 	movt	r3, #65504	; 0xffe0
  101e2c:	e3012020 	movw	r2, #4128	; 0x1020
  101e30:	e34f2fe0 	movt	r2, #65504	; 0xffe0
  101e34:	e5922000 	ldr	r2, [r2]
  101e38:	e55b1005 	ldrb	r1, [fp, #-5]
  101e3c:	e3a00001 	mov	r0, #1
  101e40:	e1a01110 	lsl	r1, r0, r1
  101e44:	e1822001 	orr	r2, r2, r1
  101e48:	e5832000 	str	r2, [r3]
  101e4c:	ea000001 	b	101e58 <alt_dma_event_int_select+0xb8>
  101e50:	e3e03008 	mvn	r3, #8
  101e54:	ea000000 	b	101e5c <alt_dma_event_int_select+0xbc>
  101e58:	e3a03000 	mov	r3, #0
  101e5c:	e1a00003 	mov	r0, r3
  101e60:	e24bd000 	sub	sp, fp, #0
  101e64:	e49db004 	pop	{fp}		; (ldr fp, [sp], #4)
  101e68:	e12fff1e 	bx	lr

00101e6c <alt_dma_event_int_status_get_raw>:
  101e6c:	e52db004 	push	{fp}		; (str fp, [sp, #-4]!)
  101e70:	e28db000 	add	fp, sp, #0
  101e74:	e24dd014 	sub	sp, sp, #20
  101e78:	e1a03000 	mov	r3, r0
  101e7c:	e54b300d 	strb	r3, [fp, #-13]
  101e80:	e55b300d 	ldrb	r3, [fp, #-13]
  101e84:	e2833000 	add	r3, r3, #0
  101e88:	e3530008 	cmp	r3, #8
  101e8c:	9a000001 	bls	101e98 <alt_dma_event_int_status_get_raw+0x2c>
  101e90:	e3e03008 	mvn	r3, #8
  101e94:	ea00000f 	b	101ed8 <alt_dma_event_int_status_get_raw+0x6c>
  101e98:	e1a00000 	nop			; (mov r0, r0)
  101e9c:	e3013024 	movw	r3, #4132	; 0x1024
  101ea0:	e34f3fe0 	movt	r3, #65504	; 0xffe0
  101ea4:	e5933000 	ldr	r3, [r3]
  101ea8:	e50b3008 	str	r3, [fp, #-8]
  101eac:	e55b300d 	ldrb	r3, [fp, #-13]
  101eb0:	e3a02001 	mov	r2, #1
  101eb4:	e1a03312 	lsl	r3, r2, r3
  101eb8:	e1a02003 	mov	r2, r3
  101ebc:	e51b3008 	ldr	r3, [fp, #-8]
  101ec0:	e0033002 	and	r3, r3, r2
  101ec4:	e3530000 	cmp	r3, #0
  101ec8:	0a000001 	beq	101ed4 <alt_dma_event_int_status_get_raw+0x68>
  101ecc:	e3a03001 	mov	r3, #1
  101ed0:	ea000000 	b	101ed8 <alt_dma_event_int_status_get_raw+0x6c>
  101ed4:	e3a03000 	mov	r3, #0
  101ed8:	e1a00003 	mov	r0, r3
  101edc:	e24bd000 	sub	sp, fp, #0
  101ee0:	e49db004 	pop	{fp}		; (ldr fp, [sp], #4)
  101ee4:	e12fff1e 	bx	lr

00101ee8 <alt_dma_int_status_get>:
  101ee8:	e52db004 	push	{fp}		; (str fp, [sp, #-4]!)
  101eec:	e28db000 	add	fp, sp, #0
  101ef0:	e24dd014 	sub	sp, sp, #20
  101ef4:	e1a03000 	mov	r3, r0
  101ef8:	e54b300d 	strb	r3, [fp, #-13]
  101efc:	e55b300d 	ldrb	r3, [fp, #-13]
  101f00:	e2833000 	add	r3, r3, #0
  101f04:	e3530008 	cmp	r3, #8
  101f08:	9a000001 	bls	101f14 <alt_dma_int_status_get+0x2c>
  101f0c:	e3e03008 	mvn	r3, #8
  101f10:	ea00000f 	b	101f54 <alt_dma_int_status_get+0x6c>
  101f14:	e1a00000 	nop			; (mov r0, r0)
  101f18:	e3013028 	movw	r3, #4136	; 0x1028
  101f1c:	e34f3fe0 	movt	r3, #65504	; 0xffe0
  101f20:	e5933000 	ldr	r3, [r3]
  101f24:	e50b3008 	str	r3, [fp, #-8]
  101f28:	e55b300d 	ldrb	r3, [fp, #-13]
  101f2c:	e3a02001 	mov	r2, #1
  101f30:	e1a03312 	lsl	r3, r2, r3
  101f34:	e1a02003 	mov	r2, r3
  101f38:	e51b3008 	ldr	r3, [fp, #-8]
  101f3c:	e0033002 	and	r3, r3, r2
  101f40:	e3530000 	cmp	r3, #0
  101f44:	0a000001 	beq	101f50 <alt_dma_int_status_get+0x68>
  101f48:	e3a03001 	mov	r3, #1
  101f4c:	ea000000 	b	101f54 <alt_dma_int_status_get+0x6c>
  101f50:	e3a03000 	mov	r3, #0
  101f54:	e1a00003 	mov	r0, r3
  101f58:	e24bd000 	sub	sp, fp, #0
  101f5c:	e49db004 	pop	{fp}		; (ldr fp, [sp], #4)
  101f60:	e12fff1e 	bx	lr

00101f64 <alt_dma_int_clear>:
  101f64:	e52db004 	push	{fp}		; (str fp, [sp, #-4]!)
  101f68:	e28db000 	add	fp, sp, #0
  101f6c:	e24dd00c 	sub	sp, sp, #12
  101f70:	e1a03000 	mov	r3, r0
  101f74:	e54b3005 	strb	r3, [fp, #-5]
  101f78:	e55b3005 	ldrb	r3, [fp, #-5]
  101f7c:	e2833000 	add	r3, r3, #0
  101f80:	e3530008 	cmp	r3, #8
  101f84:	9a000001 	bls	101f90 <alt_dma_int_clear+0x2c>
  101f88:	e3e03008 	mvn	r3, #8
  101f8c:	ea000007 	b	101fb0 <alt_dma_int_clear+0x4c>
  101f90:	e1a00000 	nop			; (mov r0, r0)
  101f94:	e301302c 	movw	r3, #4140	; 0x102c
  101f98:	e34f3fe0 	movt	r3, #65504	; 0xffe0
  101f9c:	e55b2005 	ldrb	r2, [fp, #-5]
  101fa0:	e3a01001 	mov	r1, #1
  101fa4:	e1a02211 	lsl	r2, r1, r2
  101fa8:	e5832000 	str	r2, [r3]
  101fac:	e3a03000 	mov	r3, #0
  101fb0:	e1a00003 	mov	r0, r3
  101fb4:	e24bd000 	sub	sp, fp, #0
  101fb8:	e49db004 	pop	{fp}		; (ldr fp, [sp], #4)
  101fbc:	e12fff1e 	bx	lr

00101fc0 <alt_mmu_va_to_pa_coalesce_begin>:
  101fc0:	e92d4800 	push	{fp, lr}
  101fc4:	e28db004 	add	fp, sp, #4
  101fc8:	e24dd018 	sub	sp, sp, #24
  101fcc:	e50b0010 	str	r0, [fp, #-16]
  101fd0:	e50b1014 	str	r1, [fp, #-20]	; 0xffffffec
  101fd4:	e50b2018 	str	r2, [fp, #-24]	; 0xffffffe8
  101fd8:	e51b2014 	ldr	r2, [fp, #-20]	; 0xffffffec
  101fdc:	e51b3018 	ldr	r3, [fp, #-24]	; 0xffffffe8
  101fe0:	e0823003 	add	r3, r2, r3
  101fe4:	e2432001 	sub	r2, r3, #1
  101fe8:	e51b3014 	ldr	r3, [fp, #-20]	; 0xffffffec
  101fec:	e1520003 	cmp	r2, r3
  101ff0:	2a000001 	bcs	101ffc <alt_mmu_va_to_pa_coalesce_begin+0x3c>
  101ff4:	e3e03000 	mvn	r3, #0
  101ff8:	ea00001d 	b	102074 <alt_mmu_va_to_pa_coalesce_begin+0xb4>
  101ffc:	e51b3010 	ldr	r3, [fp, #-16]
  102000:	e283200c 	add	r2, r3, #12
  102004:	e24b3008 	sub	r3, fp, #8
  102008:	e51b0014 	ldr	r0, [fp, #-20]	; 0xffffffec
  10200c:	e1a01002 	mov	r1, r2
  102010:	e1a02003 	mov	r2, r3
  102014:	ebfffc7d 	bl	101210 <alt_mmu_va_to_pa>
  102018:	e1a02000 	mov	r2, r0
  10201c:	e51b3010 	ldr	r3, [fp, #-16]
  102020:	e5832008 	str	r2, [r3, #8]
  102024:	e51b3008 	ldr	r3, [fp, #-8]
  102028:	e3530000 	cmp	r3, #0
  10202c:	0a000001 	beq	102038 <alt_mmu_va_to_pa_coalesce_begin+0x78>
  102030:	e3e03000 	mvn	r3, #0
  102034:	ea00000e 	b	102074 <alt_mmu_va_to_pa_coalesce_begin+0xb4>
  102038:	e51b3010 	ldr	r3, [fp, #-16]
  10203c:	e593200c 	ldr	r2, [r3, #12]
  102040:	e51b3018 	ldr	r3, [fp, #-24]	; 0xffffffe8
  102044:	e1520003 	cmp	r2, r3
  102048:	31a02002 	movcc	r2, r2
  10204c:	21a02003 	movcs	r2, r3
  102050:	e51b3010 	ldr	r3, [fp, #-16]
  102054:	e583200c 	str	r2, [r3, #12]
  102058:	e51b3010 	ldr	r3, [fp, #-16]
  10205c:	e51b2014 	ldr	r2, [fp, #-20]	; 0xffffffec
  102060:	e5832000 	str	r2, [r3]
  102064:	e51b3010 	ldr	r3, [fp, #-16]
  102068:	e51b2018 	ldr	r2, [fp, #-24]	; 0xffffffe8
  10206c:	e5832004 	str	r2, [r3, #4]
  102070:	e3a03000 	mov	r3, #0
  102074:	e1a00003 	mov	r0, r3
  102078:	e24bd004 	sub	sp, fp, #4
  10207c:	e8bd8800 	pop	{fp, pc}

00102080 <alt_mmu_va_to_pa_coalesce_next>:
  102080:	e92d4800 	push	{fp, lr}
  102084:	e28db004 	add	fp, sp, #4
  102088:	e24dd020 	sub	sp, sp, #32
  10208c:	e50b0018 	str	r0, [fp, #-24]	; 0xffffffe8
  102090:	e50b101c 	str	r1, [fp, #-28]	; 0xffffffe4
  102094:	e50b2020 	str	r2, [fp, #-32]	; 0xffffffe0
  102098:	e51b3018 	ldr	r3, [fp, #-24]	; 0xffffffe8
  10209c:	e5933004 	ldr	r3, [r3, #4]
  1020a0:	e3530000 	cmp	r3, #0
  1020a4:	1a000001 	bne	1020b0 <alt_mmu_va_to_pa_coalesce_next+0x30>
  1020a8:	e3e03000 	mvn	r3, #0
  1020ac:	ea000051 	b	1021f8 <alt_mmu_va_to_pa_coalesce_next+0x178>
  1020b0:	e51b3018 	ldr	r3, [fp, #-24]	; 0xffffffe8
  1020b4:	e5933008 	ldr	r3, [r3, #8]
  1020b8:	e50b300c 	str	r3, [fp, #-12]
  1020bc:	e51b3018 	ldr	r3, [fp, #-24]	; 0xffffffe8
  1020c0:	e593300c 	ldr	r3, [r3, #12]
  1020c4:	e50b3008 	str	r3, [fp, #-8]
  1020c8:	e51b3018 	ldr	r3, [fp, #-24]	; 0xffffffe8
  1020cc:	e5932000 	ldr	r2, [r3]
  1020d0:	e51b3008 	ldr	r3, [fp, #-8]
  1020d4:	e0822003 	add	r2, r2, r3
  1020d8:	e51b3018 	ldr	r3, [fp, #-24]	; 0xffffffe8
  1020dc:	e5832000 	str	r2, [r3]
  1020e0:	e51b3018 	ldr	r3, [fp, #-24]	; 0xffffffe8
  1020e4:	e5932004 	ldr	r2, [r3, #4]
  1020e8:	e51b3008 	ldr	r3, [fp, #-8]
  1020ec:	e0632002 	rsb	r2, r3, r2
  1020f0:	e51b3018 	ldr	r3, [fp, #-24]	; 0xffffffe8
  1020f4:	e5832004 	str	r2, [r3, #4]
  1020f8:	ea000033 	b	1021cc <alt_mmu_va_to_pa_coalesce_next+0x14c>
  1020fc:	e51b3018 	ldr	r3, [fp, #-24]	; 0xffffffe8
  102100:	e5931000 	ldr	r1, [r3]
  102104:	e51b3018 	ldr	r3, [fp, #-24]	; 0xffffffe8
  102108:	e283200c 	add	r2, r3, #12
  10210c:	e24b3010 	sub	r3, fp, #16
  102110:	e1a00001 	mov	r0, r1
  102114:	e1a01002 	mov	r1, r2
  102118:	e1a02003 	mov	r2, r3
  10211c:	ebfffc3b 	bl	101210 <alt_mmu_va_to_pa>
  102120:	e1a02000 	mov	r2, r0
  102124:	e51b3018 	ldr	r3, [fp, #-24]	; 0xffffffe8
  102128:	e5832008 	str	r2, [r3, #8]
  10212c:	e51b3010 	ldr	r3, [fp, #-16]
  102130:	e3530000 	cmp	r3, #0
  102134:	0a000001 	beq	102140 <alt_mmu_va_to_pa_coalesce_next+0xc0>
  102138:	e3e03000 	mvn	r3, #0
  10213c:	ea00002d 	b	1021f8 <alt_mmu_va_to_pa_coalesce_next+0x178>
  102140:	e51b3018 	ldr	r3, [fp, #-24]	; 0xffffffe8
  102144:	e593200c 	ldr	r2, [r3, #12]
  102148:	e51b3018 	ldr	r3, [fp, #-24]	; 0xffffffe8
  10214c:	e5933004 	ldr	r3, [r3, #4]
  102150:	e1520003 	cmp	r2, r3
  102154:	31a02002 	movcc	r2, r2
  102158:	21a02003 	movcs	r2, r3
  10215c:	e51b3018 	ldr	r3, [fp, #-24]	; 0xffffffe8
  102160:	e583200c 	str	r2, [r3, #12]
  102164:	e51b3018 	ldr	r3, [fp, #-24]	; 0xffffffe8
  102168:	e5932008 	ldr	r2, [r3, #8]
  10216c:	e51b100c 	ldr	r1, [fp, #-12]
  102170:	e51b3008 	ldr	r3, [fp, #-8]
  102174:	e0813003 	add	r3, r1, r3
  102178:	e1520003 	cmp	r2, r3
  10217c:	1a000016 	bne	1021dc <alt_mmu_va_to_pa_coalesce_next+0x15c>
  102180:	e51b3018 	ldr	r3, [fp, #-24]	; 0xffffffe8
  102184:	e593300c 	ldr	r3, [r3, #12]
  102188:	e51b2008 	ldr	r2, [fp, #-8]
  10218c:	e0823003 	add	r3, r2, r3
  102190:	e50b3008 	str	r3, [fp, #-8]
  102194:	e51b3018 	ldr	r3, [fp, #-24]	; 0xffffffe8
  102198:	e5932000 	ldr	r2, [r3]
  10219c:	e51b3018 	ldr	r3, [fp, #-24]	; 0xffffffe8
  1021a0:	e593300c 	ldr	r3, [r3, #12]
  1021a4:	e0822003 	add	r2, r2, r3
  1021a8:	e51b3018 	ldr	r3, [fp, #-24]	; 0xffffffe8
  1021ac:	e5832000 	str	r2, [r3]
  1021b0:	e51b3018 	ldr	r3, [fp, #-24]	; 0xffffffe8
  1021b4:	e5932004 	ldr	r2, [r3, #4]
  1021b8:	e51b3018 	ldr	r3, [fp, #-24]	; 0xffffffe8
  1021bc:	e593300c 	ldr	r3, [r3, #12]
  1021c0:	e0632002 	rsb	r2, r3, r2
  1021c4:	e51b3018 	ldr	r3, [fp, #-24]	; 0xffffffe8
  1021c8:	e5832004 	str	r2, [r3, #4]
  1021cc:	e51b3018 	ldr	r3, [fp, #-24]	; 0xffffffe8
  1021d0:	e5933004 	ldr	r3, [r3, #4]
  1021d4:	e3530000 	cmp	r3, #0
  1021d8:	1affffc7 	bne	1020fc <alt_mmu_va_to_pa_coalesce_next+0x7c>
  1021dc:	e51b301c 	ldr	r3, [fp, #-28]	; 0xffffffe4
  1021e0:	e51b200c 	ldr	r2, [fp, #-12]
  1021e4:	e5832000 	str	r2, [r3]
  1021e8:	e51b3020 	ldr	r3, [fp, #-32]	; 0xffffffe0
  1021ec:	e51b2008 	ldr	r2, [fp, #-8]
  1021f0:	e5832000 	str	r2, [r3]
  1021f4:	e3a03000 	mov	r3, #0
  1021f8:	e1a00003 	mov	r0, r3
  1021fc:	e24bd004 	sub	sp, fp, #4
  102200:	e8bd8800 	pop	{fp, pc}

00102204 <alt_mmu_va_to_pa_coalesce_end>:
  102204:	e52db004 	push	{fp}		; (str fp, [sp, #-4]!)
  102208:	e28db000 	add	fp, sp, #0
  10220c:	e24dd00c 	sub	sp, sp, #12
  102210:	e50b0008 	str	r0, [fp, #-8]
  102214:	e51b3008 	ldr	r3, [fp, #-8]
  102218:	e5933004 	ldr	r3, [r3, #4]
  10221c:	e3530000 	cmp	r3, #0
  102220:	0a000001 	beq	10222c <alt_mmu_va_to_pa_coalesce_end+0x28>
  102224:	e3e03000 	mvn	r3, #0
  102228:	ea000000 	b	102230 <alt_mmu_va_to_pa_coalesce_end+0x2c>
  10222c:	e3a03000 	mov	r3, #0
  102230:	e1a00003 	mov	r0, r3
  102234:	e24bd000 	sub	sp, fp, #0
  102238:	e49db004 	pop	{fp}		; (ldr fp, [sp], #4)
  10223c:	e12fff1e 	bx	lr

00102240 <alt_dma_memory_to_memory_segment>:
  102240:	e92d4800 	push	{fp, lr}
  102244:	e28db004 	add	fp, sp, #4
  102248:	e24dd030 	sub	sp, sp, #48	; 0x30
  10224c:	e50b0028 	str	r0, [fp, #-40]	; 0xffffffd8
  102250:	e50b102c 	str	r1, [fp, #-44]	; 0xffffffd4
  102254:	e50b2030 	str	r2, [fp, #-48]	; 0xffffffd0
  102258:	e50b3034 	str	r3, [fp, #-52]	; 0xffffffcc
  10225c:	e3a03000 	mov	r3, #0
  102260:	e50b3008 	str	r3, [fp, #-8]
  102264:	e51b3008 	ldr	r3, [fp, #-8]
  102268:	e3530000 	cmp	r3, #0
  10226c:	1a000004 	bne	102284 <alt_dma_memory_to_memory_segment+0x44>
  102270:	e51b0028 	ldr	r0, [fp, #-40]	; 0xffffffd8
  102274:	e3a01000 	mov	r1, #0
  102278:	e51b2030 	ldr	r2, [fp, #-48]	; 0xffffffd0
  10227c:	eb00191d 	bl	1086f8 <alt_dma_program_DMAMOV>
  102280:	e50b0008 	str	r0, [fp, #-8]
  102284:	e51b3008 	ldr	r3, [fp, #-8]
  102288:	e3530000 	cmp	r3, #0
  10228c:	1a000004 	bne	1022a4 <alt_dma_memory_to_memory_segment+0x64>
  102290:	e51b0028 	ldr	r0, [fp, #-40]	; 0xffffffd8
  102294:	e3a01002 	mov	r1, #2
  102298:	e51b202c 	ldr	r2, [fp, #-44]	; 0xffffffd4
  10229c:	eb001915 	bl	1086f8 <alt_dma_program_DMAMOV>
  1022a0:	e50b0008 	str	r0, [fp, #-8]
  1022a4:	e51b3034 	ldr	r3, [fp, #-52]	; 0xffffffcc
  1022a8:	e50b300c 	str	r3, [fp, #-12]
  1022ac:	e51b3030 	ldr	r3, [fp, #-48]	; 0xffffffd0
  1022b0:	e2033007 	and	r3, r3, #7
  1022b4:	e3530000 	cmp	r3, #0
  1022b8:	0a00002a 	beq	102368 <alt_dma_memory_to_memory_segment+0x128>
  1022bc:	e51b3030 	ldr	r3, [fp, #-48]	; 0xffffffd0
  1022c0:	e2033007 	and	r3, r3, #7
  1022c4:	e2632008 	rsb	r2, r3, #8
  1022c8:	e51b300c 	ldr	r3, [fp, #-12]
  1022cc:	e1520003 	cmp	r2, r3
  1022d0:	31a03002 	movcc	r3, r2
  1022d4:	21a03003 	movcs	r3, r3
  1022d8:	e50b3018 	str	r3, [fp, #-24]	; 0xffffffe8
  1022dc:	e51b200c 	ldr	r2, [fp, #-12]
  1022e0:	e51b3018 	ldr	r3, [fp, #-24]	; 0xffffffe8
  1022e4:	e0633002 	rsb	r3, r3, r2
  1022e8:	e50b300c 	str	r3, [fp, #-12]
  1022ec:	e51b3008 	ldr	r3, [fp, #-8]
  1022f0:	e3530000 	cmp	r3, #0
  1022f4:	1a00000d 	bne	102330 <alt_dma_memory_to_memory_segment+0xf0>
  1022f8:	e51b3018 	ldr	r3, [fp, #-24]	; 0xffffffe8
  1022fc:	e2433001 	sub	r3, r3, #1
  102300:	e1a02203 	lsl	r2, r3, #4
  102304:	e51b3018 	ldr	r3, [fp, #-24]	; 0xffffffe8
  102308:	e2433001 	sub	r3, r3, #1
  10230c:	e1a03903 	lsl	r3, r3, #18
  102310:	e1823003 	orr	r3, r2, r3
  102314:	e3833901 	orr	r3, r3, #16384	; 0x4000
  102318:	e3833001 	orr	r3, r3, #1
  10231c:	e51b0028 	ldr	r0, [fp, #-40]	; 0xffffffd8
  102320:	e3a01001 	mov	r1, #1
  102324:	e1a02003 	mov	r2, r3
  102328:	eb0018f2 	bl	1086f8 <alt_dma_program_DMAMOV>
  10232c:	e50b0008 	str	r0, [fp, #-8]
  102330:	e51b3008 	ldr	r3, [fp, #-8]
  102334:	e3530000 	cmp	r3, #0
  102338:	1a000003 	bne	10234c <alt_dma_memory_to_memory_segment+0x10c>
  10233c:	e51b0028 	ldr	r0, [fp, #-40]	; 0xffffffd8
  102340:	e3a01000 	mov	r1, #0
  102344:	eb00173d 	bl	108040 <alt_dma_program_DMALD>
  102348:	e50b0008 	str	r0, [fp, #-8]
  10234c:	e51b3008 	ldr	r3, [fp, #-8]
  102350:	e3530000 	cmp	r3, #0
  102354:	1a000003 	bne	102368 <alt_dma_memory_to_memory_segment+0x128>
  102358:	e51b0028 	ldr	r0, [fp, #-40]	; 0xffffffd8
  10235c:	e3a01000 	mov	r1, #0
  102360:	eb0019d3 	bl	108ab4 <alt_dma_program_DMAST>
  102364:	e50b0008 	str	r0, [fp, #-8]
  102368:	e51b300c 	ldr	r3, [fp, #-12]
  10236c:	e1a031a3 	lsr	r3, r3, #3
  102370:	e50b3010 	str	r3, [fp, #-16]
  102374:	e51b3010 	ldr	r3, [fp, #-16]
  102378:	e3530000 	cmp	r3, #0
  10237c:	0a000007 	beq	1023a0 <alt_dma_memory_to_memory_segment+0x160>
  102380:	e51b2030 	ldr	r2, [fp, #-48]	; 0xffffffd0
  102384:	e51b302c 	ldr	r3, [fp, #-44]	; 0xffffffd4
  102388:	e0233002 	eor	r3, r3, r2
  10238c:	e2033007 	and	r3, r3, #7
  102390:	e3530000 	cmp	r3, #0
  102394:	0a000001 	beq	1023a0 <alt_dma_memory_to_memory_segment+0x160>
  102398:	e3a03001 	mov	r3, #1
  10239c:	ea000000 	b	1023a4 <alt_dma_memory_to_memory_segment+0x164>
  1023a0:	e3a03000 	mov	r3, #0
  1023a4:	e54b3019 	strb	r3, [fp, #-25]	; 0xffffffe7
  1023a8:	e55b3019 	ldrb	r3, [fp, #-25]	; 0xffffffe7
  1023ac:	e2033001 	and	r3, r3, #1
  1023b0:	e54b3019 	strb	r3, [fp, #-25]	; 0xffffffe7
  1023b4:	e51b300c 	ldr	r3, [fp, #-12]
  1023b8:	e2033007 	and	r3, r3, #7
  1023bc:	e50b300c 	str	r3, [fp, #-12]
  1023c0:	e51b3010 	ldr	r3, [fp, #-16]
  1023c4:	e1a03223 	lsr	r3, r3, #4
  1023c8:	e3530000 	cmp	r3, #0
  1023cc:	0a000041 	beq	1024d8 <alt_dma_memory_to_memory_segment+0x298>
  1023d0:	e51b3010 	ldr	r3, [fp, #-16]
  1023d4:	e1a03223 	lsr	r3, r3, #4
  1023d8:	e50b3014 	str	r3, [fp, #-20]	; 0xffffffec
  1023dc:	e51b3010 	ldr	r3, [fp, #-16]
  1023e0:	e203300f 	and	r3, r3, #15
  1023e4:	e50b3010 	str	r3, [fp, #-16]
  1023e8:	e51b3008 	ldr	r3, [fp, #-8]
  1023ec:	e3530000 	cmp	r3, #0
  1023f0:	1a000005 	bne	10240c <alt_dma_memory_to_memory_segment+0x1cc>
  1023f4:	e51b0028 	ldr	r0, [fp, #-40]	; 0xffffffd8
  1023f8:	e3a01001 	mov	r1, #1
  1023fc:	e30c20f7 	movw	r2, #49399	; 0xc0f7
  102400:	e340203d 	movt	r2, #61	; 0x3d
  102404:	eb0018bb 	bl	1086f8 <alt_dma_program_DMAMOV>
  102408:	e50b0008 	str	r0, [fp, #-8]
  10240c:	ea00002e 	b	1024cc <alt_dma_memory_to_memory_segment+0x28c>
  102410:	e51b3008 	ldr	r3, [fp, #-8]
  102414:	e3530000 	cmp	r3, #0
  102418:	0a000000 	beq	102420 <alt_dma_memory_to_memory_segment+0x1e0>
  10241c:	ea00002d 	b	1024d8 <alt_dma_memory_to_memory_segment+0x298>
  102420:	e51b3014 	ldr	r3, [fp, #-20]	; 0xffffffec
  102424:	e3530c01 	cmp	r3, #256	; 0x100
  102428:	31a03003 	movcc	r3, r3
  10242c:	23a03c01 	movcs	r3, #256	; 0x100
  102430:	e50b3020 	str	r3, [fp, #-32]	; 0xffffffe0
  102434:	e51b2014 	ldr	r2, [fp, #-20]	; 0xffffffec
  102438:	e51b3020 	ldr	r3, [fp, #-32]	; 0xffffffe0
  10243c:	e0633002 	rsb	r3, r3, r2
  102440:	e50b3014 	str	r3, [fp, #-20]	; 0xffffffec
  102444:	e51b3008 	ldr	r3, [fp, #-8]
  102448:	e3530000 	cmp	r3, #0
  10244c:	1a000006 	bne	10246c <alt_dma_memory_to_memory_segment+0x22c>
  102450:	e51b3020 	ldr	r3, [fp, #-32]	; 0xffffffe0
  102454:	e3530001 	cmp	r3, #1
  102458:	9a000003 	bls	10246c <alt_dma_memory_to_memory_segment+0x22c>
  10245c:	e51b0028 	ldr	r0, [fp, #-40]	; 0xffffffd8
  102460:	e51b1020 	ldr	r1, [fp, #-32]	; 0xffffffe0
  102464:	eb001774 	bl	10823c <alt_dma_program_DMALP>
  102468:	e50b0008 	str	r0, [fp, #-8]
  10246c:	e51b3008 	ldr	r3, [fp, #-8]
  102470:	e3530000 	cmp	r3, #0
  102474:	1a000003 	bne	102488 <alt_dma_memory_to_memory_segment+0x248>
  102478:	e51b0028 	ldr	r0, [fp, #-40]	; 0xffffffd8
  10247c:	e3a01000 	mov	r1, #0
  102480:	eb0016ee 	bl	108040 <alt_dma_program_DMALD>
  102484:	e50b0008 	str	r0, [fp, #-8]
  102488:	e51b3008 	ldr	r3, [fp, #-8]
  10248c:	e3530000 	cmp	r3, #0
  102490:	1a000003 	bne	1024a4 <alt_dma_memory_to_memory_segment+0x264>
  102494:	e51b0028 	ldr	r0, [fp, #-40]	; 0xffffffd8
  102498:	e3a01000 	mov	r1, #0
  10249c:	eb001984 	bl	108ab4 <alt_dma_program_DMAST>
  1024a0:	e50b0008 	str	r0, [fp, #-8]
  1024a4:	e51b3008 	ldr	r3, [fp, #-8]
  1024a8:	e3530000 	cmp	r3, #0
  1024ac:	1a000006 	bne	1024cc <alt_dma_memory_to_memory_segment+0x28c>
  1024b0:	e51b3020 	ldr	r3, [fp, #-32]	; 0xffffffe0
  1024b4:	e3530001 	cmp	r3, #1
  1024b8:	9a000003 	bls	1024cc <alt_dma_memory_to_memory_segment+0x28c>
  1024bc:	e51b0028 	ldr	r0, [fp, #-40]	; 0xffffffd8
  1024c0:	e3a01000 	mov	r1, #0
  1024c4:	eb0017bc 	bl	1083bc <alt_dma_program_DMALPEND>
  1024c8:	e50b0008 	str	r0, [fp, #-8]
  1024cc:	e51b3014 	ldr	r3, [fp, #-20]	; 0xffffffec
  1024d0:	e3530000 	cmp	r3, #0
  1024d4:	1affffcd 	bne	102410 <alt_dma_memory_to_memory_segment+0x1d0>
  1024d8:	e51b3010 	ldr	r3, [fp, #-16]
  1024dc:	e3530000 	cmp	r3, #0
  1024e0:	0a00001e 	beq	102560 <alt_dma_memory_to_memory_segment+0x320>
  1024e4:	e51b3008 	ldr	r3, [fp, #-8]
  1024e8:	e3530000 	cmp	r3, #0
  1024ec:	1a00000d 	bne	102528 <alt_dma_memory_to_memory_segment+0x2e8>
  1024f0:	e51b3010 	ldr	r3, [fp, #-16]
  1024f4:	e2433001 	sub	r3, r3, #1
  1024f8:	e1a02203 	lsl	r2, r3, #4
  1024fc:	e51b3010 	ldr	r3, [fp, #-16]
  102500:	e2433001 	sub	r3, r3, #1
  102504:	e1a03903 	lsl	r3, r3, #18
  102508:	e1823003 	orr	r3, r2, r3
  10250c:	e3833907 	orr	r3, r3, #114688	; 0x1c000
  102510:	e3833007 	orr	r3, r3, #7
  102514:	e51b0028 	ldr	r0, [fp, #-40]	; 0xffffffd8
  102518:	e3a01001 	mov	r1, #1
  10251c:	e1a02003 	mov	r2, r3
  102520:	eb001874 	bl	1086f8 <alt_dma_program_DMAMOV>
  102524:	e50b0008 	str	r0, [fp, #-8]
  102528:	e51b3008 	ldr	r3, [fp, #-8]
  10252c:	e3530000 	cmp	r3, #0
  102530:	1a000003 	bne	102544 <alt_dma_memory_to_memory_segment+0x304>
  102534:	e51b0028 	ldr	r0, [fp, #-40]	; 0xffffffd8
  102538:	e3a01000 	mov	r1, #0
  10253c:	eb0016bf 	bl	108040 <alt_dma_program_DMALD>
  102540:	e50b0008 	str	r0, [fp, #-8]
  102544:	e51b3008 	ldr	r3, [fp, #-8]
  102548:	e3530000 	cmp	r3, #0
  10254c:	1a000003 	bne	102560 <alt_dma_memory_to_memory_segment+0x320>
  102550:	e51b0028 	ldr	r0, [fp, #-40]	; 0xffffffd8
  102554:	e3a01000 	mov	r1, #0
  102558:	eb001955 	bl	108ab4 <alt_dma_program_DMAST>
  10255c:	e50b0008 	str	r0, [fp, #-8]
  102560:	e55b3019 	ldrb	r3, [fp, #-25]	; 0xffffffe7
  102564:	e3530000 	cmp	r3, #0
  102568:	0a00001c 	beq	1025e0 <alt_dma_memory_to_memory_segment+0x3a0>
  10256c:	e51b3008 	ldr	r3, [fp, #-8]
  102570:	e3530000 	cmp	r3, #0
  102574:	1a000012 	bne	1025c4 <alt_dma_memory_to_memory_segment+0x384>
  102578:	e51b202c 	ldr	r2, [fp, #-44]	; 0xffffffd4
  10257c:	e51b3030 	ldr	r3, [fp, #-48]	; 0xffffffd0
  102580:	e0633002 	rsb	r3, r3, r2
  102584:	e2033007 	and	r3, r3, #7
  102588:	e50b3024 	str	r3, [fp, #-36]	; 0xffffffdc
  10258c:	e51b3024 	ldr	r3, [fp, #-36]	; 0xffffffdc
  102590:	e2433001 	sub	r3, r3, #1
  102594:	e1a03203 	lsl	r3, r3, #4
  102598:	e3832001 	orr	r2, r3, #1
  10259c:	e51b3024 	ldr	r3, [fp, #-36]	; 0xffffffdc
  1025a0:	e2433001 	sub	r3, r3, #1
  1025a4:	e1a03903 	lsl	r3, r3, #18
  1025a8:	e1823003 	orr	r3, r2, r3
  1025ac:	e3833901 	orr	r3, r3, #16384	; 0x4000
  1025b0:	e51b0028 	ldr	r0, [fp, #-40]	; 0xffffffd8
  1025b4:	e3a01001 	mov	r1, #1
  1025b8:	e1a02003 	mov	r2, r3
  1025bc:	eb00184d 	bl	1086f8 <alt_dma_program_DMAMOV>
  1025c0:	e50b0008 	str	r0, [fp, #-8]
  1025c4:	e51b3008 	ldr	r3, [fp, #-8]
  1025c8:	e3530000 	cmp	r3, #0
  1025cc:	1a000003 	bne	1025e0 <alt_dma_memory_to_memory_segment+0x3a0>
  1025d0:	e51b0028 	ldr	r0, [fp, #-40]	; 0xffffffd8
  1025d4:	e3a01000 	mov	r1, #0
  1025d8:	eb001935 	bl	108ab4 <alt_dma_program_DMAST>
  1025dc:	e50b0008 	str	r0, [fp, #-8]
  1025e0:	e51b300c 	ldr	r3, [fp, #-12]
  1025e4:	e3530000 	cmp	r3, #0
  1025e8:	0a00001e 	beq	102668 <alt_dma_memory_to_memory_segment+0x428>
  1025ec:	e51b3008 	ldr	r3, [fp, #-8]
  1025f0:	e3530000 	cmp	r3, #0
  1025f4:	1a00000d 	bne	102630 <alt_dma_memory_to_memory_segment+0x3f0>
  1025f8:	e51b300c 	ldr	r3, [fp, #-12]
  1025fc:	e2433001 	sub	r3, r3, #1
  102600:	e1a02203 	lsl	r2, r3, #4
  102604:	e51b300c 	ldr	r3, [fp, #-12]
  102608:	e2433001 	sub	r3, r3, #1
  10260c:	e1a03903 	lsl	r3, r3, #18
  102610:	e1823003 	orr	r3, r2, r3
  102614:	e3833901 	orr	r3, r3, #16384	; 0x4000
  102618:	e3833001 	orr	r3, r3, #1
  10261c:	e51b0028 	ldr	r0, [fp, #-40]	; 0xffffffd8
  102620:	e3a01001 	mov	r1, #1
  102624:	e1a02003 	mov	r2, r3
  102628:	eb001832 	bl	1086f8 <alt_dma_program_DMAMOV>
  10262c:	e50b0008 	str	r0, [fp, #-8]
  102630:	e51b3008 	ldr	r3, [fp, #-8]
  102634:	e3530000 	cmp	r3, #0
  102638:	1a000003 	bne	10264c <alt_dma_memory_to_memory_segment+0x40c>
  10263c:	e51b0028 	ldr	r0, [fp, #-40]	; 0xffffffd8
  102640:	e3a01000 	mov	r1, #0
  102644:	eb00167d 	bl	108040 <alt_dma_program_DMALD>
  102648:	e50b0008 	str	r0, [fp, #-8]
  10264c:	e51b3008 	ldr	r3, [fp, #-8]
  102650:	e3530000 	cmp	r3, #0
  102654:	1a000003 	bne	102668 <alt_dma_memory_to_memory_segment+0x428>
  102658:	e51b0028 	ldr	r0, [fp, #-40]	; 0xffffffd8
  10265c:	e3a01000 	mov	r1, #0
  102660:	eb001913 	bl	108ab4 <alt_dma_program_DMAST>
  102664:	e50b0008 	str	r0, [fp, #-8]
  102668:	e51b3008 	ldr	r3, [fp, #-8]
  10266c:	e1a00003 	mov	r0, r3
  102670:	e24bd004 	sub	sp, fp, #4
  102674:	e8bd8800 	pop	{fp, pc}

00102678 <alt_dma_memory_to_memory>:
  102678:	e92d4800 	push	{fp, lr}
  10267c:	e28db004 	add	fp, sp, #4
  102680:	e24dd048 	sub	sp, sp, #72	; 0x48
  102684:	e50b1044 	str	r1, [fp, #-68]	; 0xffffffbc
  102688:	e50b2048 	str	r2, [fp, #-72]	; 0xffffffb8
  10268c:	e50b304c 	str	r3, [fp, #-76]	; 0xffffffb4
  102690:	e1a03000 	mov	r3, r0
  102694:	e54b303d 	strb	r3, [fp, #-61]	; 0xffffffc3
  102698:	e59b3004 	ldr	r3, [fp, #4]
  10269c:	e3530000 	cmp	r3, #0
  1026a0:	1a000006 	bne	1026c0 <alt_dma_memory_to_memory+0x48>
  1026a4:	e5db3008 	ldrb	r3, [fp, #8]
  1026a8:	e2233001 	eor	r3, r3, #1
  1026ac:	e6ef3073 	uxtb	r3, r3
  1026b0:	e3530000 	cmp	r3, #0
  1026b4:	0a000001 	beq	1026c0 <alt_dma_memory_to_memory+0x48>
  1026b8:	e3a03000 	mov	r3, #0
  1026bc:	ea0000be 	b	1029bc <alt_dma_memory_to_memory+0x344>
  1026c0:	e3a03000 	mov	r3, #0
  1026c4:	e50b3008 	str	r3, [fp, #-8]
  1026c8:	e51b3008 	ldr	r3, [fp, #-8]
  1026cc:	e3530000 	cmp	r3, #0
  1026d0:	1a000002 	bne	1026e0 <alt_dma_memory_to_memory+0x68>
  1026d4:	e51b0044 	ldr	r0, [fp, #-68]	; 0xffffffbc
  1026d8:	eb001400 	bl	1076e0 <alt_dma_program_init>
  1026dc:	e50b0008 	str	r0, [fp, #-8]
  1026e0:	e59b3004 	ldr	r3, [fp, #4]
  1026e4:	e3530000 	cmp	r3, #0
  1026e8:	0a000090 	beq	102930 <alt_dma_memory_to_memory+0x2b8>
  1026ec:	e51b2048 	ldr	r2, [fp, #-72]	; 0xffffffb8
  1026f0:	e51b304c 	ldr	r3, [fp, #-76]	; 0xffffffb4
  1026f4:	e1520003 	cmp	r2, r3
  1026f8:	9a000008 	bls	102720 <alt_dma_memory_to_memory+0xa8>
  1026fc:	e51b204c 	ldr	r2, [fp, #-76]	; 0xffffffb4
  102700:	e59b3004 	ldr	r3, [fp, #4]
  102704:	e0823003 	add	r3, r2, r3
  102708:	e2432001 	sub	r2, r3, #1
  10270c:	e51b3048 	ldr	r3, [fp, #-72]	; 0xffffffb8
  102710:	e1520003 	cmp	r2, r3
  102714:	9a00000a 	bls	102744 <alt_dma_memory_to_memory+0xcc>
  102718:	e3e03008 	mvn	r3, #8
  10271c:	ea0000a6 	b	1029bc <alt_dma_memory_to_memory+0x344>
  102720:	e51b2048 	ldr	r2, [fp, #-72]	; 0xffffffb8
  102724:	e59b3004 	ldr	r3, [fp, #4]
  102728:	e0823003 	add	r3, r2, r3
  10272c:	e2432001 	sub	r2, r3, #1
  102730:	e51b304c 	ldr	r3, [fp, #-76]	; 0xffffffb4
  102734:	e1520003 	cmp	r2, r3
  102738:	9a000001 	bls	102744 <alt_dma_memory_to_memory+0xcc>
  10273c:	e3e03008 	mvn	r3, #8
  102740:	ea00009d 	b	1029bc <alt_dma_memory_to_memory+0x344>
  102744:	e51b3008 	ldr	r3, [fp, #-8]
  102748:	e3530000 	cmp	r3, #0
  10274c:	1a000005 	bne	102768 <alt_dma_memory_to_memory+0xf0>
  102750:	e24b301c 	sub	r3, fp, #28
  102754:	e1a00003 	mov	r0, r3
  102758:	e51b1048 	ldr	r1, [fp, #-72]	; 0xffffffb8
  10275c:	e59b2004 	ldr	r2, [fp, #4]
  102760:	ebfffe16 	bl	101fc0 <alt_mmu_va_to_pa_coalesce_begin>
  102764:	e50b0008 	str	r0, [fp, #-8]
  102768:	e51b3008 	ldr	r3, [fp, #-8]
  10276c:	e3530000 	cmp	r3, #0
  102770:	1a000005 	bne	10278c <alt_dma_memory_to_memory+0x114>
  102774:	e24b302c 	sub	r3, fp, #44	; 0x2c
  102778:	e1a00003 	mov	r0, r3
  10277c:	e51b104c 	ldr	r1, [fp, #-76]	; 0xffffffb4
  102780:	e59b2004 	ldr	r2, [fp, #4]
  102784:	ebfffe0d 	bl	101fc0 <alt_mmu_va_to_pa_coalesce_begin>
  102788:	e50b0008 	str	r0, [fp, #-8]
  10278c:	e3a03000 	mov	r3, #0
  102790:	e50b3030 	str	r3, [fp, #-48]	; 0xffffffd0
  102794:	e3a03000 	mov	r3, #0
  102798:	e50b3034 	str	r3, [fp, #-52]	; 0xffffffcc
  10279c:	e3a03000 	mov	r3, #0
  1027a0:	e50b3038 	str	r3, [fp, #-56]	; 0xffffffc8
  1027a4:	e3a03000 	mov	r3, #0
  1027a8:	e50b303c 	str	r3, [fp, #-60]	; 0xffffffc4
  1027ac:	ea00004e 	b	1028ec <alt_dma_memory_to_memory+0x274>
  1027b0:	e51b3008 	ldr	r3, [fp, #-8]
  1027b4:	e3530000 	cmp	r3, #0
  1027b8:	0a000000 	beq	1027c0 <alt_dma_memory_to_memory+0x148>
  1027bc:	ea00004d 	b	1028f8 <alt_dma_memory_to_memory+0x280>
  1027c0:	e51b3008 	ldr	r3, [fp, #-8]
  1027c4:	e3530000 	cmp	r3, #0
  1027c8:	1a00000a 	bne	1027f8 <alt_dma_memory_to_memory+0x180>
  1027cc:	e51b3038 	ldr	r3, [fp, #-56]	; 0xffffffc8
  1027d0:	e3530000 	cmp	r3, #0
  1027d4:	1a000007 	bne	1027f8 <alt_dma_memory_to_memory+0x180>
  1027d8:	e24b101c 	sub	r1, fp, #28
  1027dc:	e24b2030 	sub	r2, fp, #48	; 0x30
  1027e0:	e24b3038 	sub	r3, fp, #56	; 0x38
  1027e4:	e1a00001 	mov	r0, r1
  1027e8:	e1a01002 	mov	r1, r2
  1027ec:	e1a02003 	mov	r2, r3
  1027f0:	ebfffe22 	bl	102080 <alt_mmu_va_to_pa_coalesce_next>
  1027f4:	e50b0008 	str	r0, [fp, #-8]
  1027f8:	e51b3008 	ldr	r3, [fp, #-8]
  1027fc:	e3530000 	cmp	r3, #0
  102800:	1a00000a 	bne	102830 <alt_dma_memory_to_memory+0x1b8>
  102804:	e51b303c 	ldr	r3, [fp, #-60]	; 0xffffffc4
  102808:	e3530000 	cmp	r3, #0
  10280c:	1a000007 	bne	102830 <alt_dma_memory_to_memory+0x1b8>
  102810:	e24b102c 	sub	r1, fp, #44	; 0x2c
  102814:	e24b2034 	sub	r2, fp, #52	; 0x34
  102818:	e24b303c 	sub	r3, fp, #60	; 0x3c
  10281c:	e1a00001 	mov	r0, r1
  102820:	e1a01002 	mov	r1, r2
  102824:	e1a02003 	mov	r2, r3
  102828:	ebfffe14 	bl	102080 <alt_mmu_va_to_pa_coalesce_next>
  10282c:	e50b0008 	str	r0, [fp, #-8]
  102830:	e51b2038 	ldr	r2, [fp, #-56]	; 0xffffffc8
  102834:	e51b303c 	ldr	r3, [fp, #-60]	; 0xffffffc4
  102838:	e1520003 	cmp	r2, r3
  10283c:	31a03002 	movcc	r3, r2
  102840:	21a03003 	movcs	r3, r3
  102844:	e50b300c 	str	r3, [fp, #-12]
  102848:	e51b3008 	ldr	r3, [fp, #-8]
  10284c:	e3530000 	cmp	r3, #0
  102850:	1a000007 	bne	102874 <alt_dma_memory_to_memory+0x1fc>
  102854:	e51b2030 	ldr	r2, [fp, #-48]	; 0xffffffd0
  102858:	e51b3034 	ldr	r3, [fp, #-52]	; 0xffffffcc
  10285c:	e51b0044 	ldr	r0, [fp, #-68]	; 0xffffffbc
  102860:	e1a01002 	mov	r1, r2
  102864:	e1a02003 	mov	r2, r3
  102868:	e51b300c 	ldr	r3, [fp, #-12]
  10286c:	ebfffe73 	bl	102240 <alt_dma_memory_to_memory_segment>
  102870:	e50b0008 	str	r0, [fp, #-8]
  102874:	e51b2038 	ldr	r2, [fp, #-56]	; 0xffffffc8
  102878:	e51b300c 	ldr	r3, [fp, #-12]
  10287c:	e0633002 	rsb	r3, r3, r2
  102880:	e50b3038 	str	r3, [fp, #-56]	; 0xffffffc8
  102884:	e51b203c 	ldr	r2, [fp, #-60]	; 0xffffffc4
  102888:	e51b300c 	ldr	r3, [fp, #-12]
  10288c:	e0633002 	rsb	r3, r3, r2
  102890:	e50b303c 	str	r3, [fp, #-60]	; 0xffffffc4
  102894:	e51b3038 	ldr	r3, [fp, #-56]	; 0xffffffc8
  102898:	e3530000 	cmp	r3, #0
  10289c:	0a000003 	beq	1028b0 <alt_dma_memory_to_memory+0x238>
  1028a0:	e51b2030 	ldr	r2, [fp, #-48]	; 0xffffffd0
  1028a4:	e51b300c 	ldr	r3, [fp, #-12]
  1028a8:	e0823003 	add	r3, r2, r3
  1028ac:	e50b3030 	str	r3, [fp, #-48]	; 0xffffffd0
  1028b0:	e51b303c 	ldr	r3, [fp, #-60]	; 0xffffffc4
  1028b4:	e3530000 	cmp	r3, #0
  1028b8:	0a000003 	beq	1028cc <alt_dma_memory_to_memory+0x254>
  1028bc:	e51b2034 	ldr	r2, [fp, #-52]	; 0xffffffcc
  1028c0:	e51b300c 	ldr	r3, [fp, #-12]
  1028c4:	e0823003 	add	r3, r2, r3
  1028c8:	e50b3034 	str	r3, [fp, #-52]	; 0xffffffcc
  1028cc:	e51b200c 	ldr	r2, [fp, #-12]
  1028d0:	e59b3004 	ldr	r3, [fp, #4]
  1028d4:	e1520003 	cmp	r2, r3
  1028d8:	31a03002 	movcc	r3, r2
  1028dc:	21a03003 	movcs	r3, r3
  1028e0:	e59b2004 	ldr	r2, [fp, #4]
  1028e4:	e0633002 	rsb	r3, r3, r2
  1028e8:	e58b3004 	str	r3, [fp, #4]
  1028ec:	e59b3004 	ldr	r3, [fp, #4]
  1028f0:	e3530000 	cmp	r3, #0
  1028f4:	1affffad 	bne	1027b0 <alt_dma_memory_to_memory+0x138>
  1028f8:	e51b3008 	ldr	r3, [fp, #-8]
  1028fc:	e3530000 	cmp	r3, #0
  102900:	1a000003 	bne	102914 <alt_dma_memory_to_memory+0x29c>
  102904:	e24b301c 	sub	r3, fp, #28
  102908:	e1a00003 	mov	r0, r3
  10290c:	ebfffe3c 	bl	102204 <alt_mmu_va_to_pa_coalesce_end>
  102910:	e50b0008 	str	r0, [fp, #-8]
  102914:	e51b3008 	ldr	r3, [fp, #-8]
  102918:	e3530000 	cmp	r3, #0
  10291c:	1a000003 	bne	102930 <alt_dma_memory_to_memory+0x2b8>
  102920:	e24b302c 	sub	r3, fp, #44	; 0x2c
  102924:	e1a00003 	mov	r0, r3
  102928:	ebfffe35 	bl	102204 <alt_mmu_va_to_pa_coalesce_end>
  10292c:	e50b0008 	str	r0, [fp, #-8]
  102930:	e5db3008 	ldrb	r3, [fp, #8]
  102934:	e3530000 	cmp	r3, #0
  102938:	0a00000d 	beq	102974 <alt_dma_memory_to_memory+0x2fc>
  10293c:	e51b3008 	ldr	r3, [fp, #-8]
  102940:	e3530000 	cmp	r3, #0
  102944:	1a000002 	bne	102954 <alt_dma_memory_to_memory+0x2dc>
  102948:	e51b0044 	ldr	r0, [fp, #-68]	; 0xffffffbc
  10294c:	eb001981 	bl	108f58 <alt_dma_program_DMAWMB>
  102950:	e50b0008 	str	r0, [fp, #-8]
  102954:	e51b3008 	ldr	r3, [fp, #-8]
  102958:	e3530000 	cmp	r3, #0
  10295c:	1a000004 	bne	102974 <alt_dma_memory_to_memory+0x2fc>
  102960:	e5db300c 	ldrb	r3, [fp, #12]
  102964:	e51b0044 	ldr	r0, [fp, #-68]	; 0xffffffbc
  102968:	e1a01003 	mov	r1, r3
  10296c:	eb00181e 	bl	1089ec <alt_dma_program_DMASEV>
  102970:	e50b0008 	str	r0, [fp, #-8]
  102974:	e51b3008 	ldr	r3, [fp, #-8]
  102978:	e3530000 	cmp	r3, #0
  10297c:	1a000002 	bne	10298c <alt_dma_memory_to_memory+0x314>
  102980:	e51b0044 	ldr	r0, [fp, #-68]	; 0xffffffbc
  102984:	eb0014d1 	bl	107cd0 <alt_dma_program_DMAEND>
  102988:	e50b0008 	str	r0, [fp, #-8]
  10298c:	e51b3008 	ldr	r3, [fp, #-8]
  102990:	e3530000 	cmp	r3, #0
  102994:	0a000003 	beq	1029a8 <alt_dma_memory_to_memory+0x330>
  102998:	e51b0044 	ldr	r0, [fp, #-68]	; 0xffffffbc
  10299c:	eb001374 	bl	107774 <alt_dma_program_clear>
  1029a0:	e51b3008 	ldr	r3, [fp, #-8]
  1029a4:	ea000004 	b	1029bc <alt_dma_memory_to_memory+0x344>
  1029a8:	e55b303d 	ldrb	r3, [fp, #-61]	; 0xffffffc3
  1029ac:	e1a00003 	mov	r0, r3
  1029b0:	e51b1044 	ldr	r1, [fp, #-68]	; 0xffffffbc
  1029b4:	ebfffb8f 	bl	1017f8 <alt_dma_channel_exec>
  1029b8:	e1a03000 	mov	r3, r0
  1029bc:	e1a00003 	mov	r0, r3
  1029c0:	e24bd004 	sub	sp, fp, #4
  1029c4:	e8bd8800 	pop	{fp, pc}

001029c8 <alt_dma_zero_to_memory_segment>:
  1029c8:	e92d4800 	push	{fp, lr}
  1029cc:	e28db004 	add	fp, sp, #4
  1029d0:	e24dd028 	sub	sp, sp, #40	; 0x28
  1029d4:	e50b0020 	str	r0, [fp, #-32]	; 0xffffffe0
  1029d8:	e50b1024 	str	r1, [fp, #-36]	; 0xffffffdc
  1029dc:	e50b2028 	str	r2, [fp, #-40]	; 0xffffffd8
  1029e0:	e3a03000 	mov	r3, #0
  1029e4:	e50b3008 	str	r3, [fp, #-8]
  1029e8:	e51b3008 	ldr	r3, [fp, #-8]
  1029ec:	e3530000 	cmp	r3, #0
  1029f0:	1a000004 	bne	102a08 <alt_dma_zero_to_memory_segment+0x40>
  1029f4:	e51b0020 	ldr	r0, [fp, #-32]	; 0xffffffe0
  1029f8:	e3a01002 	mov	r1, #2
  1029fc:	e51b2024 	ldr	r2, [fp, #-36]	; 0xffffffdc
  102a00:	eb00173c 	bl	1086f8 <alt_dma_program_DMAMOV>
  102a04:	e50b0008 	str	r0, [fp, #-8]
  102a08:	e51b3028 	ldr	r3, [fp, #-40]	; 0xffffffd8
  102a0c:	e50b300c 	str	r3, [fp, #-12]
  102a10:	e51b3024 	ldr	r3, [fp, #-36]	; 0xffffffdc
  102a14:	e2033007 	and	r3, r3, #7
  102a18:	e3530000 	cmp	r3, #0
  102a1c:	0a00001e 	beq	102a9c <alt_dma_zero_to_memory_segment+0xd4>
  102a20:	e51b3024 	ldr	r3, [fp, #-36]	; 0xffffffdc
  102a24:	e2033007 	and	r3, r3, #7
  102a28:	e2632008 	rsb	r2, r3, #8
  102a2c:	e51b300c 	ldr	r3, [fp, #-12]
  102a30:	e1520003 	cmp	r2, r3
  102a34:	31a03002 	movcc	r3, r2
  102a38:	21a03003 	movcs	r3, r3
  102a3c:	e50b3018 	str	r3, [fp, #-24]	; 0xffffffe8
  102a40:	e51b200c 	ldr	r2, [fp, #-12]
  102a44:	e51b3018 	ldr	r3, [fp, #-24]	; 0xffffffe8
  102a48:	e0633002 	rsb	r3, r3, r2
  102a4c:	e50b300c 	str	r3, [fp, #-12]
  102a50:	e51b3008 	ldr	r3, [fp, #-8]
  102a54:	e3530000 	cmp	r3, #0
  102a58:	1a000009 	bne	102a84 <alt_dma_zero_to_memory_segment+0xbc>
  102a5c:	e51b3018 	ldr	r3, [fp, #-24]	; 0xffffffe8
  102a60:	e2433001 	sub	r3, r3, #1
  102a64:	e1a03903 	lsl	r3, r3, #18
  102a68:	e3833901 	orr	r3, r3, #16384	; 0x4000
  102a6c:	e3833001 	orr	r3, r3, #1
  102a70:	e51b0020 	ldr	r0, [fp, #-32]	; 0xffffffe0
  102a74:	e3a01001 	mov	r1, #1
  102a78:	e1a02003 	mov	r2, r3
  102a7c:	eb00171d 	bl	1086f8 <alt_dma_program_DMAMOV>
  102a80:	e50b0008 	str	r0, [fp, #-8]
  102a84:	e51b3008 	ldr	r3, [fp, #-8]
  102a88:	e3530000 	cmp	r3, #0
  102a8c:	1a000002 	bne	102a9c <alt_dma_zero_to_memory_segment+0xd4>
  102a90:	e51b0020 	ldr	r0, [fp, #-32]	; 0xffffffe0
  102a94:	eb001885 	bl	108cb0 <alt_dma_program_DMASTZ>
  102a98:	e50b0008 	str	r0, [fp, #-8]
  102a9c:	e51b300c 	ldr	r3, [fp, #-12]
  102aa0:	e1a031a3 	lsr	r3, r3, #3
  102aa4:	e50b3010 	str	r3, [fp, #-16]
  102aa8:	e51b300c 	ldr	r3, [fp, #-12]
  102aac:	e2033007 	and	r3, r3, #7
  102ab0:	e50b300c 	str	r3, [fp, #-12]
  102ab4:	e51b3010 	ldr	r3, [fp, #-16]
  102ab8:	e1a03223 	lsr	r3, r3, #4
  102abc:	e3530000 	cmp	r3, #0
  102ac0:	0a000039 	beq	102bac <alt_dma_zero_to_memory_segment+0x1e4>
  102ac4:	e51b3010 	ldr	r3, [fp, #-16]
  102ac8:	e1a03223 	lsr	r3, r3, #4
  102acc:	e50b3014 	str	r3, [fp, #-20]	; 0xffffffec
  102ad0:	e51b3010 	ldr	r3, [fp, #-16]
  102ad4:	e203300f 	and	r3, r3, #15
  102ad8:	e50b3010 	str	r3, [fp, #-16]
  102adc:	e51b3008 	ldr	r3, [fp, #-8]
  102ae0:	e3530000 	cmp	r3, #0
  102ae4:	1a000005 	bne	102b00 <alt_dma_zero_to_memory_segment+0x138>
  102ae8:	e51b0020 	ldr	r0, [fp, #-32]	; 0xffffffe0
  102aec:	e3a01001 	mov	r1, #1
  102af0:	e30c2001 	movw	r2, #49153	; 0xc001
  102af4:	e340203d 	movt	r2, #61	; 0x3d
  102af8:	eb0016fe 	bl	1086f8 <alt_dma_program_DMAMOV>
  102afc:	e50b0008 	str	r0, [fp, #-8]
  102b00:	ea000026 	b	102ba0 <alt_dma_zero_to_memory_segment+0x1d8>
  102b04:	e51b3008 	ldr	r3, [fp, #-8]
  102b08:	e3530000 	cmp	r3, #0
  102b0c:	0a000000 	beq	102b14 <alt_dma_zero_to_memory_segment+0x14c>
  102b10:	ea000025 	b	102bac <alt_dma_zero_to_memory_segment+0x1e4>
  102b14:	e51b3014 	ldr	r3, [fp, #-20]	; 0xffffffec
  102b18:	e3530c01 	cmp	r3, #256	; 0x100
  102b1c:	31a03003 	movcc	r3, r3
  102b20:	23a03c01 	movcs	r3, #256	; 0x100
  102b24:	e50b301c 	str	r3, [fp, #-28]	; 0xffffffe4
  102b28:	e51b2014 	ldr	r2, [fp, #-20]	; 0xffffffec
  102b2c:	e51b301c 	ldr	r3, [fp, #-28]	; 0xffffffe4
  102b30:	e0633002 	rsb	r3, r3, r2
  102b34:	e50b3014 	str	r3, [fp, #-20]	; 0xffffffec
  102b38:	e51b3008 	ldr	r3, [fp, #-8]
  102b3c:	e3530000 	cmp	r3, #0
  102b40:	1a000006 	bne	102b60 <alt_dma_zero_to_memory_segment+0x198>
  102b44:	e51b301c 	ldr	r3, [fp, #-28]	; 0xffffffe4
  102b48:	e3530001 	cmp	r3, #1
  102b4c:	9a000003 	bls	102b60 <alt_dma_zero_to_memory_segment+0x198>
  102b50:	e51b0020 	ldr	r0, [fp, #-32]	; 0xffffffe0
  102b54:	e51b101c 	ldr	r1, [fp, #-28]	; 0xffffffe4
  102b58:	eb0015b7 	bl	10823c <alt_dma_program_DMALP>
  102b5c:	e50b0008 	str	r0, [fp, #-8]
  102b60:	e51b3008 	ldr	r3, [fp, #-8]
  102b64:	e3530000 	cmp	r3, #0
  102b68:	1a000002 	bne	102b78 <alt_dma_zero_to_memory_segment+0x1b0>
  102b6c:	e51b0020 	ldr	r0, [fp, #-32]	; 0xffffffe0
  102b70:	eb00184e 	bl	108cb0 <alt_dma_program_DMASTZ>
  102b74:	e50b0008 	str	r0, [fp, #-8]
  102b78:	e51b3008 	ldr	r3, [fp, #-8]
  102b7c:	e3530000 	cmp	r3, #0
  102b80:	1a000006 	bne	102ba0 <alt_dma_zero_to_memory_segment+0x1d8>
  102b84:	e51b301c 	ldr	r3, [fp, #-28]	; 0xffffffe4
  102b88:	e3530001 	cmp	r3, #1
  102b8c:	9a000003 	bls	102ba0 <alt_dma_zero_to_memory_segment+0x1d8>
  102b90:	e51b0020 	ldr	r0, [fp, #-32]	; 0xffffffe0
  102b94:	e3a01000 	mov	r1, #0
  102b98:	eb001607 	bl	1083bc <alt_dma_program_DMALPEND>
  102b9c:	e50b0008 	str	r0, [fp, #-8]
  102ba0:	e51b3014 	ldr	r3, [fp, #-20]	; 0xffffffec
  102ba4:	e3530000 	cmp	r3, #0
  102ba8:	1affffd5 	bne	102b04 <alt_dma_zero_to_memory_segment+0x13c>
  102bac:	e51b3010 	ldr	r3, [fp, #-16]
  102bb0:	e3530000 	cmp	r3, #0
  102bb4:	0a000012 	beq	102c04 <alt_dma_zero_to_memory_segment+0x23c>
  102bb8:	e51b3008 	ldr	r3, [fp, #-8]
  102bbc:	e3530000 	cmp	r3, #0
  102bc0:	1a000009 	bne	102bec <alt_dma_zero_to_memory_segment+0x224>
  102bc4:	e51b3010 	ldr	r3, [fp, #-16]
  102bc8:	e2433001 	sub	r3, r3, #1
  102bcc:	e1a03903 	lsl	r3, r3, #18
  102bd0:	e3833907 	orr	r3, r3, #114688	; 0x1c000
  102bd4:	e3833001 	orr	r3, r3, #1
  102bd8:	e51b0020 	ldr	r0, [fp, #-32]	; 0xffffffe0
  102bdc:	e3a01001 	mov	r1, #1
  102be0:	e1a02003 	mov	r2, r3
  102be4:	eb0016c3 	bl	1086f8 <alt_dma_program_DMAMOV>
  102be8:	e50b0008 	str	r0, [fp, #-8]
  102bec:	e51b3008 	ldr	r3, [fp, #-8]
  102bf0:	e3530000 	cmp	r3, #0
  102bf4:	1a000002 	bne	102c04 <alt_dma_zero_to_memory_segment+0x23c>
  102bf8:	e51b0020 	ldr	r0, [fp, #-32]	; 0xffffffe0
  102bfc:	eb00182b 	bl	108cb0 <alt_dma_program_DMASTZ>
  102c00:	e50b0008 	str	r0, [fp, #-8]
  102c04:	e51b300c 	ldr	r3, [fp, #-12]
  102c08:	e3530000 	cmp	r3, #0
  102c0c:	0a000012 	beq	102c5c <alt_dma_zero_to_memory_segment+0x294>
  102c10:	e51b3008 	ldr	r3, [fp, #-8]
  102c14:	e3530000 	cmp	r3, #0
  102c18:	1a000009 	bne	102c44 <alt_dma_zero_to_memory_segment+0x27c>
  102c1c:	e51b300c 	ldr	r3, [fp, #-12]
  102c20:	e2433001 	sub	r3, r3, #1
  102c24:	e1a03903 	lsl	r3, r3, #18
  102c28:	e3833901 	orr	r3, r3, #16384	; 0x4000
  102c2c:	e3833001 	orr	r3, r3, #1
  102c30:	e51b0020 	ldr	r0, [fp, #-32]	; 0xffffffe0
  102c34:	e3a01001 	mov	r1, #1
  102c38:	e1a02003 	mov	r2, r3
  102c3c:	eb0016ad 	bl	1086f8 <alt_dma_program_DMAMOV>
  102c40:	e50b0008 	str	r0, [fp, #-8]
  102c44:	e51b3008 	ldr	r3, [fp, #-8]
  102c48:	e3530000 	cmp	r3, #0
  102c4c:	1a000002 	bne	102c5c <alt_dma_zero_to_memory_segment+0x294>
  102c50:	e51b0020 	ldr	r0, [fp, #-32]	; 0xffffffe0
  102c54:	eb001815 	bl	108cb0 <alt_dma_program_DMASTZ>
  102c58:	e50b0008 	str	r0, [fp, #-8]
  102c5c:	e51b3008 	ldr	r3, [fp, #-8]
  102c60:	e1a00003 	mov	r0, r3
  102c64:	e24bd004 	sub	sp, fp, #4
  102c68:	e8bd8800 	pop	{fp, pc}

00102c6c <alt_dma_zero_to_memory>:
  102c6c:	e92d4800 	push	{fp, lr}
  102c70:	e28db004 	add	fp, sp, #4
  102c74:	e24dd030 	sub	sp, sp, #48	; 0x30
  102c78:	e50b102c 	str	r1, [fp, #-44]	; 0xffffffd4
  102c7c:	e50b2030 	str	r2, [fp, #-48]	; 0xffffffd0
  102c80:	e50b3034 	str	r3, [fp, #-52]	; 0xffffffcc
  102c84:	e1a03000 	mov	r3, r0
  102c88:	e54b3025 	strb	r3, [fp, #-37]	; 0xffffffdb
  102c8c:	e51b3034 	ldr	r3, [fp, #-52]	; 0xffffffcc
  102c90:	e3530000 	cmp	r3, #0
  102c94:	1a000006 	bne	102cb4 <alt_dma_zero_to_memory+0x48>
  102c98:	e5db3004 	ldrb	r3, [fp, #4]
  102c9c:	e2233001 	eor	r3, r3, #1
  102ca0:	e6ef3073 	uxtb	r3, r3
  102ca4:	e3530000 	cmp	r3, #0
  102ca8:	0a000001 	beq	102cb4 <alt_dma_zero_to_memory+0x48>
  102cac:	e3a03000 	mov	r3, #0
  102cb0:	ea00005b 	b	102e24 <alt_dma_zero_to_memory+0x1b8>
  102cb4:	e3a03000 	mov	r3, #0
  102cb8:	e50b3008 	str	r3, [fp, #-8]
  102cbc:	e51b3008 	ldr	r3, [fp, #-8]
  102cc0:	e3530000 	cmp	r3, #0
  102cc4:	1a000002 	bne	102cd4 <alt_dma_zero_to_memory+0x68>
  102cc8:	e51b002c 	ldr	r0, [fp, #-44]	; 0xffffffd4
  102ccc:	eb001283 	bl	1076e0 <alt_dma_program_init>
  102cd0:	e50b0008 	str	r0, [fp, #-8]
  102cd4:	e51b3034 	ldr	r3, [fp, #-52]	; 0xffffffcc
  102cd8:	e3530000 	cmp	r3, #0
  102cdc:	0a000033 	beq	102db0 <alt_dma_zero_to_memory+0x144>
  102ce0:	e51b3008 	ldr	r3, [fp, #-8]
  102ce4:	e3530000 	cmp	r3, #0
  102ce8:	1a000005 	bne	102d04 <alt_dma_zero_to_memory+0x98>
  102cec:	e24b3018 	sub	r3, fp, #24
  102cf0:	e1a00003 	mov	r0, r3
  102cf4:	e51b1030 	ldr	r1, [fp, #-48]	; 0xffffffd0
  102cf8:	e51b2034 	ldr	r2, [fp, #-52]	; 0xffffffcc
  102cfc:	ebfffcaf 	bl	101fc0 <alt_mmu_va_to_pa_coalesce_begin>
  102d00:	e50b0008 	str	r0, [fp, #-8]
  102d04:	ea00001f 	b	102d88 <alt_dma_zero_to_memory+0x11c>
  102d08:	e51b3008 	ldr	r3, [fp, #-8]
  102d0c:	e3530000 	cmp	r3, #0
  102d10:	1a00001f 	bne	102d94 <alt_dma_zero_to_memory+0x128>
  102d14:	e3a03000 	mov	r3, #0
  102d18:	e50b301c 	str	r3, [fp, #-28]	; 0xffffffe4
  102d1c:	e3a03000 	mov	r3, #0
  102d20:	e50b3020 	str	r3, [fp, #-32]	; 0xffffffe0
  102d24:	e51b3008 	ldr	r3, [fp, #-8]
  102d28:	e3530000 	cmp	r3, #0
  102d2c:	1a000007 	bne	102d50 <alt_dma_zero_to_memory+0xe4>
  102d30:	e24b1018 	sub	r1, fp, #24
  102d34:	e24b201c 	sub	r2, fp, #28
  102d38:	e24b3020 	sub	r3, fp, #32
  102d3c:	e1a00001 	mov	r0, r1
  102d40:	e1a01002 	mov	r1, r2
  102d44:	e1a02003 	mov	r2, r3
  102d48:	ebfffccc 	bl	102080 <alt_mmu_va_to_pa_coalesce_next>
  102d4c:	e50b0008 	str	r0, [fp, #-8]
  102d50:	e51b3020 	ldr	r3, [fp, #-32]	; 0xffffffe0
  102d54:	e51b2034 	ldr	r2, [fp, #-52]	; 0xffffffcc
  102d58:	e0633002 	rsb	r3, r3, r2
  102d5c:	e50b3034 	str	r3, [fp, #-52]	; 0xffffffcc
  102d60:	e51b3008 	ldr	r3, [fp, #-8]
  102d64:	e3530000 	cmp	r3, #0
  102d68:	1a000006 	bne	102d88 <alt_dma_zero_to_memory+0x11c>
  102d6c:	e51b201c 	ldr	r2, [fp, #-28]	; 0xffffffe4
  102d70:	e51b3020 	ldr	r3, [fp, #-32]	; 0xffffffe0
  102d74:	e51b002c 	ldr	r0, [fp, #-44]	; 0xffffffd4
  102d78:	e1a01002 	mov	r1, r2
  102d7c:	e1a02003 	mov	r2, r3
  102d80:	ebffff10 	bl	1029c8 <alt_dma_zero_to_memory_segment>
  102d84:	e50b0008 	str	r0, [fp, #-8]
  102d88:	e51b3034 	ldr	r3, [fp, #-52]	; 0xffffffcc
  102d8c:	e3530000 	cmp	r3, #0
  102d90:	1affffdc 	bne	102d08 <alt_dma_zero_to_memory+0x9c>
  102d94:	e51b3008 	ldr	r3, [fp, #-8]
  102d98:	e3530000 	cmp	r3, #0
  102d9c:	1a000003 	bne	102db0 <alt_dma_zero_to_memory+0x144>
  102da0:	e24b3018 	sub	r3, fp, #24
  102da4:	e1a00003 	mov	r0, r3
  102da8:	ebfffd15 	bl	102204 <alt_mmu_va_to_pa_coalesce_end>
  102dac:	e50b0008 	str	r0, [fp, #-8]
  102db0:	e5db3004 	ldrb	r3, [fp, #4]
  102db4:	e3530000 	cmp	r3, #0
  102db8:	0a000007 	beq	102ddc <alt_dma_zero_to_memory+0x170>
  102dbc:	e51b3008 	ldr	r3, [fp, #-8]
  102dc0:	e3530000 	cmp	r3, #0
  102dc4:	1a000004 	bne	102ddc <alt_dma_zero_to_memory+0x170>
  102dc8:	e5db3008 	ldrb	r3, [fp, #8]
  102dcc:	e51b002c 	ldr	r0, [fp, #-44]	; 0xffffffd4
  102dd0:	e1a01003 	mov	r1, r3
  102dd4:	eb001704 	bl	1089ec <alt_dma_program_DMASEV>
  102dd8:	e50b0008 	str	r0, [fp, #-8]
  102ddc:	e51b3008 	ldr	r3, [fp, #-8]
  102de0:	e3530000 	cmp	r3, #0
  102de4:	1a000002 	bne	102df4 <alt_dma_zero_to_memory+0x188>
  102de8:	e51b002c 	ldr	r0, [fp, #-44]	; 0xffffffd4
  102dec:	eb0013b7 	bl	107cd0 <alt_dma_program_DMAEND>
  102df0:	e50b0008 	str	r0, [fp, #-8]
  102df4:	e51b3008 	ldr	r3, [fp, #-8]
  102df8:	e3530000 	cmp	r3, #0
  102dfc:	0a000003 	beq	102e10 <alt_dma_zero_to_memory+0x1a4>
  102e00:	e51b002c 	ldr	r0, [fp, #-44]	; 0xffffffd4
  102e04:	eb00125a 	bl	107774 <alt_dma_program_clear>
  102e08:	e51b3008 	ldr	r3, [fp, #-8]
  102e0c:	ea000004 	b	102e24 <alt_dma_zero_to_memory+0x1b8>
  102e10:	e55b3025 	ldrb	r3, [fp, #-37]	; 0xffffffdb
  102e14:	e1a00003 	mov	r0, r3
  102e18:	e51b102c 	ldr	r1, [fp, #-44]	; 0xffffffd4
  102e1c:	ebfffa75 	bl	1017f8 <alt_dma_channel_exec>
  102e20:	e1a03000 	mov	r3, r0
  102e24:	e1a00003 	mov	r0, r3
  102e28:	e24bd004 	sub	sp, fp, #4
  102e2c:	e8bd8800 	pop	{fp, pc}

00102e30 <alt_dma_memory_to_register_segment>:
  102e30:	e92d4800 	push	{fp, lr}
  102e34:	e28db004 	add	fp, sp, #4
  102e38:	e24dd028 	sub	sp, sp, #40	; 0x28
  102e3c:	e50b1024 	str	r1, [fp, #-36]	; 0xffffffdc
  102e40:	e50b2028 	str	r2, [fp, #-40]	; 0xffffffd8
  102e44:	e50b302c 	str	r3, [fp, #-44]	; 0xffffffd4
  102e48:	e1a03000 	mov	r3, r0
  102e4c:	e54b301d 	strb	r3, [fp, #-29]	; 0xffffffe3
  102e50:	e3a03000 	mov	r3, #0
  102e54:	e50b3008 	str	r3, [fp, #-8]
  102e58:	e51b3008 	ldr	r3, [fp, #-8]
  102e5c:	e3530000 	cmp	r3, #0
  102e60:	1a000004 	bne	102e78 <alt_dma_memory_to_register_segment+0x48>
  102e64:	e51b0024 	ldr	r0, [fp, #-36]	; 0xffffffdc
  102e68:	e3a01000 	mov	r1, #0
  102e6c:	e51b202c 	ldr	r2, [fp, #-44]	; 0xffffffd4
  102e70:	eb001620 	bl	1086f8 <alt_dma_program_DMAMOV>
  102e74:	e50b0008 	str	r0, [fp, #-8]
  102e78:	e59b3004 	ldr	r3, [fp, #4]
  102e7c:	e50b300c 	str	r3, [fp, #-12]
  102e80:	e51b300c 	ldr	r3, [fp, #-12]
  102e84:	e1a03223 	lsr	r3, r3, #4
  102e88:	e3530000 	cmp	r3, #0
  102e8c:	0a000084 	beq	1030a4 <alt_dma_memory_to_register_segment+0x274>
  102e90:	e51b3008 	ldr	r3, [fp, #-8]
  102e94:	e3530000 	cmp	r3, #0
  102e98:	1a000007 	bne	102ebc <alt_dma_memory_to_register_segment+0x8c>
  102e9c:	e51b3028 	ldr	r3, [fp, #-40]	; 0xffffffd8
  102ea0:	e383370f 	orr	r3, r3, #3932160	; 0x3c0000
  102ea4:	e38330f1 	orr	r3, r3, #241	; 0xf1
  102ea8:	e51b0024 	ldr	r0, [fp, #-36]	; 0xffffffdc
  102eac:	e3a01001 	mov	r1, #1
  102eb0:	e1a02003 	mov	r2, r3
  102eb4:	eb00160f 	bl	1086f8 <alt_dma_program_DMAMOV>
  102eb8:	e50b0008 	str	r0, [fp, #-8]
  102ebc:	e51b300c 	ldr	r3, [fp, #-12]
  102ec0:	e1a03223 	lsr	r3, r3, #4
  102ec4:	e50b3010 	str	r3, [fp, #-16]
  102ec8:	e51b300c 	ldr	r3, [fp, #-12]
  102ecc:	e203300f 	and	r3, r3, #15
  102ed0:	e50b300c 	str	r3, [fp, #-12]
  102ed4:	e51b3010 	ldr	r3, [fp, #-16]
  102ed8:	e1a03423 	lsr	r3, r3, #8
  102edc:	e3530000 	cmp	r3, #0
  102ee0:	0a000046 	beq	103000 <alt_dma_memory_to_register_segment+0x1d0>
  102ee4:	e51b3010 	ldr	r3, [fp, #-16]
  102ee8:	e1a03423 	lsr	r3, r3, #8
  102eec:	e50b3014 	str	r3, [fp, #-20]	; 0xffffffec
  102ef0:	e51b3010 	ldr	r3, [fp, #-16]
  102ef4:	e6ef3073 	uxtb	r3, r3
  102ef8:	e50b3010 	str	r3, [fp, #-16]
  102efc:	ea00003c 	b	102ff4 <alt_dma_memory_to_register_segment+0x1c4>
  102f00:	e51b3008 	ldr	r3, [fp, #-8]
  102f04:	e3530000 	cmp	r3, #0
  102f08:	0a000000 	beq	102f10 <alt_dma_memory_to_register_segment+0xe0>
  102f0c:	ea00003b 	b	103000 <alt_dma_memory_to_register_segment+0x1d0>
  102f10:	e51b3014 	ldr	r3, [fp, #-20]	; 0xffffffec
  102f14:	e3530c01 	cmp	r3, #256	; 0x100
  102f18:	31a03003 	movcc	r3, r3
  102f1c:	23a03c01 	movcs	r3, #256	; 0x100
  102f20:	e50b3018 	str	r3, [fp, #-24]	; 0xffffffe8
  102f24:	e51b2014 	ldr	r2, [fp, #-20]	; 0xffffffec
  102f28:	e51b3018 	ldr	r3, [fp, #-24]	; 0xffffffe8
  102f2c:	e0633002 	rsb	r3, r3, r2
  102f30:	e50b3014 	str	r3, [fp, #-20]	; 0xffffffec
  102f34:	e51b3008 	ldr	r3, [fp, #-8]
  102f38:	e3530000 	cmp	r3, #0
  102f3c:	1a000006 	bne	102f5c <alt_dma_memory_to_register_segment+0x12c>
  102f40:	e51b3018 	ldr	r3, [fp, #-24]	; 0xffffffe8
  102f44:	e3530001 	cmp	r3, #1
  102f48:	9a000003 	bls	102f5c <alt_dma_memory_to_register_segment+0x12c>
  102f4c:	e51b0024 	ldr	r0, [fp, #-36]	; 0xffffffdc
  102f50:	e51b1018 	ldr	r1, [fp, #-24]	; 0xffffffe8
  102f54:	eb0014b8 	bl	10823c <alt_dma_program_DMALP>
  102f58:	e50b0008 	str	r0, [fp, #-8]
  102f5c:	e51b3008 	ldr	r3, [fp, #-8]
  102f60:	e3530000 	cmp	r3, #0
  102f64:	1a000003 	bne	102f78 <alt_dma_memory_to_register_segment+0x148>
  102f68:	e51b0024 	ldr	r0, [fp, #-36]	; 0xffffffdc
  102f6c:	e3a01c01 	mov	r1, #256	; 0x100
  102f70:	eb0014b1 	bl	10823c <alt_dma_program_DMALP>
  102f74:	e50b0008 	str	r0, [fp, #-8]
  102f78:	e51b3008 	ldr	r3, [fp, #-8]
  102f7c:	e3530000 	cmp	r3, #0
  102f80:	1a000003 	bne	102f94 <alt_dma_memory_to_register_segment+0x164>
  102f84:	e51b0024 	ldr	r0, [fp, #-36]	; 0xffffffdc
  102f88:	e3a01000 	mov	r1, #0
  102f8c:	eb00142b 	bl	108040 <alt_dma_program_DMALD>
  102f90:	e50b0008 	str	r0, [fp, #-8]
  102f94:	e51b3008 	ldr	r3, [fp, #-8]
  102f98:	e3530000 	cmp	r3, #0
  102f9c:	1a000003 	bne	102fb0 <alt_dma_memory_to_register_segment+0x180>
  102fa0:	e51b0024 	ldr	r0, [fp, #-36]	; 0xffffffdc
  102fa4:	e3a01000 	mov	r1, #0
  102fa8:	eb0016c1 	bl	108ab4 <alt_dma_program_DMAST>
  102fac:	e50b0008 	str	r0, [fp, #-8]
  102fb0:	e51b3008 	ldr	r3, [fp, #-8]
  102fb4:	e3530000 	cmp	r3, #0
  102fb8:	1a000003 	bne	102fcc <alt_dma_memory_to_register_segment+0x19c>
  102fbc:	e51b0024 	ldr	r0, [fp, #-36]	; 0xffffffdc
  102fc0:	e3a01000 	mov	r1, #0
  102fc4:	eb0014fc 	bl	1083bc <alt_dma_program_DMALPEND>
  102fc8:	e50b0008 	str	r0, [fp, #-8]
  102fcc:	e51b3008 	ldr	r3, [fp, #-8]
  102fd0:	e3530000 	cmp	r3, #0
  102fd4:	1a000006 	bne	102ff4 <alt_dma_memory_to_register_segment+0x1c4>
  102fd8:	e51b3018 	ldr	r3, [fp, #-24]	; 0xffffffe8
  102fdc:	e3530001 	cmp	r3, #1
  102fe0:	9a000003 	bls	102ff4 <alt_dma_memory_to_register_segment+0x1c4>
  102fe4:	e51b0024 	ldr	r0, [fp, #-36]	; 0xffffffdc
  102fe8:	e3a01000 	mov	r1, #0
  102fec:	eb0014f2 	bl	1083bc <alt_dma_program_DMALPEND>
  102ff0:	e50b0008 	str	r0, [fp, #-8]
  102ff4:	e51b3014 	ldr	r3, [fp, #-20]	; 0xffffffec
  102ff8:	e3530000 	cmp	r3, #0
  102ffc:	1affffbf 	bne	102f00 <alt_dma_memory_to_register_segment+0xd0>
  103000:	e51b3010 	ldr	r3, [fp, #-16]
  103004:	e3530000 	cmp	r3, #0
  103008:	0a000025 	beq	1030a4 <alt_dma_memory_to_register_segment+0x274>
  10300c:	e51b3010 	ldr	r3, [fp, #-16]
  103010:	e50b301c 	str	r3, [fp, #-28]	; 0xffffffe4
  103014:	e3a03000 	mov	r3, #0
  103018:	e50b3010 	str	r3, [fp, #-16]
  10301c:	e51b3008 	ldr	r3, [fp, #-8]
  103020:	e3530000 	cmp	r3, #0
  103024:	1a000006 	bne	103044 <alt_dma_memory_to_register_segment+0x214>
  103028:	e51b301c 	ldr	r3, [fp, #-28]	; 0xffffffe4
  10302c:	e3530001 	cmp	r3, #1
  103030:	9a000003 	bls	103044 <alt_dma_memory_to_register_segment+0x214>
  103034:	e51b0024 	ldr	r0, [fp, #-36]	; 0xffffffdc
  103038:	e51b101c 	ldr	r1, [fp, #-28]	; 0xffffffe4
  10303c:	eb00147e 	bl	10823c <alt_dma_program_DMALP>
  103040:	e50b0008 	str	r0, [fp, #-8]
  103044:	e51b3008 	ldr	r3, [fp, #-8]
  103048:	e3530000 	cmp	r3, #0
  10304c:	1a000003 	bne	103060 <alt_dma_memory_to_register_segment+0x230>
  103050:	e51b0024 	ldr	r0, [fp, #-36]	; 0xffffffdc
  103054:	e3a01000 	mov	r1, #0
  103058:	eb0013f8 	bl	108040 <alt_dma_program_DMALD>
  10305c:	e50b0008 	str	r0, [fp, #-8]
  103060:	e51b3008 	ldr	r3, [fp, #-8]
  103064:	e3530000 	cmp	r3, #0
  103068:	1a000003 	bne	10307c <alt_dma_memory_to_register_segment+0x24c>
  10306c:	e51b0024 	ldr	r0, [fp, #-36]	; 0xffffffdc
  103070:	e3a01000 	mov	r1, #0
  103074:	eb00168e 	bl	108ab4 <alt_dma_program_DMAST>
  103078:	e50b0008 	str	r0, [fp, #-8]
  10307c:	e51b3008 	ldr	r3, [fp, #-8]
  103080:	e3530000 	cmp	r3, #0
  103084:	1a000006 	bne	1030a4 <alt_dma_memory_to_register_segment+0x274>
  103088:	e51b301c 	ldr	r3, [fp, #-28]	; 0xffffffe4
  10308c:	e3530001 	cmp	r3, #1
  103090:	9a000003 	bls	1030a4 <alt_dma_memory_to_register_segment+0x274>
  103094:	e51b0024 	ldr	r0, [fp, #-36]	; 0xffffffdc
  103098:	e3a01000 	mov	r1, #0
  10309c:	eb0014c6 	bl	1083bc <alt_dma_program_DMALPEND>
  1030a0:	e50b0008 	str	r0, [fp, #-8]
  1030a4:	e51b300c 	ldr	r3, [fp, #-12]
  1030a8:	e3530000 	cmp	r3, #0
  1030ac:	0a00001f 	beq	103130 <alt_dma_memory_to_register_segment+0x300>
  1030b0:	e51b3008 	ldr	r3, [fp, #-8]
  1030b4:	e3530000 	cmp	r3, #0
  1030b8:	1a00000e 	bne	1030f8 <alt_dma_memory_to_register_segment+0x2c8>
  1030bc:	e51b300c 	ldr	r3, [fp, #-12]
  1030c0:	e2433001 	sub	r3, r3, #1
  1030c4:	e1a02203 	lsl	r2, r3, #4
  1030c8:	e51b3028 	ldr	r3, [fp, #-40]	; 0xffffffd8
  1030cc:	e1822003 	orr	r2, r2, r3
  1030d0:	e51b300c 	ldr	r3, [fp, #-12]
  1030d4:	e2433001 	sub	r3, r3, #1
  1030d8:	e1a03903 	lsl	r3, r3, #18
  1030dc:	e1823003 	orr	r3, r2, r3
  1030e0:	e3833001 	orr	r3, r3, #1
  1030e4:	e51b0024 	ldr	r0, [fp, #-36]	; 0xffffffdc
  1030e8:	e3a01001 	mov	r1, #1
  1030ec:	e1a02003 	mov	r2, r3
  1030f0:	eb001580 	bl	1086f8 <alt_dma_program_DMAMOV>
  1030f4:	e50b0008 	str	r0, [fp, #-8]
  1030f8:	e51b3008 	ldr	r3, [fp, #-8]
  1030fc:	e3530000 	cmp	r3, #0
  103100:	1a000003 	bne	103114 <alt_dma_memory_to_register_segment+0x2e4>
  103104:	e51b0024 	ldr	r0, [fp, #-36]	; 0xffffffdc
  103108:	e3a01000 	mov	r1, #0
  10310c:	eb0013cb 	bl	108040 <alt_dma_program_DMALD>
  103110:	e50b0008 	str	r0, [fp, #-8]
  103114:	e51b3008 	ldr	r3, [fp, #-8]
  103118:	e3530000 	cmp	r3, #0
  10311c:	1a000003 	bne	103130 <alt_dma_memory_to_register_segment+0x300>
  103120:	e51b0024 	ldr	r0, [fp, #-36]	; 0xffffffdc
  103124:	e3a01000 	mov	r1, #0
  103128:	eb001661 	bl	108ab4 <alt_dma_program_DMAST>
  10312c:	e50b0008 	str	r0, [fp, #-8]
  103130:	e51b3008 	ldr	r3, [fp, #-8]
  103134:	e1a00003 	mov	r0, r3
  103138:	e24bd004 	sub	sp, fp, #4
  10313c:	e8bd8800 	pop	{fp, pc}

00103140 <alt_dma_memory_to_register>:
  103140:	e92d4800 	push	{fp, lr}
  103144:	e28db004 	add	fp, sp, #4
  103148:	e24dd040 	sub	sp, sp, #64	; 0x40
  10314c:	e50b1034 	str	r1, [fp, #-52]	; 0xffffffcc
  103150:	e50b2038 	str	r2, [fp, #-56]	; 0xffffffc8
  103154:	e50b303c 	str	r3, [fp, #-60]	; 0xffffffc4
  103158:	e1a03000 	mov	r3, r0
  10315c:	e54b302d 	strb	r3, [fp, #-45]	; 0xffffffd3
  103160:	e59b3004 	ldr	r3, [fp, #4]
  103164:	e3530000 	cmp	r3, #0
  103168:	1a000006 	bne	103188 <alt_dma_memory_to_register+0x48>
  10316c:	e5db300c 	ldrb	r3, [fp, #12]
  103170:	e2233001 	eor	r3, r3, #1
  103174:	e6ef3073 	uxtb	r3, r3
  103178:	e3530000 	cmp	r3, #0
  10317c:	0a000001 	beq	103188 <alt_dma_memory_to_register+0x48>
  103180:	e3a03000 	mov	r3, #0
  103184:	ea0000b4 	b	10345c <alt_dma_memory_to_register+0x31c>
  103188:	e3a03000 	mov	r3, #0
  10318c:	e50b3008 	str	r3, [fp, #-8]
  103190:	e51b3008 	ldr	r3, [fp, #-8]
  103194:	e3530000 	cmp	r3, #0
  103198:	1a000002 	bne	1031a8 <alt_dma_memory_to_register+0x68>
  10319c:	e51b0034 	ldr	r0, [fp, #-52]	; 0xffffffcc
  1031a0:	eb00114e 	bl	1076e0 <alt_dma_program_init>
  1031a4:	e50b0008 	str	r0, [fp, #-8]
  1031a8:	e59b3004 	ldr	r3, [fp, #4]
  1031ac:	e3530000 	cmp	r3, #0
  1031b0:	0a00008c 	beq	1033e8 <alt_dma_memory_to_register+0x2a8>
  1031b4:	e3a03000 	mov	r3, #0
  1031b8:	e50b300c 	str	r3, [fp, #-12]
  1031bc:	e3a03000 	mov	r3, #0
  1031c0:	e50b3010 	str	r3, [fp, #-16]
  1031c4:	e51b3008 	ldr	r3, [fp, #-8]
  1031c8:	e3530000 	cmp	r3, #0
  1031cc:	1a000025 	bne	103268 <alt_dma_memory_to_register+0x128>
  1031d0:	e59b3008 	ldr	r3, [fp, #8]
  1031d4:	e3530010 	cmp	r3, #16
  1031d8:	0a00000e 	beq	103218 <alt_dma_memory_to_register+0xd8>
  1031dc:	e3530010 	cmp	r3, #16
  1031e0:	8a000002 	bhi	1031f0 <alt_dma_memory_to_register+0xb0>
  1031e4:	e3530008 	cmp	r3, #8
  1031e8:	0a000005 	beq	103204 <alt_dma_memory_to_register+0xc4>
  1031ec:	ea00001a 	b	10325c <alt_dma_memory_to_register+0x11c>
  1031f0:	e3530020 	cmp	r3, #32
  1031f4:	0a00000c 	beq	10322c <alt_dma_memory_to_register+0xec>
  1031f8:	e3530040 	cmp	r3, #64	; 0x40
  1031fc:	0a000010 	beq	103244 <alt_dma_memory_to_register+0x104>
  103200:	ea000015 	b	10325c <alt_dma_memory_to_register+0x11c>
  103204:	e3a03000 	mov	r3, #0
  103208:	e50b300c 	str	r3, [fp, #-12]
  10320c:	e3a03000 	mov	r3, #0
  103210:	e50b3010 	str	r3, [fp, #-16]
  103214:	ea000013 	b	103268 <alt_dma_memory_to_register+0x128>
  103218:	e3083002 	movw	r3, #32770	; 0x8002
  10321c:	e50b300c 	str	r3, [fp, #-12]
  103220:	e3a03001 	mov	r3, #1
  103224:	e50b3010 	str	r3, [fp, #-16]
  103228:	ea00000e 	b	103268 <alt_dma_memory_to_register+0x128>
  10322c:	e3a03004 	mov	r3, #4
  103230:	e3403001 	movt	r3, #1
  103234:	e50b300c 	str	r3, [fp, #-12]
  103238:	e3a03002 	mov	r3, #2
  10323c:	e50b3010 	str	r3, [fp, #-16]
  103240:	ea000008 	b	103268 <alt_dma_memory_to_register+0x128>
  103244:	e3083006 	movw	r3, #32774	; 0x8006
  103248:	e3403001 	movt	r3, #1
  10324c:	e50b300c 	str	r3, [fp, #-12]
  103250:	e3a03003 	mov	r3, #3
  103254:	e50b3010 	str	r3, [fp, #-16]
  103258:	ea000002 	b	103268 <alt_dma_memory_to_register+0x128>
  10325c:	e3e03008 	mvn	r3, #8
  103260:	e50b3008 	str	r3, [fp, #-8]
  103264:	e1a00000 	nop			; (mov r0, r0)
  103268:	e51b3008 	ldr	r3, [fp, #-8]
  10326c:	e3530000 	cmp	r3, #0
  103270:	1a000016 	bne	1032d0 <alt_dma_memory_to_register+0x190>
  103274:	e51b3010 	ldr	r3, [fp, #-16]
  103278:	e3a02001 	mov	r2, #1
  10327c:	e1a03312 	lsl	r3, r2, r3
  103280:	e2433001 	sub	r3, r3, #1
  103284:	e1a02003 	mov	r2, r3
  103288:	e51b3038 	ldr	r3, [fp, #-56]	; 0xffffffc8
  10328c:	e0033002 	and	r3, r3, r2
  103290:	e3530000 	cmp	r3, #0
  103294:	0a000002 	beq	1032a4 <alt_dma_memory_to_register+0x164>
  103298:	e3e03008 	mvn	r3, #8
  10329c:	e50b3008 	str	r3, [fp, #-8]
  1032a0:	ea00000a 	b	1032d0 <alt_dma_memory_to_register+0x190>
  1032a4:	e51b3010 	ldr	r3, [fp, #-16]
  1032a8:	e3a02001 	mov	r2, #1
  1032ac:	e1a03312 	lsl	r3, r2, r3
  1032b0:	e2433001 	sub	r3, r3, #1
  1032b4:	e1a02003 	mov	r2, r3
  1032b8:	e51b303c 	ldr	r3, [fp, #-60]	; 0xffffffc4
  1032bc:	e0033002 	and	r3, r3, r2
  1032c0:	e3530000 	cmp	r3, #0
  1032c4:	0a000001 	beq	1032d0 <alt_dma_memory_to_register+0x190>
  1032c8:	e3e03008 	mvn	r3, #8
  1032cc:	e50b3008 	str	r3, [fp, #-8]
  1032d0:	e51b3008 	ldr	r3, [fp, #-8]
  1032d4:	e3530000 	cmp	r3, #0
  1032d8:	1a000005 	bne	1032f4 <alt_dma_memory_to_register+0x1b4>
  1032dc:	e51b3038 	ldr	r3, [fp, #-56]	; 0xffffffc8
  1032e0:	e51b0034 	ldr	r0, [fp, #-52]	; 0xffffffcc
  1032e4:	e3a01002 	mov	r1, #2
  1032e8:	e1a02003 	mov	r2, r3
  1032ec:	eb001501 	bl	1086f8 <alt_dma_program_DMAMOV>
  1032f0:	e50b0008 	str	r0, [fp, #-8]
  1032f4:	e51b3010 	ldr	r3, [fp, #-16]
  1032f8:	e59b2004 	ldr	r2, [fp, #4]
  1032fc:	e1a03312 	lsl	r3, r2, r3
  103300:	e50b3014 	str	r3, [fp, #-20]	; 0xffffffec
  103304:	e51b3008 	ldr	r3, [fp, #-8]
  103308:	e3530000 	cmp	r3, #0
  10330c:	1a000005 	bne	103328 <alt_dma_memory_to_register+0x1e8>
  103310:	e24b3024 	sub	r3, fp, #36	; 0x24
  103314:	e1a00003 	mov	r0, r3
  103318:	e51b103c 	ldr	r1, [fp, #-60]	; 0xffffffc4
  10331c:	e51b2014 	ldr	r2, [fp, #-20]	; 0xffffffec
  103320:	ebfffb26 	bl	101fc0 <alt_mmu_va_to_pa_coalesce_begin>
  103324:	e50b0008 	str	r0, [fp, #-8]
  103328:	ea000024 	b	1033c0 <alt_dma_memory_to_register+0x280>
  10332c:	e51b3008 	ldr	r3, [fp, #-8]
  103330:	e3530000 	cmp	r3, #0
  103334:	1a000024 	bne	1033cc <alt_dma_memory_to_register+0x28c>
  103338:	e3a03000 	mov	r3, #0
  10333c:	e50b3028 	str	r3, [fp, #-40]	; 0xffffffd8
  103340:	e3a03000 	mov	r3, #0
  103344:	e50b302c 	str	r3, [fp, #-44]	; 0xffffffd4
  103348:	e51b3008 	ldr	r3, [fp, #-8]
  10334c:	e3530000 	cmp	r3, #0
  103350:	1a000007 	bne	103374 <alt_dma_memory_to_register+0x234>
  103354:	e24b1024 	sub	r1, fp, #36	; 0x24
  103358:	e24b2028 	sub	r2, fp, #40	; 0x28
  10335c:	e24b302c 	sub	r3, fp, #44	; 0x2c
  103360:	e1a00001 	mov	r0, r1
  103364:	e1a01002 	mov	r1, r2
  103368:	e1a02003 	mov	r2, r3
  10336c:	ebfffb43 	bl	102080 <alt_mmu_va_to_pa_coalesce_next>
  103370:	e50b0008 	str	r0, [fp, #-8]
  103374:	e51b302c 	ldr	r3, [fp, #-44]	; 0xffffffd4
  103378:	e51b2014 	ldr	r2, [fp, #-20]	; 0xffffffec
  10337c:	e0633002 	rsb	r3, r3, r2
  103380:	e50b3014 	str	r3, [fp, #-20]	; 0xffffffec
  103384:	e51b3008 	ldr	r3, [fp, #-8]
  103388:	e3530000 	cmp	r3, #0
  10338c:	1a00000b 	bne	1033c0 <alt_dma_memory_to_register+0x280>
  103390:	e51bc028 	ldr	ip, [fp, #-40]	; 0xffffffd8
  103394:	e51b202c 	ldr	r2, [fp, #-44]	; 0xffffffd4
  103398:	e51b3010 	ldr	r3, [fp, #-16]
  10339c:	e1a03332 	lsr	r3, r2, r3
  1033a0:	e55b202d 	ldrb	r2, [fp, #-45]	; 0xffffffd3
  1033a4:	e58d3000 	str	r3, [sp]
  1033a8:	e1a00002 	mov	r0, r2
  1033ac:	e51b1034 	ldr	r1, [fp, #-52]	; 0xffffffcc
  1033b0:	e51b200c 	ldr	r2, [fp, #-12]
  1033b4:	e1a0300c 	mov	r3, ip
  1033b8:	ebfffe9c 	bl	102e30 <alt_dma_memory_to_register_segment>
  1033bc:	e50b0008 	str	r0, [fp, #-8]
  1033c0:	e51b3014 	ldr	r3, [fp, #-20]	; 0xffffffec
  1033c4:	e3530000 	cmp	r3, #0
  1033c8:	1affffd7 	bne	10332c <alt_dma_memory_to_register+0x1ec>
  1033cc:	e51b3008 	ldr	r3, [fp, #-8]
  1033d0:	e3530000 	cmp	r3, #0
  1033d4:	1a000003 	bne	1033e8 <alt_dma_memory_to_register+0x2a8>
  1033d8:	e24b3024 	sub	r3, fp, #36	; 0x24
  1033dc:	e1a00003 	mov	r0, r3
  1033e0:	ebfffb87 	bl	102204 <alt_mmu_va_to_pa_coalesce_end>
  1033e4:	e50b0008 	str	r0, [fp, #-8]
  1033e8:	e5db300c 	ldrb	r3, [fp, #12]
  1033ec:	e3530000 	cmp	r3, #0
  1033f0:	0a000007 	beq	103414 <alt_dma_memory_to_register+0x2d4>
  1033f4:	e51b3008 	ldr	r3, [fp, #-8]
  1033f8:	e3530000 	cmp	r3, #0
  1033fc:	1a000004 	bne	103414 <alt_dma_memory_to_register+0x2d4>
  103400:	e5db3010 	ldrb	r3, [fp, #16]
  103404:	e51b0034 	ldr	r0, [fp, #-52]	; 0xffffffcc
  103408:	e1a01003 	mov	r1, r3
  10340c:	eb001576 	bl	1089ec <alt_dma_program_DMASEV>
  103410:	e50b0008 	str	r0, [fp, #-8]
  103414:	e51b3008 	ldr	r3, [fp, #-8]
  103418:	e3530000 	cmp	r3, #0
  10341c:	1a000002 	bne	10342c <alt_dma_memory_to_register+0x2ec>
  103420:	e51b0034 	ldr	r0, [fp, #-52]	; 0xffffffcc
  103424:	eb001229 	bl	107cd0 <alt_dma_program_DMAEND>
  103428:	e50b0008 	str	r0, [fp, #-8]
  10342c:	e51b3008 	ldr	r3, [fp, #-8]
  103430:	e3530000 	cmp	r3, #0
  103434:	0a000003 	beq	103448 <alt_dma_memory_to_register+0x308>
  103438:	e51b0034 	ldr	r0, [fp, #-52]	; 0xffffffcc
  10343c:	eb0010cc 	bl	107774 <alt_dma_program_clear>
  103440:	e51b3008 	ldr	r3, [fp, #-8]
  103444:	ea000004 	b	10345c <alt_dma_memory_to_register+0x31c>
  103448:	e55b302d 	ldrb	r3, [fp, #-45]	; 0xffffffd3
  10344c:	e1a00003 	mov	r0, r3
  103450:	e51b1034 	ldr	r1, [fp, #-52]	; 0xffffffcc
  103454:	ebfff8e7 	bl	1017f8 <alt_dma_channel_exec>
  103458:	e1a03000 	mov	r3, r0
  10345c:	e1a00003 	mov	r0, r3
  103460:	e24bd004 	sub	sp, fp, #4
  103464:	e8bd8800 	pop	{fp, pc}

00103468 <alt_dma_register_to_memory_segment>:
  103468:	e92d4800 	push	{fp, lr}
  10346c:	e28db004 	add	fp, sp, #4
  103470:	e24dd028 	sub	sp, sp, #40	; 0x28
  103474:	e50b1024 	str	r1, [fp, #-36]	; 0xffffffdc
  103478:	e50b2028 	str	r2, [fp, #-40]	; 0xffffffd8
  10347c:	e50b302c 	str	r3, [fp, #-44]	; 0xffffffd4
  103480:	e1a03000 	mov	r3, r0
  103484:	e54b301d 	strb	r3, [fp, #-29]	; 0xffffffe3
  103488:	e3a03000 	mov	r3, #0
  10348c:	e50b3008 	str	r3, [fp, #-8]
  103490:	e51b3008 	ldr	r3, [fp, #-8]
  103494:	e3530000 	cmp	r3, #0
  103498:	1a000004 	bne	1034b0 <alt_dma_register_to_memory_segment+0x48>
  10349c:	e51b0024 	ldr	r0, [fp, #-36]	; 0xffffffdc
  1034a0:	e3a01002 	mov	r1, #2
  1034a4:	e51b202c 	ldr	r2, [fp, #-44]	; 0xffffffd4
  1034a8:	eb001492 	bl	1086f8 <alt_dma_program_DMAMOV>
  1034ac:	e50b0008 	str	r0, [fp, #-8]
  1034b0:	e59b3004 	ldr	r3, [fp, #4]
  1034b4:	e50b300c 	str	r3, [fp, #-12]
  1034b8:	e51b300c 	ldr	r3, [fp, #-12]
  1034bc:	e1a03223 	lsr	r3, r3, #4
  1034c0:	e3530000 	cmp	r3, #0
  1034c4:	0a000084 	beq	1036dc <alt_dma_register_to_memory_segment+0x274>
  1034c8:	e51b300c 	ldr	r3, [fp, #-12]
  1034cc:	e1a03223 	lsr	r3, r3, #4
  1034d0:	e50b3010 	str	r3, [fp, #-16]
  1034d4:	e51b300c 	ldr	r3, [fp, #-12]
  1034d8:	e203300f 	and	r3, r3, #15
  1034dc:	e50b300c 	str	r3, [fp, #-12]
  1034e0:	e51b3008 	ldr	r3, [fp, #-8]
  1034e4:	e3530000 	cmp	r3, #0
  1034e8:	1a000007 	bne	10350c <alt_dma_register_to_memory_segment+0xa4>
  1034ec:	e51b3028 	ldr	r3, [fp, #-40]	; 0xffffffd8
  1034f0:	e38339f1 	orr	r3, r3, #3948544	; 0x3c4000
  1034f4:	e38330f0 	orr	r3, r3, #240	; 0xf0
  1034f8:	e51b0024 	ldr	r0, [fp, #-36]	; 0xffffffdc
  1034fc:	e3a01001 	mov	r1, #1
  103500:	e1a02003 	mov	r2, r3
  103504:	eb00147b 	bl	1086f8 <alt_dma_program_DMAMOV>
  103508:	e50b0008 	str	r0, [fp, #-8]
  10350c:	e51b3010 	ldr	r3, [fp, #-16]
  103510:	e1a03423 	lsr	r3, r3, #8
  103514:	e3530000 	cmp	r3, #0
  103518:	0a000046 	beq	103638 <alt_dma_register_to_memory_segment+0x1d0>
  10351c:	e51b3010 	ldr	r3, [fp, #-16]
  103520:	e1a03423 	lsr	r3, r3, #8
  103524:	e50b3014 	str	r3, [fp, #-20]	; 0xffffffec
  103528:	e51b3010 	ldr	r3, [fp, #-16]
  10352c:	e6ef3073 	uxtb	r3, r3
  103530:	e50b3010 	str	r3, [fp, #-16]
  103534:	ea00003c 	b	10362c <alt_dma_register_to_memory_segment+0x1c4>
  103538:	e51b3008 	ldr	r3, [fp, #-8]
  10353c:	e3530000 	cmp	r3, #0
  103540:	0a000000 	beq	103548 <alt_dma_register_to_memory_segment+0xe0>
  103544:	ea00003b 	b	103638 <alt_dma_register_to_memory_segment+0x1d0>
  103548:	e51b3014 	ldr	r3, [fp, #-20]	; 0xffffffec
  10354c:	e3530c01 	cmp	r3, #256	; 0x100
  103550:	31a03003 	movcc	r3, r3
  103554:	23a03c01 	movcs	r3, #256	; 0x100
  103558:	e50b3018 	str	r3, [fp, #-24]	; 0xffffffe8
  10355c:	e51b2014 	ldr	r2, [fp, #-20]	; 0xffffffec
  103560:	e51b3018 	ldr	r3, [fp, #-24]	; 0xffffffe8
  103564:	e0633002 	rsb	r3, r3, r2
  103568:	e50b3014 	str	r3, [fp, #-20]	; 0xffffffec
  10356c:	e51b3008 	ldr	r3, [fp, #-8]
  103570:	e3530000 	cmp	r3, #0
  103574:	1a000006 	bne	103594 <alt_dma_register_to_memory_segment+0x12c>
  103578:	e51b3018 	ldr	r3, [fp, #-24]	; 0xffffffe8
  10357c:	e3530001 	cmp	r3, #1
  103580:	9a000003 	bls	103594 <alt_dma_register_to_memory_segment+0x12c>
  103584:	e51b0024 	ldr	r0, [fp, #-36]	; 0xffffffdc
  103588:	e51b1018 	ldr	r1, [fp, #-24]	; 0xffffffe8
  10358c:	eb00132a 	bl	10823c <alt_dma_program_DMALP>
  103590:	e50b0008 	str	r0, [fp, #-8]
  103594:	e51b3008 	ldr	r3, [fp, #-8]
  103598:	e3530000 	cmp	r3, #0
  10359c:	1a000003 	bne	1035b0 <alt_dma_register_to_memory_segment+0x148>
  1035a0:	e51b0024 	ldr	r0, [fp, #-36]	; 0xffffffdc
  1035a4:	e3a01c01 	mov	r1, #256	; 0x100
  1035a8:	eb001323 	bl	10823c <alt_dma_program_DMALP>
  1035ac:	e50b0008 	str	r0, [fp, #-8]
  1035b0:	e51b3008 	ldr	r3, [fp, #-8]
  1035b4:	e3530000 	cmp	r3, #0
  1035b8:	1a000003 	bne	1035cc <alt_dma_register_to_memory_segment+0x164>
  1035bc:	e51b0024 	ldr	r0, [fp, #-36]	; 0xffffffdc
  1035c0:	e3a01000 	mov	r1, #0
  1035c4:	eb00129d 	bl	108040 <alt_dma_program_DMALD>
  1035c8:	e50b0008 	str	r0, [fp, #-8]
  1035cc:	e51b3008 	ldr	r3, [fp, #-8]
  1035d0:	e3530000 	cmp	r3, #0
  1035d4:	1a000003 	bne	1035e8 <alt_dma_register_to_memory_segment+0x180>
  1035d8:	e51b0024 	ldr	r0, [fp, #-36]	; 0xffffffdc
  1035dc:	e3a01000 	mov	r1, #0
  1035e0:	eb001533 	bl	108ab4 <alt_dma_program_DMAST>
  1035e4:	e50b0008 	str	r0, [fp, #-8]
  1035e8:	e51b3008 	ldr	r3, [fp, #-8]
  1035ec:	e3530000 	cmp	r3, #0
  1035f0:	1a000003 	bne	103604 <alt_dma_register_to_memory_segment+0x19c>
  1035f4:	e51b0024 	ldr	r0, [fp, #-36]	; 0xffffffdc
  1035f8:	e3a01000 	mov	r1, #0
  1035fc:	eb00136e 	bl	1083bc <alt_dma_program_DMALPEND>
  103600:	e50b0008 	str	r0, [fp, #-8]
  103604:	e51b3008 	ldr	r3, [fp, #-8]
  103608:	e3530000 	cmp	r3, #0
  10360c:	1a000006 	bne	10362c <alt_dma_register_to_memory_segment+0x1c4>
  103610:	e51b3018 	ldr	r3, [fp, #-24]	; 0xffffffe8
  103614:	e3530001 	cmp	r3, #1
  103618:	9a000003 	bls	10362c <alt_dma_register_to_memory_segment+0x1c4>
  10361c:	e51b0024 	ldr	r0, [fp, #-36]	; 0xffffffdc
  103620:	e3a01000 	mov	r1, #0
  103624:	eb001364 	bl	1083bc <alt_dma_program_DMALPEND>
  103628:	e50b0008 	str	r0, [fp, #-8]
  10362c:	e51b3014 	ldr	r3, [fp, #-20]	; 0xffffffec
  103630:	e3530000 	cmp	r3, #0
  103634:	1affffbf 	bne	103538 <alt_dma_register_to_memory_segment+0xd0>
  103638:	e51b3010 	ldr	r3, [fp, #-16]
  10363c:	e3530000 	cmp	r3, #0
  103640:	0a000025 	beq	1036dc <alt_dma_register_to_memory_segment+0x274>
  103644:	e51b3010 	ldr	r3, [fp, #-16]
  103648:	e50b301c 	str	r3, [fp, #-28]	; 0xffffffe4
  10364c:	e3a03000 	mov	r3, #0
  103650:	e50b3010 	str	r3, [fp, #-16]
  103654:	e51b3008 	ldr	r3, [fp, #-8]
  103658:	e3530000 	cmp	r3, #0
  10365c:	1a000006 	bne	10367c <alt_dma_register_to_memory_segment+0x214>
  103660:	e51b301c 	ldr	r3, [fp, #-28]	; 0xffffffe4
  103664:	e3530001 	cmp	r3, #1
  103668:	9a000003 	bls	10367c <alt_dma_register_to_memory_segment+0x214>
  10366c:	e51b0024 	ldr	r0, [fp, #-36]	; 0xffffffdc
  103670:	e51b101c 	ldr	r1, [fp, #-28]	; 0xffffffe4
  103674:	eb0012f0 	bl	10823c <alt_dma_program_DMALP>
  103678:	e50b0008 	str	r0, [fp, #-8]
  10367c:	e51b3008 	ldr	r3, [fp, #-8]
  103680:	e3530000 	cmp	r3, #0
  103684:	1a000003 	bne	103698 <alt_dma_register_to_memory_segment+0x230>
  103688:	e51b0024 	ldr	r0, [fp, #-36]	; 0xffffffdc
  10368c:	e3a01000 	mov	r1, #0
  103690:	eb00126a 	bl	108040 <alt_dma_program_DMALD>
  103694:	e50b0008 	str	r0, [fp, #-8]
  103698:	e51b3008 	ldr	r3, [fp, #-8]
  10369c:	e3530000 	cmp	r3, #0
  1036a0:	1a000003 	bne	1036b4 <alt_dma_register_to_memory_segment+0x24c>
  1036a4:	e51b0024 	ldr	r0, [fp, #-36]	; 0xffffffdc
  1036a8:	e3a01000 	mov	r1, #0
  1036ac:	eb001500 	bl	108ab4 <alt_dma_program_DMAST>
  1036b0:	e50b0008 	str	r0, [fp, #-8]
  1036b4:	e51b3008 	ldr	r3, [fp, #-8]
  1036b8:	e3530000 	cmp	r3, #0
  1036bc:	1a000006 	bne	1036dc <alt_dma_register_to_memory_segment+0x274>
  1036c0:	e51b301c 	ldr	r3, [fp, #-28]	; 0xffffffe4
  1036c4:	e3530001 	cmp	r3, #1
  1036c8:	9a000003 	bls	1036dc <alt_dma_register_to_memory_segment+0x274>
  1036cc:	e51b0024 	ldr	r0, [fp, #-36]	; 0xffffffdc
  1036d0:	e3a01000 	mov	r1, #0
  1036d4:	eb001338 	bl	1083bc <alt_dma_program_DMALPEND>
  1036d8:	e50b0008 	str	r0, [fp, #-8]
  1036dc:	e51b300c 	ldr	r3, [fp, #-12]
  1036e0:	e3530000 	cmp	r3, #0
  1036e4:	0a00001f 	beq	103768 <alt_dma_register_to_memory_segment+0x300>
  1036e8:	e51b3008 	ldr	r3, [fp, #-8]
  1036ec:	e3530000 	cmp	r3, #0
  1036f0:	1a00000e 	bne	103730 <alt_dma_register_to_memory_segment+0x2c8>
  1036f4:	e51b300c 	ldr	r3, [fp, #-12]
  1036f8:	e2433001 	sub	r3, r3, #1
  1036fc:	e1a02203 	lsl	r2, r3, #4
  103700:	e51b3028 	ldr	r3, [fp, #-40]	; 0xffffffd8
  103704:	e1822003 	orr	r2, r2, r3
  103708:	e51b300c 	ldr	r3, [fp, #-12]
  10370c:	e2433001 	sub	r3, r3, #1
  103710:	e1a03903 	lsl	r3, r3, #18
  103714:	e1823003 	orr	r3, r2, r3
  103718:	e3833901 	orr	r3, r3, #16384	; 0x4000
  10371c:	e51b0024 	ldr	r0, [fp, #-36]	; 0xffffffdc
  103720:	e3a01001 	mov	r1, #1
  103724:	e1a02003 	mov	r2, r3
  103728:	eb0013f2 	bl	1086f8 <alt_dma_program_DMAMOV>
  10372c:	e50b0008 	str	r0, [fp, #-8]
  103730:	e51b3008 	ldr	r3, [fp, #-8]
  103734:	e3530000 	cmp	r3, #0
  103738:	1a000003 	bne	10374c <alt_dma_register_to_memory_segment+0x2e4>
  10373c:	e51b0024 	ldr	r0, [fp, #-36]	; 0xffffffdc
  103740:	e3a01000 	mov	r1, #0
  103744:	eb00123d 	bl	108040 <alt_dma_program_DMALD>
  103748:	e50b0008 	str	r0, [fp, #-8]
  10374c:	e51b3008 	ldr	r3, [fp, #-8]
  103750:	e3530000 	cmp	r3, #0
  103754:	1a000003 	bne	103768 <alt_dma_register_to_memory_segment+0x300>
  103758:	e51b0024 	ldr	r0, [fp, #-36]	; 0xffffffdc
  10375c:	e3a01000 	mov	r1, #0
  103760:	eb0014d3 	bl	108ab4 <alt_dma_program_DMAST>
  103764:	e50b0008 	str	r0, [fp, #-8]
  103768:	e51b3008 	ldr	r3, [fp, #-8]
  10376c:	e1a00003 	mov	r0, r3
  103770:	e24bd004 	sub	sp, fp, #4
  103774:	e8bd8800 	pop	{fp, pc}

00103778 <alt_dma_register_to_memory>:
  103778:	e92d4800 	push	{fp, lr}
  10377c:	e28db004 	add	fp, sp, #4
  103780:	e24dd040 	sub	sp, sp, #64	; 0x40
  103784:	e50b1034 	str	r1, [fp, #-52]	; 0xffffffcc
  103788:	e50b2038 	str	r2, [fp, #-56]	; 0xffffffc8
  10378c:	e50b303c 	str	r3, [fp, #-60]	; 0xffffffc4
  103790:	e1a03000 	mov	r3, r0
  103794:	e54b302d 	strb	r3, [fp, #-45]	; 0xffffffd3
  103798:	e59b3004 	ldr	r3, [fp, #4]
  10379c:	e3530000 	cmp	r3, #0
  1037a0:	1a000006 	bne	1037c0 <alt_dma_register_to_memory+0x48>
  1037a4:	e5db300c 	ldrb	r3, [fp, #12]
  1037a8:	e2233001 	eor	r3, r3, #1
  1037ac:	e6ef3073 	uxtb	r3, r3
  1037b0:	e3530000 	cmp	r3, #0
  1037b4:	0a000001 	beq	1037c0 <alt_dma_register_to_memory+0x48>
  1037b8:	e3a03000 	mov	r3, #0
  1037bc:	ea0000b4 	b	103a94 <alt_dma_register_to_memory+0x31c>
  1037c0:	e3a03000 	mov	r3, #0
  1037c4:	e50b3008 	str	r3, [fp, #-8]
  1037c8:	e51b3008 	ldr	r3, [fp, #-8]
  1037cc:	e3530000 	cmp	r3, #0
  1037d0:	1a000002 	bne	1037e0 <alt_dma_register_to_memory+0x68>
  1037d4:	e51b0034 	ldr	r0, [fp, #-52]	; 0xffffffcc
  1037d8:	eb000fc0 	bl	1076e0 <alt_dma_program_init>
  1037dc:	e50b0008 	str	r0, [fp, #-8]
  1037e0:	e59b3004 	ldr	r3, [fp, #4]
  1037e4:	e3530000 	cmp	r3, #0
  1037e8:	0a00008c 	beq	103a20 <alt_dma_register_to_memory+0x2a8>
  1037ec:	e3a03000 	mov	r3, #0
  1037f0:	e50b300c 	str	r3, [fp, #-12]
  1037f4:	e3a03000 	mov	r3, #0
  1037f8:	e50b3010 	str	r3, [fp, #-16]
  1037fc:	e51b3008 	ldr	r3, [fp, #-8]
  103800:	e3530000 	cmp	r3, #0
  103804:	1a000025 	bne	1038a0 <alt_dma_register_to_memory+0x128>
  103808:	e59b3008 	ldr	r3, [fp, #8]
  10380c:	e3530010 	cmp	r3, #16
  103810:	0a00000e 	beq	103850 <alt_dma_register_to_memory+0xd8>
  103814:	e3530010 	cmp	r3, #16
  103818:	8a000002 	bhi	103828 <alt_dma_register_to_memory+0xb0>
  10381c:	e3530008 	cmp	r3, #8
  103820:	0a000005 	beq	10383c <alt_dma_register_to_memory+0xc4>
  103824:	ea00001a 	b	103894 <alt_dma_register_to_memory+0x11c>
  103828:	e3530020 	cmp	r3, #32
  10382c:	0a00000c 	beq	103864 <alt_dma_register_to_memory+0xec>
  103830:	e3530040 	cmp	r3, #64	; 0x40
  103834:	0a000010 	beq	10387c <alt_dma_register_to_memory+0x104>
  103838:	ea000015 	b	103894 <alt_dma_register_to_memory+0x11c>
  10383c:	e3a03000 	mov	r3, #0
  103840:	e50b300c 	str	r3, [fp, #-12]
  103844:	e3a03000 	mov	r3, #0
  103848:	e50b3010 	str	r3, [fp, #-16]
  10384c:	ea000013 	b	1038a0 <alt_dma_register_to_memory+0x128>
  103850:	e3083002 	movw	r3, #32770	; 0x8002
  103854:	e50b300c 	str	r3, [fp, #-12]
  103858:	e3a03001 	mov	r3, #1
  10385c:	e50b3010 	str	r3, [fp, #-16]
  103860:	ea00000e 	b	1038a0 <alt_dma_register_to_memory+0x128>
  103864:	e3a03004 	mov	r3, #4
  103868:	e3403001 	movt	r3, #1
  10386c:	e50b300c 	str	r3, [fp, #-12]
  103870:	e3a03002 	mov	r3, #2
  103874:	e50b3010 	str	r3, [fp, #-16]
  103878:	ea000008 	b	1038a0 <alt_dma_register_to_memory+0x128>
  10387c:	e3083006 	movw	r3, #32774	; 0x8006
  103880:	e3403001 	movt	r3, #1
  103884:	e50b300c 	str	r3, [fp, #-12]
  103888:	e3a03003 	mov	r3, #3
  10388c:	e50b3010 	str	r3, [fp, #-16]
  103890:	ea000002 	b	1038a0 <alt_dma_register_to_memory+0x128>
  103894:	e3e03008 	mvn	r3, #8
  103898:	e50b3008 	str	r3, [fp, #-8]
  10389c:	e1a00000 	nop			; (mov r0, r0)
  1038a0:	e51b3008 	ldr	r3, [fp, #-8]
  1038a4:	e3530000 	cmp	r3, #0
  1038a8:	1a000016 	bne	103908 <alt_dma_register_to_memory+0x190>
  1038ac:	e51b3010 	ldr	r3, [fp, #-16]
  1038b0:	e3a02001 	mov	r2, #1
  1038b4:	e1a03312 	lsl	r3, r2, r3
  1038b8:	e2433001 	sub	r3, r3, #1
  1038bc:	e1a02003 	mov	r2, r3
  1038c0:	e51b3038 	ldr	r3, [fp, #-56]	; 0xffffffc8
  1038c4:	e0033002 	and	r3, r3, r2
  1038c8:	e3530000 	cmp	r3, #0
  1038cc:	0a000002 	beq	1038dc <alt_dma_register_to_memory+0x164>
  1038d0:	e3e03008 	mvn	r3, #8
  1038d4:	e50b3008 	str	r3, [fp, #-8]
  1038d8:	ea00000a 	b	103908 <alt_dma_register_to_memory+0x190>
  1038dc:	e51b3010 	ldr	r3, [fp, #-16]
  1038e0:	e3a02001 	mov	r2, #1
  1038e4:	e1a03312 	lsl	r3, r2, r3
  1038e8:	e2433001 	sub	r3, r3, #1
  1038ec:	e1a02003 	mov	r2, r3
  1038f0:	e51b303c 	ldr	r3, [fp, #-60]	; 0xffffffc4
  1038f4:	e0033002 	and	r3, r3, r2
  1038f8:	e3530000 	cmp	r3, #0
  1038fc:	0a000001 	beq	103908 <alt_dma_register_to_memory+0x190>
  103900:	e3e03008 	mvn	r3, #8
  103904:	e50b3008 	str	r3, [fp, #-8]
  103908:	e51b3008 	ldr	r3, [fp, #-8]
  10390c:	e3530000 	cmp	r3, #0
  103910:	1a000005 	bne	10392c <alt_dma_register_to_memory+0x1b4>
  103914:	e51b303c 	ldr	r3, [fp, #-60]	; 0xffffffc4
  103918:	e51b0034 	ldr	r0, [fp, #-52]	; 0xffffffcc
  10391c:	e3a01000 	mov	r1, #0
  103920:	e1a02003 	mov	r2, r3
  103924:	eb001373 	bl	1086f8 <alt_dma_program_DMAMOV>
  103928:	e50b0008 	str	r0, [fp, #-8]
  10392c:	e51b3010 	ldr	r3, [fp, #-16]
  103930:	e59b2004 	ldr	r2, [fp, #4]
  103934:	e1a03312 	lsl	r3, r2, r3
  103938:	e50b3014 	str	r3, [fp, #-20]	; 0xffffffec
  10393c:	e51b3008 	ldr	r3, [fp, #-8]
  103940:	e3530000 	cmp	r3, #0
  103944:	1a000005 	bne	103960 <alt_dma_register_to_memory+0x1e8>
  103948:	e24b3024 	sub	r3, fp, #36	; 0x24
  10394c:	e1a00003 	mov	r0, r3
  103950:	e51b1038 	ldr	r1, [fp, #-56]	; 0xffffffc8
  103954:	e51b2014 	ldr	r2, [fp, #-20]	; 0xffffffec
  103958:	ebfff998 	bl	101fc0 <alt_mmu_va_to_pa_coalesce_begin>
  10395c:	e50b0008 	str	r0, [fp, #-8]
  103960:	ea000024 	b	1039f8 <alt_dma_register_to_memory+0x280>
  103964:	e51b3008 	ldr	r3, [fp, #-8]
  103968:	e3530000 	cmp	r3, #0
  10396c:	1a000024 	bne	103a04 <alt_dma_register_to_memory+0x28c>
  103970:	e3a03000 	mov	r3, #0
  103974:	e50b3028 	str	r3, [fp, #-40]	; 0xffffffd8
  103978:	e3a03000 	mov	r3, #0
  10397c:	e50b302c 	str	r3, [fp, #-44]	; 0xffffffd4
  103980:	e51b3008 	ldr	r3, [fp, #-8]
  103984:	e3530000 	cmp	r3, #0
  103988:	1a000007 	bne	1039ac <alt_dma_register_to_memory+0x234>
  10398c:	e24b1024 	sub	r1, fp, #36	; 0x24
  103990:	e24b2028 	sub	r2, fp, #40	; 0x28
  103994:	e24b302c 	sub	r3, fp, #44	; 0x2c
  103998:	e1a00001 	mov	r0, r1
  10399c:	e1a01002 	mov	r1, r2
  1039a0:	e1a02003 	mov	r2, r3
  1039a4:	ebfff9b5 	bl	102080 <alt_mmu_va_to_pa_coalesce_next>
  1039a8:	e50b0008 	str	r0, [fp, #-8]
  1039ac:	e51b302c 	ldr	r3, [fp, #-44]	; 0xffffffd4
  1039b0:	e51b2014 	ldr	r2, [fp, #-20]	; 0xffffffec
  1039b4:	e0633002 	rsb	r3, r3, r2
  1039b8:	e50b3014 	str	r3, [fp, #-20]	; 0xffffffec
  1039bc:	e51b3008 	ldr	r3, [fp, #-8]
  1039c0:	e3530000 	cmp	r3, #0
  1039c4:	1a00000b 	bne	1039f8 <alt_dma_register_to_memory+0x280>
  1039c8:	e51bc028 	ldr	ip, [fp, #-40]	; 0xffffffd8
  1039cc:	e51b202c 	ldr	r2, [fp, #-44]	; 0xffffffd4
  1039d0:	e51b3010 	ldr	r3, [fp, #-16]
  1039d4:	e1a03332 	lsr	r3, r2, r3
  1039d8:	e55b202d 	ldrb	r2, [fp, #-45]	; 0xffffffd3
  1039dc:	e58d3000 	str	r3, [sp]
  1039e0:	e1a00002 	mov	r0, r2
  1039e4:	e51b1034 	ldr	r1, [fp, #-52]	; 0xffffffcc
  1039e8:	e51b200c 	ldr	r2, [fp, #-12]
  1039ec:	e1a0300c 	mov	r3, ip
  1039f0:	ebfffe9c 	bl	103468 <alt_dma_register_to_memory_segment>
  1039f4:	e50b0008 	str	r0, [fp, #-8]
  1039f8:	e51b3014 	ldr	r3, [fp, #-20]	; 0xffffffec
  1039fc:	e3530000 	cmp	r3, #0
  103a00:	1affffd7 	bne	103964 <alt_dma_register_to_memory+0x1ec>
  103a04:	e51b3008 	ldr	r3, [fp, #-8]
  103a08:	e3530000 	cmp	r3, #0
  103a0c:	1a000003 	bne	103a20 <alt_dma_register_to_memory+0x2a8>
  103a10:	e24b3024 	sub	r3, fp, #36	; 0x24
  103a14:	e1a00003 	mov	r0, r3
  103a18:	ebfff9f9 	bl	102204 <alt_mmu_va_to_pa_coalesce_end>
  103a1c:	e50b0008 	str	r0, [fp, #-8]
  103a20:	e5db300c 	ldrb	r3, [fp, #12]
  103a24:	e3530000 	cmp	r3, #0
  103a28:	0a000007 	beq	103a4c <alt_dma_register_to_memory+0x2d4>
  103a2c:	e51b3008 	ldr	r3, [fp, #-8]
  103a30:	e3530000 	cmp	r3, #0
  103a34:	1a000004 	bne	103a4c <alt_dma_register_to_memory+0x2d4>
  103a38:	e5db3010 	ldrb	r3, [fp, #16]
  103a3c:	e51b0034 	ldr	r0, [fp, #-52]	; 0xffffffcc
  103a40:	e1a01003 	mov	r1, r3
  103a44:	eb0013e8 	bl	1089ec <alt_dma_program_DMASEV>
  103a48:	e50b0008 	str	r0, [fp, #-8]
  103a4c:	e51b3008 	ldr	r3, [fp, #-8]
  103a50:	e3530000 	cmp	r3, #0
  103a54:	1a000002 	bne	103a64 <alt_dma_register_to_memory+0x2ec>
  103a58:	e51b0034 	ldr	r0, [fp, #-52]	; 0xffffffcc
  103a5c:	eb00109b 	bl	107cd0 <alt_dma_program_DMAEND>
  103a60:	e50b0008 	str	r0, [fp, #-8]
  103a64:	e51b3008 	ldr	r3, [fp, #-8]
  103a68:	e3530000 	cmp	r3, #0
  103a6c:	0a000003 	beq	103a80 <alt_dma_register_to_memory+0x308>
  103a70:	e51b0034 	ldr	r0, [fp, #-52]	; 0xffffffcc
  103a74:	eb000f3e 	bl	107774 <alt_dma_program_clear>
  103a78:	e51b3008 	ldr	r3, [fp, #-8]
  103a7c:	ea000004 	b	103a94 <alt_dma_register_to_memory+0x31c>
  103a80:	e55b302d 	ldrb	r3, [fp, #-45]	; 0xffffffd3
  103a84:	e1a00003 	mov	r0, r3
  103a88:	e51b1034 	ldr	r1, [fp, #-52]	; 0xffffffcc
  103a8c:	ebfff759 	bl	1017f8 <alt_dma_channel_exec>
  103a90:	e1a03000 	mov	r3, r0
  103a94:	e1a00003 	mov	r0, r3
  103a98:	e24bd004 	sub	sp, fp, #4
  103a9c:	e8bd8800 	pop	{fp, pc}

00103aa0 <alt_i2c_op_mode_get>:
  103aa0:	e52db004 	push	{fp}		; (str fp, [sp, #-4]!)
  103aa4:	e28db000 	add	fp, sp, #0
  103aa8:	e24dd014 	sub	sp, sp, #20
  103aac:	e50b0010 	str	r0, [fp, #-16]
  103ab0:	e50b1014 	str	r1, [fp, #-20]	; 0xffffffec
  103ab4:	e51b3010 	ldr	r3, [fp, #-16]
  103ab8:	e5933000 	ldr	r3, [r3]
  103abc:	e5933000 	ldr	r3, [r3]
  103ac0:	e50b3008 	str	r3, [fp, #-8]
  103ac4:	e51b3008 	ldr	r3, [fp, #-8]
  103ac8:	e2033001 	and	r3, r3, #1
  103acc:	e50b300c 	str	r3, [fp, #-12]
  103ad0:	e51b300c 	ldr	r3, [fp, #-12]
  103ad4:	e6ef2073 	uxtb	r2, r3
  103ad8:	e51b3014 	ldr	r3, [fp, #-20]	; 0xffffffec
  103adc:	e5c32000 	strb	r2, [r3]
  103ae0:	e3a03000 	mov	r3, #0
  103ae4:	e1a00003 	mov	r0, r3
  103ae8:	e24bd000 	sub	sp, fp, #0
  103aec:	e49db004 	pop	{fp}		; (ldr fp, [sp], #4)
  103af0:	e12fff1e 	bx	lr

00103af4 <alt_dma_memory_to_i2c_master_custom>:
  103af4:	e92d4800 	push	{fp, lr}
  103af8:	e28db004 	add	fp, sp, #4
  103afc:	e24dd018 	sub	sp, sp, #24
  103b00:	e50b0010 	str	r0, [fp, #-16]
  103b04:	e50b2018 	str	r2, [fp, #-24]	; 0xffffffe8
  103b08:	e50b301c 	str	r3, [fp, #-28]	; 0xffffffe4
  103b0c:	e1a03001 	mov	r3, r1
  103b10:	e54b3011 	strb	r3, [fp, #-17]	; 0xffffffef
  103b14:	e3a03000 	mov	r3, #0
  103b18:	e50b3008 	str	r3, [fp, #-8]
  103b1c:	e51b3008 	ldr	r3, [fp, #-8]
  103b20:	e3530000 	cmp	r3, #0
  103b24:	1a00000a 	bne	103b54 <alt_dma_memory_to_i2c_master_custom+0x60>
  103b28:	e5db3008 	ldrb	r3, [fp, #8]
  103b2c:	e3530000 	cmp	r3, #0
  103b30:	0a000007 	beq	103b54 <alt_dma_memory_to_i2c_master_custom+0x60>
  103b34:	e51b3018 	ldr	r3, [fp, #-24]	; 0xffffffe8
  103b38:	e5933000 	ldr	r3, [r3]
  103b3c:	e2833010 	add	r3, r3, #16
  103b40:	e51b0010 	ldr	r0, [fp, #-16]
  103b44:	e3a01002 	mov	r1, #2
  103b48:	e1a02003 	mov	r2, r3
  103b4c:	eb0012e9 	bl	1086f8 <alt_dma_program_DMAMOV>
  103b50:	e50b0008 	str	r0, [fp, #-8]
  103b54:	e51b3008 	ldr	r3, [fp, #-8]
  103b58:	e3530000 	cmp	r3, #0
  103b5c:	1a000004 	bne	103b74 <alt_dma_memory_to_i2c_master_custom+0x80>
  103b60:	e51b0010 	ldr	r0, [fp, #-16]
  103b64:	e3a01000 	mov	r1, #0
  103b68:	e51b201c 	ldr	r2, [fp, #-28]	; 0xffffffe4
  103b6c:	eb0012e1 	bl	1086f8 <alt_dma_program_DMAMOV>
  103b70:	e50b0008 	str	r0, [fp, #-8]
  103b74:	e51b3008 	ldr	r3, [fp, #-8]
  103b78:	e3530000 	cmp	r3, #0
  103b7c:	1a000008 	bne	103ba4 <alt_dma_memory_to_i2c_master_custom+0xb0>
  103b80:	e5db3008 	ldrb	r3, [fp, #8]
  103b84:	e3530000 	cmp	r3, #0
  103b88:	0a000005 	beq	103ba4 <alt_dma_memory_to_i2c_master_custom+0xb0>
  103b8c:	e51b0010 	ldr	r0, [fp, #-16]
  103b90:	e3a01001 	mov	r1, #1
  103b94:	e3a02004 	mov	r2, #4
  103b98:	e3402001 	movt	r2, #1
  103b9c:	eb0012d5 	bl	1086f8 <alt_dma_program_DMAMOV>
  103ba0:	e50b0008 	str	r0, [fp, #-8]
  103ba4:	ea00003f 	b	103ca8 <alt_dma_memory_to_i2c_master_custom+0x1b4>
  103ba8:	e51b3008 	ldr	r3, [fp, #-8]
  103bac:	e3530000 	cmp	r3, #0
  103bb0:	0a000000 	beq	103bb8 <alt_dma_memory_to_i2c_master_custom+0xc4>
  103bb4:	ea00003e 	b	103cb4 <alt_dma_memory_to_i2c_master_custom+0x1c0>
  103bb8:	e59b3004 	ldr	r3, [fp, #4]
  103bbc:	e3530c01 	cmp	r3, #256	; 0x100
  103bc0:	31a03003 	movcc	r3, r3
  103bc4:	23a03c01 	movcs	r3, #256	; 0x100
  103bc8:	e50b300c 	str	r3, [fp, #-12]
  103bcc:	e59b2004 	ldr	r2, [fp, #4]
  103bd0:	e51b300c 	ldr	r3, [fp, #-12]
  103bd4:	e0633002 	rsb	r3, r3, r2
  103bd8:	e58b3004 	str	r3, [fp, #4]
  103bdc:	e51b3008 	ldr	r3, [fp, #-8]
  103be0:	e3530000 	cmp	r3, #0
  103be4:	1a000006 	bne	103c04 <alt_dma_memory_to_i2c_master_custom+0x110>
  103be8:	e51b300c 	ldr	r3, [fp, #-12]
  103bec:	e3530001 	cmp	r3, #1
  103bf0:	9a000003 	bls	103c04 <alt_dma_memory_to_i2c_master_custom+0x110>
  103bf4:	e51b0010 	ldr	r0, [fp, #-16]
  103bf8:	e51b100c 	ldr	r1, [fp, #-12]
  103bfc:	eb00118e 	bl	10823c <alt_dma_program_DMALP>
  103c00:	e50b0008 	str	r0, [fp, #-8]
  103c04:	e51b3008 	ldr	r3, [fp, #-8]
  103c08:	e3530000 	cmp	r3, #0
  103c0c:	1a000004 	bne	103c24 <alt_dma_memory_to_i2c_master_custom+0x130>
  103c10:	e55b3011 	ldrb	r3, [fp, #-17]	; 0xffffffef
  103c14:	e51b0010 	ldr	r0, [fp, #-16]
  103c18:	e1a01003 	mov	r1, r3
  103c1c:	eb001053 	bl	107d70 <alt_dma_program_DMAFLUSHP>
  103c20:	e50b0008 	str	r0, [fp, #-8]
  103c24:	e51b3008 	ldr	r3, [fp, #-8]
  103c28:	e3530000 	cmp	r3, #0
  103c2c:	1a000005 	bne	103c48 <alt_dma_memory_to_i2c_master_custom+0x154>
  103c30:	e55b3011 	ldrb	r3, [fp, #-17]	; 0xffffffef
  103c34:	e51b0010 	ldr	r0, [fp, #-16]
  103c38:	e1a01003 	mov	r1, r3
  103c3c:	e3a02001 	mov	r2, #1
  103c40:	eb00147c 	bl	108e38 <alt_dma_program_DMAWFP>
  103c44:	e50b0008 	str	r0, [fp, #-8]
  103c48:	e51b3008 	ldr	r3, [fp, #-8]
  103c4c:	e3530000 	cmp	r3, #0
  103c50:	1a000003 	bne	103c64 <alt_dma_memory_to_i2c_master_custom+0x170>
  103c54:	e51b0010 	ldr	r0, [fp, #-16]
  103c58:	e3a01001 	mov	r1, #1
  103c5c:	eb0010f7 	bl	108040 <alt_dma_program_DMALD>
  103c60:	e50b0008 	str	r0, [fp, #-8]
  103c64:	e51b3008 	ldr	r3, [fp, #-8]
  103c68:	e3530000 	cmp	r3, #0
  103c6c:	1a000003 	bne	103c80 <alt_dma_memory_to_i2c_master_custom+0x18c>
  103c70:	e51b0010 	ldr	r0, [fp, #-16]
  103c74:	e3a01001 	mov	r1, #1
  103c78:	eb00138d 	bl	108ab4 <alt_dma_program_DMAST>
  103c7c:	e50b0008 	str	r0, [fp, #-8]
  103c80:	e51b3008 	ldr	r3, [fp, #-8]
  103c84:	e3530000 	cmp	r3, #0
  103c88:	1a000006 	bne	103ca8 <alt_dma_memory_to_i2c_master_custom+0x1b4>
  103c8c:	e51b300c 	ldr	r3, [fp, #-12]
  103c90:	e3530001 	cmp	r3, #1
  103c94:	9a000003 	bls	103ca8 <alt_dma_memory_to_i2c_master_custom+0x1b4>
  103c98:	e51b0010 	ldr	r0, [fp, #-16]
  103c9c:	e3a01000 	mov	r1, #0
  103ca0:	eb0011c5 	bl	1083bc <alt_dma_program_DMALPEND>
  103ca4:	e50b0008 	str	r0, [fp, #-8]
  103ca8:	e59b3004 	ldr	r3, [fp, #4]
  103cac:	e3530000 	cmp	r3, #0
  103cb0:	1affffbc 	bne	103ba8 <alt_dma_memory_to_i2c_master_custom+0xb4>
  103cb4:	e51b3008 	ldr	r3, [fp, #-8]
  103cb8:	e1a00003 	mov	r0, r3
  103cbc:	e24bd004 	sub	sp, fp, #4
  103cc0:	e8bd8800 	pop	{fp, pc}

00103cc4 <alt_dma_memory_to_i2c_common_segment>:
  103cc4:	e92d4800 	push	{fp, lr}
  103cc8:	e28db004 	add	fp, sp, #4
  103ccc:	e24dd038 	sub	sp, sp, #56	; 0x38
  103cd0:	e50b0030 	str	r0, [fp, #-48]	; 0xffffffd0
  103cd4:	e50b3038 	str	r3, [fp, #-56]	; 0xffffffc8
  103cd8:	e1a03001 	mov	r3, r1
  103cdc:	e54b3031 	strb	r3, [fp, #-49]	; 0xffffffcf
  103ce0:	e1a03002 	mov	r3, r2
  103ce4:	e54b3032 	strb	r3, [fp, #-50]	; 0xffffffce
  103ce8:	e3a03000 	mov	r3, #0
  103cec:	e50b3008 	str	r3, [fp, #-8]
  103cf0:	e3a03000 	mov	r3, #0
  103cf4:	e50b300c 	str	r3, [fp, #-12]
  103cf8:	e3a03000 	mov	r3, #0
  103cfc:	e50b3010 	str	r3, [fp, #-16]
  103d00:	e3a03000 	mov	r3, #0
  103d04:	e50b3014 	str	r3, [fp, #-20]	; 0xffffffec
  103d08:	e51b3008 	ldr	r3, [fp, #-8]
  103d0c:	e3530000 	cmp	r3, #0
  103d10:	1a000018 	bne	103d78 <alt_dma_memory_to_i2c_common_segment+0xb4>
  103d14:	e59b3004 	ldr	r3, [fp, #4]
  103d18:	e50b3018 	str	r3, [fp, #-24]	; 0xffffffe8
  103d1c:	e55b3032 	ldrb	r3, [fp, #-50]	; 0xffffffce
  103d20:	e3530001 	cmp	r3, #1
  103d24:	9a000011 	bls	103d70 <alt_dma_memory_to_i2c_common_segment+0xac>
  103d28:	e55b3032 	ldrb	r3, [fp, #-50]	; 0xffffffce
  103d2c:	e3530010 	cmp	r3, #16
  103d30:	9a000001 	bls	103d3c <alt_dma_memory_to_i2c_common_segment+0x78>
  103d34:	e3a03010 	mov	r3, #16
  103d38:	e54b3032 	strb	r3, [fp, #-50]	; 0xffffffce
  103d3c:	e55b3032 	ldrb	r3, [fp, #-50]	; 0xffffffce
  103d40:	e50b300c 	str	r3, [fp, #-12]
  103d44:	e51b2018 	ldr	r2, [fp, #-24]	; 0xffffffe8
  103d48:	e51b300c 	ldr	r3, [fp, #-12]
  103d4c:	e24b102c 	sub	r1, fp, #44	; 0x2c
  103d50:	e1a00001 	mov	r0, r1
  103d54:	e1a01002 	mov	r1, r2
  103d58:	e1a02003 	mov	r2, r3
  103d5c:	eb0014a0 	bl	108fe4 <ldiv>
  103d60:	e51b302c 	ldr	r3, [fp, #-44]	; 0xffffffd4
  103d64:	e50b3010 	str	r3, [fp, #-16]
  103d68:	e51b3028 	ldr	r3, [fp, #-40]	; 0xffffffd8
  103d6c:	e50b3018 	str	r3, [fp, #-24]	; 0xffffffe8
  103d70:	e51b3018 	ldr	r3, [fp, #-24]	; 0xffffffe8
  103d74:	e50b3014 	str	r3, [fp, #-20]	; 0xffffffec
  103d78:	e51b3008 	ldr	r3, [fp, #-8]
  103d7c:	e3530000 	cmp	r3, #0
  103d80:	1a000004 	bne	103d98 <alt_dma_memory_to_i2c_common_segment+0xd4>
  103d84:	e51b0030 	ldr	r0, [fp, #-48]	; 0xffffffd0
  103d88:	e3a01000 	mov	r1, #0
  103d8c:	e51b2038 	ldr	r2, [fp, #-56]	; 0xffffffc8
  103d90:	eb001258 	bl	1086f8 <alt_dma_program_DMAMOV>
  103d94:	e50b0008 	str	r0, [fp, #-8]
  103d98:	e51b3010 	ldr	r3, [fp, #-16]
  103d9c:	e3530000 	cmp	r3, #0
  103da0:	0a000059 	beq	103f0c <alt_dma_memory_to_i2c_common_segment+0x248>
  103da4:	e51b3008 	ldr	r3, [fp, #-8]
  103da8:	e3530000 	cmp	r3, #0
  103dac:	1a000008 	bne	103dd4 <alt_dma_memory_to_i2c_common_segment+0x110>
  103db0:	e51b300c 	ldr	r3, [fp, #-12]
  103db4:	e2433001 	sub	r3, r3, #1
  103db8:	e1a03203 	lsl	r3, r3, #4
  103dbc:	e3833001 	orr	r3, r3, #1
  103dc0:	e51b0030 	ldr	r0, [fp, #-48]	; 0xffffffd0
  103dc4:	e3a01001 	mov	r1, #1
  103dc8:	e1a02003 	mov	r2, r3
  103dcc:	eb001249 	bl	1086f8 <alt_dma_program_DMAMOV>
  103dd0:	e50b0008 	str	r0, [fp, #-8]
  103dd4:	ea000049 	b	103f00 <alt_dma_memory_to_i2c_common_segment+0x23c>
  103dd8:	e51b3008 	ldr	r3, [fp, #-8]
  103ddc:	e3530000 	cmp	r3, #0
  103de0:	0a000000 	beq	103de8 <alt_dma_memory_to_i2c_common_segment+0x124>
  103de4:	ea000048 	b	103f0c <alt_dma_memory_to_i2c_common_segment+0x248>
  103de8:	e51b3010 	ldr	r3, [fp, #-16]
  103dec:	e3530c01 	cmp	r3, #256	; 0x100
  103df0:	31a03003 	movcc	r3, r3
  103df4:	23a03c01 	movcs	r3, #256	; 0x100
  103df8:	e50b3020 	str	r3, [fp, #-32]	; 0xffffffe0
  103dfc:	e51b2010 	ldr	r2, [fp, #-16]
  103e00:	e51b3020 	ldr	r3, [fp, #-32]	; 0xffffffe0
  103e04:	e0633002 	rsb	r3, r3, r2
  103e08:	e50b3010 	str	r3, [fp, #-16]
  103e0c:	e51b3008 	ldr	r3, [fp, #-8]
  103e10:	e3530000 	cmp	r3, #0
  103e14:	1a000006 	bne	103e34 <alt_dma_memory_to_i2c_common_segment+0x170>
  103e18:	e51b3020 	ldr	r3, [fp, #-32]	; 0xffffffe0
  103e1c:	e3530001 	cmp	r3, #1
  103e20:	9a000003 	bls	103e34 <alt_dma_memory_to_i2c_common_segment+0x170>
  103e24:	e51b0030 	ldr	r0, [fp, #-48]	; 0xffffffd0
  103e28:	e51b1020 	ldr	r1, [fp, #-32]	; 0xffffffe0
  103e2c:	eb001102 	bl	10823c <alt_dma_program_DMALP>
  103e30:	e50b0008 	str	r0, [fp, #-8]
  103e34:	e51b3008 	ldr	r3, [fp, #-8]
  103e38:	e3530000 	cmp	r3, #0
  103e3c:	1a000004 	bne	103e54 <alt_dma_memory_to_i2c_common_segment+0x190>
  103e40:	e55b3031 	ldrb	r3, [fp, #-49]	; 0xffffffcf
  103e44:	e51b0030 	ldr	r0, [fp, #-48]	; 0xffffffd0
  103e48:	e1a01003 	mov	r1, r3
  103e4c:	eb000fc7 	bl	107d70 <alt_dma_program_DMAFLUSHP>
  103e50:	e50b0008 	str	r0, [fp, #-8]
  103e54:	e51b3008 	ldr	r3, [fp, #-8]
  103e58:	e3530000 	cmp	r3, #0
  103e5c:	1a000005 	bne	103e78 <alt_dma_memory_to_i2c_common_segment+0x1b4>
  103e60:	e55b3031 	ldrb	r3, [fp, #-49]	; 0xffffffcf
  103e64:	e51b0030 	ldr	r0, [fp, #-48]	; 0xffffffd0
  103e68:	e1a01003 	mov	r1, r3
  103e6c:	e3a02002 	mov	r2, #2
  103e70:	eb0013f0 	bl	108e38 <alt_dma_program_DMAWFP>
  103e74:	e50b0008 	str	r0, [fp, #-8]
  103e78:	e51b3008 	ldr	r3, [fp, #-8]
  103e7c:	e3530000 	cmp	r3, #0
  103e80:	1a000003 	bne	103e94 <alt_dma_memory_to_i2c_common_segment+0x1d0>
  103e84:	e51b0030 	ldr	r0, [fp, #-48]	; 0xffffffd0
  103e88:	e3a01002 	mov	r1, #2
  103e8c:	eb00106b 	bl	108040 <alt_dma_program_DMALD>
  103e90:	e50b0008 	str	r0, [fp, #-8]
  103e94:	e3a03000 	mov	r3, #0
  103e98:	e50b301c 	str	r3, [fp, #-28]	; 0xffffffe4
  103e9c:	ea000009 	b	103ec8 <alt_dma_memory_to_i2c_common_segment+0x204>
  103ea0:	e51b3008 	ldr	r3, [fp, #-8]
  103ea4:	e3530000 	cmp	r3, #0
  103ea8:	1a000003 	bne	103ebc <alt_dma_memory_to_i2c_common_segment+0x1f8>
  103eac:	e51b0030 	ldr	r0, [fp, #-48]	; 0xffffffd0
  103eb0:	e3a01002 	mov	r1, #2
  103eb4:	eb0012fe 	bl	108ab4 <alt_dma_program_DMAST>
  103eb8:	e50b0008 	str	r0, [fp, #-8]
  103ebc:	e51b301c 	ldr	r3, [fp, #-28]	; 0xffffffe4
  103ec0:	e2833001 	add	r3, r3, #1
  103ec4:	e50b301c 	str	r3, [fp, #-28]	; 0xffffffe4
  103ec8:	e51b201c 	ldr	r2, [fp, #-28]	; 0xffffffe4
  103ecc:	e51b300c 	ldr	r3, [fp, #-12]
  103ed0:	e1520003 	cmp	r2, r3
  103ed4:	3afffff1 	bcc	103ea0 <alt_dma_memory_to_i2c_common_segment+0x1dc>
  103ed8:	e51b3008 	ldr	r3, [fp, #-8]
  103edc:	e3530000 	cmp	r3, #0
  103ee0:	1a000006 	bne	103f00 <alt_dma_memory_to_i2c_common_segment+0x23c>
  103ee4:	e51b3020 	ldr	r3, [fp, #-32]	; 0xffffffe0
  103ee8:	e3530001 	cmp	r3, #1
  103eec:	9a000003 	bls	103f00 <alt_dma_memory_to_i2c_common_segment+0x23c>
  103ef0:	e51b0030 	ldr	r0, [fp, #-48]	; 0xffffffd0
  103ef4:	e3a01000 	mov	r1, #0
  103ef8:	eb00112f 	bl	1083bc <alt_dma_program_DMALPEND>
  103efc:	e50b0008 	str	r0, [fp, #-8]
  103f00:	e51b3010 	ldr	r3, [fp, #-16]
  103f04:	e3530000 	cmp	r3, #0
  103f08:	1affffb2 	bne	103dd8 <alt_dma_memory_to_i2c_common_segment+0x114>
  103f0c:	e51b3014 	ldr	r3, [fp, #-20]	; 0xffffffec
  103f10:	e3530000 	cmp	r3, #0
  103f14:	0a00004b 	beq	104048 <alt_dma_memory_to_i2c_common_segment+0x384>
  103f18:	e51b3008 	ldr	r3, [fp, #-8]
  103f1c:	e3530000 	cmp	r3, #0
  103f20:	1a000004 	bne	103f38 <alt_dma_memory_to_i2c_common_segment+0x274>
  103f24:	e51b0030 	ldr	r0, [fp, #-48]	; 0xffffffd0
  103f28:	e3a01001 	mov	r1, #1
  103f2c:	e3a02001 	mov	r2, #1
  103f30:	eb0011f0 	bl	1086f8 <alt_dma_program_DMAMOV>
  103f34:	e50b0008 	str	r0, [fp, #-8]
  103f38:	ea00003f 	b	10403c <alt_dma_memory_to_i2c_common_segment+0x378>
  103f3c:	e51b3008 	ldr	r3, [fp, #-8]
  103f40:	e3530000 	cmp	r3, #0
  103f44:	0a000000 	beq	103f4c <alt_dma_memory_to_i2c_common_segment+0x288>
  103f48:	ea00003e 	b	104048 <alt_dma_memory_to_i2c_common_segment+0x384>
  103f4c:	e51b3014 	ldr	r3, [fp, #-20]	; 0xffffffec
  103f50:	e3530c01 	cmp	r3, #256	; 0x100
  103f54:	31a03003 	movcc	r3, r3
  103f58:	23a03c01 	movcs	r3, #256	; 0x100
  103f5c:	e50b3024 	str	r3, [fp, #-36]	; 0xffffffdc
  103f60:	e51b2014 	ldr	r2, [fp, #-20]	; 0xffffffec
  103f64:	e51b3024 	ldr	r3, [fp, #-36]	; 0xffffffdc
  103f68:	e0633002 	rsb	r3, r3, r2
  103f6c:	e50b3014 	str	r3, [fp, #-20]	; 0xffffffec
  103f70:	e51b3008 	ldr	r3, [fp, #-8]
  103f74:	e3530000 	cmp	r3, #0
  103f78:	1a000006 	bne	103f98 <alt_dma_memory_to_i2c_common_segment+0x2d4>
  103f7c:	e51b3024 	ldr	r3, [fp, #-36]	; 0xffffffdc
  103f80:	e3530001 	cmp	r3, #1
  103f84:	9a000003 	bls	103f98 <alt_dma_memory_to_i2c_common_segment+0x2d4>
  103f88:	e51b0030 	ldr	r0, [fp, #-48]	; 0xffffffd0
  103f8c:	e51b1024 	ldr	r1, [fp, #-36]	; 0xffffffdc
  103f90:	eb0010a9 	bl	10823c <alt_dma_program_DMALP>
  103f94:	e50b0008 	str	r0, [fp, #-8]
  103f98:	e51b3008 	ldr	r3, [fp, #-8]
  103f9c:	e3530000 	cmp	r3, #0
  103fa0:	1a000004 	bne	103fb8 <alt_dma_memory_to_i2c_common_segment+0x2f4>
  103fa4:	e55b3031 	ldrb	r3, [fp, #-49]	; 0xffffffcf
  103fa8:	e51b0030 	ldr	r0, [fp, #-48]	; 0xffffffd0
  103fac:	e1a01003 	mov	r1, r3
  103fb0:	eb000f6e 	bl	107d70 <alt_dma_program_DMAFLUSHP>
  103fb4:	e50b0008 	str	r0, [fp, #-8]
  103fb8:	e51b3008 	ldr	r3, [fp, #-8]
  103fbc:	e3530000 	cmp	r3, #0
  103fc0:	1a000005 	bne	103fdc <alt_dma_memory_to_i2c_common_segment+0x318>
  103fc4:	e55b3031 	ldrb	r3, [fp, #-49]	; 0xffffffcf
  103fc8:	e51b0030 	ldr	r0, [fp, #-48]	; 0xffffffd0
  103fcc:	e1a01003 	mov	r1, r3
  103fd0:	e3a02001 	mov	r2, #1
  103fd4:	eb001397 	bl	108e38 <alt_dma_program_DMAWFP>
  103fd8:	e50b0008 	str	r0, [fp, #-8]
  103fdc:	e51b3008 	ldr	r3, [fp, #-8]
  103fe0:	e3530000 	cmp	r3, #0
  103fe4:	1a000003 	bne	103ff8 <alt_dma_memory_to_i2c_common_segment+0x334>
  103fe8:	e51b0030 	ldr	r0, [fp, #-48]	; 0xffffffd0
  103fec:	e3a01001 	mov	r1, #1
  103ff0:	eb001012 	bl	108040 <alt_dma_program_DMALD>
  103ff4:	e50b0008 	str	r0, [fp, #-8]
  103ff8:	e51b3008 	ldr	r3, [fp, #-8]
  103ffc:	e3530000 	cmp	r3, #0
  104000:	1a000003 	bne	104014 <alt_dma_memory_to_i2c_common_segment+0x350>
  104004:	e51b0030 	ldr	r0, [fp, #-48]	; 0xffffffd0
  104008:	e3a01001 	mov	r1, #1
  10400c:	eb0012a8 	bl	108ab4 <alt_dma_program_DMAST>
  104010:	e50b0008 	str	r0, [fp, #-8]
  104014:	e51b3008 	ldr	r3, [fp, #-8]
  104018:	e3530000 	cmp	r3, #0
  10401c:	1a000006 	bne	10403c <alt_dma_memory_to_i2c_common_segment+0x378>
  104020:	e51b3024 	ldr	r3, [fp, #-36]	; 0xffffffdc
  104024:	e3530001 	cmp	r3, #1
  104028:	9a000003 	bls	10403c <alt_dma_memory_to_i2c_common_segment+0x378>
  10402c:	e51b0030 	ldr	r0, [fp, #-48]	; 0xffffffd0
  104030:	e3a01000 	mov	r1, #0
  104034:	eb0010e0 	bl	1083bc <alt_dma_program_DMALPEND>
  104038:	e50b0008 	str	r0, [fp, #-8]
  10403c:	e51b3014 	ldr	r3, [fp, #-20]	; 0xffffffec
  104040:	e3530000 	cmp	r3, #0
  104044:	1affffbc 	bne	103f3c <alt_dma_memory_to_i2c_common_segment+0x278>
  104048:	e51b3008 	ldr	r3, [fp, #-8]
  10404c:	e1a00003 	mov	r0, r3
  104050:	e24bd004 	sub	sp, fp, #4
  104054:	e8bd8800 	pop	{fp, pc}

00104058 <alt_dma_memory_to_i2c_common>:
  104058:	e92d4800 	push	{fp, lr}
  10405c:	e28db004 	add	fp, sp, #4
  104060:	e24dd038 	sub	sp, sp, #56	; 0x38
  104064:	e50b0028 	str	r0, [fp, #-40]	; 0xffffffd8
  104068:	e50b2030 	str	r2, [fp, #-48]	; 0xffffffd0
  10406c:	e50b3034 	str	r3, [fp, #-52]	; 0xffffffcc
  104070:	e1a03001 	mov	r3, r1
  104074:	e54b3029 	strb	r3, [fp, #-41]	; 0xffffffd7
  104078:	e3a03000 	mov	r3, #0
  10407c:	e50b3008 	str	r3, [fp, #-8]
  104080:	e51b3030 	ldr	r3, [fp, #-48]	; 0xffffffd0
  104084:	e5933000 	ldr	r3, [r3]
  104088:	e5933000 	ldr	r3, [r3]
  10408c:	e283303c 	add	r3, r3, #60	; 0x3c
  104090:	e5933000 	ldr	r3, [r3]
  104094:	e6ef3073 	uxtb	r3, r3
  104098:	e2833001 	add	r3, r3, #1
  10409c:	e54b3009 	strb	r3, [fp, #-9]
  1040a0:	e51b3008 	ldr	r3, [fp, #-8]
  1040a4:	e3530000 	cmp	r3, #0
  1040a8:	1a000008 	bne	1040d0 <alt_dma_memory_to_i2c_common+0x78>
  1040ac:	e51b3030 	ldr	r3, [fp, #-48]	; 0xffffffd0
  1040b0:	e5933000 	ldr	r3, [r3]
  1040b4:	e5933000 	ldr	r3, [r3]
  1040b8:	e2833010 	add	r3, r3, #16
  1040bc:	e51b0028 	ldr	r0, [fp, #-40]	; 0xffffffd8
  1040c0:	e3a01002 	mov	r1, #2
  1040c4:	e1a02003 	mov	r2, r3
  1040c8:	eb00118a 	bl	1086f8 <alt_dma_program_DMAMOV>
  1040cc:	e50b0008 	str	r0, [fp, #-8]
  1040d0:	e51b3008 	ldr	r3, [fp, #-8]
  1040d4:	e3530000 	cmp	r3, #0
  1040d8:	1a000005 	bne	1040f4 <alt_dma_memory_to_i2c_common+0x9c>
  1040dc:	e24b301c 	sub	r3, fp, #28
  1040e0:	e1a00003 	mov	r0, r3
  1040e4:	e51b1034 	ldr	r1, [fp, #-52]	; 0xffffffcc
  1040e8:	e59b2004 	ldr	r2, [fp, #4]
  1040ec:	ebfff7b3 	bl	101fc0 <alt_mmu_va_to_pa_coalesce_begin>
  1040f0:	e50b0008 	str	r0, [fp, #-8]
  1040f4:	ea000021 	b	104180 <alt_dma_memory_to_i2c_common+0x128>
  1040f8:	e51b3008 	ldr	r3, [fp, #-8]
  1040fc:	e3530000 	cmp	r3, #0
  104100:	1a000021 	bne	10418c <alt_dma_memory_to_i2c_common+0x134>
  104104:	e3a03000 	mov	r3, #0
  104108:	e50b3020 	str	r3, [fp, #-32]	; 0xffffffe0
  10410c:	e3a03000 	mov	r3, #0
  104110:	e50b3024 	str	r3, [fp, #-36]	; 0xffffffdc
  104114:	e51b3008 	ldr	r3, [fp, #-8]
  104118:	e3530000 	cmp	r3, #0
  10411c:	1a000007 	bne	104140 <alt_dma_memory_to_i2c_common+0xe8>
  104120:	e24b101c 	sub	r1, fp, #28
  104124:	e24b2020 	sub	r2, fp, #32
  104128:	e24b3024 	sub	r3, fp, #36	; 0x24
  10412c:	e1a00001 	mov	r0, r1
  104130:	e1a01002 	mov	r1, r2
  104134:	e1a02003 	mov	r2, r3
  104138:	ebfff7d0 	bl	102080 <alt_mmu_va_to_pa_coalesce_next>
  10413c:	e50b0008 	str	r0, [fp, #-8]
  104140:	e51b3024 	ldr	r3, [fp, #-36]	; 0xffffffdc
  104144:	e59b2004 	ldr	r2, [fp, #4]
  104148:	e0633002 	rsb	r3, r3, r2
  10414c:	e58b3004 	str	r3, [fp, #4]
  104150:	e51b3008 	ldr	r3, [fp, #-8]
  104154:	e3530000 	cmp	r3, #0
  104158:	1a000008 	bne	104180 <alt_dma_memory_to_i2c_common+0x128>
  10415c:	e51bc020 	ldr	ip, [fp, #-32]	; 0xffffffe0
  104160:	e51b3024 	ldr	r3, [fp, #-36]	; 0xffffffdc
  104164:	e55b1029 	ldrb	r1, [fp, #-41]	; 0xffffffd7
  104168:	e55b2009 	ldrb	r2, [fp, #-9]
  10416c:	e58d3000 	str	r3, [sp]
  104170:	e51b0028 	ldr	r0, [fp, #-40]	; 0xffffffd8
  104174:	e1a0300c 	mov	r3, ip
  104178:	ebfffed1 	bl	103cc4 <alt_dma_memory_to_i2c_common_segment>
  10417c:	e50b0008 	str	r0, [fp, #-8]
  104180:	e59b3004 	ldr	r3, [fp, #4]
  104184:	e3530000 	cmp	r3, #0
  104188:	1affffda 	bne	1040f8 <alt_dma_memory_to_i2c_common+0xa0>
  10418c:	e51b3008 	ldr	r3, [fp, #-8]
  104190:	e3530000 	cmp	r3, #0
  104194:	1a000003 	bne	1041a8 <alt_dma_memory_to_i2c_common+0x150>
  104198:	e24b301c 	sub	r3, fp, #28
  10419c:	e1a00003 	mov	r0, r3
  1041a0:	ebfff817 	bl	102204 <alt_mmu_va_to_pa_coalesce_end>
  1041a4:	e50b0008 	str	r0, [fp, #-8]
  1041a8:	e51b3008 	ldr	r3, [fp, #-8]
  1041ac:	e1a00003 	mov	r0, r3
  1041b0:	e24bd004 	sub	sp, fp, #4
  1041b4:	e8bd8800 	pop	{fp, pc}

001041b8 <alt_dma_memory_to_i2c_master>:
  1041b8:	e92d4800 	push	{fp, lr}
  1041bc:	e28db004 	add	fp, sp, #4
  1041c0:	e24dd038 	sub	sp, sp, #56	; 0x38
  1041c4:	e50b0028 	str	r0, [fp, #-40]	; 0xffffffd8
  1041c8:	e50b2030 	str	r2, [fp, #-48]	; 0xffffffd0
  1041cc:	e50b3034 	str	r3, [fp, #-52]	; 0xffffffcc
  1041d0:	e1a03001 	mov	r3, r1
  1041d4:	e54b3029 	strb	r3, [fp, #-41]	; 0xffffffd7
  1041d8:	e3a03000 	mov	r3, #0
  1041dc:	e50b3008 	str	r3, [fp, #-8]
  1041e0:	e51b3008 	ldr	r3, [fp, #-8]
  1041e4:	e3530000 	cmp	r3, #0
  1041e8:	1a000010 	bne	104230 <alt_dma_memory_to_i2c_master+0x78>
  1041ec:	e51b3030 	ldr	r3, [fp, #-48]	; 0xffffffd0
  1041f0:	e2831008 	add	r1, r3, #8
  1041f4:	e24b2020 	sub	r2, fp, #32
  1041f8:	e24b301c 	sub	r3, fp, #28
  1041fc:	e1a00001 	mov	r0, r1
  104200:	e1a01002 	mov	r1, r2
  104204:	e1a02003 	mov	r2, r3
  104208:	ebfff400 	bl	101210 <alt_mmu_va_to_pa>
  10420c:	e50b000c 	str	r0, [fp, #-12]
  104210:	e51b301c 	ldr	r3, [fp, #-28]	; 0xffffffe4
  104214:	e3530000 	cmp	r3, #0
  104218:	0a000004 	beq	104230 <alt_dma_memory_to_i2c_master+0x78>
  10421c:	e3020884 	movw	r0, #10372	; 0x2884
  104220:	e3400011 	movt	r0, #17
  104224:	eb0013f1 	bl	1091f0 <puts>
  104228:	e3e03000 	mvn	r3, #0
  10422c:	e50b3008 	str	r3, [fp, #-8]
  104230:	e59b3004 	ldr	r3, [fp, #4]
  104234:	e3530001 	cmp	r3, #1
  104238:	1a000020 	bne	1042c0 <alt_dma_memory_to_i2c_master+0x108>
  10423c:	e51b3034 	ldr	r3, [fp, #-52]	; 0xffffffcc
  104240:	e5d33000 	ldrb	r3, [r3]
  104244:	e1a02003 	mov	r2, r3
  104248:	e51b3030 	ldr	r3, [fp, #-48]	; 0xffffffd0
  10424c:	e5d33004 	ldrb	r3, [r3, #4]
  104250:	e1a03503 	lsl	r3, r3, #10
  104254:	e2033b01 	and	r3, r3, #1024	; 0x400
  104258:	e1822003 	orr	r2, r2, r3
  10425c:	e51b3030 	ldr	r3, [fp, #-48]	; 0xffffffd0
  104260:	e5d33005 	ldrb	r3, [r3, #5]
  104264:	e1a03483 	lsl	r3, r3, #9
  104268:	e2033c02 	and	r3, r3, #512	; 0x200
  10426c:	e1823003 	orr	r3, r2, r3
  104270:	e1a02003 	mov	r2, r3
  104274:	e51b3030 	ldr	r3, [fp, #-48]	; 0xffffffd0
  104278:	e5832014 	str	r2, [r3, #20]
  10427c:	e51b3008 	ldr	r3, [fp, #-8]
  104280:	e3530000 	cmp	r3, #0
  104284:	1a000065 	bne	104420 <alt_dma_memory_to_i2c_master+0x268>
  104288:	e51b3030 	ldr	r3, [fp, #-48]	; 0xffffffd0
  10428c:	e5932000 	ldr	r2, [r3]
  104290:	e51b300c 	ldr	r3, [fp, #-12]
  104294:	e283c00c 	add	ip, r3, #12
  104298:	e55b1029 	ldrb	r1, [fp, #-41]	; 0xffffffd7
  10429c:	e3a03001 	mov	r3, #1
  1042a0:	e58d3000 	str	r3, [sp]
  1042a4:	e3a03001 	mov	r3, #1
  1042a8:	e58d3004 	str	r3, [sp, #4]
  1042ac:	e51b0028 	ldr	r0, [fp, #-40]	; 0xffffffd8
  1042b0:	e1a0300c 	mov	r3, ip
  1042b4:	ebfffe0e 	bl	103af4 <alt_dma_memory_to_i2c_master_custom>
  1042b8:	e50b0008 	str	r0, [fp, #-8]
  1042bc:	ea000057 	b	104420 <alt_dma_memory_to_i2c_master+0x268>
  1042c0:	e51b3030 	ldr	r3, [fp, #-48]	; 0xffffffd0
  1042c4:	e5d33005 	ldrb	r3, [r3, #5]
  1042c8:	e3530000 	cmp	r3, #0
  1042cc:	0a00000b 	beq	104300 <alt_dma_memory_to_i2c_master+0x148>
  1042d0:	e59b3004 	ldr	r3, [fp, #4]
  1042d4:	e2433001 	sub	r3, r3, #1
  1042d8:	e51b2034 	ldr	r2, [fp, #-52]	; 0xffffffcc
  1042dc:	e0823003 	add	r3, r2, r3
  1042e0:	e5d33000 	ldrb	r3, [r3]
  1042e4:	e3833c02 	orr	r3, r3, #512	; 0x200
  1042e8:	e1a02003 	mov	r2, r3
  1042ec:	e51b3030 	ldr	r3, [fp, #-48]	; 0xffffffd0
  1042f0:	e5832010 	str	r2, [r3, #16]
  1042f4:	e59b3004 	ldr	r3, [fp, #4]
  1042f8:	e2433001 	sub	r3, r3, #1
  1042fc:	e58b3004 	str	r3, [fp, #4]
  104300:	e51b3030 	ldr	r3, [fp, #-48]	; 0xffffffd0
  104304:	e5d33004 	ldrb	r3, [r3, #4]
  104308:	e3530000 	cmp	r3, #0
  10430c:	0a00001b 	beq	104380 <alt_dma_memory_to_i2c_master+0x1c8>
  104310:	e51b3034 	ldr	r3, [fp, #-52]	; 0xffffffcc
  104314:	e5d33000 	ldrb	r3, [r3]
  104318:	e3833b01 	orr	r3, r3, #1024	; 0x400
  10431c:	e1a02003 	mov	r2, r3
  104320:	e51b3030 	ldr	r3, [fp, #-48]	; 0xffffffd0
  104324:	e583200c 	str	r2, [r3, #12]
  104328:	e59b3004 	ldr	r3, [fp, #4]
  10432c:	e2433001 	sub	r3, r3, #1
  104330:	e58b3004 	str	r3, [fp, #4]
  104334:	e51b3008 	ldr	r3, [fp, #-8]
  104338:	e3530000 	cmp	r3, #0
  10433c:	1a00000f 	bne	104380 <alt_dma_memory_to_i2c_master+0x1c8>
  104340:	e51b3030 	ldr	r3, [fp, #-48]	; 0xffffffd0
  104344:	e5932000 	ldr	r2, [r3]
  104348:	e51b300c 	ldr	r3, [fp, #-12]
  10434c:	e283c004 	add	ip, r3, #4
  104350:	e55b1029 	ldrb	r1, [fp, #-41]	; 0xffffffd7
  104354:	e3a03001 	mov	r3, #1
  104358:	e58d3000 	str	r3, [sp]
  10435c:	e3a03001 	mov	r3, #1
  104360:	e58d3004 	str	r3, [sp, #4]
  104364:	e51b0028 	ldr	r0, [fp, #-40]	; 0xffffffd8
  104368:	e1a0300c 	mov	r3, ip
  10436c:	ebfffde0 	bl	103af4 <alt_dma_memory_to_i2c_master_custom>
  104370:	e50b0008 	str	r0, [fp, #-8]
  104374:	e51b3034 	ldr	r3, [fp, #-52]	; 0xffffffcc
  104378:	e2833001 	add	r3, r3, #1
  10437c:	e50b3034 	str	r3, [fp, #-52]	; 0xffffffcc
  104380:	e51b3008 	ldr	r3, [fp, #-8]
  104384:	e3530000 	cmp	r3, #0
  104388:	1a00000b 	bne	1043bc <alt_dma_memory_to_i2c_master+0x204>
  10438c:	e59b3004 	ldr	r3, [fp, #4]
  104390:	e3530000 	cmp	r3, #0
  104394:	0a000008 	beq	1043bc <alt_dma_memory_to_i2c_master+0x204>
  104398:	e55b2029 	ldrb	r2, [fp, #-41]	; 0xffffffd7
  10439c:	e59b3004 	ldr	r3, [fp, #4]
  1043a0:	e58d3000 	str	r3, [sp]
  1043a4:	e51b0028 	ldr	r0, [fp, #-40]	; 0xffffffd8
  1043a8:	e1a01002 	mov	r1, r2
  1043ac:	e51b2030 	ldr	r2, [fp, #-48]	; 0xffffffd0
  1043b0:	e51b3034 	ldr	r3, [fp, #-52]	; 0xffffffcc
  1043b4:	ebffff27 	bl	104058 <alt_dma_memory_to_i2c_common>
  1043b8:	e50b0008 	str	r0, [fp, #-8]
  1043bc:	e51b3030 	ldr	r3, [fp, #-48]	; 0xffffffd0
  1043c0:	e5d33005 	ldrb	r3, [r3, #5]
  1043c4:	e3530000 	cmp	r3, #0
  1043c8:	0a000014 	beq	104420 <alt_dma_memory_to_i2c_master+0x268>
  1043cc:	e51b3008 	ldr	r3, [fp, #-8]
  1043d0:	e3530000 	cmp	r3, #0
  1043d4:	1a000011 	bne	104420 <alt_dma_memory_to_i2c_master+0x268>
  1043d8:	e51b3030 	ldr	r3, [fp, #-48]	; 0xffffffd0
  1043dc:	e593e000 	ldr	lr, [r3]
  1043e0:	e51b300c 	ldr	r3, [fp, #-12]
  1043e4:	e283c008 	add	ip, r3, #8
  1043e8:	e59b3004 	ldr	r3, [fp, #4]
  1043ec:	e3530000 	cmp	r3, #0
  1043f0:	13a03001 	movne	r3, #1
  1043f4:	03a03000 	moveq	r3, #0
  1043f8:	e6ef3073 	uxtb	r3, r3
  1043fc:	e55b1029 	ldrb	r1, [fp, #-41]	; 0xffffffd7
  104400:	e3a02001 	mov	r2, #1
  104404:	e58d2000 	str	r2, [sp]
  104408:	e58d3004 	str	r3, [sp, #4]
  10440c:	e51b0028 	ldr	r0, [fp, #-40]	; 0xffffffd8
  104410:	e1a0200e 	mov	r2, lr
  104414:	e1a0300c 	mov	r3, ip
  104418:	ebfffdb5 	bl	103af4 <alt_dma_memory_to_i2c_master_custom>
  10441c:	e50b0008 	str	r0, [fp, #-8]
  104420:	e51b3008 	ldr	r3, [fp, #-8]
  104424:	e3530000 	cmp	r3, #0
  104428:	1a000010 	bne	104470 <alt_dma_memory_to_i2c_master+0x2b8>
  10442c:	e51b3030 	ldr	r3, [fp, #-48]	; 0xffffffd0
  104430:	e2833008 	add	r3, r3, #8
  104434:	e3c3301f 	bic	r3, r3, #31
  104438:	e50b3010 	str	r3, [fp, #-16]
  10443c:	e51b3030 	ldr	r3, [fp, #-48]	; 0xffffffd0
  104440:	e2833008 	add	r3, r3, #8
  104444:	e283302f 	add	r3, r3, #47	; 0x2f
  104448:	e3c3301f 	bic	r3, r3, #31
  10444c:	e50b3014 	str	r3, [fp, #-20]	; 0xffffffec
  104450:	e51b2014 	ldr	r2, [fp, #-20]	; 0xffffffec
  104454:	e51b3010 	ldr	r3, [fp, #-16]
  104458:	e0633002 	rsb	r3, r3, r2
  10445c:	e50b3018 	str	r3, [fp, #-24]	; 0xffffffe8
  104460:	e51b0010 	ldr	r0, [fp, #-16]
  104464:	e51b1018 	ldr	r1, [fp, #-24]	; 0xffffffe8
  104468:	ebfff379 	bl	101254 <alt_cache_system_clean>
  10446c:	e50b0008 	str	r0, [fp, #-8]
  104470:	e51b3008 	ldr	r3, [fp, #-8]
  104474:	e1a00003 	mov	r0, r3
  104478:	e24bd004 	sub	sp, fp, #4
  10447c:	e8bd8800 	pop	{fp, pc}

00104480 <alt_dma_memory_to_i2c>:
  104480:	e92d4800 	push	{fp, lr}
  104484:	e28db004 	add	fp, sp, #4
  104488:	e24dd020 	sub	sp, sp, #32
  10448c:	e50b0010 	str	r0, [fp, #-16]
  104490:	e50b2018 	str	r2, [fp, #-24]	; 0xffffffe8
  104494:	e50b301c 	str	r3, [fp, #-28]	; 0xffffffe4
  104498:	e1a03001 	mov	r3, r1
  10449c:	e54b3011 	strb	r3, [fp, #-17]	; 0xffffffef
  1044a0:	e3a03000 	mov	r3, #0
  1044a4:	e50b3008 	str	r3, [fp, #-8]
  1044a8:	e51b3008 	ldr	r3, [fp, #-8]
  1044ac:	e3530000 	cmp	r3, #0
  1044b0:	1a000006 	bne	1044d0 <alt_dma_memory_to_i2c+0x50>
  1044b4:	e51b3018 	ldr	r3, [fp, #-24]	; 0xffffffe8
  1044b8:	e5932000 	ldr	r2, [r3]
  1044bc:	e24b3009 	sub	r3, fp, #9
  1044c0:	e1a00002 	mov	r0, r2
  1044c4:	e1a01003 	mov	r1, r3
  1044c8:	ebfffd74 	bl	103aa0 <alt_i2c_op_mode_get>
  1044cc:	e50b0008 	str	r0, [fp, #-8]
  1044d0:	e51b3008 	ldr	r3, [fp, #-8]
  1044d4:	e3530000 	cmp	r3, #0
  1044d8:	1a000015 	bne	104534 <alt_dma_memory_to_i2c+0xb4>
  1044dc:	e55b3009 	ldrb	r3, [fp, #-9]
  1044e0:	e3530001 	cmp	r3, #1
  1044e4:	1a000009 	bne	104510 <alt_dma_memory_to_i2c+0x90>
  1044e8:	e55b2011 	ldrb	r2, [fp, #-17]	; 0xffffffef
  1044ec:	e59b3004 	ldr	r3, [fp, #4]
  1044f0:	e58d3000 	str	r3, [sp]
  1044f4:	e51b0010 	ldr	r0, [fp, #-16]
  1044f8:	e1a01002 	mov	r1, r2
  1044fc:	e51b2018 	ldr	r2, [fp, #-24]	; 0xffffffe8
  104500:	e51b301c 	ldr	r3, [fp, #-28]	; 0xffffffe4
  104504:	ebffff2b 	bl	1041b8 <alt_dma_memory_to_i2c_master>
  104508:	e50b0008 	str	r0, [fp, #-8]
  10450c:	ea000008 	b	104534 <alt_dma_memory_to_i2c+0xb4>
  104510:	e55b2011 	ldrb	r2, [fp, #-17]	; 0xffffffef
  104514:	e59b3004 	ldr	r3, [fp, #4]
  104518:	e58d3000 	str	r3, [sp]
  10451c:	e51b0010 	ldr	r0, [fp, #-16]
  104520:	e1a01002 	mov	r1, r2
  104524:	e51b2018 	ldr	r2, [fp, #-24]	; 0xffffffe8
  104528:	e51b301c 	ldr	r3, [fp, #-28]	; 0xffffffe4
  10452c:	ebfffec9 	bl	104058 <alt_dma_memory_to_i2c_common>
  104530:	e50b0008 	str	r0, [fp, #-8]
  104534:	e51b3008 	ldr	r3, [fp, #-8]
  104538:	e1a00003 	mov	r0, r3
  10453c:	e24bd004 	sub	sp, fp, #4
  104540:	e8bd8800 	pop	{fp, pc}

00104544 <alt_dma_i2c_to_memory_common_segment>:
  104544:	e92d4800 	push	{fp, lr}
  104548:	e28db004 	add	fp, sp, #4
  10454c:	e24dd038 	sub	sp, sp, #56	; 0x38
  104550:	e50b0030 	str	r0, [fp, #-48]	; 0xffffffd0
  104554:	e50b3038 	str	r3, [fp, #-56]	; 0xffffffc8
  104558:	e1a03001 	mov	r3, r1
  10455c:	e54b3031 	strb	r3, [fp, #-49]	; 0xffffffcf
  104560:	e1a03002 	mov	r3, r2
  104564:	e54b3032 	strb	r3, [fp, #-50]	; 0xffffffce
  104568:	e3a03000 	mov	r3, #0
  10456c:	e50b3008 	str	r3, [fp, #-8]
  104570:	e3a03000 	mov	r3, #0
  104574:	e50b300c 	str	r3, [fp, #-12]
  104578:	e3a03000 	mov	r3, #0
  10457c:	e50b3010 	str	r3, [fp, #-16]
  104580:	e3a03000 	mov	r3, #0
  104584:	e50b3014 	str	r3, [fp, #-20]	; 0xffffffec
  104588:	e51b3008 	ldr	r3, [fp, #-8]
  10458c:	e3530000 	cmp	r3, #0
  104590:	1a000018 	bne	1045f8 <alt_dma_i2c_to_memory_common_segment+0xb4>
  104594:	e59b3004 	ldr	r3, [fp, #4]
  104598:	e50b3018 	str	r3, [fp, #-24]	; 0xffffffe8
  10459c:	e55b3032 	ldrb	r3, [fp, #-50]	; 0xffffffce
  1045a0:	e3530001 	cmp	r3, #1
  1045a4:	9a000011 	bls	1045f0 <alt_dma_i2c_to_memory_common_segment+0xac>
  1045a8:	e55b3032 	ldrb	r3, [fp, #-50]	; 0xffffffce
  1045ac:	e3530010 	cmp	r3, #16
  1045b0:	9a000001 	bls	1045bc <alt_dma_i2c_to_memory_common_segment+0x78>
  1045b4:	e3a03010 	mov	r3, #16
  1045b8:	e54b3032 	strb	r3, [fp, #-50]	; 0xffffffce
  1045bc:	e55b3032 	ldrb	r3, [fp, #-50]	; 0xffffffce
  1045c0:	e50b300c 	str	r3, [fp, #-12]
  1045c4:	e51b2018 	ldr	r2, [fp, #-24]	; 0xffffffe8
  1045c8:	e51b300c 	ldr	r3, [fp, #-12]
  1045cc:	e24b102c 	sub	r1, fp, #44	; 0x2c
  1045d0:	e1a00001 	mov	r0, r1
  1045d4:	e1a01002 	mov	r1, r2
  1045d8:	e1a02003 	mov	r2, r3
  1045dc:	eb001280 	bl	108fe4 <ldiv>
  1045e0:	e51b302c 	ldr	r3, [fp, #-44]	; 0xffffffd4
  1045e4:	e50b3010 	str	r3, [fp, #-16]
  1045e8:	e51b3028 	ldr	r3, [fp, #-40]	; 0xffffffd8
  1045ec:	e50b3018 	str	r3, [fp, #-24]	; 0xffffffe8
  1045f0:	e51b3018 	ldr	r3, [fp, #-24]	; 0xffffffe8
  1045f4:	e50b3014 	str	r3, [fp, #-20]	; 0xffffffec
  1045f8:	e51b3008 	ldr	r3, [fp, #-8]
  1045fc:	e3530000 	cmp	r3, #0
  104600:	1a000004 	bne	104618 <alt_dma_i2c_to_memory_common_segment+0xd4>
  104604:	e51b0030 	ldr	r0, [fp, #-48]	; 0xffffffd0
  104608:	e3a01002 	mov	r1, #2
  10460c:	e51b2038 	ldr	r2, [fp, #-56]	; 0xffffffc8
  104610:	eb001038 	bl	1086f8 <alt_dma_program_DMAMOV>
  104614:	e50b0008 	str	r0, [fp, #-8]
  104618:	e51b3010 	ldr	r3, [fp, #-16]
  10461c:	e3530000 	cmp	r3, #0
  104620:	0a000059 	beq	10478c <alt_dma_i2c_to_memory_common_segment+0x248>
  104624:	e51b3008 	ldr	r3, [fp, #-8]
  104628:	e3530000 	cmp	r3, #0
  10462c:	1a000008 	bne	104654 <alt_dma_i2c_to_memory_common_segment+0x110>
  104630:	e51b300c 	ldr	r3, [fp, #-12]
  104634:	e2433001 	sub	r3, r3, #1
  104638:	e1a03903 	lsl	r3, r3, #18
  10463c:	e3833901 	orr	r3, r3, #16384	; 0x4000
  104640:	e51b0030 	ldr	r0, [fp, #-48]	; 0xffffffd0
  104644:	e3a01001 	mov	r1, #1
  104648:	e1a02003 	mov	r2, r3
  10464c:	eb001029 	bl	1086f8 <alt_dma_program_DMAMOV>
  104650:	e50b0008 	str	r0, [fp, #-8]
  104654:	ea000049 	b	104780 <alt_dma_i2c_to_memory_common_segment+0x23c>
  104658:	e51b3008 	ldr	r3, [fp, #-8]
  10465c:	e3530000 	cmp	r3, #0
  104660:	0a000000 	beq	104668 <alt_dma_i2c_to_memory_common_segment+0x124>
  104664:	ea000048 	b	10478c <alt_dma_i2c_to_memory_common_segment+0x248>
  104668:	e51b3010 	ldr	r3, [fp, #-16]
  10466c:	e3530c01 	cmp	r3, #256	; 0x100
  104670:	31a03003 	movcc	r3, r3
  104674:	23a03c01 	movcs	r3, #256	; 0x100
  104678:	e50b3020 	str	r3, [fp, #-32]	; 0xffffffe0
  10467c:	e51b2010 	ldr	r2, [fp, #-16]
  104680:	e51b3020 	ldr	r3, [fp, #-32]	; 0xffffffe0
  104684:	e0633002 	rsb	r3, r3, r2
  104688:	e50b3010 	str	r3, [fp, #-16]
  10468c:	e51b3008 	ldr	r3, [fp, #-8]
  104690:	e3530000 	cmp	r3, #0
  104694:	1a000006 	bne	1046b4 <alt_dma_i2c_to_memory_common_segment+0x170>
  104698:	e51b3020 	ldr	r3, [fp, #-32]	; 0xffffffe0
  10469c:	e3530001 	cmp	r3, #1
  1046a0:	9a000003 	bls	1046b4 <alt_dma_i2c_to_memory_common_segment+0x170>
  1046a4:	e51b0030 	ldr	r0, [fp, #-48]	; 0xffffffd0
  1046a8:	e51b1020 	ldr	r1, [fp, #-32]	; 0xffffffe0
  1046ac:	eb000ee2 	bl	10823c <alt_dma_program_DMALP>
  1046b0:	e50b0008 	str	r0, [fp, #-8]
  1046b4:	e51b3008 	ldr	r3, [fp, #-8]
  1046b8:	e3530000 	cmp	r3, #0
  1046bc:	1a000004 	bne	1046d4 <alt_dma_i2c_to_memory_common_segment+0x190>
  1046c0:	e55b3031 	ldrb	r3, [fp, #-49]	; 0xffffffcf
  1046c4:	e51b0030 	ldr	r0, [fp, #-48]	; 0xffffffd0
  1046c8:	e1a01003 	mov	r1, r3
  1046cc:	eb000da7 	bl	107d70 <alt_dma_program_DMAFLUSHP>
  1046d0:	e50b0008 	str	r0, [fp, #-8]
  1046d4:	e51b3008 	ldr	r3, [fp, #-8]
  1046d8:	e3530000 	cmp	r3, #0
  1046dc:	1a000005 	bne	1046f8 <alt_dma_i2c_to_memory_common_segment+0x1b4>
  1046e0:	e55b3031 	ldrb	r3, [fp, #-49]	; 0xffffffcf
  1046e4:	e51b0030 	ldr	r0, [fp, #-48]	; 0xffffffd0
  1046e8:	e1a01003 	mov	r1, r3
  1046ec:	e3a02002 	mov	r2, #2
  1046f0:	eb0011d0 	bl	108e38 <alt_dma_program_DMAWFP>
  1046f4:	e50b0008 	str	r0, [fp, #-8]
  1046f8:	e3a03000 	mov	r3, #0
  1046fc:	e50b301c 	str	r3, [fp, #-28]	; 0xffffffe4
  104700:	ea000009 	b	10472c <alt_dma_i2c_to_memory_common_segment+0x1e8>
  104704:	e51b3008 	ldr	r3, [fp, #-8]
  104708:	e3530000 	cmp	r3, #0
  10470c:	1a000003 	bne	104720 <alt_dma_i2c_to_memory_common_segment+0x1dc>
  104710:	e51b0030 	ldr	r0, [fp, #-48]	; 0xffffffd0
  104714:	e3a01002 	mov	r1, #2
  104718:	eb000e48 	bl	108040 <alt_dma_program_DMALD>
  10471c:	e50b0008 	str	r0, [fp, #-8]
  104720:	e51b301c 	ldr	r3, [fp, #-28]	; 0xffffffe4
  104724:	e2833001 	add	r3, r3, #1
  104728:	e50b301c 	str	r3, [fp, #-28]	; 0xffffffe4
  10472c:	e51b201c 	ldr	r2, [fp, #-28]	; 0xffffffe4
  104730:	e51b300c 	ldr	r3, [fp, #-12]
  104734:	e1520003 	cmp	r2, r3
  104738:	3afffff1 	bcc	104704 <alt_dma_i2c_to_memory_common_segment+0x1c0>
  10473c:	e51b3008 	ldr	r3, [fp, #-8]
  104740:	e3530000 	cmp	r3, #0
  104744:	1a000003 	bne	104758 <alt_dma_i2c_to_memory_common_segment+0x214>
  104748:	e51b0030 	ldr	r0, [fp, #-48]	; 0xffffffd0
  10474c:	e3a01002 	mov	r1, #2
  104750:	eb0010d7 	bl	108ab4 <alt_dma_program_DMAST>
  104754:	e50b0008 	str	r0, [fp, #-8]
  104758:	e51b3008 	ldr	r3, [fp, #-8]
  10475c:	e3530000 	cmp	r3, #0
  104760:	1a000006 	bne	104780 <alt_dma_i2c_to_memory_common_segment+0x23c>
  104764:	e51b3020 	ldr	r3, [fp, #-32]	; 0xffffffe0
  104768:	e3530001 	cmp	r3, #1
  10476c:	9a000003 	bls	104780 <alt_dma_i2c_to_memory_common_segment+0x23c>
  104770:	e51b0030 	ldr	r0, [fp, #-48]	; 0xffffffd0
  104774:	e3a01000 	mov	r1, #0
  104778:	eb000f0f 	bl	1083bc <alt_dma_program_DMALPEND>
  10477c:	e50b0008 	str	r0, [fp, #-8]
  104780:	e51b3010 	ldr	r3, [fp, #-16]
  104784:	e3530000 	cmp	r3, #0
  104788:	1affffb2 	bne	104658 <alt_dma_i2c_to_memory_common_segment+0x114>
  10478c:	e51b3014 	ldr	r3, [fp, #-20]	; 0xffffffec
  104790:	e3530000 	cmp	r3, #0
  104794:	0a00004b 	beq	1048c8 <alt_dma_i2c_to_memory_common_segment+0x384>
  104798:	e51b3008 	ldr	r3, [fp, #-8]
  10479c:	e3530000 	cmp	r3, #0
  1047a0:	1a000004 	bne	1047b8 <alt_dma_i2c_to_memory_common_segment+0x274>
  1047a4:	e51b0030 	ldr	r0, [fp, #-48]	; 0xffffffd0
  1047a8:	e3a01001 	mov	r1, #1
  1047ac:	e3a02901 	mov	r2, #16384	; 0x4000
  1047b0:	eb000fd0 	bl	1086f8 <alt_dma_program_DMAMOV>
  1047b4:	e50b0008 	str	r0, [fp, #-8]
  1047b8:	ea00003f 	b	1048bc <alt_dma_i2c_to_memory_common_segment+0x378>
  1047bc:	e51b3008 	ldr	r3, [fp, #-8]
  1047c0:	e3530000 	cmp	r3, #0
  1047c4:	0a000000 	beq	1047cc <alt_dma_i2c_to_memory_common_segment+0x288>
  1047c8:	ea00003e 	b	1048c8 <alt_dma_i2c_to_memory_common_segment+0x384>
  1047cc:	e51b3014 	ldr	r3, [fp, #-20]	; 0xffffffec
  1047d0:	e3530c01 	cmp	r3, #256	; 0x100
  1047d4:	31a03003 	movcc	r3, r3
  1047d8:	23a03c01 	movcs	r3, #256	; 0x100
  1047dc:	e50b3024 	str	r3, [fp, #-36]	; 0xffffffdc
  1047e0:	e51b2014 	ldr	r2, [fp, #-20]	; 0xffffffec
  1047e4:	e51b3024 	ldr	r3, [fp, #-36]	; 0xffffffdc
  1047e8:	e0633002 	rsb	r3, r3, r2
  1047ec:	e50b3014 	str	r3, [fp, #-20]	; 0xffffffec
  1047f0:	e51b3008 	ldr	r3, [fp, #-8]
  1047f4:	e3530000 	cmp	r3, #0
  1047f8:	1a000006 	bne	104818 <alt_dma_i2c_to_memory_common_segment+0x2d4>
  1047fc:	e51b3024 	ldr	r3, [fp, #-36]	; 0xffffffdc
  104800:	e3530001 	cmp	r3, #1
  104804:	9a000003 	bls	104818 <alt_dma_i2c_to_memory_common_segment+0x2d4>
  104808:	e51b0030 	ldr	r0, [fp, #-48]	; 0xffffffd0
  10480c:	e51b1024 	ldr	r1, [fp, #-36]	; 0xffffffdc
  104810:	eb000e89 	bl	10823c <alt_dma_program_DMALP>
  104814:	e50b0008 	str	r0, [fp, #-8]
  104818:	e51b3008 	ldr	r3, [fp, #-8]
  10481c:	e3530000 	cmp	r3, #0
  104820:	1a000004 	bne	104838 <alt_dma_i2c_to_memory_common_segment+0x2f4>
  104824:	e55b3031 	ldrb	r3, [fp, #-49]	; 0xffffffcf
  104828:	e51b0030 	ldr	r0, [fp, #-48]	; 0xffffffd0
  10482c:	e1a01003 	mov	r1, r3
  104830:	eb000d4e 	bl	107d70 <alt_dma_program_DMAFLUSHP>
  104834:	e50b0008 	str	r0, [fp, #-8]
  104838:	e51b3008 	ldr	r3, [fp, #-8]
  10483c:	e3530000 	cmp	r3, #0
  104840:	1a000005 	bne	10485c <alt_dma_i2c_to_memory_common_segment+0x318>
  104844:	e55b3031 	ldrb	r3, [fp, #-49]	; 0xffffffcf
  104848:	e51b0030 	ldr	r0, [fp, #-48]	; 0xffffffd0
  10484c:	e1a01003 	mov	r1, r3
  104850:	e3a02001 	mov	r2, #1
  104854:	eb001177 	bl	108e38 <alt_dma_program_DMAWFP>
  104858:	e50b0008 	str	r0, [fp, #-8]
  10485c:	e51b3008 	ldr	r3, [fp, #-8]
  104860:	e3530000 	cmp	r3, #0
  104864:	1a000003 	bne	104878 <alt_dma_i2c_to_memory_common_segment+0x334>
  104868:	e51b0030 	ldr	r0, [fp, #-48]	; 0xffffffd0
  10486c:	e3a01001 	mov	r1, #1
  104870:	eb000df2 	bl	108040 <alt_dma_program_DMALD>
  104874:	e50b0008 	str	r0, [fp, #-8]
  104878:	e51b3008 	ldr	r3, [fp, #-8]
  10487c:	e3530000 	cmp	r3, #0
  104880:	1a000003 	bne	104894 <alt_dma_i2c_to_memory_common_segment+0x350>
  104884:	e51b0030 	ldr	r0, [fp, #-48]	; 0xffffffd0
  104888:	e3a01001 	mov	r1, #1
  10488c:	eb001088 	bl	108ab4 <alt_dma_program_DMAST>
  104890:	e50b0008 	str	r0, [fp, #-8]
  104894:	e51b3008 	ldr	r3, [fp, #-8]
  104898:	e3530000 	cmp	r3, #0
  10489c:	1a000006 	bne	1048bc <alt_dma_i2c_to_memory_common_segment+0x378>
  1048a0:	e51b3024 	ldr	r3, [fp, #-36]	; 0xffffffdc
  1048a4:	e3530001 	cmp	r3, #1
  1048a8:	9a000003 	bls	1048bc <alt_dma_i2c_to_memory_common_segment+0x378>
  1048ac:	e51b0030 	ldr	r0, [fp, #-48]	; 0xffffffd0
  1048b0:	e3a01000 	mov	r1, #0
  1048b4:	eb000ec0 	bl	1083bc <alt_dma_program_DMALPEND>
  1048b8:	e50b0008 	str	r0, [fp, #-8]
  1048bc:	e51b3014 	ldr	r3, [fp, #-20]	; 0xffffffec
  1048c0:	e3530000 	cmp	r3, #0
  1048c4:	1affffbc 	bne	1047bc <alt_dma_i2c_to_memory_common_segment+0x278>
  1048c8:	e51b3008 	ldr	r3, [fp, #-8]
  1048cc:	e1a00003 	mov	r0, r3
  1048d0:	e24bd004 	sub	sp, fp, #4
  1048d4:	e8bd8800 	pop	{fp, pc}

001048d8 <alt_dma_i2c_to_memory_common>:
  1048d8:	e92d4800 	push	{fp, lr}
  1048dc:	e28db004 	add	fp, sp, #4
  1048e0:	e24dd038 	sub	sp, sp, #56	; 0x38
  1048e4:	e50b0028 	str	r0, [fp, #-40]	; 0xffffffd8
  1048e8:	e50b2030 	str	r2, [fp, #-48]	; 0xffffffd0
  1048ec:	e50b3034 	str	r3, [fp, #-52]	; 0xffffffcc
  1048f0:	e1a03001 	mov	r3, r1
  1048f4:	e54b3029 	strb	r3, [fp, #-41]	; 0xffffffd7
  1048f8:	e3a03000 	mov	r3, #0
  1048fc:	e50b3008 	str	r3, [fp, #-8]
  104900:	e51b3030 	ldr	r3, [fp, #-48]	; 0xffffffd0
  104904:	e5933000 	ldr	r3, [r3]
  104908:	e5933000 	ldr	r3, [r3]
  10490c:	e2833038 	add	r3, r3, #56	; 0x38
  104910:	e5933000 	ldr	r3, [r3]
  104914:	e6ef3073 	uxtb	r3, r3
  104918:	e2833001 	add	r3, r3, #1
  10491c:	e54b3009 	strb	r3, [fp, #-9]
  104920:	e51b3008 	ldr	r3, [fp, #-8]
  104924:	e3530000 	cmp	r3, #0
  104928:	1a000008 	bne	104950 <alt_dma_i2c_to_memory_common+0x78>
  10492c:	e51b3030 	ldr	r3, [fp, #-48]	; 0xffffffd0
  104930:	e5933000 	ldr	r3, [r3]
  104934:	e5933000 	ldr	r3, [r3]
  104938:	e2833010 	add	r3, r3, #16
  10493c:	e51b0028 	ldr	r0, [fp, #-40]	; 0xffffffd8
  104940:	e3a01000 	mov	r1, #0
  104944:	e1a02003 	mov	r2, r3
  104948:	eb000f6a 	bl	1086f8 <alt_dma_program_DMAMOV>
  10494c:	e50b0008 	str	r0, [fp, #-8]
  104950:	e51b3008 	ldr	r3, [fp, #-8]
  104954:	e3530000 	cmp	r3, #0
  104958:	1a000005 	bne	104974 <alt_dma_i2c_to_memory_common+0x9c>
  10495c:	e24b301c 	sub	r3, fp, #28
  104960:	e1a00003 	mov	r0, r3
  104964:	e51b1034 	ldr	r1, [fp, #-52]	; 0xffffffcc
  104968:	e59b2004 	ldr	r2, [fp, #4]
  10496c:	ebfff593 	bl	101fc0 <alt_mmu_va_to_pa_coalesce_begin>
  104970:	e50b0008 	str	r0, [fp, #-8]
  104974:	ea000021 	b	104a00 <alt_dma_i2c_to_memory_common+0x128>
  104978:	e51b3008 	ldr	r3, [fp, #-8]
  10497c:	e3530000 	cmp	r3, #0
  104980:	1a000021 	bne	104a0c <alt_dma_i2c_to_memory_common+0x134>
  104984:	e3a03000 	mov	r3, #0
  104988:	e50b3020 	str	r3, [fp, #-32]	; 0xffffffe0
  10498c:	e3a03000 	mov	r3, #0
  104990:	e50b3024 	str	r3, [fp, #-36]	; 0xffffffdc
  104994:	e51b3008 	ldr	r3, [fp, #-8]
  104998:	e3530000 	cmp	r3, #0
  10499c:	1a000007 	bne	1049c0 <alt_dma_i2c_to_memory_common+0xe8>
  1049a0:	e24b101c 	sub	r1, fp, #28
  1049a4:	e24b2020 	sub	r2, fp, #32
  1049a8:	e24b3024 	sub	r3, fp, #36	; 0x24
  1049ac:	e1a00001 	mov	r0, r1
  1049b0:	e1a01002 	mov	r1, r2
  1049b4:	e1a02003 	mov	r2, r3
  1049b8:	ebfff5b0 	bl	102080 <alt_mmu_va_to_pa_coalesce_next>
  1049bc:	e50b0008 	str	r0, [fp, #-8]
  1049c0:	e51b3024 	ldr	r3, [fp, #-36]	; 0xffffffdc
  1049c4:	e59b2004 	ldr	r2, [fp, #4]
  1049c8:	e0633002 	rsb	r3, r3, r2
  1049cc:	e58b3004 	str	r3, [fp, #4]
  1049d0:	e51b3008 	ldr	r3, [fp, #-8]
  1049d4:	e3530000 	cmp	r3, #0
  1049d8:	1a000008 	bne	104a00 <alt_dma_i2c_to_memory_common+0x128>
  1049dc:	e51bc020 	ldr	ip, [fp, #-32]	; 0xffffffe0
  1049e0:	e51b3024 	ldr	r3, [fp, #-36]	; 0xffffffdc
  1049e4:	e55b1029 	ldrb	r1, [fp, #-41]	; 0xffffffd7
  1049e8:	e55b2009 	ldrb	r2, [fp, #-9]
  1049ec:	e58d3000 	str	r3, [sp]
  1049f0:	e51b0028 	ldr	r0, [fp, #-40]	; 0xffffffd8
  1049f4:	e1a0300c 	mov	r3, ip
  1049f8:	ebfffed1 	bl	104544 <alt_dma_i2c_to_memory_common_segment>
  1049fc:	e50b0008 	str	r0, [fp, #-8]
  104a00:	e59b3004 	ldr	r3, [fp, #4]
  104a04:	e3530000 	cmp	r3, #0
  104a08:	1affffda 	bne	104978 <alt_dma_i2c_to_memory_common+0xa0>
  104a0c:	e51b3008 	ldr	r3, [fp, #-8]
  104a10:	e3530000 	cmp	r3, #0
  104a14:	1a000003 	bne	104a28 <alt_dma_i2c_to_memory_common+0x150>
  104a18:	e24b301c 	sub	r3, fp, #28
  104a1c:	e1a00003 	mov	r0, r3
  104a20:	ebfff5f7 	bl	102204 <alt_mmu_va_to_pa_coalesce_end>
  104a24:	e50b0008 	str	r0, [fp, #-8]
  104a28:	e51b3008 	ldr	r3, [fp, #-8]
  104a2c:	e1a00003 	mov	r0, r3
  104a30:	e24bd004 	sub	sp, fp, #4
  104a34:	e8bd8800 	pop	{fp, pc}

00104a38 <alt_dma_i2c_to_memory_master>:
  104a38:	e92d4800 	push	{fp, lr}
  104a3c:	e28db004 	add	fp, sp, #4
  104a40:	e24dd050 	sub	sp, sp, #80	; 0x50
  104a44:	e50b0040 	str	r0, [fp, #-64]	; 0xffffffc0
  104a48:	e50b2048 	str	r2, [fp, #-72]	; 0xffffffb8
  104a4c:	e50b304c 	str	r3, [fp, #-76]	; 0xffffffb4
  104a50:	e1a03001 	mov	r3, r1
  104a54:	e54b3041 	strb	r3, [fp, #-65]	; 0xffffffbf
  104a58:	e3a03000 	mov	r3, #0
  104a5c:	e50b3008 	str	r3, [fp, #-8]
  104a60:	e51b3008 	ldr	r3, [fp, #-8]
  104a64:	e3530000 	cmp	r3, #0
  104a68:	1a000010 	bne	104ab0 <alt_dma_i2c_to_memory_master+0x78>
  104a6c:	e51b3048 	ldr	r3, [fp, #-72]	; 0xffffffb8
  104a70:	e2831008 	add	r1, r3, #8
  104a74:	e24b203c 	sub	r2, fp, #60	; 0x3c
  104a78:	e24b3038 	sub	r3, fp, #56	; 0x38
  104a7c:	e1a00001 	mov	r0, r1
  104a80:	e1a01002 	mov	r1, r2
  104a84:	e1a02003 	mov	r2, r3
  104a88:	ebfff1e0 	bl	101210 <alt_mmu_va_to_pa>
  104a8c:	e50b000c 	str	r0, [fp, #-12]
  104a90:	e51b3038 	ldr	r3, [fp, #-56]	; 0xffffffc8
  104a94:	e3530000 	cmp	r3, #0
  104a98:	0a000004 	beq	104ab0 <alt_dma_i2c_to_memory_master+0x78>
  104a9c:	e3020884 	movw	r0, #10372	; 0x2884
  104aa0:	e3400011 	movt	r0, #17
  104aa4:	eb0011d1 	bl	1091f0 <puts>
  104aa8:	e3e03000 	mvn	r3, #0
  104aac:	e50b3008 	str	r3, [fp, #-8]
  104ab0:	e55b3041 	ldrb	r3, [fp, #-65]	; 0xffffffbf
  104ab4:	e2433001 	sub	r3, r3, #1
  104ab8:	e54b3015 	strb	r3, [fp, #-21]	; 0xffffffeb
  104abc:	e59b3004 	ldr	r3, [fp, #4]
  104ac0:	e50b3010 	str	r3, [fp, #-16]
  104ac4:	e59b3004 	ldr	r3, [fp, #4]
  104ac8:	e50b3014 	str	r3, [fp, #-20]	; 0xffffffec
  104acc:	e3a03040 	mov	r3, #64	; 0x40
  104ad0:	e50b301c 	str	r3, [fp, #-28]	; 0xffffffe4
  104ad4:	e51b3048 	ldr	r3, [fp, #-72]	; 0xffffffb8
  104ad8:	e3a02c01 	mov	r2, #256	; 0x100
  104adc:	e5832008 	str	r2, [r3, #8]
  104ae0:	e51b3048 	ldr	r3, [fp, #-72]	; 0xffffffb8
  104ae4:	e5d33004 	ldrb	r3, [r3, #4]
  104ae8:	e1a03503 	lsl	r3, r3, #10
  104aec:	e2033b01 	and	r3, r3, #1024	; 0x400
  104af0:	e3833c01 	orr	r3, r3, #256	; 0x100
  104af4:	e1a02003 	mov	r2, r3
  104af8:	e51b3048 	ldr	r3, [fp, #-72]	; 0xffffffb8
  104afc:	e583200c 	str	r2, [r3, #12]
  104b00:	e51b3048 	ldr	r3, [fp, #-72]	; 0xffffffb8
  104b04:	e5d33005 	ldrb	r3, [r3, #5]
  104b08:	e1a03483 	lsl	r3, r3, #9
  104b0c:	e2033c02 	and	r3, r3, #512	; 0x200
  104b10:	e3833c01 	orr	r3, r3, #256	; 0x100
  104b14:	e1a02003 	mov	r2, r3
  104b18:	e51b3048 	ldr	r3, [fp, #-72]	; 0xffffffb8
  104b1c:	e5832010 	str	r2, [r3, #16]
  104b20:	e51b3048 	ldr	r3, [fp, #-72]	; 0xffffffb8
  104b24:	e5d33004 	ldrb	r3, [r3, #4]
  104b28:	e1a03503 	lsl	r3, r3, #10
  104b2c:	e2033b01 	and	r3, r3, #1024	; 0x400
  104b30:	e3832c01 	orr	r2, r3, #256	; 0x100
  104b34:	e51b3048 	ldr	r3, [fp, #-72]	; 0xffffffb8
  104b38:	e5d33005 	ldrb	r3, [r3, #5]
  104b3c:	e1a03483 	lsl	r3, r3, #9
  104b40:	e2033c02 	and	r3, r3, #512	; 0x200
  104b44:	e1823003 	orr	r3, r2, r3
  104b48:	e1a02003 	mov	r2, r3
  104b4c:	e51b3048 	ldr	r3, [fp, #-72]	; 0xffffffb8
  104b50:	e5832014 	str	r2, [r3, #20]
  104b54:	e51b2010 	ldr	r2, [fp, #-16]
  104b58:	e51b301c 	ldr	r3, [fp, #-28]	; 0xffffffe4
  104b5c:	e1520003 	cmp	r2, r3
  104b60:	31a03002 	movcc	r3, r2
  104b64:	21a03003 	movcs	r3, r3
  104b68:	e50b3020 	str	r3, [fp, #-32]	; 0xffffffe0
  104b6c:	e51b2010 	ldr	r2, [fp, #-16]
  104b70:	e51b3020 	ldr	r3, [fp, #-32]	; 0xffffffe0
  104b74:	e0633002 	rsb	r3, r3, r2
  104b78:	e50b3010 	str	r3, [fp, #-16]
  104b7c:	e51b3020 	ldr	r3, [fp, #-32]	; 0xffffffe0
  104b80:	e3530001 	cmp	r3, #1
  104b84:	1a000010 	bne	104bcc <alt_dma_i2c_to_memory_master+0x194>
  104b88:	e51b3008 	ldr	r3, [fp, #-8]
  104b8c:	e3530000 	cmp	r3, #0
  104b90:	1a000062 	bne	104d20 <alt_dma_i2c_to_memory_master+0x2e8>
  104b94:	e51b3048 	ldr	r3, [fp, #-72]	; 0xffffffb8
  104b98:	e5932000 	ldr	r2, [r3]
  104b9c:	e51b300c 	ldr	r3, [fp, #-12]
  104ba0:	e283c00c 	add	ip, r3, #12
  104ba4:	e55b1015 	ldrb	r1, [fp, #-21]	; 0xffffffeb
  104ba8:	e3a03001 	mov	r3, #1
  104bac:	e58d3000 	str	r3, [sp]
  104bb0:	e3a03001 	mov	r3, #1
  104bb4:	e58d3004 	str	r3, [sp, #4]
  104bb8:	e51b0040 	ldr	r0, [fp, #-64]	; 0xffffffc0
  104bbc:	e1a0300c 	mov	r3, ip
  104bc0:	ebfffbcb 	bl	103af4 <alt_dma_memory_to_i2c_master_custom>
  104bc4:	e50b0008 	str	r0, [fp, #-8]
  104bc8:	ea0000b3 	b	104e9c <alt_dma_i2c_to_memory_master+0x464>
  104bcc:	e51b3010 	ldr	r3, [fp, #-16]
  104bd0:	e3530000 	cmp	r3, #0
  104bd4:	1a000032 	bne	104ca4 <alt_dma_i2c_to_memory_master+0x26c>
  104bd8:	e51b3008 	ldr	r3, [fp, #-8]
  104bdc:	e3530000 	cmp	r3, #0
  104be0:	1a00000c 	bne	104c18 <alt_dma_i2c_to_memory_master+0x1e0>
  104be4:	e51b3048 	ldr	r3, [fp, #-72]	; 0xffffffb8
  104be8:	e5932000 	ldr	r2, [r3]
  104bec:	e51b300c 	ldr	r3, [fp, #-12]
  104bf0:	e283c004 	add	ip, r3, #4
  104bf4:	e55b1015 	ldrb	r1, [fp, #-21]	; 0xffffffeb
  104bf8:	e3a03001 	mov	r3, #1
  104bfc:	e58d3000 	str	r3, [sp]
  104c00:	e3a03001 	mov	r3, #1
  104c04:	e58d3004 	str	r3, [sp, #4]
  104c08:	e51b0040 	ldr	r0, [fp, #-64]	; 0xffffffc0
  104c0c:	e1a0300c 	mov	r3, ip
  104c10:	ebfffbb7 	bl	103af4 <alt_dma_memory_to_i2c_master_custom>
  104c14:	e50b0008 	str	r0, [fp, #-8]
  104c18:	e51b3008 	ldr	r3, [fp, #-8]
  104c1c:	e3530000 	cmp	r3, #0
  104c20:	1a00000e 	bne	104c60 <alt_dma_i2c_to_memory_master+0x228>
  104c24:	e51b3020 	ldr	r3, [fp, #-32]	; 0xffffffe0
  104c28:	e3530002 	cmp	r3, #2
  104c2c:	9a00000b 	bls	104c60 <alt_dma_i2c_to_memory_master+0x228>
  104c30:	e51b3048 	ldr	r3, [fp, #-72]	; 0xffffffb8
  104c34:	e5932000 	ldr	r2, [r3]
  104c38:	e51b3020 	ldr	r3, [fp, #-32]	; 0xffffffe0
  104c3c:	e2433002 	sub	r3, r3, #2
  104c40:	e55b1015 	ldrb	r1, [fp, #-21]	; 0xffffffeb
  104c44:	e58d3000 	str	r3, [sp]
  104c48:	e3a03000 	mov	r3, #0
  104c4c:	e58d3004 	str	r3, [sp, #4]
  104c50:	e51b0040 	ldr	r0, [fp, #-64]	; 0xffffffc0
  104c54:	e51b300c 	ldr	r3, [fp, #-12]
  104c58:	ebfffba5 	bl	103af4 <alt_dma_memory_to_i2c_master_custom>
  104c5c:	e50b0008 	str	r0, [fp, #-8]
  104c60:	e51b3008 	ldr	r3, [fp, #-8]
  104c64:	e3530000 	cmp	r3, #0
  104c68:	1a00002c 	bne	104d20 <alt_dma_i2c_to_memory_master+0x2e8>
  104c6c:	e51b3048 	ldr	r3, [fp, #-72]	; 0xffffffb8
  104c70:	e5932000 	ldr	r2, [r3]
  104c74:	e51b300c 	ldr	r3, [fp, #-12]
  104c78:	e283c008 	add	ip, r3, #8
  104c7c:	e55b1015 	ldrb	r1, [fp, #-21]	; 0xffffffeb
  104c80:	e3a03001 	mov	r3, #1
  104c84:	e58d3000 	str	r3, [sp]
  104c88:	e3a03000 	mov	r3, #0
  104c8c:	e58d3004 	str	r3, [sp, #4]
  104c90:	e51b0040 	ldr	r0, [fp, #-64]	; 0xffffffc0
  104c94:	e1a0300c 	mov	r3, ip
  104c98:	ebfffb95 	bl	103af4 <alt_dma_memory_to_i2c_master_custom>
  104c9c:	e50b0008 	str	r0, [fp, #-8]
  104ca0:	ea00007d 	b	104e9c <alt_dma_i2c_to_memory_master+0x464>
  104ca4:	e51b3008 	ldr	r3, [fp, #-8]
  104ca8:	e3530000 	cmp	r3, #0
  104cac:	1a00000c 	bne	104ce4 <alt_dma_i2c_to_memory_master+0x2ac>
  104cb0:	e51b3048 	ldr	r3, [fp, #-72]	; 0xffffffb8
  104cb4:	e5932000 	ldr	r2, [r3]
  104cb8:	e51b300c 	ldr	r3, [fp, #-12]
  104cbc:	e283c004 	add	ip, r3, #4
  104cc0:	e55b1015 	ldrb	r1, [fp, #-21]	; 0xffffffeb
  104cc4:	e3a03001 	mov	r3, #1
  104cc8:	e58d3000 	str	r3, [sp]
  104ccc:	e3a03001 	mov	r3, #1
  104cd0:	e58d3004 	str	r3, [sp, #4]
  104cd4:	e51b0040 	ldr	r0, [fp, #-64]	; 0xffffffc0
  104cd8:	e1a0300c 	mov	r3, ip
  104cdc:	ebfffb84 	bl	103af4 <alt_dma_memory_to_i2c_master_custom>
  104ce0:	e50b0008 	str	r0, [fp, #-8]
  104ce4:	e51b3008 	ldr	r3, [fp, #-8]
  104ce8:	e3530000 	cmp	r3, #0
  104cec:	1a00000b 	bne	104d20 <alt_dma_i2c_to_memory_master+0x2e8>
  104cf0:	e51b3048 	ldr	r3, [fp, #-72]	; 0xffffffb8
  104cf4:	e5932000 	ldr	r2, [r3]
  104cf8:	e51b3020 	ldr	r3, [fp, #-32]	; 0xffffffe0
  104cfc:	e2433001 	sub	r3, r3, #1
  104d00:	e55b1015 	ldrb	r1, [fp, #-21]	; 0xffffffeb
  104d04:	e58d3000 	str	r3, [sp]
  104d08:	e3a03000 	mov	r3, #0
  104d0c:	e58d3004 	str	r3, [sp, #4]
  104d10:	e51b0040 	ldr	r0, [fp, #-64]	; 0xffffffc0
  104d14:	e51b300c 	ldr	r3, [fp, #-12]
  104d18:	ebfffb75 	bl	103af4 <alt_dma_memory_to_i2c_master_custom>
  104d1c:	e50b0008 	str	r0, [fp, #-8]
  104d20:	ea00005d 	b	104e9c <alt_dma_i2c_to_memory_master+0x464>
  104d24:	e51b3008 	ldr	r3, [fp, #-8]
  104d28:	e3530000 	cmp	r3, #0
  104d2c:	0a000000 	beq	104d34 <alt_dma_i2c_to_memory_master+0x2fc>
  104d30:	ea00005c 	b	104ea8 <alt_dma_i2c_to_memory_master+0x470>
  104d34:	e51b301c 	ldr	r3, [fp, #-28]	; 0xffffffe4
  104d38:	e1a020a3 	lsr	r2, r3, #1
  104d3c:	e51b3014 	ldr	r3, [fp, #-20]	; 0xffffffec
  104d40:	e1520003 	cmp	r2, r3
  104d44:	31a03002 	movcc	r3, r2
  104d48:	21a03003 	movcs	r3, r3
  104d4c:	e50b3024 	str	r3, [fp, #-36]	; 0xffffffdc
  104d50:	e51b3008 	ldr	r3, [fp, #-8]
  104d54:	e3530000 	cmp	r3, #0
  104d58:	1a000008 	bne	104d80 <alt_dma_i2c_to_memory_master+0x348>
  104d5c:	e55b2041 	ldrb	r2, [fp, #-65]	; 0xffffffbf
  104d60:	e51b3024 	ldr	r3, [fp, #-36]	; 0xffffffdc
  104d64:	e58d3000 	str	r3, [sp]
  104d68:	e51b0040 	ldr	r0, [fp, #-64]	; 0xffffffc0
  104d6c:	e1a01002 	mov	r1, r2
  104d70:	e51b2048 	ldr	r2, [fp, #-72]	; 0xffffffb8
  104d74:	e51b304c 	ldr	r3, [fp, #-76]	; 0xffffffb4
  104d78:	ebfffed6 	bl	1048d8 <alt_dma_i2c_to_memory_common>
  104d7c:	e50b0008 	str	r0, [fp, #-8]
  104d80:	e51b2014 	ldr	r2, [fp, #-20]	; 0xffffffec
  104d84:	e51b3024 	ldr	r3, [fp, #-36]	; 0xffffffdc
  104d88:	e0633002 	rsb	r3, r3, r2
  104d8c:	e50b3014 	str	r3, [fp, #-20]	; 0xffffffec
  104d90:	e51b204c 	ldr	r2, [fp, #-76]	; 0xffffffb4
  104d94:	e51b3024 	ldr	r3, [fp, #-36]	; 0xffffffdc
  104d98:	e0823003 	add	r3, r2, r3
  104d9c:	e50b304c 	str	r3, [fp, #-76]	; 0xffffffb4
  104da0:	e51b3010 	ldr	r3, [fp, #-16]
  104da4:	e3530000 	cmp	r3, #0
  104da8:	0a00003b 	beq	104e9c <alt_dma_i2c_to_memory_master+0x464>
  104dac:	e51b301c 	ldr	r3, [fp, #-28]	; 0xffffffe4
  104db0:	e1a020a3 	lsr	r2, r3, #1
  104db4:	e51b3010 	ldr	r3, [fp, #-16]
  104db8:	e1520003 	cmp	r2, r3
  104dbc:	31a03002 	movcc	r3, r2
  104dc0:	21a03003 	movcs	r3, r3
  104dc4:	e50b3028 	str	r3, [fp, #-40]	; 0xffffffd8
  104dc8:	e51b2010 	ldr	r2, [fp, #-16]
  104dcc:	e51b3028 	ldr	r3, [fp, #-40]	; 0xffffffd8
  104dd0:	e0633002 	rsb	r3, r3, r2
  104dd4:	e50b3010 	str	r3, [fp, #-16]
  104dd8:	e51b3010 	ldr	r3, [fp, #-16]
  104ddc:	e3530000 	cmp	r3, #0
  104de0:	1a00001f 	bne	104e64 <alt_dma_i2c_to_memory_master+0x42c>
  104de4:	e51b3008 	ldr	r3, [fp, #-8]
  104de8:	e3530000 	cmp	r3, #0
  104dec:	1a00000b 	bne	104e20 <alt_dma_i2c_to_memory_master+0x3e8>
  104df0:	e51b3048 	ldr	r3, [fp, #-72]	; 0xffffffb8
  104df4:	e5932000 	ldr	r2, [r3]
  104df8:	e51b3028 	ldr	r3, [fp, #-40]	; 0xffffffd8
  104dfc:	e2433001 	sub	r3, r3, #1
  104e00:	e55b1015 	ldrb	r1, [fp, #-21]	; 0xffffffeb
  104e04:	e58d3000 	str	r3, [sp]
  104e08:	e3a03001 	mov	r3, #1
  104e0c:	e58d3004 	str	r3, [sp, #4]
  104e10:	e51b0040 	ldr	r0, [fp, #-64]	; 0xffffffc0
  104e14:	e51b300c 	ldr	r3, [fp, #-12]
  104e18:	ebfffb35 	bl	103af4 <alt_dma_memory_to_i2c_master_custom>
  104e1c:	e50b0008 	str	r0, [fp, #-8]
  104e20:	e51b3008 	ldr	r3, [fp, #-8]
  104e24:	e3530000 	cmp	r3, #0
  104e28:	1a00001b 	bne	104e9c <alt_dma_i2c_to_memory_master+0x464>
  104e2c:	e51b3048 	ldr	r3, [fp, #-72]	; 0xffffffb8
  104e30:	e5932000 	ldr	r2, [r3]
  104e34:	e51b300c 	ldr	r3, [fp, #-12]
  104e38:	e283c008 	add	ip, r3, #8
  104e3c:	e55b1015 	ldrb	r1, [fp, #-21]	; 0xffffffeb
  104e40:	e3a03001 	mov	r3, #1
  104e44:	e58d3000 	str	r3, [sp]
  104e48:	e3a03000 	mov	r3, #0
  104e4c:	e58d3004 	str	r3, [sp, #4]
  104e50:	e51b0040 	ldr	r0, [fp, #-64]	; 0xffffffc0
  104e54:	e1a0300c 	mov	r3, ip
  104e58:	ebfffb25 	bl	103af4 <alt_dma_memory_to_i2c_master_custom>
  104e5c:	e50b0008 	str	r0, [fp, #-8]
  104e60:	ea00000d 	b	104e9c <alt_dma_i2c_to_memory_master+0x464>
  104e64:	e51b3008 	ldr	r3, [fp, #-8]
  104e68:	e3530000 	cmp	r3, #0
  104e6c:	1a00000a 	bne	104e9c <alt_dma_i2c_to_memory_master+0x464>
  104e70:	e51b3048 	ldr	r3, [fp, #-72]	; 0xffffffb8
  104e74:	e5932000 	ldr	r2, [r3]
  104e78:	e55b1015 	ldrb	r1, [fp, #-21]	; 0xffffffeb
  104e7c:	e51b3028 	ldr	r3, [fp, #-40]	; 0xffffffd8
  104e80:	e58d3000 	str	r3, [sp]
  104e84:	e3a03001 	mov	r3, #1
  104e88:	e58d3004 	str	r3, [sp, #4]
  104e8c:	e51b0040 	ldr	r0, [fp, #-64]	; 0xffffffc0
  104e90:	e51b300c 	ldr	r3, [fp, #-12]
  104e94:	ebfffb16 	bl	103af4 <alt_dma_memory_to_i2c_master_custom>
  104e98:	e50b0008 	str	r0, [fp, #-8]
  104e9c:	e51b3014 	ldr	r3, [fp, #-20]	; 0xffffffec
  104ea0:	e3530000 	cmp	r3, #0
  104ea4:	1affff9e 	bne	104d24 <alt_dma_i2c_to_memory_master+0x2ec>
  104ea8:	e51b3008 	ldr	r3, [fp, #-8]
  104eac:	e3530000 	cmp	r3, #0
  104eb0:	1a000010 	bne	104ef8 <alt_dma_i2c_to_memory_master+0x4c0>
  104eb4:	e51b3048 	ldr	r3, [fp, #-72]	; 0xffffffb8
  104eb8:	e2833008 	add	r3, r3, #8
  104ebc:	e3c3301f 	bic	r3, r3, #31
  104ec0:	e50b302c 	str	r3, [fp, #-44]	; 0xffffffd4
  104ec4:	e51b3048 	ldr	r3, [fp, #-72]	; 0xffffffb8
  104ec8:	e2833008 	add	r3, r3, #8
  104ecc:	e283302f 	add	r3, r3, #47	; 0x2f
  104ed0:	e3c3301f 	bic	r3, r3, #31
  104ed4:	e50b3030 	str	r3, [fp, #-48]	; 0xffffffd0
  104ed8:	e51b2030 	ldr	r2, [fp, #-48]	; 0xffffffd0
  104edc:	e51b302c 	ldr	r3, [fp, #-44]	; 0xffffffd4
  104ee0:	e0633002 	rsb	r3, r3, r2
  104ee4:	e50b3034 	str	r3, [fp, #-52]	; 0xffffffcc
  104ee8:	e51b002c 	ldr	r0, [fp, #-44]	; 0xffffffd4
  104eec:	e51b1034 	ldr	r1, [fp, #-52]	; 0xffffffcc
  104ef0:	ebfff0d7 	bl	101254 <alt_cache_system_clean>
  104ef4:	e50b0008 	str	r0, [fp, #-8]
  104ef8:	e51b3008 	ldr	r3, [fp, #-8]
  104efc:	e1a00003 	mov	r0, r3
  104f00:	e24bd004 	sub	sp, fp, #4
  104f04:	e8bd8800 	pop	{fp, pc}

00104f08 <alt_dma_i2c_to_memory>:
  104f08:	e92d4800 	push	{fp, lr}
  104f0c:	e28db004 	add	fp, sp, #4
  104f10:	e24dd020 	sub	sp, sp, #32
  104f14:	e50b0010 	str	r0, [fp, #-16]
  104f18:	e50b2018 	str	r2, [fp, #-24]	; 0xffffffe8
  104f1c:	e50b301c 	str	r3, [fp, #-28]	; 0xffffffe4
  104f20:	e1a03001 	mov	r3, r1
  104f24:	e54b3011 	strb	r3, [fp, #-17]	; 0xffffffef
  104f28:	e3a03000 	mov	r3, #0
  104f2c:	e50b3008 	str	r3, [fp, #-8]
  104f30:	e51b3008 	ldr	r3, [fp, #-8]
  104f34:	e3530000 	cmp	r3, #0
  104f38:	1a000006 	bne	104f58 <alt_dma_i2c_to_memory+0x50>
  104f3c:	e51b3018 	ldr	r3, [fp, #-24]	; 0xffffffe8
  104f40:	e5932000 	ldr	r2, [r3]
  104f44:	e24b3009 	sub	r3, fp, #9
  104f48:	e1a00002 	mov	r0, r2
  104f4c:	e1a01003 	mov	r1, r3
  104f50:	ebfffad2 	bl	103aa0 <alt_i2c_op_mode_get>
  104f54:	e50b0008 	str	r0, [fp, #-8]
  104f58:	e51b3008 	ldr	r3, [fp, #-8]
  104f5c:	e3530000 	cmp	r3, #0
  104f60:	1a000015 	bne	104fbc <alt_dma_i2c_to_memory+0xb4>
  104f64:	e55b3009 	ldrb	r3, [fp, #-9]
  104f68:	e3530001 	cmp	r3, #1
  104f6c:	1a000009 	bne	104f98 <alt_dma_i2c_to_memory+0x90>
  104f70:	e55b2011 	ldrb	r2, [fp, #-17]	; 0xffffffef
  104f74:	e59b3004 	ldr	r3, [fp, #4]
  104f78:	e58d3000 	str	r3, [sp]
  104f7c:	e51b0010 	ldr	r0, [fp, #-16]
  104f80:	e1a01002 	mov	r1, r2
  104f84:	e51b2018 	ldr	r2, [fp, #-24]	; 0xffffffe8
  104f88:	e51b301c 	ldr	r3, [fp, #-28]	; 0xffffffe4
  104f8c:	ebfffea9 	bl	104a38 <alt_dma_i2c_to_memory_master>
  104f90:	e50b0008 	str	r0, [fp, #-8]
  104f94:	ea000008 	b	104fbc <alt_dma_i2c_to_memory+0xb4>
  104f98:	e55b2011 	ldrb	r2, [fp, #-17]	; 0xffffffef
  104f9c:	e59b3004 	ldr	r3, [fp, #4]
  104fa0:	e58d3000 	str	r3, [sp]
  104fa4:	e51b0010 	ldr	r0, [fp, #-16]
  104fa8:	e1a01002 	mov	r1, r2
  104fac:	e51b2018 	ldr	r2, [fp, #-24]	; 0xffffffe8
  104fb0:	e51b301c 	ldr	r3, [fp, #-28]	; 0xffffffe4
  104fb4:	ebfffe47 	bl	1048d8 <alt_dma_i2c_to_memory_common>
  104fb8:	e50b0008 	str	r0, [fp, #-8]
  104fbc:	e51b3008 	ldr	r3, [fp, #-8]
  104fc0:	e1a00003 	mov	r0, r3
  104fc4:	e24bd004 	sub	sp, fp, #4
  104fc8:	e8bd8800 	pop	{fp, pc}

00104fcc <alt_dma_memory_to_qspi_segment>:
  104fcc:	e92d4800 	push	{fp, lr}
  104fd0:	e28db004 	add	fp, sp, #4
  104fd4:	e24dd060 	sub	sp, sp, #96	; 0x60
  104fd8:	e50b0058 	str	r0, [fp, #-88]	; 0xffffffa8
  104fdc:	e50b105c 	str	r1, [fp, #-92]	; 0xffffffa4
  104fe0:	e50b2060 	str	r2, [fp, #-96]	; 0xffffffa0
  104fe4:	e50b3064 	str	r3, [fp, #-100]	; 0xffffff9c
  104fe8:	e51b3064 	ldr	r3, [fp, #-100]	; 0xffffff9c
  104fec:	e2033003 	and	r3, r3, #3
  104ff0:	e3530000 	cmp	r3, #0
  104ff4:	0a000001 	beq	105000 <alt_dma_memory_to_qspi_segment+0x34>
  104ff8:	e3e03000 	mvn	r3, #0
  104ffc:	ea00017d 	b	1055f8 <alt_dma_memory_to_qspi_segment+0x62c>
  105000:	e59b3004 	ldr	r3, [fp, #4]
  105004:	e2033003 	and	r3, r3, #3
  105008:	e3530000 	cmp	r3, #0
  10500c:	0a000001 	beq	105018 <alt_dma_memory_to_qspi_segment+0x4c>
  105010:	e3e03000 	mvn	r3, #0
  105014:	ea000177 	b	1055f8 <alt_dma_memory_to_qspi_segment+0x62c>
  105018:	e3a03000 	mov	r3, #0
  10501c:	e50b3008 	str	r3, [fp, #-8]
  105020:	e51b3008 	ldr	r3, [fp, #-8]
  105024:	e3530000 	cmp	r3, #0
  105028:	1a000004 	bne	105040 <alt_dma_memory_to_qspi_segment+0x74>
  10502c:	e51b0058 	ldr	r0, [fp, #-88]	; 0xffffffa8
  105030:	e3a01000 	mov	r1, #0
  105034:	e51b2064 	ldr	r2, [fp, #-100]	; 0xffffff9c
  105038:	eb000dae 	bl	1086f8 <alt_dma_program_DMAMOV>
  10503c:	e50b0008 	str	r0, [fp, #-8]
  105040:	e51b305c 	ldr	r3, [fp, #-92]	; 0xffffffa4
  105044:	e3a02001 	mov	r2, #1
  105048:	e1a03312 	lsl	r3, r2, r3
  10504c:	e50b3034 	str	r3, [fp, #-52]	; 0xffffffcc
  105050:	e51b3060 	ldr	r3, [fp, #-96]	; 0xffffffa0
  105054:	e3a02001 	mov	r2, #1
  105058:	e1a03312 	lsl	r3, r2, r3
  10505c:	e50b3038 	str	r3, [fp, #-56]	; 0xffffffc8
  105060:	e51b3034 	ldr	r3, [fp, #-52]	; 0xffffffcc
  105064:	e2432001 	sub	r2, r3, #1
  105068:	e59b3004 	ldr	r3, [fp, #4]
  10506c:	e0033002 	and	r3, r3, r2
  105070:	e3530000 	cmp	r3, #0
  105074:	0a000001 	beq	105080 <alt_dma_memory_to_qspi_segment+0xb4>
  105078:	e3e03000 	mvn	r3, #0
  10507c:	ea00015d 	b	1055f8 <alt_dma_memory_to_qspi_segment+0x62c>
  105080:	e51b3064 	ldr	r3, [fp, #-100]	; 0xffffff9c
  105084:	e2033007 	and	r3, r3, #7
  105088:	e3530000 	cmp	r3, #0
  10508c:	0a000028 	beq	105134 <alt_dma_memory_to_qspi_segment+0x168>
  105090:	e51b3008 	ldr	r3, [fp, #-8]
  105094:	e3530000 	cmp	r3, #0
  105098:	1a000005 	bne	1050b4 <alt_dma_memory_to_qspi_segment+0xe8>
  10509c:	e51b0058 	ldr	r0, [fp, #-88]	; 0xffffffa8
  1050a0:	e3a01001 	mov	r1, #1
  1050a4:	e3a02005 	mov	r2, #5
  1050a8:	e3402001 	movt	r2, #1
  1050ac:	eb000d91 	bl	1086f8 <alt_dma_program_DMAMOV>
  1050b0:	e50b0008 	str	r0, [fp, #-8]
  1050b4:	e51b3008 	ldr	r3, [fp, #-8]
  1050b8:	e3530000 	cmp	r3, #0
  1050bc:	1a000003 	bne	1050d0 <alt_dma_memory_to_qspi_segment+0x104>
  1050c0:	e51b0058 	ldr	r0, [fp, #-88]	; 0xffffffa8
  1050c4:	e3a01018 	mov	r1, #24
  1050c8:	eb000b28 	bl	107d70 <alt_dma_program_DMAFLUSHP>
  1050cc:	e50b0008 	str	r0, [fp, #-8]
  1050d0:	e51b3008 	ldr	r3, [fp, #-8]
  1050d4:	e3530000 	cmp	r3, #0
  1050d8:	1a000004 	bne	1050f0 <alt_dma_memory_to_qspi_segment+0x124>
  1050dc:	e51b0058 	ldr	r0, [fp, #-88]	; 0xffffffa8
  1050e0:	e3a01018 	mov	r1, #24
  1050e4:	e3a02001 	mov	r2, #1
  1050e8:	eb000f52 	bl	108e38 <alt_dma_program_DMAWFP>
  1050ec:	e50b0008 	str	r0, [fp, #-8]
  1050f0:	e51b3008 	ldr	r3, [fp, #-8]
  1050f4:	e3530000 	cmp	r3, #0
  1050f8:	1a000003 	bne	10510c <alt_dma_memory_to_qspi_segment+0x140>
  1050fc:	e51b0058 	ldr	r0, [fp, #-88]	; 0xffffffa8
  105100:	e3a01001 	mov	r1, #1
  105104:	eb000bcd 	bl	108040 <alt_dma_program_DMALD>
  105108:	e50b0008 	str	r0, [fp, #-8]
  10510c:	e51b3008 	ldr	r3, [fp, #-8]
  105110:	e3530000 	cmp	r3, #0
  105114:	1a000003 	bne	105128 <alt_dma_memory_to_qspi_segment+0x15c>
  105118:	e51b0058 	ldr	r0, [fp, #-88]	; 0xffffffa8
  10511c:	e3a01001 	mov	r1, #1
  105120:	eb000e63 	bl	108ab4 <alt_dma_program_DMAST>
  105124:	e50b0008 	str	r0, [fp, #-8]
  105128:	e59b3004 	ldr	r3, [fp, #4]
  10512c:	e2433004 	sub	r3, r3, #4
  105130:	e58b3004 	str	r3, [fp, #4]
  105134:	e3a03000 	mov	r3, #0
  105138:	e50b300c 	str	r3, [fp, #-12]
  10513c:	e51b3060 	ldr	r3, [fp, #-96]	; 0xffffffa0
  105140:	e59b2004 	ldr	r2, [fp, #4]
  105144:	e1a03332 	lsr	r3, r2, r3
  105148:	e50b3010 	str	r3, [fp, #-16]
  10514c:	e51b2060 	ldr	r2, [fp, #-96]	; 0xffffffa0
  105150:	e51b305c 	ldr	r3, [fp, #-92]	; 0xffffffa4
  105154:	e1520003 	cmp	r2, r3
  105158:	9a000094 	bls	1053b0 <alt_dma_memory_to_qspi_segment+0x3e4>
  10515c:	e51b3010 	ldr	r3, [fp, #-16]
  105160:	e3530000 	cmp	r3, #0
  105164:	0a000091 	beq	1053b0 <alt_dma_memory_to_qspi_segment+0x3e4>
  105168:	e51b3038 	ldr	r3, [fp, #-56]	; 0xffffffc8
  10516c:	e2432001 	sub	r2, r3, #1
  105170:	e59b3004 	ldr	r3, [fp, #4]
  105174:	e0022003 	and	r2, r2, r3
  105178:	e51b305c 	ldr	r3, [fp, #-92]	; 0xffffffa4
  10517c:	e1a03332 	lsr	r3, r2, r3
  105180:	e50b300c 	str	r3, [fp, #-12]
  105184:	e51b3060 	ldr	r3, [fp, #-96]	; 0xffffffa0
  105188:	e3530003 	cmp	r3, #3
  10518c:	31a03003 	movcc	r3, r3
  105190:	23a03003 	movcs	r3, #3
  105194:	e50b303c 	str	r3, [fp, #-60]	; 0xffffffc4
  105198:	e3a03000 	mov	r3, #0
  10519c:	e50b3014 	str	r3, [fp, #-20]	; 0xffffffec
  1051a0:	e3a03000 	mov	r3, #0
  1051a4:	e50b3018 	str	r3, [fp, #-24]	; 0xffffffe8
  1051a8:	e51b303c 	ldr	r3, [fp, #-60]	; 0xffffffc4
  1051ac:	e51b2038 	ldr	r2, [fp, #-56]	; 0xffffffc8
  1051b0:	e1a03332 	lsr	r3, r2, r3
  1051b4:	e3530010 	cmp	r3, #16
  1051b8:	8a000006 	bhi	1051d8 <alt_dma_memory_to_qspi_segment+0x20c>
  1051bc:	e51b303c 	ldr	r3, [fp, #-60]	; 0xffffffc4
  1051c0:	e51b2038 	ldr	r2, [fp, #-56]	; 0xffffffc8
  1051c4:	e1a03332 	lsr	r3, r2, r3
  1051c8:	e50b3014 	str	r3, [fp, #-20]	; 0xffffffec
  1051cc:	e3a03001 	mov	r3, #1
  1051d0:	e50b3018 	str	r3, [fp, #-24]	; 0xffffffe8
  1051d4:	ea00000b 	b	105208 <alt_dma_memory_to_qspi_segment+0x23c>
  1051d8:	e3a03010 	mov	r3, #16
  1051dc:	e50b3014 	str	r3, [fp, #-20]	; 0xffffffec
  1051e0:	e51b303c 	ldr	r3, [fp, #-60]	; 0xffffffc4
  1051e4:	e51b2038 	ldr	r2, [fp, #-56]	; 0xffffffc8
  1051e8:	e1a03332 	lsr	r3, r2, r3
  1051ec:	e1a03223 	lsr	r3, r3, #4
  1051f0:	e50b3018 	str	r3, [fp, #-24]	; 0xffffffe8
  1051f4:	e51b3018 	ldr	r3, [fp, #-24]	; 0xffffffe8
  1051f8:	e3530000 	cmp	r3, #0
  1051fc:	1a000001 	bne	105208 <alt_dma_memory_to_qspi_segment+0x23c>
  105200:	e3e03000 	mvn	r3, #0
  105204:	e50b3008 	str	r3, [fp, #-8]
  105208:	e51b3038 	ldr	r3, [fp, #-56]	; 0xffffffc8
  10520c:	e1a03123 	lsr	r3, r3, #2
  105210:	e50b3040 	str	r3, [fp, #-64]	; 0xffffffc0
  105214:	e51b3008 	ldr	r3, [fp, #-8]
  105218:	e3530000 	cmp	r3, #0
  10521c:	1a00000c 	bne	105254 <alt_dma_memory_to_qspi_segment+0x288>
  105220:	e51b303c 	ldr	r3, [fp, #-60]	; 0xffffffc4
  105224:	e1a02083 	lsl	r2, r3, #1
  105228:	e51b3014 	ldr	r3, [fp, #-20]	; 0xffffffec
  10522c:	e2433001 	sub	r3, r3, #1
  105230:	e1a03203 	lsl	r3, r3, #4
  105234:	e1823003 	orr	r3, r2, r3
  105238:	e3833801 	orr	r3, r3, #65536	; 0x10000
  10523c:	e3833001 	orr	r3, r3, #1
  105240:	e51b0058 	ldr	r0, [fp, #-88]	; 0xffffffa8
  105244:	e3a01001 	mov	r1, #1
  105248:	e1a02003 	mov	r2, r3
  10524c:	eb000d29 	bl	1086f8 <alt_dma_program_DMAMOV>
  105250:	e50b0008 	str	r0, [fp, #-8]
  105254:	ea000051 	b	1053a0 <alt_dma_memory_to_qspi_segment+0x3d4>
  105258:	e51b3008 	ldr	r3, [fp, #-8]
  10525c:	e3530000 	cmp	r3, #0
  105260:	0a000000 	beq	105268 <alt_dma_memory_to_qspi_segment+0x29c>
  105264:	ea000050 	b	1053ac <alt_dma_memory_to_qspi_segment+0x3e0>
  105268:	e51b3010 	ldr	r3, [fp, #-16]
  10526c:	e3530c01 	cmp	r3, #256	; 0x100
  105270:	31a03003 	movcc	r3, r3
  105274:	23a03c01 	movcs	r3, #256	; 0x100
  105278:	e50b3044 	str	r3, [fp, #-68]	; 0xffffffbc
  10527c:	e51b2010 	ldr	r2, [fp, #-16]
  105280:	e51b3044 	ldr	r3, [fp, #-68]	; 0xffffffbc
  105284:	e0633002 	rsb	r3, r3, r2
  105288:	e50b3010 	str	r3, [fp, #-16]
  10528c:	e51b3008 	ldr	r3, [fp, #-8]
  105290:	e3530000 	cmp	r3, #0
  105294:	1a000006 	bne	1052b4 <alt_dma_memory_to_qspi_segment+0x2e8>
  105298:	e51b3044 	ldr	r3, [fp, #-68]	; 0xffffffbc
  10529c:	e3530001 	cmp	r3, #1
  1052a0:	9a000003 	bls	1052b4 <alt_dma_memory_to_qspi_segment+0x2e8>
  1052a4:	e51b0058 	ldr	r0, [fp, #-88]	; 0xffffffa8
  1052a8:	e51b1044 	ldr	r1, [fp, #-68]	; 0xffffffbc
  1052ac:	eb000be2 	bl	10823c <alt_dma_program_DMALP>
  1052b0:	e50b0008 	str	r0, [fp, #-8]
  1052b4:	e51b3008 	ldr	r3, [fp, #-8]
  1052b8:	e3530000 	cmp	r3, #0
  1052bc:	1a000003 	bne	1052d0 <alt_dma_memory_to_qspi_segment+0x304>
  1052c0:	e51b0058 	ldr	r0, [fp, #-88]	; 0xffffffa8
  1052c4:	e3a01018 	mov	r1, #24
  1052c8:	eb000aa8 	bl	107d70 <alt_dma_program_DMAFLUSHP>
  1052cc:	e50b0008 	str	r0, [fp, #-8]
  1052d0:	e51b3008 	ldr	r3, [fp, #-8]
  1052d4:	e3530000 	cmp	r3, #0
  1052d8:	1a000004 	bne	1052f0 <alt_dma_memory_to_qspi_segment+0x324>
  1052dc:	e51b0058 	ldr	r0, [fp, #-88]	; 0xffffffa8
  1052e0:	e3a01018 	mov	r1, #24
  1052e4:	e3a02002 	mov	r2, #2
  1052e8:	eb000ed2 	bl	108e38 <alt_dma_program_DMAWFP>
  1052ec:	e50b0008 	str	r0, [fp, #-8]
  1052f0:	e3a03000 	mov	r3, #0
  1052f4:	e50b301c 	str	r3, [fp, #-28]	; 0xffffffe4
  1052f8:	ea000009 	b	105324 <alt_dma_memory_to_qspi_segment+0x358>
  1052fc:	e51b3008 	ldr	r3, [fp, #-8]
  105300:	e3530000 	cmp	r3, #0
  105304:	1a000003 	bne	105318 <alt_dma_memory_to_qspi_segment+0x34c>
  105308:	e51b0058 	ldr	r0, [fp, #-88]	; 0xffffffa8
  10530c:	e3a01002 	mov	r1, #2
  105310:	eb000b4a 	bl	108040 <alt_dma_program_DMALD>
  105314:	e50b0008 	str	r0, [fp, #-8]
  105318:	e51b301c 	ldr	r3, [fp, #-28]	; 0xffffffe4
  10531c:	e2833001 	add	r3, r3, #1
  105320:	e50b301c 	str	r3, [fp, #-28]	; 0xffffffe4
  105324:	e51b201c 	ldr	r2, [fp, #-28]	; 0xffffffe4
  105328:	e51b3018 	ldr	r3, [fp, #-24]	; 0xffffffe8
  10532c:	e1520003 	cmp	r2, r3
  105330:	3afffff1 	bcc	1052fc <alt_dma_memory_to_qspi_segment+0x330>
  105334:	e3a03000 	mov	r3, #0
  105338:	e50b3020 	str	r3, [fp, #-32]	; 0xffffffe0
  10533c:	ea000009 	b	105368 <alt_dma_memory_to_qspi_segment+0x39c>
  105340:	e51b3008 	ldr	r3, [fp, #-8]
  105344:	e3530000 	cmp	r3, #0
  105348:	1a000003 	bne	10535c <alt_dma_memory_to_qspi_segment+0x390>
  10534c:	e51b0058 	ldr	r0, [fp, #-88]	; 0xffffffa8
  105350:	e3a01002 	mov	r1, #2
  105354:	eb000dd6 	bl	108ab4 <alt_dma_program_DMAST>
  105358:	e50b0008 	str	r0, [fp, #-8]
  10535c:	e51b3020 	ldr	r3, [fp, #-32]	; 0xffffffe0
  105360:	e2833001 	add	r3, r3, #1
  105364:	e50b3020 	str	r3, [fp, #-32]	; 0xffffffe0
  105368:	e51b2020 	ldr	r2, [fp, #-32]	; 0xffffffe0
  10536c:	e51b3040 	ldr	r3, [fp, #-64]	; 0xffffffc0
  105370:	e1520003 	cmp	r2, r3
  105374:	3afffff1 	bcc	105340 <alt_dma_memory_to_qspi_segment+0x374>
  105378:	e51b3008 	ldr	r3, [fp, #-8]
  10537c:	e3530000 	cmp	r3, #0
  105380:	1a000006 	bne	1053a0 <alt_dma_memory_to_qspi_segment+0x3d4>
  105384:	e51b3044 	ldr	r3, [fp, #-68]	; 0xffffffbc
  105388:	e3530001 	cmp	r3, #1
  10538c:	9a000003 	bls	1053a0 <alt_dma_memory_to_qspi_segment+0x3d4>
  105390:	e51b0058 	ldr	r0, [fp, #-88]	; 0xffffffa8
  105394:	e3a01000 	mov	r1, #0
  105398:	eb000c07 	bl	1083bc <alt_dma_program_DMALPEND>
  10539c:	e50b0008 	str	r0, [fp, #-8]
  1053a0:	e51b3010 	ldr	r3, [fp, #-16]
  1053a4:	e3530000 	cmp	r3, #0
  1053a8:	1affffaa 	bne	105258 <alt_dma_memory_to_qspi_segment+0x28c>
  1053ac:	ea000003 	b	1053c0 <alt_dma_memory_to_qspi_segment+0x3f4>
  1053b0:	e51b305c 	ldr	r3, [fp, #-92]	; 0xffffffa4
  1053b4:	e59b2004 	ldr	r2, [fp, #4]
  1053b8:	e1a03332 	lsr	r3, r2, r3
  1053bc:	e50b300c 	str	r3, [fp, #-12]
  1053c0:	e51b300c 	ldr	r3, [fp, #-12]
  1053c4:	e3530000 	cmp	r3, #0
  1053c8:	0a000089 	beq	1055f4 <alt_dma_memory_to_qspi_segment+0x628>
  1053cc:	e51b305c 	ldr	r3, [fp, #-92]	; 0xffffffa4
  1053d0:	e3530003 	cmp	r3, #3
  1053d4:	31a03003 	movcc	r3, r3
  1053d8:	23a03003 	movcs	r3, #3
  1053dc:	e50b3048 	str	r3, [fp, #-72]	; 0xffffffb8
  1053e0:	e3a03000 	mov	r3, #0
  1053e4:	e50b3024 	str	r3, [fp, #-36]	; 0xffffffdc
  1053e8:	e3a03000 	mov	r3, #0
  1053ec:	e50b3028 	str	r3, [fp, #-40]	; 0xffffffd8
  1053f0:	e51b3048 	ldr	r3, [fp, #-72]	; 0xffffffb8
  1053f4:	e51b2034 	ldr	r2, [fp, #-52]	; 0xffffffcc
  1053f8:	e1a03332 	lsr	r3, r2, r3
  1053fc:	e3530010 	cmp	r3, #16
  105400:	8a000006 	bhi	105420 <alt_dma_memory_to_qspi_segment+0x454>
  105404:	e51b3048 	ldr	r3, [fp, #-72]	; 0xffffffb8
  105408:	e51b2034 	ldr	r2, [fp, #-52]	; 0xffffffcc
  10540c:	e1a03332 	lsr	r3, r2, r3
  105410:	e50b3024 	str	r3, [fp, #-36]	; 0xffffffdc
  105414:	e3a03001 	mov	r3, #1
  105418:	e50b3028 	str	r3, [fp, #-40]	; 0xffffffd8
  10541c:	ea00000b 	b	105450 <alt_dma_memory_to_qspi_segment+0x484>
  105420:	e3a03010 	mov	r3, #16
  105424:	e50b3024 	str	r3, [fp, #-36]	; 0xffffffdc
  105428:	e51b3048 	ldr	r3, [fp, #-72]	; 0xffffffb8
  10542c:	e51b2034 	ldr	r2, [fp, #-52]	; 0xffffffcc
  105430:	e1a03332 	lsr	r3, r2, r3
  105434:	e1a03223 	lsr	r3, r3, #4
  105438:	e50b3028 	str	r3, [fp, #-40]	; 0xffffffd8
  10543c:	e51b3028 	ldr	r3, [fp, #-40]	; 0xffffffd8
  105440:	e3530000 	cmp	r3, #0
  105444:	1a000001 	bne	105450 <alt_dma_memory_to_qspi_segment+0x484>
  105448:	e3e03000 	mvn	r3, #0
  10544c:	e50b3008 	str	r3, [fp, #-8]
  105450:	e51b3034 	ldr	r3, [fp, #-52]	; 0xffffffcc
  105454:	e1a03123 	lsr	r3, r3, #2
  105458:	e50b304c 	str	r3, [fp, #-76]	; 0xffffffb4
  10545c:	e51b3008 	ldr	r3, [fp, #-8]
  105460:	e3530000 	cmp	r3, #0
  105464:	1a00000c 	bne	10549c <alt_dma_memory_to_qspi_segment+0x4d0>
  105468:	e51b3048 	ldr	r3, [fp, #-72]	; 0xffffffb8
  10546c:	e1a02083 	lsl	r2, r3, #1
  105470:	e51b3024 	ldr	r3, [fp, #-36]	; 0xffffffdc
  105474:	e2433001 	sub	r3, r3, #1
  105478:	e1a03203 	lsl	r3, r3, #4
  10547c:	e1823003 	orr	r3, r2, r3
  105480:	e3833801 	orr	r3, r3, #65536	; 0x10000
  105484:	e3833001 	orr	r3, r3, #1
  105488:	e51b0058 	ldr	r0, [fp, #-88]	; 0xffffffa8
  10548c:	e3a01001 	mov	r1, #1
  105490:	e1a02003 	mov	r2, r3
  105494:	eb000c97 	bl	1086f8 <alt_dma_program_DMAMOV>
  105498:	e50b0008 	str	r0, [fp, #-8]
  10549c:	ea000051 	b	1055e8 <alt_dma_memory_to_qspi_segment+0x61c>
  1054a0:	e51b3008 	ldr	r3, [fp, #-8]
  1054a4:	e3530000 	cmp	r3, #0
  1054a8:	0a000000 	beq	1054b0 <alt_dma_memory_to_qspi_segment+0x4e4>
  1054ac:	ea000050 	b	1055f4 <alt_dma_memory_to_qspi_segment+0x628>
  1054b0:	e51b300c 	ldr	r3, [fp, #-12]
  1054b4:	e3530c01 	cmp	r3, #256	; 0x100
  1054b8:	31a03003 	movcc	r3, r3
  1054bc:	23a03c01 	movcs	r3, #256	; 0x100
  1054c0:	e50b3050 	str	r3, [fp, #-80]	; 0xffffffb0
  1054c4:	e51b200c 	ldr	r2, [fp, #-12]
  1054c8:	e51b3050 	ldr	r3, [fp, #-80]	; 0xffffffb0
  1054cc:	e0633002 	rsb	r3, r3, r2
  1054d0:	e50b300c 	str	r3, [fp, #-12]
  1054d4:	e51b3008 	ldr	r3, [fp, #-8]
  1054d8:	e3530000 	cmp	r3, #0
  1054dc:	1a000006 	bne	1054fc <alt_dma_memory_to_qspi_segment+0x530>
  1054e0:	e51b3050 	ldr	r3, [fp, #-80]	; 0xffffffb0
  1054e4:	e3530001 	cmp	r3, #1
  1054e8:	9a000003 	bls	1054fc <alt_dma_memory_to_qspi_segment+0x530>
  1054ec:	e51b0058 	ldr	r0, [fp, #-88]	; 0xffffffa8
  1054f0:	e51b1050 	ldr	r1, [fp, #-80]	; 0xffffffb0
  1054f4:	eb000b50 	bl	10823c <alt_dma_program_DMALP>
  1054f8:	e50b0008 	str	r0, [fp, #-8]
  1054fc:	e51b3008 	ldr	r3, [fp, #-8]
  105500:	e3530000 	cmp	r3, #0
  105504:	1a000003 	bne	105518 <alt_dma_memory_to_qspi_segment+0x54c>
  105508:	e51b0058 	ldr	r0, [fp, #-88]	; 0xffffffa8
  10550c:	e3a01018 	mov	r1, #24
  105510:	eb000a16 	bl	107d70 <alt_dma_program_DMAFLUSHP>
  105514:	e50b0008 	str	r0, [fp, #-8]
  105518:	e51b3008 	ldr	r3, [fp, #-8]
  10551c:	e3530000 	cmp	r3, #0
  105520:	1a000004 	bne	105538 <alt_dma_memory_to_qspi_segment+0x56c>
  105524:	e51b0058 	ldr	r0, [fp, #-88]	; 0xffffffa8
  105528:	e3a01018 	mov	r1, #24
  10552c:	e3a02001 	mov	r2, #1
  105530:	eb000e40 	bl	108e38 <alt_dma_program_DMAWFP>
  105534:	e50b0008 	str	r0, [fp, #-8]
  105538:	e3a03000 	mov	r3, #0
  10553c:	e50b302c 	str	r3, [fp, #-44]	; 0xffffffd4
  105540:	ea000009 	b	10556c <alt_dma_memory_to_qspi_segment+0x5a0>
  105544:	e51b3008 	ldr	r3, [fp, #-8]
  105548:	e3530000 	cmp	r3, #0
  10554c:	1a000003 	bne	105560 <alt_dma_memory_to_qspi_segment+0x594>
  105550:	e51b0058 	ldr	r0, [fp, #-88]	; 0xffffffa8
  105554:	e3a01001 	mov	r1, #1
  105558:	eb000ab8 	bl	108040 <alt_dma_program_DMALD>
  10555c:	e50b0008 	str	r0, [fp, #-8]
  105560:	e51b302c 	ldr	r3, [fp, #-44]	; 0xffffffd4
  105564:	e2833001 	add	r3, r3, #1
  105568:	e50b302c 	str	r3, [fp, #-44]	; 0xffffffd4
  10556c:	e51b202c 	ldr	r2, [fp, #-44]	; 0xffffffd4
  105570:	e51b3028 	ldr	r3, [fp, #-40]	; 0xffffffd8
  105574:	e1520003 	cmp	r2, r3
  105578:	3afffff1 	bcc	105544 <alt_dma_memory_to_qspi_segment+0x578>
  10557c:	e3a03000 	mov	r3, #0
  105580:	e50b3030 	str	r3, [fp, #-48]	; 0xffffffd0
  105584:	ea000009 	b	1055b0 <alt_dma_memory_to_qspi_segment+0x5e4>
  105588:	e51b3008 	ldr	r3, [fp, #-8]
  10558c:	e3530000 	cmp	r3, #0
  105590:	1a000003 	bne	1055a4 <alt_dma_memory_to_qspi_segment+0x5d8>
  105594:	e51b0058 	ldr	r0, [fp, #-88]	; 0xffffffa8
  105598:	e3a01001 	mov	r1, #1
  10559c:	eb000d44 	bl	108ab4 <alt_dma_program_DMAST>
  1055a0:	e50b0008 	str	r0, [fp, #-8]
  1055a4:	e51b3030 	ldr	r3, [fp, #-48]	; 0xffffffd0
  1055a8:	e2833001 	add	r3, r3, #1
  1055ac:	e50b3030 	str	r3, [fp, #-48]	; 0xffffffd0
  1055b0:	e51b2030 	ldr	r2, [fp, #-48]	; 0xffffffd0
  1055b4:	e51b304c 	ldr	r3, [fp, #-76]	; 0xffffffb4
  1055b8:	e1520003 	cmp	r2, r3
  1055bc:	3afffff1 	bcc	105588 <alt_dma_memory_to_qspi_segment+0x5bc>
  1055c0:	e51b3008 	ldr	r3, [fp, #-8]
  1055c4:	e3530000 	cmp	r3, #0
  1055c8:	1a000006 	bne	1055e8 <alt_dma_memory_to_qspi_segment+0x61c>
  1055cc:	e51b3050 	ldr	r3, [fp, #-80]	; 0xffffffb0
  1055d0:	e3530001 	cmp	r3, #1
  1055d4:	9a000003 	bls	1055e8 <alt_dma_memory_to_qspi_segment+0x61c>
  1055d8:	e51b0058 	ldr	r0, [fp, #-88]	; 0xffffffa8
  1055dc:	e3a01000 	mov	r1, #0
  1055e0:	eb000b75 	bl	1083bc <alt_dma_program_DMALPEND>
  1055e4:	e50b0008 	str	r0, [fp, #-8]
  1055e8:	e51b300c 	ldr	r3, [fp, #-12]
  1055ec:	e3530000 	cmp	r3, #0
  1055f0:	1affffaa 	bne	1054a0 <alt_dma_memory_to_qspi_segment+0x4d4>
  1055f4:	e51b3008 	ldr	r3, [fp, #-8]
  1055f8:	e1a00003 	mov	r0, r3
  1055fc:	e24bd004 	sub	sp, fp, #4
  105600:	e8bd8800 	pop	{fp, pc}

00105604 <alt_dma_memory_to_qspi>:
  105604:	e92d4800 	push	{fp, lr}
  105608:	e28db004 	add	fp, sp, #4
  10560c:	e24dd040 	sub	sp, sp, #64	; 0x40
  105610:	e50b0030 	str	r0, [fp, #-48]	; 0xffffffd0
  105614:	e50b1034 	str	r1, [fp, #-52]	; 0xffffffcc
  105618:	e50b2038 	str	r2, [fp, #-56]	; 0xffffffc8
  10561c:	e3a03000 	mov	r3, #0
  105620:	e50b3008 	str	r3, [fp, #-8]
  105624:	e51b3008 	ldr	r3, [fp, #-8]
  105628:	e3530000 	cmp	r3, #0
  10562c:	1a000005 	bne	105648 <alt_dma_memory_to_qspi+0x44>
  105630:	e51b0030 	ldr	r0, [fp, #-48]	; 0xffffffd0
  105634:	e3a01002 	mov	r1, #2
  105638:	e3a02000 	mov	r2, #0
  10563c:	e34f2fa0 	movt	r2, #65440	; 0xffa0
  105640:	eb000c2c 	bl	1086f8 <alt_dma_program_DMAMOV>
  105644:	e50b0008 	str	r0, [fp, #-8]
  105648:	e3053020 	movw	r3, #20512	; 0x5020
  10564c:	e34f3f70 	movt	r3, #65392	; 0xff70
  105650:	e5933000 	ldr	r3, [r3]
  105654:	e50b300c 	str	r3, [fp, #-12]
  105658:	e51b300c 	ldr	r3, [fp, #-12]
  10565c:	e203300f 	and	r3, r3, #15
  105660:	e50b3010 	str	r3, [fp, #-16]
  105664:	e51b300c 	ldr	r3, [fp, #-12]
  105668:	e2033c0f 	and	r3, r3, #3840	; 0xf00
  10566c:	e1a03423 	lsr	r3, r3, #8
  105670:	e50b3014 	str	r3, [fp, #-20]	; 0xffffffec
  105674:	e51b3008 	ldr	r3, [fp, #-8]
  105678:	e3530000 	cmp	r3, #0
  10567c:	1a000005 	bne	105698 <alt_dma_memory_to_qspi+0x94>
  105680:	e24b3024 	sub	r3, fp, #36	; 0x24
  105684:	e1a00003 	mov	r0, r3
  105688:	e51b1034 	ldr	r1, [fp, #-52]	; 0xffffffcc
  10568c:	e51b2038 	ldr	r2, [fp, #-56]	; 0xffffffc8
  105690:	ebfff24a 	bl	101fc0 <alt_mmu_va_to_pa_coalesce_begin>
  105694:	e50b0008 	str	r0, [fp, #-8]
  105698:	ea000021 	b	105724 <alt_dma_memory_to_qspi+0x120>
  10569c:	e51b3008 	ldr	r3, [fp, #-8]
  1056a0:	e3530000 	cmp	r3, #0
  1056a4:	1a000021 	bne	105730 <alt_dma_memory_to_qspi+0x12c>
  1056a8:	e3a03000 	mov	r3, #0
  1056ac:	e50b3028 	str	r3, [fp, #-40]	; 0xffffffd8
  1056b0:	e3a03000 	mov	r3, #0
  1056b4:	e50b302c 	str	r3, [fp, #-44]	; 0xffffffd4
  1056b8:	e51b3008 	ldr	r3, [fp, #-8]
  1056bc:	e3530000 	cmp	r3, #0
  1056c0:	1a000007 	bne	1056e4 <alt_dma_memory_to_qspi+0xe0>
  1056c4:	e24b1024 	sub	r1, fp, #36	; 0x24
  1056c8:	e24b2028 	sub	r2, fp, #40	; 0x28
  1056cc:	e24b302c 	sub	r3, fp, #44	; 0x2c
  1056d0:	e1a00001 	mov	r0, r1
  1056d4:	e1a01002 	mov	r1, r2
  1056d8:	e1a02003 	mov	r2, r3
  1056dc:	ebfff267 	bl	102080 <alt_mmu_va_to_pa_coalesce_next>
  1056e0:	e50b0008 	str	r0, [fp, #-8]
  1056e4:	e51b302c 	ldr	r3, [fp, #-44]	; 0xffffffd4
  1056e8:	e51b2038 	ldr	r2, [fp, #-56]	; 0xffffffc8
  1056ec:	e0633002 	rsb	r3, r3, r2
  1056f0:	e50b3038 	str	r3, [fp, #-56]	; 0xffffffc8
  1056f4:	e51b3008 	ldr	r3, [fp, #-8]
  1056f8:	e3530000 	cmp	r3, #0
  1056fc:	1a000008 	bne	105724 <alt_dma_memory_to_qspi+0x120>
  105700:	e51bc028 	ldr	ip, [fp, #-40]	; 0xffffffd8
  105704:	e51b302c 	ldr	r3, [fp, #-44]	; 0xffffffd4
  105708:	e58d3000 	str	r3, [sp]
  10570c:	e51b0030 	ldr	r0, [fp, #-48]	; 0xffffffd0
  105710:	e51b1010 	ldr	r1, [fp, #-16]
  105714:	e51b2014 	ldr	r2, [fp, #-20]	; 0xffffffec
  105718:	e1a0300c 	mov	r3, ip
  10571c:	ebfffe2a 	bl	104fcc <alt_dma_memory_to_qspi_segment>
  105720:	e50b0008 	str	r0, [fp, #-8]
  105724:	e51b3038 	ldr	r3, [fp, #-56]	; 0xffffffc8
  105728:	e3530000 	cmp	r3, #0
  10572c:	1affffda 	bne	10569c <alt_dma_memory_to_qspi+0x98>
  105730:	e51b3008 	ldr	r3, [fp, #-8]
  105734:	e3530000 	cmp	r3, #0
  105738:	1a000003 	bne	10574c <alt_dma_memory_to_qspi+0x148>
  10573c:	e24b3024 	sub	r3, fp, #36	; 0x24
  105740:	e1a00003 	mov	r0, r3
  105744:	ebfff2ae 	bl	102204 <alt_mmu_va_to_pa_coalesce_end>
  105748:	e50b0008 	str	r0, [fp, #-8]
  10574c:	e51b3008 	ldr	r3, [fp, #-8]
  105750:	e1a00003 	mov	r0, r3
  105754:	e24bd004 	sub	sp, fp, #4
  105758:	e8bd8800 	pop	{fp, pc}

0010575c <alt_dma_qspi_to_memory_segment>:
  10575c:	e92d4800 	push	{fp, lr}
  105760:	e28db004 	add	fp, sp, #4
  105764:	e24dd080 	sub	sp, sp, #128	; 0x80
  105768:	e50b0078 	str	r0, [fp, #-120]	; 0xffffff88
  10576c:	e50b107c 	str	r1, [fp, #-124]	; 0xffffff84
  105770:	e50b2080 	str	r2, [fp, #-128]	; 0xffffff80
  105774:	e50b3084 	str	r3, [fp, #-132]	; 0xffffff7c
  105778:	e51b3084 	ldr	r3, [fp, #-132]	; 0xffffff7c
  10577c:	e2033003 	and	r3, r3, #3
  105780:	e3530000 	cmp	r3, #0
  105784:	0a000001 	beq	105790 <alt_dma_qspi_to_memory_segment+0x34>
  105788:	e3e03000 	mvn	r3, #0
  10578c:	ea000259 	b	1060f8 <alt_dma_qspi_to_memory_segment+0x99c>
  105790:	e59b3004 	ldr	r3, [fp, #4]
  105794:	e2033003 	and	r3, r3, #3
  105798:	e3530000 	cmp	r3, #0
  10579c:	0a000001 	beq	1057a8 <alt_dma_qspi_to_memory_segment+0x4c>
  1057a0:	e3e03000 	mvn	r3, #0
  1057a4:	ea000253 	b	1060f8 <alt_dma_qspi_to_memory_segment+0x99c>
  1057a8:	e3a03000 	mov	r3, #0
  1057ac:	e50b3008 	str	r3, [fp, #-8]
  1057b0:	e51b3008 	ldr	r3, [fp, #-8]
  1057b4:	e3530000 	cmp	r3, #0
  1057b8:	1a000004 	bne	1057d0 <alt_dma_qspi_to_memory_segment+0x74>
  1057bc:	e51b0078 	ldr	r0, [fp, #-120]	; 0xffffff88
  1057c0:	e3a01002 	mov	r1, #2
  1057c4:	e51b2084 	ldr	r2, [fp, #-132]	; 0xffffff7c
  1057c8:	eb000bca 	bl	1086f8 <alt_dma_program_DMAMOV>
  1057cc:	e50b0008 	str	r0, [fp, #-8]
  1057d0:	e51b307c 	ldr	r3, [fp, #-124]	; 0xffffff84
  1057d4:	e3a02001 	mov	r2, #1
  1057d8:	e1a03312 	lsl	r3, r2, r3
  1057dc:	e50b304c 	str	r3, [fp, #-76]	; 0xffffffb4
  1057e0:	e51b3080 	ldr	r3, [fp, #-128]	; 0xffffff80
  1057e4:	e3a02001 	mov	r2, #1
  1057e8:	e1a03312 	lsl	r3, r2, r3
  1057ec:	e50b3050 	str	r3, [fp, #-80]	; 0xffffffb0
  1057f0:	e51b304c 	ldr	r3, [fp, #-76]	; 0xffffffb4
  1057f4:	e2432001 	sub	r2, r3, #1
  1057f8:	e59b3004 	ldr	r3, [fp, #4]
  1057fc:	e0033002 	and	r3, r3, r2
  105800:	e3530000 	cmp	r3, #0
  105804:	0a000001 	beq	105810 <alt_dma_qspi_to_memory_segment+0xb4>
  105808:	e3e03000 	mvn	r3, #0
  10580c:	ea000239 	b	1060f8 <alt_dma_qspi_to_memory_segment+0x99c>
  105810:	e51b3084 	ldr	r3, [fp, #-132]	; 0xffffff7c
  105814:	e2033007 	and	r3, r3, #7
  105818:	e3530000 	cmp	r3, #0
  10581c:	0a000028 	beq	1058c4 <alt_dma_qspi_to_memory_segment+0x168>
  105820:	e51b3008 	ldr	r3, [fp, #-8]
  105824:	e3530000 	cmp	r3, #0
  105828:	1a000005 	bne	105844 <alt_dma_qspi_to_memory_segment+0xe8>
  10582c:	e51b0078 	ldr	r0, [fp, #-120]	; 0xffffff88
  105830:	e3a01001 	mov	r1, #1
  105834:	e3042004 	movw	r2, #16388	; 0x4004
  105838:	e3402001 	movt	r2, #1
  10583c:	eb000bad 	bl	1086f8 <alt_dma_program_DMAMOV>
  105840:	e50b0008 	str	r0, [fp, #-8]
  105844:	e51b3008 	ldr	r3, [fp, #-8]
  105848:	e3530000 	cmp	r3, #0
  10584c:	1a000003 	bne	105860 <alt_dma_qspi_to_memory_segment+0x104>
  105850:	e51b0078 	ldr	r0, [fp, #-120]	; 0xffffff88
  105854:	e3a01019 	mov	r1, #25
  105858:	eb000944 	bl	107d70 <alt_dma_program_DMAFLUSHP>
  10585c:	e50b0008 	str	r0, [fp, #-8]
  105860:	e51b3008 	ldr	r3, [fp, #-8]
  105864:	e3530000 	cmp	r3, #0
  105868:	1a000004 	bne	105880 <alt_dma_qspi_to_memory_segment+0x124>
  10586c:	e51b0078 	ldr	r0, [fp, #-120]	; 0xffffff88
  105870:	e3a01019 	mov	r1, #25
  105874:	e3a02001 	mov	r2, #1
  105878:	eb000d6e 	bl	108e38 <alt_dma_program_DMAWFP>
  10587c:	e50b0008 	str	r0, [fp, #-8]
  105880:	e51b3008 	ldr	r3, [fp, #-8]
  105884:	e3530000 	cmp	r3, #0
  105888:	1a000003 	bne	10589c <alt_dma_qspi_to_memory_segment+0x140>
  10588c:	e51b0078 	ldr	r0, [fp, #-120]	; 0xffffff88
  105890:	e3a01001 	mov	r1, #1
  105894:	eb0009e9 	bl	108040 <alt_dma_program_DMALD>
  105898:	e50b0008 	str	r0, [fp, #-8]
  10589c:	e51b3008 	ldr	r3, [fp, #-8]
  1058a0:	e3530000 	cmp	r3, #0
  1058a4:	1a000003 	bne	1058b8 <alt_dma_qspi_to_memory_segment+0x15c>
  1058a8:	e51b0078 	ldr	r0, [fp, #-120]	; 0xffffff88
  1058ac:	e3a01001 	mov	r1, #1
  1058b0:	eb000c7f 	bl	108ab4 <alt_dma_program_DMAST>
  1058b4:	e50b0008 	str	r0, [fp, #-8]
  1058b8:	e59b3004 	ldr	r3, [fp, #4]
  1058bc:	e2433004 	sub	r3, r3, #4
  1058c0:	e58b3004 	str	r3, [fp, #4]
  1058c4:	e3a03000 	mov	r3, #0
  1058c8:	e50b300c 	str	r3, [fp, #-12]
  1058cc:	e51b3080 	ldr	r3, [fp, #-128]	; 0xffffff80
  1058d0:	e59b2004 	ldr	r2, [fp, #4]
