
dma_demo.axf:     file format elf32-littlearm


Disassembly of section .text:

00100040 <__cs3_interrupt_vector>:
  100040:	18 f0 9f e5 18 f0 9f e5 18 f0 9f e5 18 f0 9f e5     ................
  100050:	18 f0 9f e5 18 f0 9f e5 18 f0 9f e5 18 f0 9f e5     ................
  100060:	80 00 10 00 5c 47 11 00 60 47 11 00 64 47 11 00     ....\G..`G..dG..
  100070:	68 47 11 00 58 47 11 00 6c 47 11 00 70 47 11 00     hG..XG..lG..pG..

00100080 <__cs3_reset>:
  100080:	ea000022 	b	100110 <_start>

00100084 <__cs3_start_c>:
  100084:	e3008002 	movw	r8, #2
  100088:	e92d4080 	push	{r7, lr}
  10008c:	e3408000 	movt	r8, #0
  100090:	e3580000 	cmp	r8, #0
  100094:	0a00001c 	beq	10010c <__cs3_start_c+0x88>
  100098:	e305e000 	movw	lr, #20480	; 0x5000
  10009c:	e2488001 	sub	r8, r8, #1
  1000a0:	e3a04000 	mov	r4, #0
  1000a4:	e3a05000 	mov	r5, #0
  1000a8:	e340e011 	movt	lr, #17
  1000ac:	e99e1005 	ldmib	lr, {r0, r2, ip}
  1000b0:	e1500002 	cmp	r0, r2
  1000b4:	0082200c 	addeq	r2, r2, ip
  1000b8:	0a000007 	beq	1000dc <__cs3_start_c+0x58>
  1000bc:	e35c0000 	cmp	ip, #0
  1000c0:	0a000005 	beq	1000dc <__cs3_start_c+0x58>
  1000c4:	e1a03000 	mov	r3, r0
  1000c8:	e0c360d8 	ldrd	r6, [r3], #8
  1000cc:	e0601003 	rsb	r1, r0, r3
  1000d0:	e0c260f8 	strd	r6, [r2], #8
  1000d4:	e15c0001 	cmp	ip, r1
  1000d8:	1afffffa 	bne	1000c8 <__cs3_start_c+0x44>
  1000dc:	e59e0010 	ldr	r0, [lr, #16]
  1000e0:	e3500000 	cmp	r0, #0
  1000e4:	11a03002 	movne	r3, r2
  1000e8:	0a000003 	beq	1000fc <__cs3_start_c+0x78>
  1000ec:	e0c340f8 	strd	r4, [r3], #8
  1000f0:	e0621003 	rsb	r1, r2, r3
  1000f4:	e1500001 	cmp	r0, r1
  1000f8:	1afffffb 	bne	1000ec <__cs3_start_c+0x68>
  1000fc:	e2488001 	sub	r8, r8, #1
  100100:	e28ee014 	add	lr, lr, #20
  100104:	e3780001 	cmn	r8, #1
  100108:	1affffe7 	bne	1000ac <__cs3_start_c+0x28>
  10010c:	eb005147 	bl	114630 <__cs3_premain>

00100110 <_start>:
  100110:	e51fd000 	ldr	sp, [pc, #-0]	; 100118 <_start+0x8>
  100114:	eaffffda 	b	100084 <__cs3_start_c>
  100118:	01100040 	.word	0x01100040

0010011c <deregister_tm_clones>:
  10011c:	e59f3024 	ldr	r3, [pc, #36]	; 100148 <deregister_tm_clones+0x2c>
  100120:	e30008c8 	movw	r0, #2248	; 0x8c8
  100124:	e3400012 	movt	r0, #18
  100128:	e0603003 	rsb	r3, r0, r3
  10012c:	e3530006 	cmp	r3, #6
  100130:	912fff1e 	bxls	lr
  100134:	e3003000 	movw	r3, #0
  100138:	e3403000 	movt	r3, #0
  10013c:	e3530000 	cmp	r3, #0
  100140:	012fff1e 	bxeq	lr
  100144:	e12fff13 	bx	r3
  100148:	001208cb 	.word	0x001208cb

0010014c <register_tm_clones>:
  10014c:	e30038c8 	movw	r3, #2248	; 0x8c8
  100150:	e30008c8 	movw	r0, #2248	; 0x8c8
  100154:	e3403012 	movt	r3, #18
  100158:	e3400012 	movt	r0, #18
  10015c:	e0601003 	rsb	r1, r0, r3
  100160:	e1a01141 	asr	r1, r1, #2
  100164:	e0811fa1 	add	r1, r1, r1, lsr #31
  100168:	e1b010c1 	asrs	r1, r1, #1
  10016c:	012fff1e 	bxeq	lr
  100170:	e3003000 	movw	r3, #0
  100174:	e3403000 	movt	r3, #0
  100178:	e3530000 	cmp	r3, #0
  10017c:	012fff1e 	bxeq	lr
  100180:	e12fff13 	bx	r3

00100184 <__do_global_dtors_aux>:
  100184:	e92d4010 	push	{r4, lr}
  100188:	e30048c8 	movw	r4, #2248	; 0x8c8
  10018c:	e3404012 	movt	r4, #18
  100190:	e5d43000 	ldrb	r3, [r4]
  100194:	e3530000 	cmp	r3, #0
  100198:	18bd8010 	popne	{r4, pc}
  10019c:	ebffffde 	bl	10011c <deregister_tm_clones>
  1001a0:	e3003000 	movw	r3, #0
  1001a4:	e3403000 	movt	r3, #0
  1001a8:	e3530000 	cmp	r3, #0
  1001ac:	0a000002 	beq	1001bc <__do_global_dtors_aux+0x38>
  1001b0:	e30407f8 	movw	r0, #18424	; 0x47f8
  1001b4:	e3400011 	movt	r0, #17
  1001b8:	e320f000 	nop	{0}
  1001bc:	e3a03001 	mov	r3, #1
  1001c0:	e5c43000 	strb	r3, [r4]
  1001c4:	e8bd8010 	pop	{r4, pc}

001001c8 <frame_dummy>:
  1001c8:	e3003000 	movw	r3, #0
  1001cc:	e92d4010 	push	{r4, lr}
  1001d0:	e3403000 	movt	r3, #0
  1001d4:	e3530000 	cmp	r3, #0
  1001d8:	0a000004 	beq	1001f0 <frame_dummy+0x28>
  1001dc:	e30018cc 	movw	r1, #2252	; 0x8cc
  1001e0:	e30407f8 	movw	r0, #18424	; 0x47f8
  1001e4:	e3401012 	movt	r1, #18
  1001e8:	e3400011 	movt	r0, #17
  1001ec:	e320f000 	nop	{0}
  1001f0:	e3080000 	movw	r0, #32768	; 0x8000
  1001f4:	e3400011 	movt	r0, #17
  1001f8:	e5903000 	ldr	r3, [r0]
  1001fc:	e3530000 	cmp	r3, #0
  100200:	1a000001 	bne	10020c <frame_dummy+0x44>
  100204:	e8bd4010 	pop	{r4, lr}
  100208:	eaffffcf 	b	10014c <register_tm_clones>
  10020c:	e3003000 	movw	r3, #0
  100210:	e3403000 	movt	r3, #0
  100214:	e3530000 	cmp	r3, #0
  100218:	0afffff9 	beq	100204 <frame_dummy+0x3c>
  10021c:	e12fff33 	blx	r3
  100220:	eafffff7 	b	100204 <frame_dummy+0x3c>

00100224 <main>:
  100224:	e92d4810 	push	{r4, fp, lr}
  100228:	e28db008 	add	fp, sp, #8
  10022c:	e24dd03c 	sub	sp, sp, #60	; 0x3c
  100230:	e3a03000 	mov	r3, #0
  100234:	e50b3010 	str	r3, [fp, #-16]
  100238:	e3a00009 	mov	r0, #9
  10023c:	eb0000fe 	bl	10063c <cache_configuration>
  100240:	e3a0301f 	mov	r3, #31
  100244:	e50b3018 	str	r3, [fp, #-24]	; 0xffffffe8
  100248:	e3a0301f 	mov	r3, #31
  10024c:	e50b301c 	str	r3, [fp, #-28]	; 0xffffffe4
  100250:	e51b3010 	ldr	r3, [fp, #-16]
  100254:	e3530000 	cmp	r3, #0
  100258:	1a00000d 	bne	100294 <main+0x70>
  10025c:	e3a00003 	mov	r0, #3
  100260:	eb00279d 	bl	10a0dc <alt_acp_id_map_dynamic_read_set>
  100264:	e50b0010 	str	r0, [fp, #-16]
  100268:	e3a00004 	mov	r0, #4
  10026c:	eb0027ff 	bl	10a270 <alt_acp_id_map_dynamic_write_set>
  100270:	e50b0010 	str	r0, [fp, #-16]
  100274:	e51b1018 	ldr	r1, [fp, #-24]	; 0xffffffe8
  100278:	e3a00000 	mov	r0, #0
  10027c:	eb002860 	bl	10a404 <alt_acp_id_map_dynamic_read_options_set>
  100280:	e50b0010 	str	r0, [fp, #-16]
  100284:	e51b101c 	ldr	r1, [fp, #-28]	; 0xffffffe4
  100288:	e3a00000 	mov	r0, #0
  10028c:	eb002871 	bl	10a458 <alt_acp_id_map_dynamic_write_options_set>
  100290:	e50b0010 	str	r0, [fp, #-16]
  100294:	e51b3010 	ldr	r3, [fp, #-16]
  100298:	e3530000 	cmp	r3, #0
  10029c:	1a000008 	bne	1002c4 <main+0xa0>
  1002a0:	e3040808 	movw	r0, #18440	; 0x4808
  1002a4:	e3400011 	movt	r0, #17
  1002a8:	eb002a88 	bl	10acd0 <printf>
  1002ac:	eb000096 	bl	10050c <dmac_init>
  1002b0:	e50b0010 	str	r0, [fp, #-16]
  1002b4:	e51b3010 	ldr	r3, [fp, #-16]
  1002b8:	e3530000 	cmp	r3, #0
  1002bc:	1a000011 	bne	100308 <main+0xe4>
  1002c0:	ea000004 	b	1002d8 <main+0xb4>
  1002c4:	e3040838 	movw	r0, #18488	; 0x4838
  1002c8:	e3400011 	movt	r0, #17
  1002cc:	eb002a7f 	bl	10acd0 <printf>
  1002d0:	e3a03001 	mov	r3, #1
  1002d4:	ea000089 	b	100500 <main+0x2dc>
  1002d8:	e304086c 	movw	r0, #18540	; 0x486c
  1002dc:	e3400011 	movt	r0, #17
  1002e0:	eb002a7a 	bl	10acd0 <printf>
  1002e4:	e3a03000 	mov	r3, #0
  1002e8:	e34f3fff 	movt	r3, #65535	; 0xffff
  1002ec:	e50b3020 	str	r3, [fp, #-32]	; 0xffffffe0
  1002f0:	e30408c8 	movw	r0, #18632	; 0x48c8
  1002f4:	e3400011 	movt	r0, #17
  1002f8:	eb002a74 	bl	10acd0 <printf>
  1002fc:	e3a03000 	mov	r3, #0
  100300:	e50b3014 	str	r3, [fp, #-20]	; 0xffffffec
  100304:	ea000014 	b	10035c <main+0x138>
  100308:	e3040898 	movw	r0, #18584	; 0x4898
  10030c:	e3400011 	movt	r0, #17
  100310:	eb002a6e 	bl	10acd0 <printf>
  100314:	e3a03001 	mov	r3, #1
  100318:	ea000078 	b	100500 <main+0x2dc>
  10031c:	e51b3014 	ldr	r3, [fp, #-20]	; 0xffffffec
  100320:	e2834103 	add	r4, r3, #-1073741824	; 0xc0000000
  100324:	eb002acf 	bl	10ae68 <rand>
  100328:	e1a03000 	mov	r3, r0
  10032c:	e6ef3073 	uxtb	r3, r3
  100330:	e5c43000 	strb	r3, [r4]
  100334:	e51b3014 	ldr	r3, [fp, #-20]	; 0xffffffec
  100338:	e24b202c 	sub	r2, fp, #44	; 0x2c
  10033c:	e0824003 	add	r4, r2, r3
  100340:	eb002ac8 	bl	10ae68 <rand>
  100344:	e1a03000 	mov	r3, r0
  100348:	e6ef3073 	uxtb	r3, r3
  10034c:	e5c43000 	strb	r3, [r4]
  100350:	e51b3014 	ldr	r3, [fp, #-20]	; 0xffffffec
  100354:	e2833001 	add	r3, r3, #1
  100358:	e50b3014 	str	r3, [fp, #-20]	; 0xffffffec
  10035c:	e51b3014 	ldr	r3, [fp, #-20]	; 0xffffffec
  100360:	e3530003 	cmp	r3, #3
  100364:	daffffec 	ble	10031c <main+0xf8>
  100368:	e24b302c 	sub	r3, fp, #44	; 0x2c
  10036c:	e3a02004 	mov	r2, #4
  100370:	e1a01003 	mov	r1, r3
  100374:	e3a00103 	mov	r0, #-1073741824	; 0xc0000000
  100378:	eb000160 	bl	100900 <print_src_dst>
  10037c:	e30408f8 	movw	r0, #18680	; 0x48f8
  100380:	e3400011 	movt	r0, #17
  100384:	eb002a51 	bl	10acd0 <printf>
  100388:	e24b3021 	sub	r3, fp, #33	; 0x21
  10038c:	e1a00003 	mov	r0, r3
  100390:	eb0005b9 	bl	101a7c <alt_dma_channel_alloc_any>
  100394:	e50b0010 	str	r0, [fp, #-16]
  100398:	e51b3010 	ldr	r3, [fp, #-16]
  10039c:	e3530000 	cmp	r3, #0
  1003a0:	1a00001b 	bne	100414 <main+0x1f0>
  1003a4:	e3040918 	movw	r0, #18712	; 0x4918
  1003a8:	e3400011 	movt	r0, #17
  1003ac:	eb002a47 	bl	10acd0 <printf>
  1003b0:	e24b302c 	sub	r3, fp, #44	; 0x2c
  1003b4:	e2833102 	add	r3, r3, #-2147483648	; 0x80000000
  1003b8:	e1a01003 	mov	r1, r3
  1003bc:	e3a03004 	mov	r3, #4
  1003c0:	e3a02103 	mov	r2, #-1073741824	; 0xc0000000
  1003c4:	e304097c 	movw	r0, #18812	; 0x497c
  1003c8:	e3400011 	movt	r0, #17
  1003cc:	eb002a3f 	bl	10acd0 <printf>
  1003d0:	e55b0021 	ldrb	r0, [fp, #-33]	; 0xffffffdf
  1003d4:	e24b302c 	sub	r3, fp, #44	; 0x2c
  1003d8:	e2833102 	add	r3, r3, #-2147483648	; 0x80000000
  1003dc:	e3a02000 	mov	r2, #0
  1003e0:	e58d2008 	str	r2, [sp, #8]
  1003e4:	e3a02000 	mov	r2, #0
  1003e8:	e58d2004 	str	r2, [sp, #4]
  1003ec:	e3a02004 	mov	r2, #4
  1003f0:	e58d2000 	str	r2, [sp]
  1003f4:	e3a02103 	mov	r2, #-1073741824	; 0xc0000000
  1003f8:	e51b1020 	ldr	r1, [fp, #-32]	; 0xffffffe0
  1003fc:	eb00099c 	bl	102a74 <alt_dma_memory_to_memory>
  100400:	e50b0010 	str	r0, [fp, #-16]
  100404:	e51b3010 	ldr	r3, [fp, #-16]
  100408:	e3530000 	cmp	r3, #0
  10040c:	1a000026 	bne	1004ac <main+0x288>
  100410:	ea000004 	b	100428 <main+0x204>
  100414:	e3040948 	movw	r0, #18760	; 0x4948
  100418:	e3400011 	movt	r0, #17
  10041c:	eb002a2b 	bl	10acd0 <printf>
  100420:	e3a03001 	mov	r3, #1
  100424:	ea000035 	b	100500 <main+0x2dc>
  100428:	e30409b4 	movw	r0, #18868	; 0x49b4
  10042c:	e3400011 	movt	r0, #17
  100430:	eb002a26 	bl	10acd0 <printf>
  100434:	e3a03001 	mov	r3, #1
  100438:	e54b302d 	strb	r3, [fp, #-45]	; 0xffffffd3
  10043c:	ea000014 	b	100494 <main+0x270>
  100440:	e55b3021 	ldrb	r3, [fp, #-33]	; 0xffffffdf
  100444:	e24b202d 	sub	r2, fp, #45	; 0x2d
  100448:	e1a01002 	mov	r1, r2
  10044c:	e1a00003 	mov	r0, r3
  100450:	eb000704 	bl	102068 <alt_dma_channel_state_get>
  100454:	e50b0010 	str	r0, [fp, #-16]
  100458:	e55b302d 	ldrb	r3, [fp, #-45]	; 0xffffffd3
  10045c:	e353000f 	cmp	r3, #15
  100460:	1a00000b 	bne	100494 <main+0x270>
  100464:	e55b3021 	ldrb	r3, [fp, #-33]	; 0xffffffdf
  100468:	e24b2028 	sub	r2, fp, #40	; 0x28
  10046c:	e1a01002 	mov	r1, r2
  100470:	e1a00003 	mov	r0, r3
  100474:	eb000728 	bl	10211c <alt_dma_channel_fault_status_get>
  100478:	e51b3028 	ldr	r3, [fp, #-40]	; 0xffffffd8
  10047c:	e1a01003 	mov	r1, r3
  100480:	e30409e4 	movw	r0, #18916	; 0x49e4
  100484:	e3400011 	movt	r0, #17
  100488:	eb002a10 	bl	10acd0 <printf>
  10048c:	e3a03001 	mov	r3, #1
  100490:	ea00001a 	b	100500 <main+0x2dc>
  100494:	e51b3010 	ldr	r3, [fp, #-16]
  100498:	e3530000 	cmp	r3, #0
  10049c:	1a000002 	bne	1004ac <main+0x288>
  1004a0:	e55b302d 	ldrb	r3, [fp, #-45]	; 0xffffffd3
  1004a4:	e3530000 	cmp	r3, #0
  1004a8:	1affffe4 	bne	100440 <main+0x21c>
  1004ac:	e24b302c 	sub	r3, fp, #44	; 0x2c
  1004b0:	e3a02004 	mov	r2, #4
  1004b4:	e1a01003 	mov	r1, r3
  1004b8:	e3a00103 	mov	r0, #-1073741824	; 0xc0000000
  1004bc:	eb00010f 	bl	100900 <print_src_dst>
  1004c0:	e24b302c 	sub	r3, fp, #44	; 0x2c
  1004c4:	e3a02004 	mov	r2, #4
  1004c8:	e3a01103 	mov	r1, #-1073741824	; 0xc0000000
  1004cc:	e1a00003 	mov	r0, r3
  1004d0:	eb0029c7 	bl	10abf4 <memcmp>
  1004d4:	e1a03000 	mov	r3, r0
  1004d8:	e3530000 	cmp	r3, #0
  1004dc:	0a000003 	beq	1004f0 <main+0x2cc>
  1004e0:	e3040a04 	movw	r0, #18948	; 0x4a04
  1004e4:	e3400011 	movt	r0, #17
  1004e8:	eb0029f8 	bl	10acd0 <printf>
  1004ec:	ea000002 	b	1004fc <main+0x2d8>
  1004f0:	e3040a24 	movw	r0, #18980	; 0x4a24
  1004f4:	e3400011 	movt	r0, #17
  1004f8:	eb0029f4 	bl	10acd0 <printf>
  1004fc:	e3a03000 	mov	r3, #0
  100500:	e1a00003 	mov	r0, r3
  100504:	e24bd008 	sub	sp, fp, #8
  100508:	e8bd8810 	pop	{r4, fp, pc}

0010050c <dmac_init>:
  10050c:	e92d4800 	push	{fp, lr}
  100510:	e28db004 	add	fp, sp, #4
  100514:	e24dd040 	sub	sp, sp, #64	; 0x40
  100518:	e3a03000 	mov	r3, #0
  10051c:	e50b3008 	str	r3, [fp, #-8]
  100520:	e3040a4c 	movw	r0, #19020	; 0x4a4c
  100524:	e3400011 	movt	r0, #17
  100528:	eb0029e8 	bl	10acd0 <printf>
  10052c:	e51b3008 	ldr	r3, [fp, #-8]
  100530:	e3530000 	cmp	r3, #0
  100534:	1a000001 	bne	100540 <dmac_init+0x34>
  100538:	eb000504 	bl	101950 <alt_dma_uninit>
  10053c:	e50b0008 	str	r0, [fp, #-8]
  100540:	e51b3008 	ldr	r3, [fp, #-8]
  100544:	e3530000 	cmp	r3, #0
  100548:	1a00002f 	bne	10060c <dmac_init+0x100>
  10054c:	e3a03000 	mov	r3, #0
  100550:	e54b3044 	strb	r3, [fp, #-68]	; 0xffffffbc
  100554:	e3a03000 	mov	r3, #0
  100558:	e50b300c 	str	r3, [fp, #-12]
  10055c:	ea000007 	b	100580 <dmac_init+0x74>
  100560:	e24b2043 	sub	r2, fp, #67	; 0x43
  100564:	e51b300c 	ldr	r3, [fp, #-12]
  100568:	e0823003 	add	r3, r2, r3
  10056c:	e3a02000 	mov	r2, #0
  100570:	e5c32000 	strb	r2, [r3]
  100574:	e51b300c 	ldr	r3, [fp, #-12]
  100578:	e2833001 	add	r3, r3, #1
  10057c:	e50b300c 	str	r3, [fp, #-12]
  100580:	e51b300c 	ldr	r3, [fp, #-12]
  100584:	e3530007 	cmp	r3, #7
  100588:	dafffff4 	ble	100560 <dmac_init+0x54>
  10058c:	e3a03000 	mov	r3, #0
  100590:	e50b3010 	str	r3, [fp, #-16]
  100594:	ea000007 	b	1005b8 <dmac_init+0xac>
  100598:	e24b203b 	sub	r2, fp, #59	; 0x3b
  10059c:	e51b3010 	ldr	r3, [fp, #-16]
  1005a0:	e0823003 	add	r3, r2, r3
  1005a4:	e3a02000 	mov	r2, #0
  1005a8:	e5c32000 	strb	r2, [r3]
  1005ac:	e51b3010 	ldr	r3, [fp, #-16]
  1005b0:	e2833001 	add	r3, r3, #1
  1005b4:	e50b3010 	str	r3, [fp, #-16]
  1005b8:	e51b3010 	ldr	r3, [fp, #-16]
  1005bc:	e353001f 	cmp	r3, #31
  1005c0:	dafffff4 	ble	100598 <dmac_init+0x8c>
  1005c4:	e3a03000 	mov	r3, #0
  1005c8:	e50b3014 	str	r3, [fp, #-20]	; 0xffffffec
  1005cc:	ea000007 	b	1005f0 <dmac_init+0xe4>
  1005d0:	e24b201b 	sub	r2, fp, #27
  1005d4:	e51b3014 	ldr	r3, [fp, #-20]	; 0xffffffec
  1005d8:	e0823003 	add	r3, r2, r3
  1005dc:	e3a02000 	mov	r2, #0
  1005e0:	e5c32000 	strb	r2, [r3]
  1005e4:	e51b3014 	ldr	r3, [fp, #-20]	; 0xffffffec
  1005e8:	e2833001 	add	r3, r3, #1
  1005ec:	e50b3014 	str	r3, [fp, #-20]	; 0xffffffec
  1005f0:	e51b3014 	ldr	r3, [fp, #-20]	; 0xffffffec
  1005f4:	e3530003 	cmp	r3, #3
  1005f8:	dafffff4 	ble	1005d0 <dmac_init+0xc4>
  1005fc:	e24b3044 	sub	r3, fp, #68	; 0x44
  100600:	e1a00003 	mov	r0, r3
  100604:	eb000416 	bl	101664 <alt_dma_init>
  100608:	e50b0008 	str	r0, [fp, #-8]
  10060c:	e51b3008 	ldr	r3, [fp, #-8]
  100610:	e1a00003 	mov	r0, r3
  100614:	e24bd004 	sub	sp, fp, #4
  100618:	e8bd8800 	pop	{fp, pc}

0010061c <dmac_uninit>:
  10061c:	e92d4800 	push	{fp, lr}
  100620:	e28db004 	add	fp, sp, #4
  100624:	e3040a64 	movw	r0, #19044	; 0x4a64
  100628:	e3400011 	movt	r0, #17
  10062c:	eb0029a7 	bl	10acd0 <printf>
  100630:	e3a03000 	mov	r3, #0
  100634:	e1a00003 	mov	r0, r3
  100638:	e8bd8800 	pop	{fp, pc}

0010063c <cache_configuration>:
  10063c:	e92d4800 	push	{fp, lr}
  100640:	e28db004 	add	fp, sp, #4
  100644:	e24dd008 	sub	sp, sp, #8
  100648:	e50b0008 	str	r0, [fp, #-8]
  10064c:	e51b3008 	ldr	r3, [fp, #-8]
  100650:	e3530000 	cmp	r3, #0
  100654:	ca000003 	bgt	100668 <cache_configuration+0x2c>
  100658:	e3040a80 	movw	r0, #19072	; 0x4a80
  10065c:	e3400011 	movt	r0, #17
  100660:	eb00299a 	bl	10acd0 <printf>
  100664:	ea0000a2 	b	1008f4 <cache_configuration+0x2b8>
  100668:	e51b3008 	ldr	r3, [fp, #-8]
  10066c:	e3530001 	cmp	r3, #1
  100670:	ca000004 	bgt	100688 <cache_configuration+0x4c>
  100674:	e3040a9c 	movw	r0, #19100	; 0x4a9c
  100678:	e3400011 	movt	r0, #17
  10067c:	eb002993 	bl	10acd0 <printf>
  100680:	eb002415 	bl	1096dc <enable_MMU>
  100684:	ea00009a 	b	1008f4 <cache_configuration+0x2b8>
  100688:	e51b3008 	ldr	r3, [fp, #-8]
  10068c:	e3530002 	cmp	r3, #2
  100690:	ca000005 	bgt	1006ac <cache_configuration+0x70>
  100694:	e3040abc 	movw	r0, #19132	; 0x4abc
  100698:	e3400011 	movt	r0, #17
  10069c:	eb00298b 	bl	10acd0 <printf>
  1006a0:	eb00240d 	bl	1096dc <enable_MMU>
  1006a4:	eb002458 	bl	10980c <initialize_L2C>
  1006a8:	ea000091 	b	1008f4 <cache_configuration+0x2b8>
  1006ac:	e51b3008 	ldr	r3, [fp, #-8]
  1006b0:	e3530003 	cmp	r3, #3
  1006b4:	ca000006 	bgt	1006d4 <cache_configuration+0x98>
  1006b8:	e3040ae8 	movw	r0, #19176	; 0x4ae8
  1006bc:	e3400011 	movt	r0, #17
  1006c0:	eb002982 	bl	10acd0 <printf>
  1006c4:	eb002404 	bl	1096dc <enable_MMU>
  1006c8:	eb00244f 	bl	10980c <initialize_L2C>
  1006cc:	eb0024b2 	bl	10999c <enable_SCU>
  1006d0:	ea000087 	b	1008f4 <cache_configuration+0x2b8>
  1006d4:	e51b3008 	ldr	r3, [fp, #-8]
  1006d8:	e3530004 	cmp	r3, #4
  1006dc:	ca000007 	bgt	100700 <cache_configuration+0xc4>
  1006e0:	e3040b1c 	movw	r0, #19228	; 0x4b1c
  1006e4:	e3400011 	movt	r0, #17
  1006e8:	eb002978 	bl	10acd0 <printf>
  1006ec:	eb0023fa 	bl	1096dc <enable_MMU>
  1006f0:	eb002445 	bl	10980c <initialize_L2C>
  1006f4:	eb0024a8 	bl	10999c <enable_SCU>
  1006f8:	eb002469 	bl	1098a4 <enable_L1_I>
  1006fc:	ea00007c 	b	1008f4 <cache_configuration+0x2b8>
  100700:	e51b3008 	ldr	r3, [fp, #-8]
  100704:	e3530005 	cmp	r3, #5
  100708:	ca000008 	bgt	100730 <cache_configuration+0xf4>
  10070c:	e3040b34 	movw	r0, #19252	; 0x4b34
  100710:	e3400011 	movt	r0, #17
  100714:	eb00296d 	bl	10acd0 <printf>
  100718:	eb0023ef 	bl	1096dc <enable_MMU>
  10071c:	eb00243a 	bl	10980c <initialize_L2C>
  100720:	eb00249d 	bl	10999c <enable_SCU>
  100724:	eb00245e 	bl	1098a4 <enable_L1_I>
  100728:	eb002461 	bl	1098b4 <enable_branch_prediction>
  10072c:	ea000070 	b	1008f4 <cache_configuration+0x2b8>
  100730:	e51b3008 	ldr	r3, [fp, #-8]
  100734:	e3530006 	cmp	r3, #6
  100738:	ca000009 	bgt	100764 <cache_configuration+0x128>
  10073c:	e3040b64 	movw	r0, #19300	; 0x4b64
  100740:	e3400011 	movt	r0, #17
  100744:	eb002961 	bl	10acd0 <printf>
  100748:	eb0023e3 	bl	1096dc <enable_MMU>
  10074c:	eb00242e 	bl	10980c <initialize_L2C>
  100750:	eb002491 	bl	10999c <enable_SCU>
  100754:	eb00244e 	bl	109894 <enable_L1_D>
  100758:	eb002451 	bl	1098a4 <enable_L1_I>
  10075c:	eb002454 	bl	1098b4 <enable_branch_prediction>
  100760:	ea000063 	b	1008f4 <cache_configuration+0x2b8>
  100764:	e51b3008 	ldr	r3, [fp, #-8]
  100768:	e3530007 	cmp	r3, #7
  10076c:	ca00000a 	bgt	10079c <cache_configuration+0x160>
  100770:	e3040b98 	movw	r0, #19352	; 0x4b98
  100774:	e3400011 	movt	r0, #17
  100778:	eb002954 	bl	10acd0 <printf>
  10077c:	eb0023d6 	bl	1096dc <enable_MMU>
  100780:	eb002421 	bl	10980c <initialize_L2C>
  100784:	eb002470 	bl	10994c <enable_L1_D_side_prefetch>
  100788:	eb002483 	bl	10999c <enable_SCU>
  10078c:	eb002440 	bl	109894 <enable_L1_D>
  100790:	eb002443 	bl	1098a4 <enable_L1_I>
  100794:	eb002446 	bl	1098b4 <enable_branch_prediction>
  100798:	ea000055 	b	1008f4 <cache_configuration+0x2b8>
  10079c:	e51b3008 	ldr	r3, [fp, #-8]
  1007a0:	e3530008 	cmp	r3, #8
  1007a4:	ca000008 	bgt	1007cc <cache_configuration+0x190>
  1007a8:	e3040be4 	movw	r0, #19428	; 0x4be4
  1007ac:	e3400011 	movt	r0, #17
  1007b0:	eb002946 	bl	10acd0 <printf>
  1007b4:	eb0023c8 	bl	1096dc <enable_MMU>
  1007b8:	eb002413 	bl	10980c <initialize_L2C>
  1007bc:	eb002462 	bl	10994c <enable_L1_D_side_prefetch>
  1007c0:	eb002475 	bl	10999c <enable_SCU>
  1007c4:	eb002429 	bl	109870 <enable_caches>
  1007c8:	ea000049 	b	1008f4 <cache_configuration+0x2b8>
  1007cc:	e51b3008 	ldr	r3, [fp, #-8]
  1007d0:	e3530009 	cmp	r3, #9
  1007d4:	ca000009 	bgt	100800 <cache_configuration+0x1c4>
  1007d8:	e3040c30 	movw	r0, #19504	; 0x4c30
  1007dc:	e3400011 	movt	r0, #17
  1007e0:	eb00293a 	bl	10acd0 <printf>
  1007e4:	eb0023bc 	bl	1096dc <enable_MMU>
  1007e8:	eb002407 	bl	10980c <initialize_L2C>
  1007ec:	eb002456 	bl	10994c <enable_L1_D_side_prefetch>
  1007f0:	eb002459 	bl	10995c <enable_L2_prefetch_hint>
  1007f4:	eb002468 	bl	10999c <enable_SCU>
  1007f8:	eb00241c 	bl	109870 <enable_caches>
  1007fc:	ea00003c 	b	1008f4 <cache_configuration+0x2b8>
  100800:	e51b3008 	ldr	r3, [fp, #-8]
  100804:	e353000a 	cmp	r3, #10
  100808:	ca00000a 	bgt	100838 <cache_configuration+0x1fc>
  10080c:	e3040c64 	movw	r0, #19556	; 0x4c64
  100810:	e3400011 	movt	r0, #17
  100814:	eb00292d 	bl	10acd0 <printf>
  100818:	eb0023af 	bl	1096dc <enable_MMU>
  10081c:	eb0023fa 	bl	10980c <initialize_L2C>
  100820:	eb002449 	bl	10994c <enable_L1_D_side_prefetch>
  100824:	eb00244c 	bl	10995c <enable_L2_prefetch_hint>
  100828:	eb00245b 	bl	10999c <enable_SCU>
  10082c:	eb00243a 	bl	10991c <enable_write_full_line_zeros>
  100830:	eb00240e 	bl	109870 <enable_caches>
  100834:	ea00002e 	b	1008f4 <cache_configuration+0x2b8>
  100838:	e51b3008 	ldr	r3, [fp, #-8]
  10083c:	e353000b 	cmp	r3, #11
  100840:	ca00000b 	bgt	100874 <cache_configuration+0x238>
  100844:	e3040ca0 	movw	r0, #19616	; 0x4ca0
  100848:	e3400011 	movt	r0, #17
  10084c:	eb00291f 	bl	10acd0 <printf>
  100850:	eb0023a1 	bl	1096dc <enable_MMU>
  100854:	eb0023ec 	bl	10980c <initialize_L2C>
  100858:	eb00243b 	bl	10994c <enable_L1_D_side_prefetch>
  10085c:	eb00243e 	bl	10995c <enable_L2_prefetch_hint>
  100860:	eb00244d 	bl	10999c <enable_SCU>
  100864:	eb002451 	bl	1099b0 <enable_L2_speculative_linefill>
  100868:	eb00242b 	bl	10991c <enable_write_full_line_zeros>
  10086c:	eb0023ff 	bl	109870 <enable_caches>
  100870:	ea00001f 	b	1008f4 <cache_configuration+0x2b8>
  100874:	e51b3008 	ldr	r3, [fp, #-8]
  100878:	e353000c 	cmp	r3, #12
  10087c:	ca00000c 	bgt	1008b4 <cache_configuration+0x278>
  100880:	e3040cec 	movw	r0, #19692	; 0x4cec
  100884:	e3400011 	movt	r0, #17
  100888:	eb002910 	bl	10acd0 <printf>
  10088c:	eb002392 	bl	1096dc <enable_MMU>
  100890:	eb0023dd 	bl	10980c <initialize_L2C>
  100894:	eb00242c 	bl	10994c <enable_L1_D_side_prefetch>
  100898:	eb00242f 	bl	10995c <enable_L2_prefetch_hint>
  10089c:	eb00243e 	bl	10999c <enable_SCU>
  1008a0:	eb002442 	bl	1099b0 <enable_L2_speculative_linefill>
  1008a4:	eb00241c 	bl	10991c <enable_write_full_line_zeros>
  1008a8:	eb002412 	bl	1098f8 <enable_early_BRESP>
  1008ac:	eb0023ef 	bl	109870 <enable_caches>
  1008b0:	ea00000f 	b	1008f4 <cache_configuration+0x2b8>
  1008b4:	e51b3008 	ldr	r3, [fp, #-8]
  1008b8:	e353000d 	cmp	r3, #13
  1008bc:	ca00000c 	bgt	1008f4 <cache_configuration+0x2b8>
  1008c0:	e3040d2c 	movw	r0, #19756	; 0x4d2c
  1008c4:	e3400011 	movt	r0, #17
  1008c8:	eb002900 	bl	10acd0 <printf>
  1008cc:	eb002382 	bl	1096dc <enable_MMU>
  1008d0:	eb0023cd 	bl	10980c <initialize_L2C>
  1008d4:	eb00241c 	bl	10994c <enable_L1_D_side_prefetch>
  1008d8:	eb00241f 	bl	10995c <enable_L2_prefetch_hint>
  1008dc:	eb00242e 	bl	10999c <enable_SCU>
  1008e0:	eb002432 	bl	1099b0 <enable_L2_speculative_linefill>
  1008e4:	eb00240c 	bl	10991c <enable_write_full_line_zeros>
  1008e8:	eb002402 	bl	1098f8 <enable_early_BRESP>
  1008ec:	eb0023f8 	bl	1098d4 <enable_store_buffer_device_limitation>
  1008f0:	eb0023de 	bl	109870 <enable_caches>
  1008f4:	e1a00000 	nop			; (mov r0, r0)
  1008f8:	e24bd004 	sub	sp, fp, #4
  1008fc:	e8bd8800 	pop	{fp, pc}

00100900 <print_src_dst>:
  100900:	e92d4800 	push	{fp, lr}
  100904:	e28db004 	add	fp, sp, #4
  100908:	e24dd020 	sub	sp, sp, #32
  10090c:	e50b0018 	str	r0, [fp, #-24]	; 0xffffffe8
  100910:	e50b101c 	str	r1, [fp, #-28]	; 0xffffffe4
  100914:	e50b2020 	str	r2, [fp, #-32]	; 0xffffffe0
  100918:	e51b3018 	ldr	r3, [fp, #-24]	; 0xffffffe8
  10091c:	e50b300c 	str	r3, [fp, #-12]
  100920:	e51b301c 	ldr	r3, [fp, #-28]	; 0xffffffe4
  100924:	e50b3010 	str	r3, [fp, #-16]
  100928:	e3040d88 	movw	r0, #19848	; 0x4d88
  10092c:	e3400011 	movt	r0, #17
  100930:	eb0028e6 	bl	10acd0 <printf>
  100934:	e3a03000 	mov	r3, #0
  100938:	e50b3008 	str	r3, [fp, #-8]
  10093c:	ea000012 	b	10098c <print_src_dst+0x8c>
  100940:	e51b300c 	ldr	r3, [fp, #-12]
  100944:	e5d33000 	ldrb	r3, [r3]
  100948:	e1a01003 	mov	r1, r3
  10094c:	e3040d94 	movw	r0, #19860	; 0x4d94
  100950:	e3400011 	movt	r0, #17
  100954:	eb0028dd 	bl	10acd0 <printf>
  100958:	e51b300c 	ldr	r3, [fp, #-12]
  10095c:	e2833001 	add	r3, r3, #1
  100960:	e50b300c 	str	r3, [fp, #-12]
  100964:	e51b3020 	ldr	r3, [fp, #-32]	; 0xffffffe0
  100968:	e2432001 	sub	r2, r3, #1
  10096c:	e51b3008 	ldr	r3, [fp, #-8]
  100970:	e1520003 	cmp	r2, r3
  100974:	da000001 	ble	100980 <print_src_dst+0x80>
  100978:	e3a0002c 	mov	r0, #44	; 0x2c
  10097c:	eb0028e3 	bl	10ad10 <putchar>
  100980:	e51b3008 	ldr	r3, [fp, #-8]
  100984:	e2833001 	add	r3, r3, #1
  100988:	e50b3008 	str	r3, [fp, #-8]
  10098c:	e51b2008 	ldr	r2, [fp, #-8]
  100990:	e51b3020 	ldr	r3, [fp, #-32]	; 0xffffffe0
  100994:	e1520003 	cmp	r2, r3
  100998:	baffffe8 	blt	100940 <print_src_dst+0x40>
  10099c:	e3040d98 	movw	r0, #19864	; 0x4d98
  1009a0:	e3400011 	movt	r0, #17
  1009a4:	eb0028c9 	bl	10acd0 <printf>
  1009a8:	e3040d9c 	movw	r0, #19868	; 0x4d9c
  1009ac:	e3400011 	movt	r0, #17
  1009b0:	eb0028c6 	bl	10acd0 <printf>
  1009b4:	e3a03000 	mov	r3, #0
  1009b8:	e50b3008 	str	r3, [fp, #-8]
  1009bc:	ea000012 	b	100a0c <print_src_dst+0x10c>
  1009c0:	e51b3010 	ldr	r3, [fp, #-16]
  1009c4:	e5d33000 	ldrb	r3, [r3]
  1009c8:	e1a01003 	mov	r1, r3
  1009cc:	e3040d94 	movw	r0, #19860	; 0x4d94
  1009d0:	e3400011 	movt	r0, #17
  1009d4:	eb0028bd 	bl	10acd0 <printf>
  1009d8:	e51b3010 	ldr	r3, [fp, #-16]
  1009dc:	e2833001 	add	r3, r3, #1
  1009e0:	e50b3010 	str	r3, [fp, #-16]
  1009e4:	e51b3020 	ldr	r3, [fp, #-32]	; 0xffffffe0
  1009e8:	e2432001 	sub	r2, r3, #1
  1009ec:	e51b3008 	ldr	r3, [fp, #-8]
  1009f0:	e1520003 	cmp	r2, r3
  1009f4:	da000001 	ble	100a00 <print_src_dst+0x100>
  1009f8:	e3a0002c 	mov	r0, #44	; 0x2c
  1009fc:	eb0028c3 	bl	10ad10 <putchar>
  100a00:	e51b3008 	ldr	r3, [fp, #-8]
  100a04:	e2833001 	add	r3, r3, #1
  100a08:	e50b3008 	str	r3, [fp, #-8]
  100a0c:	e51b2008 	ldr	r2, [fp, #-8]
  100a10:	e51b3020 	ldr	r3, [fp, #-32]	; 0xffffffe0
  100a14:	e1520003 	cmp	r2, r3
  100a18:	baffffe8 	blt	1009c0 <print_src_dst+0xc0>
  100a1c:	e3040d98 	movw	r0, #19864	; 0x4d98
  100a20:	e3400011 	movt	r0, #17
  100a24:	eb0028a9 	bl	10acd0 <printf>
  100a28:	e1a00000 	nop			; (mov r0, r0)
  100a2c:	e24bd004 	sub	sp, fp, #4
  100a30:	e8bd8800 	pop	{fp, pc}

00100a34 <_close>:
  100a34:	e52db004 	push	{fp}		; (str fp, [sp, #-4]!)
  100a38:	e28db000 	add	fp, sp, #0
  100a3c:	e24dd00c 	sub	sp, sp, #12
  100a40:	e50b0008 	str	r0, [fp, #-8]
  100a44:	e51b3008 	ldr	r3, [fp, #-8]
  100a48:	e3530001 	cmp	r3, #1
  100a4c:	1a000001 	bne	100a58 <_close+0x24>
  100a50:	e3a03000 	mov	r3, #0
  100a54:	ea000000 	b	100a5c <_close+0x28>
  100a58:	e3e03000 	mvn	r3, #0
  100a5c:	e1a00003 	mov	r0, r3
  100a60:	e24bd000 	sub	sp, fp, #0
  100a64:	e49db004 	pop	{fp}		; (ldr fp, [sp], #4)
  100a68:	e12fff1e 	bx	lr

00100a6c <_fstat>:
  100a6c:	e52db004 	push	{fp}		; (str fp, [sp, #-4]!)
  100a70:	e28db000 	add	fp, sp, #0
  100a74:	e24dd00c 	sub	sp, sp, #12
  100a78:	e50b0008 	str	r0, [fp, #-8]
  100a7c:	e50b100c 	str	r1, [fp, #-12]
  100a80:	e51b3008 	ldr	r3, [fp, #-8]
  100a84:	e3530001 	cmp	r3, #1
  100a88:	1a000001 	bne	100a94 <_fstat+0x28>
  100a8c:	e3a03000 	mov	r3, #0
  100a90:	ea000000 	b	100a98 <_fstat+0x2c>
  100a94:	e3e03000 	mvn	r3, #0
  100a98:	e1a00003 	mov	r0, r3
  100a9c:	e24bd000 	sub	sp, fp, #0
  100aa0:	e49db004 	pop	{fp}		; (ldr fp, [sp], #4)
  100aa4:	e12fff1e 	bx	lr

00100aa8 <_isatty>:
  100aa8:	e52db004 	push	{fp}		; (str fp, [sp, #-4]!)
  100aac:	e28db000 	add	fp, sp, #0
  100ab0:	e24dd00c 	sub	sp, sp, #12
  100ab4:	e50b0008 	str	r0, [fp, #-8]
  100ab8:	e51b3008 	ldr	r3, [fp, #-8]
  100abc:	e3530001 	cmp	r3, #1
  100ac0:	1a000001 	bne	100acc <_isatty+0x24>
  100ac4:	e3a03001 	mov	r3, #1
  100ac8:	ea000000 	b	100ad0 <_isatty+0x28>
  100acc:	e3e03000 	mvn	r3, #0
  100ad0:	e1a00003 	mov	r0, r3
  100ad4:	e24bd000 	sub	sp, fp, #0
  100ad8:	e49db004 	pop	{fp}		; (ldr fp, [sp], #4)
  100adc:	e12fff1e 	bx	lr

00100ae0 <_lseek>:
  100ae0:	e52db004 	push	{fp}		; (str fp, [sp, #-4]!)
  100ae4:	e28db000 	add	fp, sp, #0
  100ae8:	e24dd014 	sub	sp, sp, #20
  100aec:	e50b0008 	str	r0, [fp, #-8]
  100af0:	e50b100c 	str	r1, [fp, #-12]
  100af4:	e50b2010 	str	r2, [fp, #-16]
  100af8:	e51b3008 	ldr	r3, [fp, #-8]
  100afc:	e3530001 	cmp	r3, #1
  100b00:	1a000001 	bne	100b0c <_lseek+0x2c>
  100b04:	e3a03000 	mov	r3, #0
  100b08:	ea000000 	b	100b10 <_lseek+0x30>
  100b0c:	e3e03000 	mvn	r3, #0
  100b10:	e1a00003 	mov	r0, r3
  100b14:	e24bd000 	sub	sp, fp, #0
  100b18:	e49db004 	pop	{fp}		; (ldr fp, [sp], #4)
  100b1c:	e12fff1e 	bx	lr

00100b20 <_read>:
  100b20:	e52db004 	push	{fp}		; (str fp, [sp, #-4]!)
  100b24:	e28db000 	add	fp, sp, #0
  100b28:	e24dd014 	sub	sp, sp, #20
  100b2c:	e50b0008 	str	r0, [fp, #-8]
  100b30:	e50b100c 	str	r1, [fp, #-12]
  100b34:	e50b2010 	str	r2, [fp, #-16]
  100b38:	e3e03000 	mvn	r3, #0
  100b3c:	e1a00003 	mov	r0, r3
  100b40:	e24bd000 	sub	sp, fp, #0
  100b44:	e49db004 	pop	{fp}		; (ldr fp, [sp], #4)
  100b48:	e12fff1e 	bx	lr

00100b4c <_write>:
  100b4c:	e52db004 	push	{fp}		; (str fp, [sp, #-4]!)
  100b50:	e28db000 	add	fp, sp, #0
  100b54:	e24dd01c 	sub	sp, sp, #28
  100b58:	e50b0010 	str	r0, [fp, #-16]
  100b5c:	e50b1014 	str	r1, [fp, #-20]	; 0xffffffec
  100b60:	e50b2018 	str	r2, [fp, #-24]	; 0xffffffe8
  100b64:	e50b301c 	str	r3, [fp, #-28]	; 0xffffffe4
  100b68:	e51b3010 	ldr	r3, [fp, #-16]
  100b6c:	e3530001 	cmp	r3, #1
  100b70:	0a000001 	beq	100b7c <_write+0x30>
  100b74:	e3e03000 	mvn	r3, #0
  100b78:	ea000019 	b	100be4 <_write+0x98>
  100b7c:	e3a03000 	mov	r3, #0
  100b80:	e50b3008 	str	r3, [fp, #-8]
  100b84:	ea000011 	b	100bd0 <_write+0x84>
  100b88:	e1a00000 	nop			; (mov r0, r0)
  100b8c:	e3023014 	movw	r3, #8212	; 0x2014
  100b90:	e34f3fc0 	movt	r3, #65472	; 0xffc0
  100b94:	e5933000 	ldr	r3, [r3]
  100b98:	e2033020 	and	r3, r3, #32
  100b9c:	e1a032a3 	lsr	r3, r3, #5
  100ba0:	e3530001 	cmp	r3, #1
  100ba4:	1afffff8 	bne	100b8c <_write+0x40>
  100ba8:	e3a03a02 	mov	r3, #8192	; 0x2000
  100bac:	e34f3fc0 	movt	r3, #65472	; 0xffc0
  100bb0:	e51b2008 	ldr	r2, [fp, #-8]
  100bb4:	e51b1014 	ldr	r1, [fp, #-20]	; 0xffffffec
  100bb8:	e0812002 	add	r2, r1, r2
  100bbc:	e5d22000 	ldrb	r2, [r2]
  100bc0:	e5832000 	str	r2, [r3]
  100bc4:	e51b3008 	ldr	r3, [fp, #-8]
  100bc8:	e2833001 	add	r3, r3, #1
  100bcc:	e50b3008 	str	r3, [fp, #-8]
  100bd0:	e51b2008 	ldr	r2, [fp, #-8]
  100bd4:	e51b3018 	ldr	r3, [fp, #-24]	; 0xffffffe8
  100bd8:	e1520003 	cmp	r2, r3
  100bdc:	3affffe9 	bcc	100b88 <_write+0x3c>
  100be0:	e51b3018 	ldr	r3, [fp, #-24]	; 0xffffffe8
  100be4:	e1a00003 	mov	r0, r3
  100be8:	e24bd000 	sub	sp, fp, #0
  100bec:	e49db004 	pop	{fp}		; (ldr fp, [sp], #4)
  100bf0:	e12fff1e 	bx	lr

00100bf4 <alt_globaltmr_is_running>:
  100bf4:	e52db004 	push	{fp}		; (str fp, [sp, #-4]!)
  100bf8:	e28db000 	add	fp, sp, #0
  100bfc:	e30c3208 	movw	r3, #49672	; 0xc208
  100c00:	e34f3ffe 	movt	r3, #65534	; 0xfffe
  100c04:	e5933000 	ldr	r3, [r3]
  100c08:	e2033001 	and	r3, r3, #1
  100c0c:	e3530000 	cmp	r3, #0
  100c10:	13a03001 	movne	r3, #1
  100c14:	03a03000 	moveq	r3, #0
  100c18:	e6ef3073 	uxtb	r3, r3
  100c1c:	e1a00003 	mov	r0, r3
  100c20:	e24bd000 	sub	sp, fp, #0
  100c24:	e49db004 	pop	{fp}		; (ldr fp, [sp], #4)
  100c28:	e12fff1e 	bx	lr

00100c2c <alt_globaltmr_uninit>:
  100c2c:	e52db004 	push	{fp}		; (str fp, [sp, #-4]!)
  100c30:	e28db000 	add	fp, sp, #0
  100c34:	e30c3208 	movw	r3, #49672	; 0xc208
  100c38:	e34f3ffe 	movt	r3, #65534	; 0xfffe
  100c3c:	e30c2208 	movw	r2, #49672	; 0xc208
  100c40:	e34f2ffe 	movt	r2, #65534	; 0xfffe
  100c44:	e5922000 	ldr	r2, [r2]
  100c48:	e3c2200e 	bic	r2, r2, #14
  100c4c:	e5832000 	str	r2, [r3]
  100c50:	e30c3210 	movw	r3, #49680	; 0xc210
  100c54:	e34f3ffe 	movt	r3, #65534	; 0xfffe
  100c58:	e3a02000 	mov	r2, #0
  100c5c:	e5832000 	str	r2, [r3]
  100c60:	e30c3214 	movw	r3, #49684	; 0xc214
  100c64:	e34f3ffe 	movt	r3, #65534	; 0xfffe
  100c68:	e3a02000 	mov	r2, #0
  100c6c:	e5832000 	str	r2, [r3]
  100c70:	e30c3218 	movw	r3, #49688	; 0xc218
  100c74:	e34f3ffe 	movt	r3, #65534	; 0xfffe
  100c78:	e3a02000 	mov	r2, #0
  100c7c:	e5832000 	str	r2, [r3]
  100c80:	e30c320c 	movw	r3, #49676	; 0xc20c
  100c84:	e34f3ffe 	movt	r3, #65534	; 0xfffe
  100c88:	e3a02001 	mov	r2, #1
  100c8c:	e5832000 	str	r2, [r3]
  100c90:	e3a03000 	mov	r3, #0
  100c94:	e1a00003 	mov	r0, r3
  100c98:	e24bd000 	sub	sp, fp, #0
  100c9c:	e49db004 	pop	{fp}		; (ldr fp, [sp], #4)
  100ca0:	e12fff1e 	bx	lr

00100ca4 <alt_globaltmr_init>:
  100ca4:	e92d4800 	push	{fp, lr}
  100ca8:	e28db004 	add	fp, sp, #4
  100cac:	ebffffde 	bl	100c2c <alt_globaltmr_uninit>
  100cb0:	e30c3208 	movw	r3, #49672	; 0xc208
  100cb4:	e34f3ffe 	movt	r3, #65534	; 0xfffe
  100cb8:	e30c2208 	movw	r2, #49672	; 0xc208
  100cbc:	e34f2ffe 	movt	r2, #65534	; 0xfffe
  100cc0:	e5922000 	ldr	r2, [r2]
  100cc4:	e3822001 	orr	r2, r2, #1
  100cc8:	e5832000 	str	r2, [r3]
  100ccc:	e3a03000 	mov	r3, #0
  100cd0:	e1a00003 	mov	r0, r3
  100cd4:	e8bd8800 	pop	{fp, pc}

00100cd8 <alt_globaltmr_stop>:
  100cd8:	e52db004 	push	{fp}		; (str fp, [sp, #-4]!)
  100cdc:	e28db000 	add	fp, sp, #0
  100ce0:	e24dd00c 	sub	sp, sp, #12
  100ce4:	e30c3208 	movw	r3, #49672	; 0xc208
  100ce8:	e34f3ffe 	movt	r3, #65534	; 0xfffe
  100cec:	e5933000 	ldr	r3, [r3]
  100cf0:	e50b3008 	str	r3, [fp, #-8]
  100cf4:	e30c3208 	movw	r3, #49672	; 0xc208
  100cf8:	e34f3ffe 	movt	r3, #65534	; 0xfffe
  100cfc:	e51b2008 	ldr	r2, [fp, #-8]
  100d00:	e3c22002 	bic	r2, r2, #2
  100d04:	e5832000 	str	r2, [r3]
  100d08:	e3a03000 	mov	r3, #0
  100d0c:	e1a00003 	mov	r0, r3
  100d10:	e24bd000 	sub	sp, fp, #0
  100d14:	e49db004 	pop	{fp}		; (ldr fp, [sp], #4)
  100d18:	e12fff1e 	bx	lr

00100d1c <alt_globaltmr_start>:
  100d1c:	e52db004 	push	{fp}		; (str fp, [sp, #-4]!)
  100d20:	e28db000 	add	fp, sp, #0
  100d24:	e24dd00c 	sub	sp, sp, #12
  100d28:	e30c3208 	movw	r3, #49672	; 0xc208
  100d2c:	e34f3ffe 	movt	r3, #65534	; 0xfffe
  100d30:	e5933000 	ldr	r3, [r3]
  100d34:	e50b3008 	str	r3, [fp, #-8]
  100d38:	e30c3208 	movw	r3, #49672	; 0xc208
  100d3c:	e34f3ffe 	movt	r3, #65534	; 0xfffe
  100d40:	e51b2008 	ldr	r2, [fp, #-8]
  100d44:	e3822003 	orr	r2, r2, #3
  100d48:	e5832000 	str	r2, [r3]
  100d4c:	e3a03000 	mov	r3, #0
  100d50:	e1a00003 	mov	r0, r3
  100d54:	e24bd000 	sub	sp, fp, #0
  100d58:	e49db004 	pop	{fp}		; (ldr fp, [sp], #4)
  100d5c:	e12fff1e 	bx	lr

00100d60 <alt_globaltmr_get>:
  100d60:	e52db004 	push	{fp}		; (str fp, [sp, #-4]!)
  100d64:	e28db000 	add	fp, sp, #0
  100d68:	e24dd024 	sub	sp, sp, #36	; 0x24
  100d6c:	e50b0020 	str	r0, [fp, #-32]	; 0xffffffe0
  100d70:	e50b1024 	str	r1, [fp, #-36]	; 0xffffffdc
  100d74:	e3e03000 	mvn	r3, #0
  100d78:	e50b3008 	str	r3, [fp, #-8]
  100d7c:	e3a03003 	mov	r3, #3
  100d80:	e50b3010 	str	r3, [fp, #-16]
  100d84:	e51b3020 	ldr	r3, [fp, #-32]	; 0xffffffe0
  100d88:	e3530000 	cmp	r3, #0
  100d8c:	0a000002 	beq	100d9c <alt_globaltmr_get+0x3c>
  100d90:	e51b3024 	ldr	r3, [fp, #-36]	; 0xffffffdc
  100d94:	e3530000 	cmp	r3, #0
  100d98:	1a000002 	bne	100da8 <alt_globaltmr_get+0x48>
  100d9c:	e3e03008 	mvn	r3, #8
  100da0:	e50b3008 	str	r3, [fp, #-8]
  100da4:	ea000021 	b	100e30 <alt_globaltmr_get+0xd0>
  100da8:	e30c3204 	movw	r3, #49668	; 0xc204
  100dac:	e34f3ffe 	movt	r3, #65534	; 0xfffe
  100db0:	e5933000 	ldr	r3, [r3]
  100db4:	e50b300c 	str	r3, [fp, #-12]
  100db8:	e51b300c 	ldr	r3, [fp, #-12]
  100dbc:	e50b3014 	str	r3, [fp, #-20]	; 0xffffffec
  100dc0:	e3a03cc2 	mov	r3, #49664	; 0xc200
  100dc4:	e34f3ffe 	movt	r3, #65534	; 0xfffe
  100dc8:	e5933000 	ldr	r3, [r3]
  100dcc:	e50b3018 	str	r3, [fp, #-24]	; 0xffffffe8
  100dd0:	e30c3204 	movw	r3, #49668	; 0xc204
  100dd4:	e34f3ffe 	movt	r3, #65534	; 0xfffe
  100dd8:	e5933000 	ldr	r3, [r3]
  100ddc:	e50b300c 	str	r3, [fp, #-12]
  100de0:	e51b2014 	ldr	r2, [fp, #-20]	; 0xffffffec
  100de4:	e51b300c 	ldr	r3, [fp, #-12]
  100de8:	e1520003 	cmp	r2, r3
  100dec:	0a000004 	beq	100e04 <alt_globaltmr_get+0xa4>
  100df0:	e51b3010 	ldr	r3, [fp, #-16]
  100df4:	e2432001 	sub	r2, r3, #1
  100df8:	e50b2010 	str	r2, [fp, #-16]
  100dfc:	e3530000 	cmp	r3, #0
  100e00:	1affffec 	bne	100db8 <alt_globaltmr_get+0x58>
  100e04:	e51b3010 	ldr	r3, [fp, #-16]
  100e08:	e3530000 	cmp	r3, #0
  100e0c:	0a000007 	beq	100e30 <alt_globaltmr_get+0xd0>
  100e10:	e51b3020 	ldr	r3, [fp, #-32]	; 0xffffffe0
  100e14:	e51b200c 	ldr	r2, [fp, #-12]
  100e18:	e5832000 	str	r2, [r3]
  100e1c:	e51b3024 	ldr	r3, [fp, #-36]	; 0xffffffdc
  100e20:	e51b2018 	ldr	r2, [fp, #-24]	; 0xffffffe8
  100e24:	e5832000 	str	r2, [r3]
  100e28:	e3a03000 	mov	r3, #0
  100e2c:	e50b3008 	str	r3, [fp, #-8]
  100e30:	e51b3008 	ldr	r3, [fp, #-8]
  100e34:	e1a00003 	mov	r0, r3
  100e38:	e24bd000 	sub	sp, fp, #0
  100e3c:	e49db004 	pop	{fp}		; (ldr fp, [sp], #4)
  100e40:	e12fff1e 	bx	lr

00100e44 <alt_globaltmr_get64>:
  100e44:	e52db004 	push	{fp}		; (str fp, [sp, #-4]!)
  100e48:	e28db000 	add	fp, sp, #0
  100e4c:	e24dd01c 	sub	sp, sp, #28
  100e50:	f2c00010 	vmov.i32	d16, #0	; 0x00000000
  100e54:	ed4b0b03 	vstr	d16, [fp, #-12]
  100e58:	e3a03003 	mov	r3, #3
  100e5c:	e50b3014 	str	r3, [fp, #-20]	; 0xffffffec
  100e60:	e30c3204 	movw	r3, #49668	; 0xc204
  100e64:	e34f3ffe 	movt	r3, #65534	; 0xfffe
  100e68:	e5933000 	ldr	r3, [r3]
  100e6c:	e50b3010 	str	r3, [fp, #-16]
  100e70:	e51b3010 	ldr	r3, [fp, #-16]
  100e74:	e50b3018 	str	r3, [fp, #-24]	; 0xffffffe8
  100e78:	e3a03cc2 	mov	r3, #49664	; 0xc200
  100e7c:	e34f3ffe 	movt	r3, #65534	; 0xfffe
  100e80:	e5933000 	ldr	r3, [r3]
  100e84:	e50b301c 	str	r3, [fp, #-28]	; 0xffffffe4
  100e88:	e30c3204 	movw	r3, #49668	; 0xc204
  100e8c:	e34f3ffe 	movt	r3, #65534	; 0xfffe
  100e90:	e5933000 	ldr	r3, [r3]
  100e94:	e50b3010 	str	r3, [fp, #-16]
  100e98:	e51b2018 	ldr	r2, [fp, #-24]	; 0xffffffe8
  100e9c:	e51b3010 	ldr	r3, [fp, #-16]
  100ea0:	e1520003 	cmp	r2, r3
  100ea4:	0a000004 	beq	100ebc <alt_globaltmr_get64+0x78>
  100ea8:	e51b3014 	ldr	r3, [fp, #-20]	; 0xffffffec
  100eac:	e2432001 	sub	r2, r3, #1
  100eb0:	e50b2014 	str	r2, [fp, #-20]	; 0xffffffec
  100eb4:	e3530000 	cmp	r3, #0
  100eb8:	1affffec 	bne	100e70 <alt_globaltmr_get64+0x2c>
  100ebc:	e51b3014 	ldr	r3, [fp, #-20]	; 0xffffffec
  100ec0:	e3530000 	cmp	r3, #0
  100ec4:	0a00000c 	beq	100efc <alt_globaltmr_get64+0xb8>
  100ec8:	e51b3010 	ldr	r3, [fp, #-16]
  100ecc:	e1a02003 	mov	r2, r3
  100ed0:	e3a03000 	mov	r3, #0
  100ed4:	e14b20fc 	strd	r2, [fp, #-12]
  100ed8:	ed5b0b03 	vldr	d16, [fp, #-12]
  100edc:	f2e015b0 	vshl.s64	d17, d16, #32
  100ee0:	ec510b31 	vmov	r0, r1, d17
  100ee4:	e51b301c 	ldr	r3, [fp, #-28]	; 0xffffffe4
  100ee8:	e1a02003 	mov	r2, r3
  100eec:	e3a03000 	mov	r3, #0
  100ef0:	e1822000 	orr	r2, r2, r0
  100ef4:	e1833001 	orr	r3, r3, r1
  100ef8:	e14b20fc 	strd	r2, [fp, #-12]
  100efc:	e14b20dc 	ldrd	r2, [fp, #-12]
  100f00:	e1a00002 	mov	r0, r2
  100f04:	e1a01003 	mov	r1, r3
  100f08:	e24bd000 	sub	sp, fp, #0
  100f0c:	e49db004 	pop	{fp}		; (ldr fp, [sp], #4)
  100f10:	e12fff1e 	bx	lr

00100f14 <alt_globaltmr_counter_get_low32>:
  100f14:	e52db004 	push	{fp}		; (str fp, [sp, #-4]!)
  100f18:	e28db000 	add	fp, sp, #0
  100f1c:	e3a03cc2 	mov	r3, #49664	; 0xc200
  100f20:	e34f3ffe 	movt	r3, #65534	; 0xfffe
  100f24:	e5933000 	ldr	r3, [r3]
  100f28:	e1a00003 	mov	r0, r3
  100f2c:	e24bd000 	sub	sp, fp, #0
  100f30:	e49db004 	pop	{fp}		; (ldr fp, [sp], #4)
  100f34:	e12fff1e 	bx	lr

00100f38 <alt_globaltmr_counter_get_hi32>:
  100f38:	e52db004 	push	{fp}		; (str fp, [sp, #-4]!)
  100f3c:	e28db000 	add	fp, sp, #0
  100f40:	e30c3204 	movw	r3, #49668	; 0xc204
  100f44:	e34f3ffe 	movt	r3, #65534	; 0xfffe
  100f48:	e5933000 	ldr	r3, [r3]
  100f4c:	e1a00003 	mov	r0, r3
  100f50:	e24bd000 	sub	sp, fp, #0
  100f54:	e49db004 	pop	{fp}		; (ldr fp, [sp], #4)
  100f58:	e12fff1e 	bx	lr

00100f5c <alt_globaltmr_comp_set>:
  100f5c:	e92d4800 	push	{fp, lr}
  100f60:	e28db004 	add	fp, sp, #4
  100f64:	e24dd010 	sub	sp, sp, #16
  100f68:	e50b0010 	str	r0, [fp, #-16]
  100f6c:	e50b1014 	str	r1, [fp, #-20]	; 0xffffffec
  100f70:	e3a03000 	mov	r3, #0
  100f74:	e54b3005 	strb	r3, [fp, #-5]
  100f78:	e3e03000 	mvn	r3, #0
  100f7c:	e50b300c 	str	r3, [fp, #-12]
  100f80:	eb0000a7 	bl	101224 <alt_globaltmr_is_comp_mode>
  100f84:	e1a03000 	mov	r3, r0
  100f88:	e3530000 	cmp	r3, #0
  100f8c:	0a000008 	beq	100fb4 <alt_globaltmr_comp_set+0x58>
  100f90:	e3a03001 	mov	r3, #1
  100f94:	e54b3005 	strb	r3, [fp, #-5]
  100f98:	eb000093 	bl	1011ec <alt_globaltmr_comp_mode_stop>
  100f9c:	e50b000c 	str	r0, [fp, #-12]
  100fa0:	e51b300c 	ldr	r3, [fp, #-12]
  100fa4:	e3530000 	cmp	r3, #0
  100fa8:	0a000001 	beq	100fb4 <alt_globaltmr_comp_set+0x58>
  100fac:	e51b300c 	ldr	r3, [fp, #-12]
  100fb0:	ea00000f 	b	100ff4 <alt_globaltmr_comp_set+0x98>
  100fb4:	e30c3210 	movw	r3, #49680	; 0xc210
  100fb8:	e34f3ffe 	movt	r3, #65534	; 0xfffe
  100fbc:	e51b2014 	ldr	r2, [fp, #-20]	; 0xffffffec
  100fc0:	e5832000 	str	r2, [r3]
  100fc4:	e30c3214 	movw	r3, #49684	; 0xc214
  100fc8:	e34f3ffe 	movt	r3, #65534	; 0xfffe
  100fcc:	e51b2010 	ldr	r2, [fp, #-16]
  100fd0:	e5832000 	str	r2, [r3]
  100fd4:	e3a03000 	mov	r3, #0
  100fd8:	e50b300c 	str	r3, [fp, #-12]
  100fdc:	e55b3005 	ldrb	r3, [fp, #-5]
  100fe0:	e3530000 	cmp	r3, #0
  100fe4:	0a000001 	beq	100ff0 <alt_globaltmr_comp_set+0x94>
  100fe8:	eb000071 	bl	1011b4 <alt_globaltmr_comp_mode_start>
  100fec:	e50b000c 	str	r0, [fp, #-12]
  100ff0:	e51b300c 	ldr	r3, [fp, #-12]
  100ff4:	e1a00003 	mov	r0, r3
  100ff8:	e24bd004 	sub	sp, fp, #4
  100ffc:	e8bd8800 	pop	{fp, pc}

00101000 <alt_globaltmr_comp_set64>:
  101000:	e92d4800 	push	{fp, lr}
  101004:	e28db004 	add	fp, sp, #4
  101008:	e24dd010 	sub	sp, sp, #16
  10100c:	e14b01f4 	strd	r0, [fp, #-20]	; 0xffffffec
  101010:	e3e03000 	mvn	r3, #0
  101014:	e50b3008 	str	r3, [fp, #-8]
  101018:	e3a03000 	mov	r3, #0
  10101c:	e54b3009 	strb	r3, [fp, #-9]
  101020:	eb00007f 	bl	101224 <alt_globaltmr_is_comp_mode>
  101024:	e1a03000 	mov	r3, r0
  101028:	e3530000 	cmp	r3, #0
  10102c:	0a000008 	beq	101054 <alt_globaltmr_comp_set64+0x54>
  101030:	e3a03001 	mov	r3, #1
  101034:	e54b3009 	strb	r3, [fp, #-9]
  101038:	eb00006b 	bl	1011ec <alt_globaltmr_comp_mode_stop>
  10103c:	e50b0008 	str	r0, [fp, #-8]
  101040:	e51b3008 	ldr	r3, [fp, #-8]
  101044:	e3530000 	cmp	r3, #0
  101048:	0a000001 	beq	101054 <alt_globaltmr_comp_set64+0x54>
  10104c:	e51b3008 	ldr	r3, [fp, #-8]
  101050:	ea000012 	b	1010a0 <alt_globaltmr_comp_set64+0xa0>
  101054:	e30c3210 	movw	r3, #49680	; 0xc210
  101058:	e34f3ffe 	movt	r3, #65534	; 0xfffe
  10105c:	e51b2014 	ldr	r2, [fp, #-20]	; 0xffffffec
  101060:	e5832000 	str	r2, [r3]
  101064:	e30c3214 	movw	r3, #49684	; 0xc214
  101068:	e34f3ffe 	movt	r3, #65534	; 0xfffe
  10106c:	e14b01d4 	ldrd	r0, [fp, #-20]	; 0xffffffec
  101070:	e1a00001 	mov	r0, r1
  101074:	e3a01000 	mov	r1, #0
  101078:	e1a02000 	mov	r2, r0
  10107c:	e5832000 	str	r2, [r3]
  101080:	e3a03000 	mov	r3, #0
  101084:	e50b3008 	str	r3, [fp, #-8]
  101088:	e55b3009 	ldrb	r3, [fp, #-9]
  10108c:	e3530000 	cmp	r3, #0
  101090:	0a000001 	beq	10109c <alt_globaltmr_comp_set64+0x9c>
  101094:	eb000046 	bl	1011b4 <alt_globaltmr_comp_mode_start>
  101098:	e50b0008 	str	r0, [fp, #-8]
  10109c:	e51b3008 	ldr	r3, [fp, #-8]
  1010a0:	e1a00003 	mov	r0, r3
  1010a4:	e24bd004 	sub	sp, fp, #4
  1010a8:	e8bd8800 	pop	{fp, pc}

001010ac <alt_globaltmr_comp_get>:
  1010ac:	e52db004 	push	{fp}		; (str fp, [sp, #-4]!)
  1010b0:	e28db000 	add	fp, sp, #0
  1010b4:	e24dd00c 	sub	sp, sp, #12
  1010b8:	e50b0008 	str	r0, [fp, #-8]
  1010bc:	e50b100c 	str	r1, [fp, #-12]
  1010c0:	e51b3008 	ldr	r3, [fp, #-8]
  1010c4:	e3530000 	cmp	r3, #0
  1010c8:	0a000002 	beq	1010d8 <alt_globaltmr_comp_get+0x2c>
  1010cc:	e51b300c 	ldr	r3, [fp, #-12]
  1010d0:	e3530000 	cmp	r3, #0
  1010d4:	1a000001 	bne	1010e0 <alt_globaltmr_comp_get+0x34>
  1010d8:	e3e03000 	mvn	r3, #0
  1010dc:	ea00000a 	b	10110c <alt_globaltmr_comp_get+0x60>
  1010e0:	e30c3210 	movw	r3, #49680	; 0xc210
  1010e4:	e34f3ffe 	movt	r3, #65534	; 0xfffe
  1010e8:	e5932000 	ldr	r2, [r3]
  1010ec:	e51b300c 	ldr	r3, [fp, #-12]
  1010f0:	e5832000 	str	r2, [r3]
  1010f4:	e30c3214 	movw	r3, #49684	; 0xc214
  1010f8:	e34f3ffe 	movt	r3, #65534	; 0xfffe
  1010fc:	e5932000 	ldr	r2, [r3]
  101100:	e51b3008 	ldr	r3, [fp, #-8]
  101104:	e5832000 	str	r2, [r3]
  101108:	e3a03000 	mov	r3, #0
  10110c:	e1a00003 	mov	r0, r3
  101110:	e24bd000 	sub	sp, fp, #0
  101114:	e49db004 	pop	{fp}		; (ldr fp, [sp], #4)
  101118:	e12fff1e 	bx	lr

0010111c <alt_globaltmr_comp_get64>:
  10111c:	e52db004 	push	{fp}		; (str fp, [sp, #-4]!)
  101120:	e28db000 	add	fp, sp, #0
  101124:	e24dd00c 	sub	sp, sp, #12
  101128:	e30c3214 	movw	r3, #49684	; 0xc214
  10112c:	e34f3ffe 	movt	r3, #65534	; 0xfffe
  101130:	e5933000 	ldr	r3, [r3]
  101134:	ee803b90 	vdup.32	d16, r3
  101138:	f3e000b0 	vshr.u64	d16, d16, #32
  10113c:	f2e005b0 	vshl.s64	d16, d16, #32
  101140:	ed4b0b03 	vstr	d16, [fp, #-12]
  101144:	e30c3210 	movw	r3, #49680	; 0xc210
  101148:	e34f3ffe 	movt	r3, #65534	; 0xfffe
  10114c:	e5933000 	ldr	r3, [r3]
  101150:	e1a02003 	mov	r2, r3
  101154:	e3a03000 	mov	r3, #0
  101158:	e14b00dc 	ldrd	r0, [fp, #-12]
  10115c:	e1822000 	orr	r2, r2, r0
  101160:	e1833001 	orr	r3, r3, r1
  101164:	e14b20fc 	strd	r2, [fp, #-12]
  101168:	e14b20dc 	ldrd	r2, [fp, #-12]
  10116c:	e1a00002 	mov	r0, r2
  101170:	e1a01003 	mov	r1, r3
  101174:	e24bd000 	sub	sp, fp, #0
  101178:	e49db004 	pop	{fp}		; (ldr fp, [sp], #4)
  10117c:	e12fff1e 	bx	lr

00101180 <alt_globaltmr_remain_get>:
  101180:	e92d4830 	push	{r4, r5, fp, lr}
  101184:	e28db00c 	add	fp, sp, #12
  101188:	ebffffe3 	bl	10111c <alt_globaltmr_comp_get64>
  10118c:	e1a02000 	mov	r2, r0
  101190:	e1a03001 	mov	r3, r1
  101194:	e1a04002 	mov	r4, r2
  101198:	ebffff29 	bl	100e44 <alt_globaltmr_get64>
  10119c:	e1a02000 	mov	r2, r0
  1011a0:	e1a03001 	mov	r3, r1
  1011a4:	e1a03002 	mov	r3, r2
  1011a8:	e0633004 	rsb	r3, r3, r4
  1011ac:	e1a00003 	mov	r0, r3
  1011b0:	e8bd8830 	pop	{r4, r5, fp, pc}

001011b4 <alt_globaltmr_comp_mode_start>:
  1011b4:	e52db004 	push	{fp}		; (str fp, [sp, #-4]!)
  1011b8:	e28db000 	add	fp, sp, #0
  1011bc:	e30c3208 	movw	r3, #49672	; 0xc208
  1011c0:	e34f3ffe 	movt	r3, #65534	; 0xfffe
  1011c4:	e30c2208 	movw	r2, #49672	; 0xc208
  1011c8:	e34f2ffe 	movt	r2, #65534	; 0xfffe
  1011cc:	e5922000 	ldr	r2, [r2]
  1011d0:	e3822002 	orr	r2, r2, #2
  1011d4:	e5832000 	str	r2, [r3]
  1011d8:	e3a03000 	mov	r3, #0
  1011dc:	e1a00003 	mov	r0, r3
  1011e0:	e24bd000 	sub	sp, fp, #0
  1011e4:	e49db004 	pop	{fp}		; (ldr fp, [sp], #4)
  1011e8:	e12fff1e 	bx	lr

001011ec <alt_globaltmr_comp_mode_stop>:
  1011ec:	e52db004 	push	{fp}		; (str fp, [sp, #-4]!)
  1011f0:	e28db000 	add	fp, sp, #0
  1011f4:	e30c3208 	movw	r3, #49672	; 0xc208
  1011f8:	e34f3ffe 	movt	r3, #65534	; 0xfffe
  1011fc:	e30c2208 	movw	r2, #49672	; 0xc208
  101200:	e34f2ffe 	movt	r2, #65534	; 0xfffe
  101204:	e5922000 	ldr	r2, [r2]
  101208:	e3c22002 	bic	r2, r2, #2
  10120c:	e5832000 	str	r2, [r3]
  101210:	e3a03000 	mov	r3, #0
  101214:	e1a00003 	mov	r0, r3
  101218:	e24bd000 	sub	sp, fp, #0
  10121c:	e49db004 	pop	{fp}		; (ldr fp, [sp], #4)
  101220:	e12fff1e 	bx	lr

00101224 <alt_globaltmr_is_comp_mode>:
  101224:	e52db004 	push	{fp}		; (str fp, [sp, #-4]!)
  101228:	e28db000 	add	fp, sp, #0
  10122c:	e30c3208 	movw	r3, #49672	; 0xc208
  101230:	e34f3ffe 	movt	r3, #65534	; 0xfffe
  101234:	e5933000 	ldr	r3, [r3]
  101238:	e2033002 	and	r3, r3, #2
  10123c:	e3530000 	cmp	r3, #0
  101240:	13a03001 	movne	r3, #1
  101244:	03a03000 	moveq	r3, #0
  101248:	e6ef3073 	uxtb	r3, r3
  10124c:	e1a00003 	mov	r0, r3
  101250:	e24bd000 	sub	sp, fp, #0
  101254:	e49db004 	pop	{fp}		; (ldr fp, [sp], #4)
  101258:	e12fff1e 	bx	lr

0010125c <alt_globaltmr_prescaler_get>:
  10125c:	e52db004 	push	{fp}		; (str fp, [sp, #-4]!)
  101260:	e28db000 	add	fp, sp, #0
  101264:	e30c3208 	movw	r3, #49672	; 0xc208
  101268:	e34f3ffe 	movt	r3, #65534	; 0xfffe
  10126c:	e5933000 	ldr	r3, [r3]
  101270:	e2033cff 	and	r3, r3, #65280	; 0xff00
  101274:	e1a03423 	lsr	r3, r3, #8
  101278:	e1a00003 	mov	r0, r3
  10127c:	e24bd000 	sub	sp, fp, #0
  101280:	e49db004 	pop	{fp}		; (ldr fp, [sp], #4)
  101284:	e12fff1e 	bx	lr

00101288 <alt_globaltmr_prescaler_set>:
  101288:	e52db004 	push	{fp}		; (str fp, [sp, #-4]!)
  10128c:	e28db000 	add	fp, sp, #0
  101290:	e24dd014 	sub	sp, sp, #20
  101294:	e50b0010 	str	r0, [fp, #-16]
  101298:	e51b3010 	ldr	r3, [fp, #-16]
  10129c:	e35300ff 	cmp	r3, #255	; 0xff
  1012a0:	9a000001 	bls	1012ac <alt_globaltmr_prescaler_set+0x24>
  1012a4:	e3e03008 	mvn	r3, #8
  1012a8:	ea00000c 	b	1012e0 <alt_globaltmr_prescaler_set+0x58>
  1012ac:	e30c3208 	movw	r3, #49672	; 0xc208
  1012b0:	e34f3ffe 	movt	r3, #65534	; 0xfffe
  1012b4:	e5933000 	ldr	r3, [r3]
  1012b8:	e3c33cff 	bic	r3, r3, #65280	; 0xff00
  1012bc:	e50b3008 	str	r3, [fp, #-8]
  1012c0:	e30c3208 	movw	r3, #49672	; 0xc208
  1012c4:	e34f3ffe 	movt	r3, #65534	; 0xfffe
  1012c8:	e51b2010 	ldr	r2, [fp, #-16]
  1012cc:	e1a01402 	lsl	r1, r2, #8
  1012d0:	e51b2008 	ldr	r2, [fp, #-8]
  1012d4:	e1812002 	orr	r2, r1, r2
  1012d8:	e5832000 	str	r2, [r3]
  1012dc:	e3a03000 	mov	r3, #0
  1012e0:	e1a00003 	mov	r0, r3
  1012e4:	e24bd000 	sub	sp, fp, #0
  1012e8:	e49db004 	pop	{fp}		; (ldr fp, [sp], #4)
  1012ec:	e12fff1e 	bx	lr

001012f0 <alt_globaltmr_autoinc_set>:
  1012f0:	e92d4800 	push	{fp, lr}
  1012f4:	e28db004 	add	fp, sp, #4
  1012f8:	e24dd010 	sub	sp, sp, #16
  1012fc:	e50b0010 	str	r0, [fp, #-16]
  101300:	e3e03000 	mvn	r3, #0
  101304:	e50b3008 	str	r3, [fp, #-8]
  101308:	e3a03000 	mov	r3, #0
  10130c:	e54b3009 	strb	r3, [fp, #-9]
  101310:	ebffffc3 	bl	101224 <alt_globaltmr_is_comp_mode>
  101314:	e1a03000 	mov	r3, r0
  101318:	e3530000 	cmp	r3, #0
  10131c:	0a000008 	beq	101344 <alt_globaltmr_autoinc_set+0x54>
  101320:	e3a03001 	mov	r3, #1
  101324:	e54b3009 	strb	r3, [fp, #-9]
  101328:	ebffffaf 	bl	1011ec <alt_globaltmr_comp_mode_stop>
  10132c:	e50b0008 	str	r0, [fp, #-8]
  101330:	e51b3008 	ldr	r3, [fp, #-8]
  101334:	e3530000 	cmp	r3, #0
  101338:	0a000001 	beq	101344 <alt_globaltmr_autoinc_set+0x54>
  10133c:	e51b3008 	ldr	r3, [fp, #-8]
  101340:	ea00000b 	b	101374 <alt_globaltmr_autoinc_set+0x84>
  101344:	e30c3218 	movw	r3, #49688	; 0xc218
  101348:	e34f3ffe 	movt	r3, #65534	; 0xfffe
  10134c:	e51b2010 	ldr	r2, [fp, #-16]
  101350:	e5832000 	str	r2, [r3]
  101354:	e3a03000 	mov	r3, #0
  101358:	e50b3008 	str	r3, [fp, #-8]
  10135c:	e55b3009 	ldrb	r3, [fp, #-9]
  101360:	e3530000 	cmp	r3, #0
  101364:	0a000001 	beq	101370 <alt_globaltmr_autoinc_set+0x80>
  101368:	ebffff91 	bl	1011b4 <alt_globaltmr_comp_mode_start>
  10136c:	e50b0008 	str	r0, [fp, #-8]
  101370:	e51b3008 	ldr	r3, [fp, #-8]
  101374:	e1a00003 	mov	r0, r3
  101378:	e24bd004 	sub	sp, fp, #4
  10137c:	e8bd8800 	pop	{fp, pc}

00101380 <alt_globaltmr_autoinc_get>:
  101380:	e52db004 	push	{fp}		; (str fp, [sp, #-4]!)
  101384:	e28db000 	add	fp, sp, #0
  101388:	e30c3218 	movw	r3, #49688	; 0xc218
  10138c:	e34f3ffe 	movt	r3, #65534	; 0xfffe
  101390:	e5933000 	ldr	r3, [r3]
  101394:	e1a00003 	mov	r0, r3
  101398:	e24bd000 	sub	sp, fp, #0
  10139c:	e49db004 	pop	{fp}		; (ldr fp, [sp], #4)
  1013a0:	e12fff1e 	bx	lr

001013a4 <alt_globaltmr_autoinc_mode_start>:
  1013a4:	e52db004 	push	{fp}		; (str fp, [sp, #-4]!)
  1013a8:	e28db000 	add	fp, sp, #0
  1013ac:	e30c3208 	movw	r3, #49672	; 0xc208
  1013b0:	e34f3ffe 	movt	r3, #65534	; 0xfffe
  1013b4:	e30c2208 	movw	r2, #49672	; 0xc208
  1013b8:	e34f2ffe 	movt	r2, #65534	; 0xfffe
  1013bc:	e5922000 	ldr	r2, [r2]
  1013c0:	e3822008 	orr	r2, r2, #8
  1013c4:	e5832000 	str	r2, [r3]
  1013c8:	e3a03000 	mov	r3, #0
  1013cc:	e1a00003 	mov	r0, r3
  1013d0:	e24bd000 	sub	sp, fp, #0
  1013d4:	e49db004 	pop	{fp}		; (ldr fp, [sp], #4)
  1013d8:	e12fff1e 	bx	lr

001013dc <alt_globaltmr_autoinc_mode_stop>:
  1013dc:	e52db004 	push	{fp}		; (str fp, [sp, #-4]!)
  1013e0:	e28db000 	add	fp, sp, #0
  1013e4:	e30c3208 	movw	r3, #49672	; 0xc208
  1013e8:	e34f3ffe 	movt	r3, #65534	; 0xfffe
  1013ec:	e30c2208 	movw	r2, #49672	; 0xc208
  1013f0:	e34f2ffe 	movt	r2, #65534	; 0xfffe
  1013f4:	e5922000 	ldr	r2, [r2]
  1013f8:	e3c22008 	bic	r2, r2, #8
  1013fc:	e5832000 	str	r2, [r3]
  101400:	e3a03000 	mov	r3, #0
  101404:	e1a00003 	mov	r0, r3
  101408:	e24bd000 	sub	sp, fp, #0
  10140c:	e49db004 	pop	{fp}		; (ldr fp, [sp], #4)
  101410:	e12fff1e 	bx	lr

00101414 <alt_globaltmr_is_autoinc_mode>:
  101414:	e52db004 	push	{fp}		; (str fp, [sp, #-4]!)
  101418:	e28db000 	add	fp, sp, #0
  10141c:	e30c3208 	movw	r3, #49672	; 0xc208
  101420:	e34f3ffe 	movt	r3, #65534	; 0xfffe
  101424:	e5933000 	ldr	r3, [r3]
  101428:	e2033008 	and	r3, r3, #8
  10142c:	e3530000 	cmp	r3, #0
  101430:	13a03001 	movne	r3, #1
  101434:	03a03000 	moveq	r3, #0
  101438:	e6ef3073 	uxtb	r3, r3
  10143c:	e1a00003 	mov	r0, r3
  101440:	e24bd000 	sub	sp, fp, #0
  101444:	e49db004 	pop	{fp}		; (ldr fp, [sp], #4)
  101448:	e12fff1e 	bx	lr

0010144c <alt_globaltmr_maxcounter_get>:
  10144c:	e52db004 	push	{fp}		; (str fp, [sp, #-4]!)
  101450:	e28db000 	add	fp, sp, #0
  101454:	e3e03000 	mvn	r3, #0
  101458:	e1a00003 	mov	r0, r3
  10145c:	e24bd000 	sub	sp, fp, #0
  101460:	e49db004 	pop	{fp}		; (ldr fp, [sp], #4)
  101464:	e12fff1e 	bx	lr

00101468 <alt_globaltmr_int_disable>:
  101468:	e52db004 	push	{fp}		; (str fp, [sp, #-4]!)
  10146c:	e28db000 	add	fp, sp, #0
  101470:	e30c3208 	movw	r3, #49672	; 0xc208
  101474:	e34f3ffe 	movt	r3, #65534	; 0xfffe
  101478:	e30c2208 	movw	r2, #49672	; 0xc208
  10147c:	e34f2ffe 	movt	r2, #65534	; 0xfffe
  101480:	e5922000 	ldr	r2, [r2]
  101484:	e3c22004 	bic	r2, r2, #4
  101488:	e5832000 	str	r2, [r3]
  10148c:	e3a03000 	mov	r3, #0
  101490:	e1a00003 	mov	r0, r3
  101494:	e24bd000 	sub	sp, fp, #0
  101498:	e49db004 	pop	{fp}		; (ldr fp, [sp], #4)
  10149c:	e12fff1e 	bx	lr

001014a0 <alt_globaltmr_int_enable>:
  1014a0:	e92d4800 	push	{fp, lr}
  1014a4:	e28db004 	add	fp, sp, #4
  1014a8:	ebfffdd1 	bl	100bf4 <alt_globaltmr_is_running>
  1014ac:	e1a03000 	mov	r3, r0
  1014b0:	e2233001 	eor	r3, r3, #1
  1014b4:	e6ef3073 	uxtb	r3, r3
  1014b8:	e3530000 	cmp	r3, #0
  1014bc:	0a000005 	beq	1014d8 <alt_globaltmr_int_enable+0x38>
  1014c0:	ebfffe15 	bl	100d1c <alt_globaltmr_start>
  1014c4:	e1a03000 	mov	r3, r0
  1014c8:	e3530000 	cmp	r3, #0
  1014cc:	0a000001 	beq	1014d8 <alt_globaltmr_int_enable+0x38>
  1014d0:	e3e03000 	mvn	r3, #0
  1014d4:	ea000007 	b	1014f8 <alt_globaltmr_int_enable+0x58>
  1014d8:	e30c3208 	movw	r3, #49672	; 0xc208
  1014dc:	e34f3ffe 	movt	r3, #65534	; 0xfffe
  1014e0:	e30c2208 	movw	r2, #49672	; 0xc208
  1014e4:	e34f2ffe 	movt	r2, #65534	; 0xfffe
  1014e8:	e5922000 	ldr	r2, [r2]
  1014ec:	e3822004 	orr	r2, r2, #4
  1014f0:	e5832000 	str	r2, [r3]
  1014f4:	e3a03000 	mov	r3, #0
  1014f8:	e1a00003 	mov	r0, r3
  1014fc:	e8bd8800 	pop	{fp, pc}

00101500 <alt_globaltmr_int_is_enabled>:
  101500:	e52db004 	push	{fp}		; (str fp, [sp, #-4]!)
  101504:	e28db000 	add	fp, sp, #0
  101508:	e30c3208 	movw	r3, #49672	; 0xc208
  10150c:	e34f3ffe 	movt	r3, #65534	; 0xfffe
  101510:	e5933000 	ldr	r3, [r3]
  101514:	e2033004 	and	r3, r3, #4
  101518:	e3530000 	cmp	r3, #0
  10151c:	13a03001 	movne	r3, #1
  101520:	03a03000 	moveq	r3, #0
  101524:	e6ef3073 	uxtb	r3, r3
  101528:	e1a00003 	mov	r0, r3
  10152c:	e24bd000 	sub	sp, fp, #0
  101530:	e49db004 	pop	{fp}		; (ldr fp, [sp], #4)
  101534:	e12fff1e 	bx	lr

00101538 <alt_globaltmr_int_clear_pending>:
  101538:	e52db004 	push	{fp}		; (str fp, [sp, #-4]!)
  10153c:	e28db000 	add	fp, sp, #0
  101540:	e30c320c 	movw	r3, #49676	; 0xc20c
  101544:	e34f3ffe 	movt	r3, #65534	; 0xfffe
  101548:	e3a02001 	mov	r2, #1
  10154c:	e5832000 	str	r2, [r3]
  101550:	e3a03000 	mov	r3, #0
  101554:	e1a00003 	mov	r0, r3
  101558:	e24bd000 	sub	sp, fp, #0
  10155c:	e49db004 	pop	{fp}		; (ldr fp, [sp], #4)
  101560:	e12fff1e 	bx	lr

00101564 <alt_globaltmr_int_is_pending>:
  101564:	e52db004 	push	{fp}		; (str fp, [sp, #-4]!)
  101568:	e28db000 	add	fp, sp, #0
  10156c:	e30c320c 	movw	r3, #49676	; 0xc20c
  101570:	e34f3ffe 	movt	r3, #65534	; 0xfffe
  101574:	e5933000 	ldr	r3, [r3]
  101578:	e2033001 	and	r3, r3, #1
  10157c:	e3530000 	cmp	r3, #0
  101580:	13a03001 	movne	r3, #1
  101584:	03a03000 	moveq	r3, #0
  101588:	e6ef3073 	uxtb	r3, r3
  10158c:	e1a00003 	mov	r0, r3
  101590:	e24bd000 	sub	sp, fp, #0
  101594:	e49db004 	pop	{fp}		; (ldr fp, [sp], #4)
  101598:	e12fff1e 	bx	lr

0010159c <alt_globaltmr_int_if_pending_clear>:
  10159c:	e52db004 	push	{fp}		; (str fp, [sp, #-4]!)
  1015a0:	e28db000 	add	fp, sp, #0
  1015a4:	e24dd00c 	sub	sp, sp, #12
  1015a8:	e30c320c 	movw	r3, #49676	; 0xc20c
  1015ac:	e34f3ffe 	movt	r3, #65534	; 0xfffe
  1015b0:	e5933000 	ldr	r3, [r3]
  1015b4:	e2033001 	and	r3, r3, #1
  1015b8:	e3530000 	cmp	r3, #0
  1015bc:	13a03001 	movne	r3, #1
  1015c0:	03a03000 	moveq	r3, #0
  1015c4:	e54b3005 	strb	r3, [fp, #-5]
  1015c8:	e55b3005 	ldrb	r3, [fp, #-5]
  1015cc:	e3530000 	cmp	r3, #0
  1015d0:	0a000003 	beq	1015e4 <alt_globaltmr_int_if_pending_clear+0x48>
  1015d4:	e30c320c 	movw	r3, #49676	; 0xc20c
  1015d8:	e34f3ffe 	movt	r3, #65534	; 0xfffe
  1015dc:	e3a02001 	mov	r2, #1
  1015e0:	e5832000 	str	r2, [r3]
  1015e4:	e55b3005 	ldrb	r3, [fp, #-5]
  1015e8:	e1a00003 	mov	r0, r3
  1015ec:	e24bd000 	sub	sp, fp, #0
  1015f0:	e49db004 	pop	{fp}		; (ldr fp, [sp], #4)
  1015f4:	e12fff1e 	bx	lr

001015f8 <alt_mmu_va_to_pa>:
  1015f8:	e52db004 	push	{fp}		; (str fp, [sp, #-4]!)
  1015fc:	e28db000 	add	fp, sp, #0
  101600:	e24dd014 	sub	sp, sp, #20
  101604:	e50b0008 	str	r0, [fp, #-8]
  101608:	e50b100c 	str	r1, [fp, #-12]
  10160c:	e50b2010 	str	r2, [fp, #-16]
  101610:	e51b300c 	ldr	r3, [fp, #-12]
  101614:	e3e02000 	mvn	r2, #0
  101618:	e5832000 	str	r2, [r3]
  10161c:	e51b3010 	ldr	r3, [fp, #-16]
  101620:	e3a02000 	mov	r2, #0
  101624:	e5832000 	str	r2, [r3]
  101628:	e51b3008 	ldr	r3, [fp, #-8]
  10162c:	e1a00003 	mov	r0, r3
  101630:	e24bd000 	sub	sp, fp, #0
  101634:	e49db004 	pop	{fp}		; (ldr fp, [sp], #4)
  101638:	e12fff1e 	bx	lr

0010163c <alt_cache_system_clean>:
  10163c:	e52db004 	push	{fp}		; (str fp, [sp, #-4]!)
  101640:	e28db000 	add	fp, sp, #0
  101644:	e24dd00c 	sub	sp, sp, #12
  101648:	e50b0008 	str	r0, [fp, #-8]
  10164c:	e50b100c 	str	r1, [fp, #-12]
  101650:	e3a03000 	mov	r3, #0
  101654:	e1a00003 	mov	r0, r3
  101658:	e24bd000 	sub	sp, fp, #0
  10165c:	e49db004 	pop	{fp}		; (ldr fp, [sp], #4)
  101660:	e12fff1e 	bx	lr

00101664 <alt_dma_init>:
  101664:	e52db004 	push	{fp}		; (str fp, [sp, #-4]!)
  101668:	e28db000 	add	fp, sp, #0
  10166c:	e24dd024 	sub	sp, sp, #36	; 0x24
  101670:	e50b0020 	str	r0, [fp, #-32]	; 0xffffffe0
  101674:	e3083018 	movw	r3, #32792	; 0x8018
  101678:	e34f3fd0 	movt	r3, #65488	; 0xffd0
  10167c:	e5933000 	ldr	r3, [r3]
  101680:	e2033002 	and	r3, r3, #2
  101684:	e1a030a3 	lsr	r3, r3, #1
  101688:	e3530001 	cmp	r3, #1
  10168c:	03a03001 	moveq	r3, #1
  101690:	13a03000 	movne	r3, #0
  101694:	e6ef2073 	uxtb	r2, r3
  101698:	e30038e4 	movw	r3, #2276	; 0x8e4
  10169c:	e3403012 	movt	r3, #18
  1016a0:	e5c32008 	strb	r2, [r3, #8]
  1016a4:	e3a03000 	mov	r3, #0
  1016a8:	e50b3008 	str	r3, [fp, #-8]
  1016ac:	ea000008 	b	1016d4 <alt_dma_init+0x70>
  1016b0:	e30038e4 	movw	r3, #2276	; 0x8e4
  1016b4:	e3403012 	movt	r3, #18
  1016b8:	e51b2008 	ldr	r2, [fp, #-8]
  1016bc:	e0833002 	add	r3, r3, r2
  1016c0:	e3a02000 	mov	r2, #0
  1016c4:	e5c32000 	strb	r2, [r3]
  1016c8:	e51b3008 	ldr	r3, [fp, #-8]
  1016cc:	e2833001 	add	r3, r3, #1
  1016d0:	e50b3008 	str	r3, [fp, #-8]
  1016d4:	e51b3008 	ldr	r3, [fp, #-8]
  1016d8:	e3530007 	cmp	r3, #7
  1016dc:	9afffff3 	bls	1016b0 <alt_dma_init+0x4c>
  1016e0:	e30038e4 	movw	r3, #2276	; 0x8e4
  1016e4:	e3403012 	movt	r3, #18
  1016e8:	e3a02000 	mov	r2, #0
  1016ec:	e583200c 	str	r2, [r3, #12]
  1016f0:	e3a03000 	mov	r3, #0
  1016f4:	e50b300c 	str	r3, [fp, #-12]
  1016f8:	ea000024 	b	101790 <alt_dma_init+0x12c>
  1016fc:	e51b2020 	ldr	r2, [fp, #-32]	; 0xffffffe0
  101700:	e51b300c 	ldr	r3, [fp, #-12]
  101704:	e0823003 	add	r3, r2, r3
  101708:	e2833029 	add	r3, r3, #41	; 0x29
  10170c:	e5d33000 	ldrb	r3, [r3]
  101710:	e3530000 	cmp	r3, #0
  101714:	ba000017 	blt	101778 <alt_dma_init+0x114>
  101718:	e3530001 	cmp	r3, #1
  10171c:	da000017 	ble	101780 <alt_dma_init+0x11c>
  101720:	e3530002 	cmp	r3, #2
  101724:	1a000013 	bne	101778 <alt_dma_init+0x114>
  101728:	e30038e4 	movw	r3, #2276	; 0x8e4
  10172c:	e3403012 	movt	r3, #18
  101730:	e5d33008 	ldrb	r3, [r3, #8]
  101734:	e2233001 	eor	r3, r3, #1
  101738:	e6ef3073 	uxtb	r3, r3
  10173c:	e3530000 	cmp	r3, #0
  101740:	0a000001 	beq	10174c <alt_dma_init+0xe8>
  101744:	e3e03008 	mvn	r3, #8
  101748:	ea00007c 	b	101940 <alt_dma_init+0x2dc>
  10174c:	e30038e4 	movw	r3, #2276	; 0x8e4
  101750:	e3403012 	movt	r3, #18
  101754:	e593300c 	ldr	r3, [r3, #12]
  101758:	e3a01001 	mov	r1, #1
  10175c:	e51b200c 	ldr	r2, [fp, #-12]
  101760:	e1a02211 	lsl	r2, r1, r2
  101764:	e1832002 	orr	r2, r3, r2
  101768:	e30038e4 	movw	r3, #2276	; 0x8e4
  10176c:	e3403012 	movt	r3, #18
  101770:	e583200c 	str	r2, [r3, #12]
  101774:	ea000002 	b	101784 <alt_dma_init+0x120>
  101778:	e3e03000 	mvn	r3, #0
  10177c:	ea00006f 	b	101940 <alt_dma_init+0x2dc>
  101780:	e1a00000 	nop			; (mov r0, r0)
  101784:	e51b300c 	ldr	r3, [fp, #-12]
  101788:	e2833001 	add	r3, r3, #1
  10178c:	e50b300c 	str	r3, [fp, #-12]
  101790:	e51b300c 	ldr	r3, [fp, #-12]
  101794:	e3530003 	cmp	r3, #3
  101798:	9affffd7 	bls	1016fc <alt_dma_init+0x98>
  10179c:	e51b3020 	ldr	r3, [fp, #-32]	; 0xffffffe0
  1017a0:	e5d33000 	ldrb	r3, [r3]
  1017a4:	e3530000 	cmp	r3, #0
  1017a8:	ba00000b 	blt	1017dc <alt_dma_init+0x178>
  1017ac:	e3530001 	cmp	r3, #1
  1017b0:	da00000b 	ble	1017e4 <alt_dma_init+0x180>
  1017b4:	e3530002 	cmp	r3, #2
  1017b8:	1a000007 	bne	1017dc <alt_dma_init+0x178>
  1017bc:	e30038e4 	movw	r3, #2276	; 0x8e4
  1017c0:	e3403012 	movt	r3, #18
  1017c4:	e593300c 	ldr	r3, [r3, #12]
  1017c8:	e3832010 	orr	r2, r3, #16
  1017cc:	e30038e4 	movw	r3, #2276	; 0x8e4
  1017d0:	e3403012 	movt	r3, #18
  1017d4:	e583200c 	str	r2, [r3, #12]
  1017d8:	ea000002 	b	1017e8 <alt_dma_init+0x184>
  1017dc:	e3e03000 	mvn	r3, #0
  1017e0:	ea000056 	b	101940 <alt_dma_init+0x2dc>
  1017e4:	e1a00000 	nop			; (mov r0, r0)
  1017e8:	e3a03000 	mov	r3, #0
  1017ec:	e50b3010 	str	r3, [fp, #-16]
  1017f0:	ea00001c 	b	101868 <alt_dma_init+0x204>
  1017f4:	e51b2020 	ldr	r2, [fp, #-32]	; 0xffffffe0
  1017f8:	e51b3010 	ldr	r3, [fp, #-16]
  1017fc:	e0823003 	add	r3, r2, r3
  101800:	e2833001 	add	r3, r3, #1
  101804:	e5d33000 	ldrb	r3, [r3]
  101808:	e3530000 	cmp	r3, #0
  10180c:	ba00000f 	blt	101850 <alt_dma_init+0x1ec>
  101810:	e3530001 	cmp	r3, #1
  101814:	da00000f 	ble	101858 <alt_dma_init+0x1f4>
  101818:	e3530002 	cmp	r3, #2
  10181c:	1a00000b 	bne	101850 <alt_dma_init+0x1ec>
  101820:	e30038e4 	movw	r3, #2276	; 0x8e4
  101824:	e3403012 	movt	r3, #18
  101828:	e593300c 	ldr	r3, [r3, #12]
  10182c:	e51b2010 	ldr	r2, [fp, #-16]
  101830:	e2822005 	add	r2, r2, #5
  101834:	e3a01001 	mov	r1, #1
  101838:	e1a02211 	lsl	r2, r1, r2
  10183c:	e1832002 	orr	r2, r3, r2
  101840:	e30038e4 	movw	r3, #2276	; 0x8e4
  101844:	e3403012 	movt	r3, #18
  101848:	e583200c 	str	r2, [r3, #12]
  10184c:	ea000002 	b	10185c <alt_dma_init+0x1f8>
  101850:	e3e03000 	mvn	r3, #0
  101854:	ea000039 	b	101940 <alt_dma_init+0x2dc>
  101858:	e1a00000 	nop			; (mov r0, r0)
  10185c:	e51b3010 	ldr	r3, [fp, #-16]
  101860:	e2833001 	add	r3, r3, #1
  101864:	e50b3010 	str	r3, [fp, #-16]
  101868:	e51b3010 	ldr	r3, [fp, #-16]
  10186c:	e3530007 	cmp	r3, #7
  101870:	daffffdf 	ble	1017f4 <alt_dma_init+0x190>
  101874:	e3083070 	movw	r3, #32880	; 0x8070
  101878:	e34f3fd0 	movt	r3, #65488	; 0xffd0
  10187c:	e30028e4 	movw	r2, #2276	; 0x8e4
  101880:	e3402012 	movt	r2, #18
  101884:	e592200c 	ldr	r2, [r2, #12]
  101888:	e5832000 	str	r2, [r3]
  10188c:	e3a03000 	mov	r3, #0
  101890:	e50b3014 	str	r3, [fp, #-20]	; 0xffffffec
  101894:	e3a03000 	mov	r3, #0
  101898:	e50b3018 	str	r3, [fp, #-24]	; 0xffffffe8
  10189c:	ea000018 	b	101904 <alt_dma_init+0x2a0>
  1018a0:	e51b2020 	ldr	r2, [fp, #-32]	; 0xffffffe0
  1018a4:	e51b3018 	ldr	r3, [fp, #-24]	; 0xffffffe8
  1018a8:	e0823003 	add	r3, r2, r3
  1018ac:	e2833009 	add	r3, r3, #9
  1018b0:	e5d33000 	ldrb	r3, [r3]
  1018b4:	e3530000 	cmp	r3, #0
  1018b8:	ba00000b 	blt	1018ec <alt_dma_init+0x288>
  1018bc:	e3530001 	cmp	r3, #1
  1018c0:	da00000b 	ble	1018f4 <alt_dma_init+0x290>
  1018c4:	e3530002 	cmp	r3, #2
  1018c8:	1a000007 	bne	1018ec <alt_dma_init+0x288>
  1018cc:	e3a02001 	mov	r2, #1
  1018d0:	e51b3018 	ldr	r3, [fp, #-24]	; 0xffffffe8
  1018d4:	e1a03312 	lsl	r3, r2, r3
  1018d8:	e1a02003 	mov	r2, r3
  1018dc:	e51b3014 	ldr	r3, [fp, #-20]	; 0xffffffec
  1018e0:	e1833002 	orr	r3, r3, r2
  1018e4:	e50b3014 	str	r3, [fp, #-20]	; 0xffffffec
  1018e8:	ea000002 	b	1018f8 <alt_dma_init+0x294>
  1018ec:	e3e03000 	mvn	r3, #0
  1018f0:	ea000012 	b	101940 <alt_dma_init+0x2dc>
  1018f4:	e1a00000 	nop			; (mov r0, r0)
  1018f8:	e51b3018 	ldr	r3, [fp, #-24]	; 0xffffffe8
  1018fc:	e2833001 	add	r3, r3, #1
  101900:	e50b3018 	str	r3, [fp, #-24]	; 0xffffffe8
  101904:	e51b3018 	ldr	r3, [fp, #-24]	; 0xffffffe8
  101908:	e353001f 	cmp	r3, #31
  10190c:	9affffe3 	bls	1018a0 <alt_dma_init+0x23c>
  101910:	e3083074 	movw	r3, #32884	; 0x8074
  101914:	e34f3fd0 	movt	r3, #65488	; 0xffd0
  101918:	e51b2014 	ldr	r2, [fp, #-20]	; 0xffffffec
  10191c:	e5832000 	str	r2, [r3]
  101920:	e3053014 	movw	r3, #20500	; 0x5014
  101924:	e34f3fd0 	movt	r3, #65488	; 0xffd0
  101928:	e3052014 	movw	r2, #20500	; 0x5014
  10192c:	e34f2fd0 	movt	r2, #65488	; 0xffd0
  101930:	e5922000 	ldr	r2, [r2]
  101934:	e3c22201 	bic	r2, r2, #268435456	; 0x10000000
  101938:	e5832000 	str	r2, [r3]
  10193c:	e3a03000 	mov	r3, #0
  101940:	e1a00003 	mov	r0, r3
  101944:	e24bd000 	sub	sp, fp, #0
  101948:	e49db004 	pop	{fp}		; (ldr fp, [sp], #4)
  10194c:	e12fff1e 	bx	lr

00101950 <alt_dma_uninit>:
  101950:	e92d4800 	push	{fp, lr}
  101954:	e28db004 	add	fp, sp, #4
  101958:	e24dd008 	sub	sp, sp, #8
  10195c:	e3a03000 	mov	r3, #0
  101960:	e50b3008 	str	r3, [fp, #-8]
  101964:	ea000012 	b	1019b4 <alt_dma_uninit+0x64>
  101968:	e30038e4 	movw	r3, #2276	; 0x8e4
  10196c:	e3403012 	movt	r3, #18
  101970:	e51b2008 	ldr	r2, [fp, #-8]
  101974:	e0833002 	add	r3, r3, r2
  101978:	e5d33000 	ldrb	r3, [r3]
  10197c:	e2033001 	and	r3, r3, #1
  101980:	e3530000 	cmp	r3, #0
  101984:	0a000007 	beq	1019a8 <alt_dma_uninit+0x58>
  101988:	e51b3008 	ldr	r3, [fp, #-8]
  10198c:	e6ef3073 	uxtb	r3, r3
  101990:	e1a00003 	mov	r0, r3
  101994:	eb000105 	bl	101db0 <alt_dma_channel_kill>
  101998:	e51b3008 	ldr	r3, [fp, #-8]
  10199c:	e6ef3073 	uxtb	r3, r3
  1019a0:	e1a00003 	mov	r0, r3
  1019a4:	eb00005b 	bl	101b18 <alt_dma_channel_free>
  1019a8:	e51b3008 	ldr	r3, [fp, #-8]
  1019ac:	e2833001 	add	r3, r3, #1
  1019b0:	e50b3008 	str	r3, [fp, #-8]
  1019b4:	e51b3008 	ldr	r3, [fp, #-8]
  1019b8:	e3530007 	cmp	r3, #7
  1019bc:	9affffe9 	bls	101968 <alt_dma_uninit+0x18>
  1019c0:	e3053014 	movw	r3, #20500	; 0x5014
  1019c4:	e34f3fd0 	movt	r3, #65488	; 0xffd0
  1019c8:	e3052014 	movw	r2, #20500	; 0x5014
  1019cc:	e34f2fd0 	movt	r2, #65488	; 0xffd0
  1019d0:	e5922000 	ldr	r2, [r2]
  1019d4:	e3822201 	orr	r2, r2, #268435456	; 0x10000000
  1019d8:	e5832000 	str	r2, [r3]
  1019dc:	e3a03000 	mov	r3, #0
  1019e0:	e1a00003 	mov	r0, r3
  1019e4:	e24bd004 	sub	sp, fp, #4
  1019e8:	e8bd8800 	pop	{fp, pc}

001019ec <alt_dma_channel_alloc>:
  1019ec:	e52db004 	push	{fp}		; (str fp, [sp, #-4]!)
  1019f0:	e28db000 	add	fp, sp, #0
  1019f4:	e24dd00c 	sub	sp, sp, #12
  1019f8:	e1a03000 	mov	r3, r0
  1019fc:	e54b3005 	strb	r3, [fp, #-5]
  101a00:	e55b3005 	ldrb	r3, [fp, #-5]
  101a04:	e2833000 	add	r3, r3, #0
  101a08:	e3530007 	cmp	r3, #7
  101a0c:	9a000001 	bls	101a18 <alt_dma_channel_alloc+0x2c>
  101a10:	e3e03008 	mvn	r3, #8
  101a14:	ea000014 	b	101a6c <alt_dma_channel_alloc+0x80>
  101a18:	e1a00000 	nop			; (mov r0, r0)
  101a1c:	e55b2005 	ldrb	r2, [fp, #-5]
  101a20:	e30038e4 	movw	r3, #2276	; 0x8e4
  101a24:	e3403012 	movt	r3, #18
  101a28:	e7d33002 	ldrb	r3, [r3, r2]
  101a2c:	e2033001 	and	r3, r3, #1
  101a30:	e3530000 	cmp	r3, #0
  101a34:	0a000001 	beq	101a40 <alt_dma_channel_alloc+0x54>
  101a38:	e3e03000 	mvn	r3, #0
  101a3c:	ea00000a 	b	101a6c <alt_dma_channel_alloc+0x80>
  101a40:	e55b2005 	ldrb	r2, [fp, #-5]
  101a44:	e55b1005 	ldrb	r1, [fp, #-5]
  101a48:	e30038e4 	movw	r3, #2276	; 0x8e4
  101a4c:	e3403012 	movt	r3, #18
  101a50:	e7d33001 	ldrb	r3, [r3, r1]
  101a54:	e3833001 	orr	r3, r3, #1
  101a58:	e6ef1073 	uxtb	r1, r3
  101a5c:	e30038e4 	movw	r3, #2276	; 0x8e4
  101a60:	e3403012 	movt	r3, #18
  101a64:	e7c31002 	strb	r1, [r3, r2]
  101a68:	e3a03000 	mov	r3, #0
  101a6c:	e1a00003 	mov	r0, r3
  101a70:	e24bd000 	sub	sp, fp, #0
  101a74:	e49db004 	pop	{fp}		; (ldr fp, [sp], #4)
  101a78:	e12fff1e 	bx	lr

00101a7c <alt_dma_channel_alloc_any>:
  101a7c:	e92d4800 	push	{fp, lr}
  101a80:	e28db004 	add	fp, sp, #4
  101a84:	e24dd010 	sub	sp, sp, #16
  101a88:	e50b0010 	str	r0, [fp, #-16]
  101a8c:	e3a03000 	mov	r3, #0
  101a90:	e50b3008 	str	r3, [fp, #-8]
  101a94:	ea000018 	b	101afc <alt_dma_channel_alloc_any+0x80>
  101a98:	e30038e4 	movw	r3, #2276	; 0x8e4
  101a9c:	e3403012 	movt	r3, #18
  101aa0:	e51b2008 	ldr	r2, [fp, #-8]
  101aa4:	e0833002 	add	r3, r3, r2
  101aa8:	e5d33000 	ldrb	r3, [r3]
  101aac:	e2033001 	and	r3, r3, #1
  101ab0:	e3530000 	cmp	r3, #0
  101ab4:	1a00000d 	bne	101af0 <alt_dma_channel_alloc_any+0x74>
  101ab8:	e51b3008 	ldr	r3, [fp, #-8]
  101abc:	e6ef3073 	uxtb	r3, r3
  101ac0:	e1a00003 	mov	r0, r3
  101ac4:	ebffffc8 	bl	1019ec <alt_dma_channel_alloc>
  101ac8:	e50b000c 	str	r0, [fp, #-12]
  101acc:	e51b300c 	ldr	r3, [fp, #-12]
  101ad0:	e3530000 	cmp	r3, #0
  101ad4:	1a000003 	bne	101ae8 <alt_dma_channel_alloc_any+0x6c>
  101ad8:	e51b3008 	ldr	r3, [fp, #-8]
  101adc:	e6ef2073 	uxtb	r2, r3
  101ae0:	e51b3010 	ldr	r3, [fp, #-16]
  101ae4:	e5c32000 	strb	r2, [r3]
  101ae8:	e51b300c 	ldr	r3, [fp, #-12]
  101aec:	ea000006 	b	101b0c <alt_dma_channel_alloc_any+0x90>
  101af0:	e51b3008 	ldr	r3, [fp, #-8]
  101af4:	e2833001 	add	r3, r3, #1
  101af8:	e50b3008 	str	r3, [fp, #-8]
  101afc:	e51b3008 	ldr	r3, [fp, #-8]
  101b00:	e3530007 	cmp	r3, #7
  101b04:	9affffe3 	bls	101a98 <alt_dma_channel_alloc_any+0x1c>
  101b08:	e3e03000 	mvn	r3, #0
  101b0c:	e1a00003 	mov	r0, r3
  101b10:	e24bd004 	sub	sp, fp, #4
  101b14:	e8bd8800 	pop	{fp, pc}

00101b18 <alt_dma_channel_free>:
  101b18:	e92d4800 	push	{fp, lr}
  101b1c:	e28db004 	add	fp, sp, #4
  101b20:	e24dd010 	sub	sp, sp, #16
  101b24:	e1a03000 	mov	r3, r0
  101b28:	e54b300d 	strb	r3, [fp, #-13]
  101b2c:	e55b300d 	ldrb	r3, [fp, #-13]
  101b30:	e2833000 	add	r3, r3, #0
  101b34:	e3530007 	cmp	r3, #7
  101b38:	9a000001 	bls	101b44 <alt_dma_channel_free+0x2c>
  101b3c:	e3e03008 	mvn	r3, #8
  101b40:	ea000024 	b	101bd8 <alt_dma_channel_free+0xc0>
  101b44:	e1a00000 	nop			; (mov r0, r0)
  101b48:	e55b200d 	ldrb	r2, [fp, #-13]
  101b4c:	e30038e4 	movw	r3, #2276	; 0x8e4
  101b50:	e3403012 	movt	r3, #18
  101b54:	e7d33002 	ldrb	r3, [r3, r2]
  101b58:	e2033001 	and	r3, r3, #1
  101b5c:	e3530000 	cmp	r3, #0
  101b60:	1a000001 	bne	101b6c <alt_dma_channel_free+0x54>
  101b64:	e3e03000 	mvn	r3, #0
  101b68:	ea00001a 	b	101bd8 <alt_dma_channel_free+0xc0>
  101b6c:	e24b2009 	sub	r2, fp, #9
  101b70:	e55b300d 	ldrb	r3, [fp, #-13]
  101b74:	e1a01002 	mov	r1, r2
  101b78:	e1a00003 	mov	r0, r3
  101b7c:	eb000139 	bl	102068 <alt_dma_channel_state_get>
  101b80:	e50b0008 	str	r0, [fp, #-8]
  101b84:	e51b3008 	ldr	r3, [fp, #-8]
  101b88:	e3530000 	cmp	r3, #0
  101b8c:	0a000001 	beq	101b98 <alt_dma_channel_free+0x80>
  101b90:	e51b3008 	ldr	r3, [fp, #-8]
  101b94:	ea00000f 	b	101bd8 <alt_dma_channel_free+0xc0>
  101b98:	e55b3009 	ldrb	r3, [fp, #-9]
  101b9c:	e3530000 	cmp	r3, #0
  101ba0:	0a000001 	beq	101bac <alt_dma_channel_free+0x94>
  101ba4:	e3e03000 	mvn	r3, #0
  101ba8:	ea00000a 	b	101bd8 <alt_dma_channel_free+0xc0>
  101bac:	e55b200d 	ldrb	r2, [fp, #-13]
  101bb0:	e55b100d 	ldrb	r1, [fp, #-13]
  101bb4:	e30038e4 	movw	r3, #2276	; 0x8e4
  101bb8:	e3403012 	movt	r3, #18
  101bbc:	e7d33001 	ldrb	r3, [r3, r1]
  101bc0:	e3c33001 	bic	r3, r3, #1
  101bc4:	e6ef1073 	uxtb	r1, r3
  101bc8:	e30038e4 	movw	r3, #2276	; 0x8e4
  101bcc:	e3403012 	movt	r3, #18
  101bd0:	e7c31002 	strb	r1, [r3, r2]
  101bd4:	e3a03000 	mov	r3, #0
  101bd8:	e1a00003 	mov	r0, r3
  101bdc:	e24bd004 	sub	sp, fp, #4
  101be0:	e8bd8800 	pop	{fp, pc}

00101be4 <alt_dma_channel_exec>:
  101be4:	e92d4800 	push	{fp, lr}
  101be8:	e28db004 	add	fp, sp, #4
  101bec:	e24dd028 	sub	sp, sp, #40	; 0x28
  101bf0:	e1a03000 	mov	r3, r0
  101bf4:	e50b102c 	str	r1, [fp, #-44]	; 0xffffffd4
  101bf8:	e54b3025 	strb	r3, [fp, #-37]	; 0xffffffdb
  101bfc:	e55b3025 	ldrb	r3, [fp, #-37]	; 0xffffffdb
  101c00:	e2833000 	add	r3, r3, #0
  101c04:	e3530007 	cmp	r3, #7
  101c08:	9a000001 	bls	101c14 <alt_dma_channel_exec+0x30>
  101c0c:	e3e03008 	mvn	r3, #8
  101c10:	ea000063 	b	101da4 <alt_dma_channel_exec+0x1c0>
  101c14:	e1a00000 	nop			; (mov r0, r0)
  101c18:	e55b2025 	ldrb	r2, [fp, #-37]	; 0xffffffdb
  101c1c:	e30038e4 	movw	r3, #2276	; 0x8e4
  101c20:	e3403012 	movt	r3, #18
  101c24:	e7d33002 	ldrb	r3, [r3, r2]
  101c28:	e2033001 	and	r3, r3, #1
  101c2c:	e3530000 	cmp	r3, #0
  101c30:	1a000001 	bne	101c3c <alt_dma_channel_exec+0x58>
  101c34:	e3e03000 	mvn	r3, #0
  101c38:	ea000059 	b	101da4 <alt_dma_channel_exec+0x1c0>
  101c3c:	e3a03000 	mov	r3, #0
  101c40:	e50b3008 	str	r3, [fp, #-8]
  101c44:	e3a03000 	mov	r3, #0
  101c48:	e50b300c 	str	r3, [fp, #-12]
  101c4c:	e51b3008 	ldr	r3, [fp, #-8]
  101c50:	e3530000 	cmp	r3, #0
  101c54:	1a00000a 	bne	101c84 <alt_dma_channel_exec+0xa0>
  101c58:	e24b2019 	sub	r2, fp, #25
  101c5c:	e55b3025 	ldrb	r3, [fp, #-37]	; 0xffffffdb
  101c60:	e1a01002 	mov	r1, r2
  101c64:	e1a00003 	mov	r0, r3
  101c68:	eb0000fe 	bl	102068 <alt_dma_channel_state_get>
  101c6c:	e50b0008 	str	r0, [fp, #-8]
  101c70:	e55b3019 	ldrb	r3, [fp, #-25]	; 0xffffffe7
  101c74:	e3530000 	cmp	r3, #0
  101c78:	0a000001 	beq	101c84 <alt_dma_channel_exec+0xa0>
  101c7c:	e3e03000 	mvn	r3, #0
  101c80:	ea000047 	b	101da4 <alt_dma_channel_exec+0x1c0>
  101c84:	e51b3008 	ldr	r3, [fp, #-8]
  101c88:	e3530000 	cmp	r3, #0
  101c8c:	1a000002 	bne	101c9c <alt_dma_channel_exec+0xb8>
  101c90:	e51b002c 	ldr	r0, [fp, #-44]	; 0xffffffd4
  101c94:	eb00187a 	bl	107e84 <alt_dma_program_validate>
  101c98:	e50b0008 	str	r0, [fp, #-8]
  101c9c:	e51b3008 	ldr	r3, [fp, #-8]
  101ca0:	e3530000 	cmp	r3, #0
  101ca4:	1a00001a 	bne	101d14 <alt_dma_channel_exec+0x130>
  101ca8:	e51b302c 	ldr	r3, [fp, #-44]	; 0xffffffd4
  101cac:	e2833010 	add	r3, r3, #16
  101cb0:	e51b202c 	ldr	r2, [fp, #-44]	; 0xffffffd4
  101cb4:	e1d220b4 	ldrh	r2, [r2, #4]
  101cb8:	e0833002 	add	r3, r3, r2
  101cbc:	e3c3301f 	bic	r3, r3, #31
  101cc0:	e50b3010 	str	r3, [fp, #-16]
  101cc4:	e51b302c 	ldr	r3, [fp, #-44]	; 0xffffffd4
  101cc8:	e2832010 	add	r2, r3, #16
  101ccc:	e51b302c 	ldr	r3, [fp, #-44]	; 0xffffffd4
  101cd0:	e1d330b4 	ldrh	r3, [r3, #4]
  101cd4:	e1a01003 	mov	r1, r3
  101cd8:	e51b302c 	ldr	r3, [fp, #-44]	; 0xffffffd4
  101cdc:	e1d330b6 	ldrh	r3, [r3, #6]
  101ce0:	e0813003 	add	r3, r1, r3
  101ce4:	e0823003 	add	r3, r2, r3
  101ce8:	e283301f 	add	r3, r3, #31
  101cec:	e3c3301f 	bic	r3, r3, #31
  101cf0:	e50b3014 	str	r3, [fp, #-20]	; 0xffffffec
  101cf4:	e51b2014 	ldr	r2, [fp, #-20]	; 0xffffffec
  101cf8:	e51b3010 	ldr	r3, [fp, #-16]
  101cfc:	e0633002 	rsb	r3, r3, r2
  101d00:	e50b3018 	str	r3, [fp, #-24]	; 0xffffffe8
  101d04:	e51b1018 	ldr	r1, [fp, #-24]	; 0xffffffe8
  101d08:	e51b0010 	ldr	r0, [fp, #-16]
  101d0c:	ebfffe4a 	bl	10163c <alt_cache_system_clean>
  101d10:	e50b0008 	str	r0, [fp, #-8]
  101d14:	e51b3008 	ldr	r3, [fp, #-8]
  101d18:	e3530000 	cmp	r3, #0
  101d1c:	1a00000e 	bne	101d5c <alt_dma_channel_exec+0x178>
  101d20:	e51b302c 	ldr	r3, [fp, #-44]	; 0xffffffd4
  101d24:	e2833010 	add	r3, r3, #16
  101d28:	e51b202c 	ldr	r2, [fp, #-44]	; 0xffffffd4
  101d2c:	e1d220b4 	ldrh	r2, [r2, #4]
  101d30:	e0833002 	add	r3, r3, r2
  101d34:	e24b2020 	sub	r2, fp, #32
  101d38:	e24b1024 	sub	r1, fp, #36	; 0x24
  101d3c:	e1a00003 	mov	r0, r3
  101d40:	ebfffe2c 	bl	1015f8 <alt_mmu_va_to_pa>
  101d44:	e50b000c 	str	r0, [fp, #-12]
  101d48:	e51b3020 	ldr	r3, [fp, #-32]	; 0xffffffe0
  101d4c:	e3530000 	cmp	r3, #0
  101d50:	0a000001 	beq	101d5c <alt_dma_channel_exec+0x178>
  101d54:	e3e03000 	mvn	r3, #0
  101d58:	e50b3008 	str	r3, [fp, #-8]
  101d5c:	e51b3008 	ldr	r3, [fp, #-8]
  101d60:	e3530000 	cmp	r3, #0
  101d64:	1a00000d 	bne	101da0 <alt_dma_channel_exec+0x1bc>
  101d68:	e3013d08 	movw	r3, #7432	; 0x1d08
  101d6c:	e34f3fe0 	movt	r3, #65504	; 0xffe0
  101d70:	e55b2025 	ldrb	r2, [fp, #-37]	; 0xffffffdb
  101d74:	e1a02c02 	lsl	r2, r2, #24
  101d78:	e382260a 	orr	r2, r2, #10485760	; 0xa00000
  101d7c:	e5832000 	str	r2, [r3]
  101d80:	e3013d0c 	movw	r3, #7436	; 0x1d0c
  101d84:	e34f3fe0 	movt	r3, #65504	; 0xffe0
  101d88:	e51b200c 	ldr	r2, [fp, #-12]
  101d8c:	e5832000 	str	r2, [r3]
  101d90:	e3013d04 	movw	r3, #7428	; 0x1d04
  101d94:	e34f3fe0 	movt	r3, #65504	; 0xffe0
  101d98:	e3a02000 	mov	r2, #0
  101d9c:	e5832000 	str	r2, [r3]
  101da0:	e51b3008 	ldr	r3, [fp, #-8]
  101da4:	e1a00003 	mov	r0, r3
  101da8:	e24bd004 	sub	sp, fp, #4
  101dac:	e8bd8800 	pop	{fp, pc}

00101db0 <alt_dma_channel_kill>:
  101db0:	e92d4800 	push	{fp, lr}
  101db4:	e28db004 	add	fp, sp, #4
  101db8:	e24dd018 	sub	sp, sp, #24
  101dbc:	e1a03000 	mov	r3, r0
  101dc0:	e54b3015 	strb	r3, [fp, #-21]	; 0xffffffeb
  101dc4:	e55b3015 	ldrb	r3, [fp, #-21]	; 0xffffffeb
  101dc8:	e2833000 	add	r3, r3, #0
  101dcc:	e3530007 	cmp	r3, #7
  101dd0:	9a000001 	bls	101ddc <alt_dma_channel_kill+0x2c>
  101dd4:	e3e03008 	mvn	r3, #8
  101dd8:	ea000037 	b	101ebc <alt_dma_channel_kill+0x10c>
  101ddc:	e1a00000 	nop			; (mov r0, r0)
  101de0:	e55b2015 	ldrb	r2, [fp, #-21]	; 0xffffffeb
  101de4:	e30038e4 	movw	r3, #2276	; 0x8e4
  101de8:	e3403012 	movt	r3, #18
  101dec:	e7d33002 	ldrb	r3, [r3, r2]
  101df0:	e2033001 	and	r3, r3, #1
  101df4:	e3530000 	cmp	r3, #0
  101df8:	1a000001 	bne	101e04 <alt_dma_channel_kill+0x54>
  101dfc:	e3e03000 	mvn	r3, #0
  101e00:	ea00002d 	b	101ebc <alt_dma_channel_kill+0x10c>
  101e04:	e3013d08 	movw	r3, #7432	; 0x1d08
  101e08:	e34f3fe0 	movt	r3, #65504	; 0xffe0
  101e0c:	e55b2015 	ldrb	r2, [fp, #-21]	; 0xffffffeb
  101e10:	e2022007 	and	r2, r2, #7
  101e14:	e1a02402 	lsl	r2, r2, #8
  101e18:	e3822801 	orr	r2, r2, #65536	; 0x10000
  101e1c:	e3822001 	orr	r2, r2, #1
  101e20:	e5832000 	str	r2, [r3]
  101e24:	e3013d04 	movw	r3, #7428	; 0x1d04
  101e28:	e34f3fe0 	movt	r3, #65504	; 0xffe0
  101e2c:	e3a02000 	mov	r2, #0
  101e30:	e5832000 	str	r2, [r3]
  101e34:	e3a03000 	mov	r3, #0
  101e38:	e50b3008 	str	r3, [fp, #-8]
  101e3c:	e3043e20 	movw	r3, #20000	; 0x4e20
  101e40:	e50b300c 	str	r3, [fp, #-12]
  101e44:	ea00000e 	b	101e84 <alt_dma_channel_kill+0xd4>
  101e48:	e24b200d 	sub	r2, fp, #13
  101e4c:	e55b3015 	ldrb	r3, [fp, #-21]	; 0xffffffeb
  101e50:	e1a01002 	mov	r1, r2
  101e54:	e1a00003 	mov	r0, r3
  101e58:	eb000082 	bl	102068 <alt_dma_channel_state_get>
  101e5c:	e50b0008 	str	r0, [fp, #-8]
  101e60:	e51b3008 	ldr	r3, [fp, #-8]
  101e64:	e3530000 	cmp	r3, #0
  101e68:	1a00000c 	bne	101ea0 <alt_dma_channel_kill+0xf0>
  101e6c:	e55b300d 	ldrb	r3, [fp, #-13]
  101e70:	e3530008 	cmp	r3, #8
  101e74:	0a00000a 	beq	101ea4 <alt_dma_channel_kill+0xf4>
  101e78:	e55b300d 	ldrb	r3, [fp, #-13]
  101e7c:	e3530000 	cmp	r3, #0
  101e80:	0a000007 	beq	101ea4 <alt_dma_channel_kill+0xf4>
  101e84:	e51b300c 	ldr	r3, [fp, #-12]
  101e88:	e2433001 	sub	r3, r3, #1
  101e8c:	e50b300c 	str	r3, [fp, #-12]
  101e90:	e51b300c 	ldr	r3, [fp, #-12]
  101e94:	e3530000 	cmp	r3, #0
  101e98:	1affffea 	bne	101e48 <alt_dma_channel_kill+0x98>
  101e9c:	ea000000 	b	101ea4 <alt_dma_channel_kill+0xf4>
  101ea0:	e1a00000 	nop			; (mov r0, r0)
  101ea4:	e51b300c 	ldr	r3, [fp, #-12]
  101ea8:	e3530000 	cmp	r3, #0
  101eac:	1a000001 	bne	101eb8 <alt_dma_channel_kill+0x108>
  101eb0:	e3e0300b 	mvn	r3, #11
  101eb4:	e50b3008 	str	r3, [fp, #-8]
  101eb8:	e51b3008 	ldr	r3, [fp, #-8]
  101ebc:	e1a00003 	mov	r0, r3
  101ec0:	e24bd004 	sub	sp, fp, #4
  101ec4:	e8bd8800 	pop	{fp, pc}

00101ec8 <alt_dma_channel_reg_get>:
  101ec8:	e52db004 	push	{fp}		; (str fp, [sp, #-4]!)
  101ecc:	e28db000 	add	fp, sp, #0
  101ed0:	e24dd00c 	sub	sp, sp, #12
  101ed4:	e1a03000 	mov	r3, r0
  101ed8:	e50b200c 	str	r2, [fp, #-12]
  101edc:	e54b3005 	strb	r3, [fp, #-5]
  101ee0:	e1a03001 	mov	r3, r1
  101ee4:	e54b3006 	strb	r3, [fp, #-6]
  101ee8:	e55b3005 	ldrb	r3, [fp, #-5]
  101eec:	e2833000 	add	r3, r3, #0
  101ef0:	e3530007 	cmp	r3, #7
  101ef4:	9a000001 	bls	101f00 <alt_dma_channel_reg_get+0x38>
  101ef8:	e3e03008 	mvn	r3, #8
  101efc:	ea000027 	b	101fa0 <alt_dma_channel_reg_get+0xd8>
  101f00:	e1a00000 	nop			; (mov r0, r0)
  101f04:	e55b3006 	ldrb	r3, [fp, #-6]
  101f08:	e3530001 	cmp	r3, #1
  101f0c:	0a000016 	beq	101f6c <alt_dma_channel_reg_get+0xa4>
  101f10:	e3530002 	cmp	r3, #2
  101f14:	0a00000a 	beq	101f44 <alt_dma_channel_reg_get+0x7c>
  101f18:	e3530000 	cmp	r3, #0
  101f1c:	1a00001c 	bne	101f94 <alt_dma_channel_reg_get+0xcc>
  101f20:	e55b3005 	ldrb	r3, [fp, #-5]
  101f24:	e2833020 	add	r3, r3, #32
  101f28:	e1a03283 	lsl	r3, r3, #5
  101f2c:	e243397f 	sub	r3, r3, #2080768	; 0x1fc000
  101f30:	e2433a03 	sub	r3, r3, #12288	; 0x3000
  101f34:	e5932000 	ldr	r2, [r3]
  101f38:	e51b300c 	ldr	r3, [fp, #-12]
  101f3c:	e5832000 	str	r2, [r3]
  101f40:	ea000015 	b	101f9c <alt_dma_channel_reg_get+0xd4>
  101f44:	e55b3005 	ldrb	r3, [fp, #-5]
  101f48:	e1a03283 	lsl	r3, r3, #5
  101f4c:	e2833b01 	add	r3, r3, #1024	; 0x400
  101f50:	e2833004 	add	r3, r3, #4
  101f54:	e243397f 	sub	r3, r3, #2080768	; 0x1fc000
  101f58:	e2433a03 	sub	r3, r3, #12288	; 0x3000
  101f5c:	e5932000 	ldr	r2, [r3]
  101f60:	e51b300c 	ldr	r3, [fp, #-12]
  101f64:	e5832000 	str	r2, [r3]
  101f68:	ea00000b 	b	101f9c <alt_dma_channel_reg_get+0xd4>
  101f6c:	e55b3005 	ldrb	r3, [fp, #-5]
  101f70:	e1a03283 	lsl	r3, r3, #5
  101f74:	e2833b01 	add	r3, r3, #1024	; 0x400
  101f78:	e2833008 	add	r3, r3, #8
  101f7c:	e243397f 	sub	r3, r3, #2080768	; 0x1fc000
  101f80:	e2433a03 	sub	r3, r3, #12288	; 0x3000
  101f84:	e5932000 	ldr	r2, [r3]
  101f88:	e51b300c 	ldr	r3, [fp, #-12]
  101f8c:	e5832000 	str	r2, [r3]
  101f90:	ea000001 	b	101f9c <alt_dma_channel_reg_get+0xd4>
  101f94:	e3e03008 	mvn	r3, #8
  101f98:	ea000000 	b	101fa0 <alt_dma_channel_reg_get+0xd8>
  101f9c:	e3a03000 	mov	r3, #0
  101fa0:	e1a00003 	mov	r0, r3
  101fa4:	e24bd000 	sub	sp, fp, #0
  101fa8:	e49db004 	pop	{fp}		; (ldr fp, [sp], #4)
  101fac:	e12fff1e 	bx	lr

00101fb0 <alt_dma_send_event>:
  101fb0:	e52db004 	push	{fp}		; (str fp, [sp, #-4]!)
  101fb4:	e28db000 	add	fp, sp, #0
  101fb8:	e24dd00c 	sub	sp, sp, #12
  101fbc:	e1a03000 	mov	r3, r0
  101fc0:	e54b3005 	strb	r3, [fp, #-5]
  101fc4:	e55b3005 	ldrb	r3, [fp, #-5]
  101fc8:	e2833000 	add	r3, r3, #0
  101fcc:	e3530008 	cmp	r3, #8
  101fd0:	9a000001 	bls	101fdc <alt_dma_send_event+0x2c>
  101fd4:	e3e03008 	mvn	r3, #8
  101fd8:	ea00000b 	b	10200c <alt_dma_send_event+0x5c>
  101fdc:	e1a00000 	nop			; (mov r0, r0)
  101fe0:	e3013d08 	movw	r3, #7432	; 0x1d08
  101fe4:	e34f3fe0 	movt	r3, #65504	; 0xffe0
  101fe8:	e55b2005 	ldrb	r2, [fp, #-5]
  101fec:	e1a02d82 	lsl	r2, r2, #27
  101ff0:	e382270d 	orr	r2, r2, #3407872	; 0x340000
  101ff4:	e5832000 	str	r2, [r3]
  101ff8:	e3013d04 	movw	r3, #7428	; 0x1d04
  101ffc:	e34f3fe0 	movt	r3, #65504	; 0xffe0
  102000:	e3a02000 	mov	r2, #0
  102004:	e5832000 	str	r2, [r3]
  102008:	e3a03000 	mov	r3, #0
  10200c:	e1a00003 	mov	r0, r3
  102010:	e24bd000 	sub	sp, fp, #0
  102014:	e49db004 	pop	{fp}		; (ldr fp, [sp], #4)
  102018:	e12fff1e 	bx	lr

0010201c <alt_dma_manager_state_get>:
  10201c:	e52db004 	push	{fp}		; (str fp, [sp, #-4]!)
  102020:	e28db000 	add	fp, sp, #0
  102024:	e24dd014 	sub	sp, sp, #20
  102028:	e50b0010 	str	r0, [fp, #-16]
  10202c:	e3a03a01 	mov	r3, #4096	; 0x1000
  102030:	e34f3fe0 	movt	r3, #65504	; 0xffe0
  102034:	e5933000 	ldr	r3, [r3]
  102038:	e50b3008 	str	r3, [fp, #-8]
  10203c:	e51b3008 	ldr	r3, [fp, #-8]
  102040:	e6ef3073 	uxtb	r3, r3
  102044:	e203300f 	and	r3, r3, #15
  102048:	e6ef2073 	uxtb	r2, r3
  10204c:	e51b3010 	ldr	r3, [fp, #-16]
  102050:	e5c32000 	strb	r2, [r3]
  102054:	e3a03000 	mov	r3, #0
  102058:	e1a00003 	mov	r0, r3
  10205c:	e24bd000 	sub	sp, fp, #0
  102060:	e49db004 	pop	{fp}		; (ldr fp, [sp], #4)
  102064:	e12fff1e 	bx	lr

00102068 <alt_dma_channel_state_get>:
  102068:	e52db004 	push	{fp}		; (str fp, [sp, #-4]!)
  10206c:	e28db000 	add	fp, sp, #0
  102070:	e24dd014 	sub	sp, sp, #20
  102074:	e1a03000 	mov	r3, r0
  102078:	e50b1014 	str	r1, [fp, #-20]	; 0xffffffec
  10207c:	e54b300d 	strb	r3, [fp, #-13]
  102080:	e55b300d 	ldrb	r3, [fp, #-13]
  102084:	e2833000 	add	r3, r3, #0
  102088:	e3530007 	cmp	r3, #7
  10208c:	9a000001 	bls	102098 <alt_dma_channel_state_get+0x30>
  102090:	e3e03008 	mvn	r3, #8
  102094:	ea00000e 	b	1020d4 <alt_dma_channel_state_get+0x6c>
  102098:	e1a00000 	nop			; (mov r0, r0)
  10209c:	e55b300d 	ldrb	r3, [fp, #-13]
  1020a0:	e2833020 	add	r3, r3, #32
  1020a4:	e1a03183 	lsl	r3, r3, #3
  1020a8:	e243397f 	sub	r3, r3, #2080768	; 0x1fc000
  1020ac:	e2433a03 	sub	r3, r3, #12288	; 0x3000
  1020b0:	e5933000 	ldr	r3, [r3]
  1020b4:	e50b3008 	str	r3, [fp, #-8]
  1020b8:	e51b3008 	ldr	r3, [fp, #-8]
  1020bc:	e6ef3073 	uxtb	r3, r3
  1020c0:	e203300f 	and	r3, r3, #15
  1020c4:	e6ef2073 	uxtb	r2, r3
  1020c8:	e51b3014 	ldr	r3, [fp, #-20]	; 0xffffffec
  1020cc:	e5c32000 	strb	r2, [r3]
  1020d0:	e3a03000 	mov	r3, #0
  1020d4:	e1a00003 	mov	r0, r3
  1020d8:	e24bd000 	sub	sp, fp, #0
  1020dc:	e49db004 	pop	{fp}		; (ldr fp, [sp], #4)
  1020e0:	e12fff1e 	bx	lr

001020e4 <alt_dma_manager_fault_status_get>:
  1020e4:	e52db004 	push	{fp}		; (str fp, [sp, #-4]!)
  1020e8:	e28db000 	add	fp, sp, #0
  1020ec:	e24dd00c 	sub	sp, sp, #12
  1020f0:	e50b0008 	str	r0, [fp, #-8]
  1020f4:	e3013030 	movw	r3, #4144	; 0x1030
  1020f8:	e34f3fe0 	movt	r3, #65504	; 0xffe0
  1020fc:	e5932000 	ldr	r2, [r3]
  102100:	e51b3008 	ldr	r3, [fp, #-8]
  102104:	e5832000 	str	r2, [r3]
  102108:	e3a03000 	mov	r3, #0
  10210c:	e1a00003 	mov	r0, r3
  102110:	e24bd000 	sub	sp, fp, #0
  102114:	e49db004 	pop	{fp}		; (ldr fp, [sp], #4)
  102118:	e12fff1e 	bx	lr

0010211c <alt_dma_channel_fault_status_get>:
  10211c:	e52db004 	push	{fp}		; (str fp, [sp, #-4]!)
  102120:	e28db000 	add	fp, sp, #0
  102124:	e24dd00c 	sub	sp, sp, #12
  102128:	e1a03000 	mov	r3, r0
  10212c:	e50b100c 	str	r1, [fp, #-12]
  102130:	e54b3005 	strb	r3, [fp, #-5]
  102134:	e55b3005 	ldrb	r3, [fp, #-5]
  102138:	e2833000 	add	r3, r3, #0
  10213c:	e3530007 	cmp	r3, #7
  102140:	9a000001 	bls	10214c <alt_dma_channel_fault_status_get+0x30>
  102144:	e3e03008 	mvn	r3, #8
  102148:	ea00000a 	b	102178 <alt_dma_channel_fault_status_get+0x5c>
  10214c:	e1a00000 	nop			; (mov r0, r0)
  102150:	e55b3005 	ldrb	r3, [fp, #-5]
  102154:	e2833010 	add	r3, r3, #16
  102158:	e1a03103 	lsl	r3, r3, #2
  10215c:	e243397f 	sub	r3, r3, #2080768	; 0x1fc000
  102160:	e2433a03 	sub	r3, r3, #12288	; 0x3000
  102164:	e5933000 	ldr	r3, [r3]
  102168:	e1a02003 	mov	r2, r3
  10216c:	e51b300c 	ldr	r3, [fp, #-12]
  102170:	e5832000 	str	r2, [r3]
  102174:	e3a03000 	mov	r3, #0
  102178:	e1a00003 	mov	r0, r3
  10217c:	e24bd000 	sub	sp, fp, #0
  102180:	e49db004 	pop	{fp}		; (ldr fp, [sp], #4)
  102184:	e12fff1e 	bx	lr

00102188 <alt_dma_event_int_select>:
  102188:	e52db004 	push	{fp}		; (str fp, [sp, #-4]!)
  10218c:	e28db000 	add	fp, sp, #0
  102190:	e24dd00c 	sub	sp, sp, #12
  102194:	e1a03000 	mov	r3, r0
  102198:	e1a02001 	mov	r2, r1
  10219c:	e54b3005 	strb	r3, [fp, #-5]
  1021a0:	e1a03002 	mov	r3, r2
  1021a4:	e54b3006 	strb	r3, [fp, #-6]
  1021a8:	e55b3005 	ldrb	r3, [fp, #-5]
  1021ac:	e2833000 	add	r3, r3, #0
  1021b0:	e3530008 	cmp	r3, #8
  1021b4:	9a000001 	bls	1021c0 <alt_dma_event_int_select+0x38>
  1021b8:	e3e03008 	mvn	r3, #8
  1021bc:	ea000020 	b	102244 <alt_dma_event_int_select+0xbc>
  1021c0:	e1a00000 	nop			; (mov r0, r0)
  1021c4:	e55b3006 	ldrb	r3, [fp, #-6]
  1021c8:	e3530000 	cmp	r3, #0
  1021cc:	0a000002 	beq	1021dc <alt_dma_event_int_select+0x54>
  1021d0:	e3530001 	cmp	r3, #1
  1021d4:	0a00000c 	beq	10220c <alt_dma_event_int_select+0x84>
  1021d8:	ea000016 	b	102238 <alt_dma_event_int_select+0xb0>
  1021dc:	e3013020 	movw	r3, #4128	; 0x1020
  1021e0:	e34f3fe0 	movt	r3, #65504	; 0xffe0
  1021e4:	e3012020 	movw	r2, #4128	; 0x1020
  1021e8:	e34f2fe0 	movt	r2, #65504	; 0xffe0
  1021ec:	e5922000 	ldr	r2, [r2]
  1021f0:	e55b1005 	ldrb	r1, [fp, #-5]
  1021f4:	e3a00001 	mov	r0, #1
  1021f8:	e1a01110 	lsl	r1, r0, r1
  1021fc:	e1e01001 	mvn	r1, r1
  102200:	e0022001 	and	r2, r2, r1
  102204:	e5832000 	str	r2, [r3]
  102208:	ea00000c 	b	102240 <alt_dma_event_int_select+0xb8>
  10220c:	e3013020 	movw	r3, #4128	; 0x1020
  102210:	e34f3fe0 	movt	r3, #65504	; 0xffe0
  102214:	e3012020 	movw	r2, #4128	; 0x1020
  102218:	e34f2fe0 	movt	r2, #65504	; 0xffe0
  10221c:	e5922000 	ldr	r2, [r2]
  102220:	e55b1005 	ldrb	r1, [fp, #-5]
  102224:	e3a00001 	mov	r0, #1
  102228:	e1a01110 	lsl	r1, r0, r1
  10222c:	e1822001 	orr	r2, r2, r1
  102230:	e5832000 	str	r2, [r3]
  102234:	ea000001 	b	102240 <alt_dma_event_int_select+0xb8>
  102238:	e3e03008 	mvn	r3, #8
  10223c:	ea000000 	b	102244 <alt_dma_event_int_select+0xbc>
  102240:	e3a03000 	mov	r3, #0
  102244:	e1a00003 	mov	r0, r3
  102248:	e24bd000 	sub	sp, fp, #0
  10224c:	e49db004 	pop	{fp}		; (ldr fp, [sp], #4)
  102250:	e12fff1e 	bx	lr

00102254 <alt_dma_event_int_status_get_raw>:
  102254:	e52db004 	push	{fp}		; (str fp, [sp, #-4]!)
  102258:	e28db000 	add	fp, sp, #0
  10225c:	e24dd014 	sub	sp, sp, #20
  102260:	e1a03000 	mov	r3, r0
  102264:	e54b300d 	strb	r3, [fp, #-13]
  102268:	e55b300d 	ldrb	r3, [fp, #-13]
  10226c:	e2833000 	add	r3, r3, #0
  102270:	e3530008 	cmp	r3, #8
  102274:	9a000001 	bls	102280 <alt_dma_event_int_status_get_raw+0x2c>
  102278:	e3e03008 	mvn	r3, #8
  10227c:	ea00000f 	b	1022c0 <alt_dma_event_int_status_get_raw+0x6c>
  102280:	e1a00000 	nop			; (mov r0, r0)
  102284:	e3013024 	movw	r3, #4132	; 0x1024
  102288:	e34f3fe0 	movt	r3, #65504	; 0xffe0
  10228c:	e5933000 	ldr	r3, [r3]
  102290:	e50b3008 	str	r3, [fp, #-8]
  102294:	e55b300d 	ldrb	r3, [fp, #-13]
  102298:	e3a02001 	mov	r2, #1
  10229c:	e1a03312 	lsl	r3, r2, r3
  1022a0:	e1a02003 	mov	r2, r3
  1022a4:	e51b3008 	ldr	r3, [fp, #-8]
  1022a8:	e0033002 	and	r3, r3, r2
  1022ac:	e3530000 	cmp	r3, #0
  1022b0:	0a000001 	beq	1022bc <alt_dma_event_int_status_get_raw+0x68>
  1022b4:	e3a03001 	mov	r3, #1
  1022b8:	ea000000 	b	1022c0 <alt_dma_event_int_status_get_raw+0x6c>
  1022bc:	e3a03000 	mov	r3, #0
  1022c0:	e1a00003 	mov	r0, r3
  1022c4:	e24bd000 	sub	sp, fp, #0
  1022c8:	e49db004 	pop	{fp}		; (ldr fp, [sp], #4)
  1022cc:	e12fff1e 	bx	lr

001022d0 <alt_dma_int_status_get>:
  1022d0:	e52db004 	push	{fp}		; (str fp, [sp, #-4]!)
  1022d4:	e28db000 	add	fp, sp, #0
  1022d8:	e24dd014 	sub	sp, sp, #20
  1022dc:	e1a03000 	mov	r3, r0
  1022e0:	e54b300d 	strb	r3, [fp, #-13]
  1022e4:	e55b300d 	ldrb	r3, [fp, #-13]
  1022e8:	e2833000 	add	r3, r3, #0
  1022ec:	e3530008 	cmp	r3, #8
  1022f0:	9a000001 	bls	1022fc <alt_dma_int_status_get+0x2c>
  1022f4:	e3e03008 	mvn	r3, #8
  1022f8:	ea00000f 	b	10233c <alt_dma_int_status_get+0x6c>
  1022fc:	e1a00000 	nop			; (mov r0, r0)
  102300:	e3013028 	movw	r3, #4136	; 0x1028
  102304:	e34f3fe0 	movt	r3, #65504	; 0xffe0
  102308:	e5933000 	ldr	r3, [r3]
  10230c:	e50b3008 	str	r3, [fp, #-8]
  102310:	e55b300d 	ldrb	r3, [fp, #-13]
  102314:	e3a02001 	mov	r2, #1
  102318:	e1a03312 	lsl	r3, r2, r3
  10231c:	e1a02003 	mov	r2, r3
  102320:	e51b3008 	ldr	r3, [fp, #-8]
  102324:	e0033002 	and	r3, r3, r2
  102328:	e3530000 	cmp	r3, #0
  10232c:	0a000001 	beq	102338 <alt_dma_int_status_get+0x68>
  102330:	e3a03001 	mov	r3, #1
  102334:	ea000000 	b	10233c <alt_dma_int_status_get+0x6c>
  102338:	e3a03000 	mov	r3, #0
  10233c:	e1a00003 	mov	r0, r3
  102340:	e24bd000 	sub	sp, fp, #0
  102344:	e49db004 	pop	{fp}		; (ldr fp, [sp], #4)
  102348:	e12fff1e 	bx	lr

0010234c <alt_dma_int_clear>:
  10234c:	e52db004 	push	{fp}		; (str fp, [sp, #-4]!)
  102350:	e28db000 	add	fp, sp, #0
  102354:	e24dd00c 	sub	sp, sp, #12
  102358:	e1a03000 	mov	r3, r0
  10235c:	e54b3005 	strb	r3, [fp, #-5]
  102360:	e55b3005 	ldrb	r3, [fp, #-5]
  102364:	e2833000 	add	r3, r3, #0
  102368:	e3530008 	cmp	r3, #8
  10236c:	9a000001 	bls	102378 <alt_dma_int_clear+0x2c>
  102370:	e3e03008 	mvn	r3, #8
  102374:	ea000007 	b	102398 <alt_dma_int_clear+0x4c>
  102378:	e1a00000 	nop			; (mov r0, r0)
  10237c:	e301302c 	movw	r3, #4140	; 0x102c
  102380:	e34f3fe0 	movt	r3, #65504	; 0xffe0
  102384:	e55b2005 	ldrb	r2, [fp, #-5]
  102388:	e3a01001 	mov	r1, #1
  10238c:	e1a02211 	lsl	r2, r1, r2
  102390:	e5832000 	str	r2, [r3]
  102394:	e3a03000 	mov	r3, #0
  102398:	e1a00003 	mov	r0, r3
  10239c:	e24bd000 	sub	sp, fp, #0
  1023a0:	e49db004 	pop	{fp}		; (ldr fp, [sp], #4)
  1023a4:	e12fff1e 	bx	lr

001023a8 <alt_mmu_va_to_pa_coalesce_begin>:
  1023a8:	e92d4800 	push	{fp, lr}
  1023ac:	e28db004 	add	fp, sp, #4
  1023b0:	e24dd018 	sub	sp, sp, #24
  1023b4:	e50b0010 	str	r0, [fp, #-16]
  1023b8:	e50b1014 	str	r1, [fp, #-20]	; 0xffffffec
  1023bc:	e50b2018 	str	r2, [fp, #-24]	; 0xffffffe8
  1023c0:	e51b2014 	ldr	r2, [fp, #-20]	; 0xffffffec
  1023c4:	e51b3018 	ldr	r3, [fp, #-24]	; 0xffffffe8
  1023c8:	e0823003 	add	r3, r2, r3
  1023cc:	e2432001 	sub	r2, r3, #1
  1023d0:	e51b3014 	ldr	r3, [fp, #-20]	; 0xffffffec
  1023d4:	e1520003 	cmp	r2, r3
  1023d8:	2a000001 	bcs	1023e4 <alt_mmu_va_to_pa_coalesce_begin+0x3c>
  1023dc:	e3e03000 	mvn	r3, #0
  1023e0:	ea00001c 	b	102458 <alt_mmu_va_to_pa_coalesce_begin+0xb0>
  1023e4:	e51b3010 	ldr	r3, [fp, #-16]
  1023e8:	e283300c 	add	r3, r3, #12
  1023ec:	e24b2008 	sub	r2, fp, #8
  1023f0:	e1a01003 	mov	r1, r3
  1023f4:	e51b0014 	ldr	r0, [fp, #-20]	; 0xffffffec
  1023f8:	ebfffc7e 	bl	1015f8 <alt_mmu_va_to_pa>
  1023fc:	e1a02000 	mov	r2, r0
  102400:	e51b3010 	ldr	r3, [fp, #-16]
  102404:	e5832008 	str	r2, [r3, #8]
  102408:	e51b3008 	ldr	r3, [fp, #-8]
  10240c:	e3530000 	cmp	r3, #0
  102410:	0a000001 	beq	10241c <alt_mmu_va_to_pa_coalesce_begin+0x74>
  102414:	e3e03000 	mvn	r3, #0
  102418:	ea00000e 	b	102458 <alt_mmu_va_to_pa_coalesce_begin+0xb0>
  10241c:	e51b3010 	ldr	r3, [fp, #-16]
  102420:	e593200c 	ldr	r2, [r3, #12]
  102424:	e51b3018 	ldr	r3, [fp, #-24]	; 0xffffffe8
  102428:	e1520003 	cmp	r2, r3
  10242c:	31a02002 	movcc	r2, r2
  102430:	21a02003 	movcs	r2, r3
  102434:	e51b3010 	ldr	r3, [fp, #-16]
  102438:	e583200c 	str	r2, [r3, #12]
  10243c:	e51b3010 	ldr	r3, [fp, #-16]
  102440:	e51b2014 	ldr	r2, [fp, #-20]	; 0xffffffec
  102444:	e5832000 	str	r2, [r3]
  102448:	e51b3010 	ldr	r3, [fp, #-16]
  10244c:	e51b2018 	ldr	r2, [fp, #-24]	; 0xffffffe8
  102450:	e5832004 	str	r2, [r3, #4]
  102454:	e3a03000 	mov	r3, #0
  102458:	e1a00003 	mov	r0, r3
  10245c:	e24bd004 	sub	sp, fp, #4
  102460:	e8bd8800 	pop	{fp, pc}

00102464 <alt_mmu_va_to_pa_coalesce_next>:
  102464:	e92d4800 	push	{fp, lr}
  102468:	e28db004 	add	fp, sp, #4
  10246c:	e24dd020 	sub	sp, sp, #32
  102470:	e50b0018 	str	r0, [fp, #-24]	; 0xffffffe8
  102474:	e50b101c 	str	r1, [fp, #-28]	; 0xffffffe4
  102478:	e50b2020 	str	r2, [fp, #-32]	; 0xffffffe0
  10247c:	e51b3018 	ldr	r3, [fp, #-24]	; 0xffffffe8
  102480:	e5933004 	ldr	r3, [r3, #4]
  102484:	e3530000 	cmp	r3, #0
  102488:	1a000001 	bne	102494 <alt_mmu_va_to_pa_coalesce_next+0x30>
  10248c:	e3e03000 	mvn	r3, #0
  102490:	ea000051 	b	1025dc <alt_mmu_va_to_pa_coalesce_next+0x178>
  102494:	e51b3018 	ldr	r3, [fp, #-24]	; 0xffffffe8
  102498:	e5933008 	ldr	r3, [r3, #8]
  10249c:	e50b300c 	str	r3, [fp, #-12]
  1024a0:	e51b3018 	ldr	r3, [fp, #-24]	; 0xffffffe8
  1024a4:	e593300c 	ldr	r3, [r3, #12]
  1024a8:	e50b3008 	str	r3, [fp, #-8]
  1024ac:	e51b3018 	ldr	r3, [fp, #-24]	; 0xffffffe8
  1024b0:	e5932000 	ldr	r2, [r3]
  1024b4:	e51b3008 	ldr	r3, [fp, #-8]
  1024b8:	e0822003 	add	r2, r2, r3
  1024bc:	e51b3018 	ldr	r3, [fp, #-24]	; 0xffffffe8
  1024c0:	e5832000 	str	r2, [r3]
  1024c4:	e51b3018 	ldr	r3, [fp, #-24]	; 0xffffffe8
  1024c8:	e5932004 	ldr	r2, [r3, #4]
  1024cc:	e51b3008 	ldr	r3, [fp, #-8]
  1024d0:	e0632002 	rsb	r2, r3, r2
  1024d4:	e51b3018 	ldr	r3, [fp, #-24]	; 0xffffffe8
  1024d8:	e5832004 	str	r2, [r3, #4]
  1024dc:	ea000031 	b	1025a8 <alt_mmu_va_to_pa_coalesce_next+0x144>
  1024e0:	e51b3018 	ldr	r3, [fp, #-24]	; 0xffffffe8
  1024e4:	e5930000 	ldr	r0, [r3]
  1024e8:	e51b3018 	ldr	r3, [fp, #-24]	; 0xffffffe8
  1024ec:	e283300c 	add	r3, r3, #12
  1024f0:	e24b2010 	sub	r2, fp, #16
  1024f4:	e1a01003 	mov	r1, r3
  1024f8:	ebfffc3e 	bl	1015f8 <alt_mmu_va_to_pa>
  1024fc:	e1a02000 	mov	r2, r0
  102500:	e51b3018 	ldr	r3, [fp, #-24]	; 0xffffffe8
  102504:	e5832008 	str	r2, [r3, #8]
  102508:	e51b3010 	ldr	r3, [fp, #-16]
  10250c:	e3530000 	cmp	r3, #0
  102510:	0a000001 	beq	10251c <alt_mmu_va_to_pa_coalesce_next+0xb8>
  102514:	e3e03000 	mvn	r3, #0
  102518:	ea00002f 	b	1025dc <alt_mmu_va_to_pa_coalesce_next+0x178>
  10251c:	e51b3018 	ldr	r3, [fp, #-24]	; 0xffffffe8
  102520:	e593200c 	ldr	r2, [r3, #12]
  102524:	e51b3018 	ldr	r3, [fp, #-24]	; 0xffffffe8
  102528:	e5933004 	ldr	r3, [r3, #4]
  10252c:	e1520003 	cmp	r2, r3
  102530:	31a02002 	movcc	r2, r2
  102534:	21a02003 	movcs	r2, r3
  102538:	e51b3018 	ldr	r3, [fp, #-24]	; 0xffffffe8
  10253c:	e583200c 	str	r2, [r3, #12]
  102540:	e51b3018 	ldr	r3, [fp, #-24]	; 0xffffffe8
  102544:	e5932008 	ldr	r2, [r3, #8]
  102548:	e51b100c 	ldr	r1, [fp, #-12]
  10254c:	e51b3008 	ldr	r3, [fp, #-8]
  102550:	e0813003 	add	r3, r1, r3
  102554:	e1520003 	cmp	r2, r3
  102558:	1a000017 	bne	1025bc <alt_mmu_va_to_pa_coalesce_next+0x158>
  10255c:	e51b3018 	ldr	r3, [fp, #-24]	; 0xffffffe8
  102560:	e593300c 	ldr	r3, [r3, #12]
  102564:	e51b2008 	ldr	r2, [fp, #-8]
  102568:	e0823003 	add	r3, r2, r3
  10256c:	e50b3008 	str	r3, [fp, #-8]
  102570:	e51b3018 	ldr	r3, [fp, #-24]	; 0xffffffe8
  102574:	e5932000 	ldr	r2, [r3]
  102578:	e51b3018 	ldr	r3, [fp, #-24]	; 0xffffffe8
  10257c:	e593300c 	ldr	r3, [r3, #12]
  102580:	e0822003 	add	r2, r2, r3
  102584:	e51b3018 	ldr	r3, [fp, #-24]	; 0xffffffe8
  102588:	e5832000 	str	r2, [r3]
  10258c:	e51b3018 	ldr	r3, [fp, #-24]	; 0xffffffe8
  102590:	e5932004 	ldr	r2, [r3, #4]
  102594:	e51b3018 	ldr	r3, [fp, #-24]	; 0xffffffe8
  102598:	e593300c 	ldr	r3, [r3, #12]
  10259c:	e0632002 	rsb	r2, r3, r2
  1025a0:	e51b3018 	ldr	r3, [fp, #-24]	; 0xffffffe8
  1025a4:	e5832004 	str	r2, [r3, #4]
  1025a8:	e51b3018 	ldr	r3, [fp, #-24]	; 0xffffffe8
  1025ac:	e5933004 	ldr	r3, [r3, #4]
  1025b0:	e3530000 	cmp	r3, #0
  1025b4:	1affffc9 	bne	1024e0 <alt_mmu_va_to_pa_coalesce_next+0x7c>
  1025b8:	ea000000 	b	1025c0 <alt_mmu_va_to_pa_coalesce_next+0x15c>
  1025bc:	e1a00000 	nop			; (mov r0, r0)
  1025c0:	e51b301c 	ldr	r3, [fp, #-28]	; 0xffffffe4
  1025c4:	e51b200c 	ldr	r2, [fp, #-12]
  1025c8:	e5832000 	str	r2, [r3]
  1025cc:	e51b3020 	ldr	r3, [fp, #-32]	; 0xffffffe0
  1025d0:	e51b2008 	ldr	r2, [fp, #-8]
  1025d4:	e5832000 	str	r2, [r3]
  1025d8:	e3a03000 	mov	r3, #0
  1025dc:	e1a00003 	mov	r0, r3
  1025e0:	e24bd004 	sub	sp, fp, #4
  1025e4:	e8bd8800 	pop	{fp, pc}

001025e8 <alt_mmu_va_to_pa_coalesce_end>:
  1025e8:	e52db004 	push	{fp}		; (str fp, [sp, #-4]!)
  1025ec:	e28db000 	add	fp, sp, #0
  1025f0:	e24dd00c 	sub	sp, sp, #12
  1025f4:	e50b0008 	str	r0, [fp, #-8]
  1025f8:	e51b3008 	ldr	r3, [fp, #-8]
  1025fc:	e5933004 	ldr	r3, [r3, #4]
  102600:	e3530000 	cmp	r3, #0
  102604:	0a000001 	beq	102610 <alt_mmu_va_to_pa_coalesce_end+0x28>
  102608:	e3e03000 	mvn	r3, #0
  10260c:	ea000000 	b	102614 <alt_mmu_va_to_pa_coalesce_end+0x2c>
  102610:	e3a03000 	mov	r3, #0
  102614:	e1a00003 	mov	r0, r3
  102618:	e24bd000 	sub	sp, fp, #0
  10261c:	e49db004 	pop	{fp}		; (ldr fp, [sp], #4)
  102620:	e12fff1e 	bx	lr

00102624 <alt_dma_memory_to_memory_segment>:
  102624:	e92d4800 	push	{fp, lr}
  102628:	e28db004 	add	fp, sp, #4
  10262c:	e24dd030 	sub	sp, sp, #48	; 0x30
  102630:	e50b0028 	str	r0, [fp, #-40]	; 0xffffffd8
  102634:	e50b102c 	str	r1, [fp, #-44]	; 0xffffffd4
  102638:	e50b2030 	str	r2, [fp, #-48]	; 0xffffffd0
  10263c:	e50b3034 	str	r3, [fp, #-52]	; 0xffffffcc
  102640:	e3a03000 	mov	r3, #0
  102644:	e50b3008 	str	r3, [fp, #-8]
  102648:	e51b3008 	ldr	r3, [fp, #-8]
  10264c:	e3530000 	cmp	r3, #0
  102650:	1a000004 	bne	102668 <alt_dma_memory_to_memory_segment+0x44>
  102654:	e51b2030 	ldr	r2, [fp, #-48]	; 0xffffffd0
  102658:	e3a01000 	mov	r1, #0
  10265c:	e51b0028 	ldr	r0, [fp, #-40]	; 0xffffffd8
  102660:	eb0019d9 	bl	108dcc <alt_dma_program_DMAMOV>
  102664:	e50b0008 	str	r0, [fp, #-8]
  102668:	e51b3008 	ldr	r3, [fp, #-8]
  10266c:	e3530000 	cmp	r3, #0
  102670:	1a000004 	bne	102688 <alt_dma_memory_to_memory_segment+0x64>
  102674:	e51b202c 	ldr	r2, [fp, #-44]	; 0xffffffd4
  102678:	e3a01002 	mov	r1, #2
  10267c:	e51b0028 	ldr	r0, [fp, #-40]	; 0xffffffd8
  102680:	eb0019d1 	bl	108dcc <alt_dma_program_DMAMOV>
  102684:	e50b0008 	str	r0, [fp, #-8]
  102688:	e51b3034 	ldr	r3, [fp, #-52]	; 0xffffffcc
  10268c:	e50b300c 	str	r3, [fp, #-12]
  102690:	e51b3030 	ldr	r3, [fp, #-48]	; 0xffffffd0
  102694:	e2033007 	and	r3, r3, #7
  102698:	e3530000 	cmp	r3, #0
  10269c:	0a00002b 	beq	102750 <alt_dma_memory_to_memory_segment+0x12c>
  1026a0:	e51b3030 	ldr	r3, [fp, #-48]	; 0xffffffd0
  1026a4:	e2033007 	and	r3, r3, #7
  1026a8:	e2632008 	rsb	r2, r3, #8
  1026ac:	e51b300c 	ldr	r3, [fp, #-12]
  1026b0:	e1520003 	cmp	r2, r3
  1026b4:	31a03002 	movcc	r3, r2
  1026b8:	21a03003 	movcs	r3, r3
  1026bc:	e50b3018 	str	r3, [fp, #-24]	; 0xffffffe8
  1026c0:	e51b200c 	ldr	r2, [fp, #-12]
  1026c4:	e51b3018 	ldr	r3, [fp, #-24]	; 0xffffffe8
  1026c8:	e0633002 	rsb	r3, r3, r2
  1026cc:	e50b300c 	str	r3, [fp, #-12]
  1026d0:	e51b3008 	ldr	r3, [fp, #-8]
  1026d4:	e3530000 	cmp	r3, #0
  1026d8:	1a00000e 	bne	102718 <alt_dma_memory_to_memory_segment+0xf4>
  1026dc:	e51b3018 	ldr	r3, [fp, #-24]	; 0xffffffe8
  1026e0:	e2433001 	sub	r3, r3, #1
  1026e4:	e1a02203 	lsl	r2, r3, #4
  1026e8:	e51b3018 	ldr	r3, [fp, #-24]	; 0xffffffe8
  1026ec:	e2433001 	sub	r3, r3, #1
  1026f0:	e1a03903 	lsl	r3, r3, #18
  1026f4:	e1822003 	orr	r2, r2, r3
  1026f8:	e3073801 	movw	r3, #30721	; 0x7801
  1026fc:	e3403e00 	movt	r3, #3584	; 0xe00
  102700:	e1823003 	orr	r3, r2, r3
  102704:	e1a02003 	mov	r2, r3
  102708:	e3a01001 	mov	r1, #1
  10270c:	e51b0028 	ldr	r0, [fp, #-40]	; 0xffffffd8
  102710:	eb0019ad 	bl	108dcc <alt_dma_program_DMAMOV>
  102714:	e50b0008 	str	r0, [fp, #-8]
  102718:	e51b3008 	ldr	r3, [fp, #-8]
  10271c:	e3530000 	cmp	r3, #0
  102720:	1a000003 	bne	102734 <alt_dma_memory_to_memory_segment+0x110>
  102724:	e3a01000 	mov	r1, #0
  102728:	e51b0028 	ldr	r0, [fp, #-40]	; 0xffffffd8
  10272c:	eb0017f8 	bl	108714 <alt_dma_program_DMALD>
  102730:	e50b0008 	str	r0, [fp, #-8]
  102734:	e51b3008 	ldr	r3, [fp, #-8]
  102738:	e3530000 	cmp	r3, #0
  10273c:	1a000003 	bne	102750 <alt_dma_memory_to_memory_segment+0x12c>
  102740:	e3a01000 	mov	r1, #0
  102744:	e51b0028 	ldr	r0, [fp, #-40]	; 0xffffffd8
  102748:	eb001a8f 	bl	10918c <alt_dma_program_DMAST>
  10274c:	e50b0008 	str	r0, [fp, #-8]
  102750:	e51b300c 	ldr	r3, [fp, #-12]
  102754:	e1a031a3 	lsr	r3, r3, #3
  102758:	e50b3010 	str	r3, [fp, #-16]
  10275c:	e51b3010 	ldr	r3, [fp, #-16]
  102760:	e3530000 	cmp	r3, #0
  102764:	0a000007 	beq	102788 <alt_dma_memory_to_memory_segment+0x164>
  102768:	e51b2030 	ldr	r2, [fp, #-48]	; 0xffffffd0
  10276c:	e51b302c 	ldr	r3, [fp, #-44]	; 0xffffffd4
  102770:	e0233002 	eor	r3, r3, r2
  102774:	e2033007 	and	r3, r3, #7
  102778:	e3530000 	cmp	r3, #0
  10277c:	0a000001 	beq	102788 <alt_dma_memory_to_memory_segment+0x164>
  102780:	e3a03001 	mov	r3, #1
  102784:	ea000000 	b	10278c <alt_dma_memory_to_memory_segment+0x168>
  102788:	e3a03000 	mov	r3, #0
  10278c:	e54b3019 	strb	r3, [fp, #-25]	; 0xffffffe7
  102790:	e55b3019 	ldrb	r3, [fp, #-25]	; 0xffffffe7
  102794:	e2033001 	and	r3, r3, #1
  102798:	e54b3019 	strb	r3, [fp, #-25]	; 0xffffffe7
  10279c:	e51b300c 	ldr	r3, [fp, #-12]
  1027a0:	e2033007 	and	r3, r3, #7
  1027a4:	e50b300c 	str	r3, [fp, #-12]
  1027a8:	e51b3010 	ldr	r3, [fp, #-16]
  1027ac:	e1a03223 	lsr	r3, r3, #4
  1027b0:	e3530000 	cmp	r3, #0
  1027b4:	0a000042 	beq	1028c4 <alt_dma_memory_to_memory_segment+0x2a0>
  1027b8:	e51b3010 	ldr	r3, [fp, #-16]
  1027bc:	e1a03223 	lsr	r3, r3, #4
  1027c0:	e50b3014 	str	r3, [fp, #-20]	; 0xffffffec
  1027c4:	e51b3010 	ldr	r3, [fp, #-16]
  1027c8:	e203300f 	and	r3, r3, #15
  1027cc:	e50b3010 	str	r3, [fp, #-16]
  1027d0:	e51b3008 	ldr	r3, [fp, #-8]
  1027d4:	e3530000 	cmp	r3, #0
  1027d8:	1a000034 	bne	1028b0 <alt_dma_memory_to_memory_segment+0x28c>
  1027dc:	e30f28f7 	movw	r2, #63735	; 0xf8f7
  1027e0:	e3402e3d 	movt	r2, #3645	; 0xe3d
  1027e4:	e3a01001 	mov	r1, #1
  1027e8:	e51b0028 	ldr	r0, [fp, #-40]	; 0xffffffd8
  1027ec:	eb001976 	bl	108dcc <alt_dma_program_DMAMOV>
  1027f0:	e50b0008 	str	r0, [fp, #-8]
  1027f4:	ea00002d 	b	1028b0 <alt_dma_memory_to_memory_segment+0x28c>
  1027f8:	e51b3008 	ldr	r3, [fp, #-8]
  1027fc:	e3530000 	cmp	r3, #0
  102800:	1a00002e 	bne	1028c0 <alt_dma_memory_to_memory_segment+0x29c>
  102804:	e51b3014 	ldr	r3, [fp, #-20]	; 0xffffffec
  102808:	e3530c01 	cmp	r3, #256	; 0x100
  10280c:	31a03003 	movcc	r3, r3
  102810:	23a03c01 	movcs	r3, #256	; 0x100
  102814:	e50b3020 	str	r3, [fp, #-32]	; 0xffffffe0
  102818:	e51b2014 	ldr	r2, [fp, #-20]	; 0xffffffec
  10281c:	e51b3020 	ldr	r3, [fp, #-32]	; 0xffffffe0
  102820:	e0633002 	rsb	r3, r3, r2
  102824:	e50b3014 	str	r3, [fp, #-20]	; 0xffffffec
  102828:	e51b3008 	ldr	r3, [fp, #-8]
  10282c:	e3530000 	cmp	r3, #0
  102830:	1a000006 	bne	102850 <alt_dma_memory_to_memory_segment+0x22c>
  102834:	e51b3020 	ldr	r3, [fp, #-32]	; 0xffffffe0
  102838:	e3530001 	cmp	r3, #1
  10283c:	9a000003 	bls	102850 <alt_dma_memory_to_memory_segment+0x22c>
  102840:	e51b1020 	ldr	r1, [fp, #-32]	; 0xffffffe0
  102844:	e51b0028 	ldr	r0, [fp, #-40]	; 0xffffffd8
  102848:	eb001830 	bl	108910 <alt_dma_program_DMALP>
  10284c:	e50b0008 	str	r0, [fp, #-8]
  102850:	e51b3008 	ldr	r3, [fp, #-8]
  102854:	e3530000 	cmp	r3, #0
  102858:	1a000003 	bne	10286c <alt_dma_memory_to_memory_segment+0x248>
  10285c:	e3a01000 	mov	r1, #0
  102860:	e51b0028 	ldr	r0, [fp, #-40]	; 0xffffffd8
  102864:	eb0017aa 	bl	108714 <alt_dma_program_DMALD>
  102868:	e50b0008 	str	r0, [fp, #-8]
  10286c:	e51b3008 	ldr	r3, [fp, #-8]
  102870:	e3530000 	cmp	r3, #0
  102874:	1a000003 	bne	102888 <alt_dma_memory_to_memory_segment+0x264>
  102878:	e3a01000 	mov	r1, #0
  10287c:	e51b0028 	ldr	r0, [fp, #-40]	; 0xffffffd8
  102880:	eb001a41 	bl	10918c <alt_dma_program_DMAST>
  102884:	e50b0008 	str	r0, [fp, #-8]
  102888:	e51b3008 	ldr	r3, [fp, #-8]
  10288c:	e3530000 	cmp	r3, #0
  102890:	1a000006 	bne	1028b0 <alt_dma_memory_to_memory_segment+0x28c>
  102894:	e51b3020 	ldr	r3, [fp, #-32]	; 0xffffffe0
  102898:	e3530001 	cmp	r3, #1
  10289c:	9a000003 	bls	1028b0 <alt_dma_memory_to_memory_segment+0x28c>
  1028a0:	e3a01000 	mov	r1, #0
  1028a4:	e51b0028 	ldr	r0, [fp, #-40]	; 0xffffffd8
  1028a8:	eb001878 	bl	108a90 <alt_dma_program_DMALPEND>
  1028ac:	e50b0008 	str	r0, [fp, #-8]
  1028b0:	e51b3014 	ldr	r3, [fp, #-20]	; 0xffffffec
  1028b4:	e3530000 	cmp	r3, #0
  1028b8:	1affffce 	bne	1027f8 <alt_dma_memory_to_memory_segment+0x1d4>
  1028bc:	ea000000 	b	1028c4 <alt_dma_memory_to_memory_segment+0x2a0>
  1028c0:	e1a00000 	nop			; (mov r0, r0)
  1028c4:	e51b3010 	ldr	r3, [fp, #-16]
  1028c8:	e3530000 	cmp	r3, #0
  1028cc:	0a00001f 	beq	102950 <alt_dma_memory_to_memory_segment+0x32c>
  1028d0:	e51b3008 	ldr	r3, [fp, #-8]
  1028d4:	e3530000 	cmp	r3, #0
  1028d8:	1a00000e 	bne	102918 <alt_dma_memory_to_memory_segment+0x2f4>
  1028dc:	e51b3010 	ldr	r3, [fp, #-16]
  1028e0:	e2433001 	sub	r3, r3, #1
  1028e4:	e1a02203 	lsl	r2, r3, #4
  1028e8:	e51b3010 	ldr	r3, [fp, #-16]
  1028ec:	e2433001 	sub	r3, r3, #1
  1028f0:	e1a03903 	lsl	r3, r3, #18
  1028f4:	e1822003 	orr	r2, r2, r3
  1028f8:	e30f3807 	movw	r3, #63495	; 0xf807
  1028fc:	e3403e01 	movt	r3, #3585	; 0xe01
  102900:	e1823003 	orr	r3, r2, r3
  102904:	e1a02003 	mov	r2, r3
  102908:	e3a01001 	mov	r1, #1
  10290c:	e51b0028 	ldr	r0, [fp, #-40]	; 0xffffffd8
  102910:	eb00192d 	bl	108dcc <alt_dma_program_DMAMOV>
  102914:	e50b0008 	str	r0, [fp, #-8]
  102918:	e51b3008 	ldr	r3, [fp, #-8]
  10291c:	e3530000 	cmp	r3, #0
  102920:	1a000003 	bne	102934 <alt_dma_memory_to_memory_segment+0x310>
  102924:	e3a01000 	mov	r1, #0
  102928:	e51b0028 	ldr	r0, [fp, #-40]	; 0xffffffd8
  10292c:	eb001778 	bl	108714 <alt_dma_program_DMALD>
  102930:	e50b0008 	str	r0, [fp, #-8]
  102934:	e51b3008 	ldr	r3, [fp, #-8]
  102938:	e3530000 	cmp	r3, #0
  10293c:	1a000003 	bne	102950 <alt_dma_memory_to_memory_segment+0x32c>
  102940:	e3a01000 	mov	r1, #0
  102944:	e51b0028 	ldr	r0, [fp, #-40]	; 0xffffffd8
  102948:	eb001a0f 	bl	10918c <alt_dma_program_DMAST>
  10294c:	e50b0008 	str	r0, [fp, #-8]
  102950:	e55b3019 	ldrb	r3, [fp, #-25]	; 0xffffffe7
  102954:	e3530000 	cmp	r3, #0
  102958:	0a00001e 	beq	1029d8 <alt_dma_memory_to_memory_segment+0x3b4>
  10295c:	e51b3008 	ldr	r3, [fp, #-8]
  102960:	e3530000 	cmp	r3, #0
  102964:	1a000014 	bne	1029bc <alt_dma_memory_to_memory_segment+0x398>
  102968:	e51b202c 	ldr	r2, [fp, #-44]	; 0xffffffd4
  10296c:	e51b3030 	ldr	r3, [fp, #-48]	; 0xffffffd0
  102970:	e0633002 	rsb	r3, r3, r2
  102974:	e2033007 	and	r3, r3, #7
  102978:	e50b3024 	str	r3, [fp, #-36]	; 0xffffffdc
  10297c:	e51b3024 	ldr	r3, [fp, #-36]	; 0xffffffdc
  102980:	e2433001 	sub	r3, r3, #1
  102984:	e1a03203 	lsl	r3, r3, #4
  102988:	e3833b0e 	orr	r3, r3, #14336	; 0x3800
  10298c:	e3833001 	orr	r3, r3, #1
  102990:	e51b2024 	ldr	r2, [fp, #-36]	; 0xffffffdc
  102994:	e2422001 	sub	r2, r2, #1
  102998:	e1a02902 	lsl	r2, r2, #18
  10299c:	e1833002 	orr	r3, r3, r2
  1029a0:	e383340e 	orr	r3, r3, #234881024	; 0xe000000
  1029a4:	e3833901 	orr	r3, r3, #16384	; 0x4000
  1029a8:	e1a02003 	mov	r2, r3
  1029ac:	e3a01001 	mov	r1, #1
  1029b0:	e51b0028 	ldr	r0, [fp, #-40]	; 0xffffffd8
  1029b4:	eb001904 	bl	108dcc <alt_dma_program_DMAMOV>
  1029b8:	e50b0008 	str	r0, [fp, #-8]
  1029bc:	e51b3008 	ldr	r3, [fp, #-8]
  1029c0:	e3530000 	cmp	r3, #0
  1029c4:	1a000003 	bne	1029d8 <alt_dma_memory_to_memory_segment+0x3b4>
  1029c8:	e3a01000 	mov	r1, #0
  1029cc:	e51b0028 	ldr	r0, [fp, #-40]	; 0xffffffd8
  1029d0:	eb0019ed 	bl	10918c <alt_dma_program_DMAST>
  1029d4:	e50b0008 	str	r0, [fp, #-8]
  1029d8:	e51b300c 	ldr	r3, [fp, #-12]
  1029dc:	e3530000 	cmp	r3, #0
  1029e0:	0a00001f 	beq	102a64 <alt_dma_memory_to_memory_segment+0x440>
  1029e4:	e51b3008 	ldr	r3, [fp, #-8]
  1029e8:	e3530000 	cmp	r3, #0
  1029ec:	1a00000e 	bne	102a2c <alt_dma_memory_to_memory_segment+0x408>
  1029f0:	e51b300c 	ldr	r3, [fp, #-12]
  1029f4:	e2433001 	sub	r3, r3, #1
  1029f8:	e1a02203 	lsl	r2, r3, #4
  1029fc:	e51b300c 	ldr	r3, [fp, #-12]
  102a00:	e2433001 	sub	r3, r3, #1
  102a04:	e1a03903 	lsl	r3, r3, #18
  102a08:	e1822003 	orr	r2, r2, r3
  102a0c:	e3073801 	movw	r3, #30721	; 0x7801
  102a10:	e3403e00 	movt	r3, #3584	; 0xe00
  102a14:	e1823003 	orr	r3, r2, r3
  102a18:	e1a02003 	mov	r2, r3
  102a1c:	e3a01001 	mov	r1, #1
  102a20:	e51b0028 	ldr	r0, [fp, #-40]	; 0xffffffd8
  102a24:	eb0018e8 	bl	108dcc <alt_dma_program_DMAMOV>
  102a28:	e50b0008 	str	r0, [fp, #-8]
  102a2c:	e51b3008 	ldr	r3, [fp, #-8]
  102a30:	e3530000 	cmp	r3, #0
  102a34:	1a000003 	bne	102a48 <alt_dma_memory_to_memory_segment+0x424>
  102a38:	e3a01000 	mov	r1, #0
  102a3c:	e51b0028 	ldr	r0, [fp, #-40]	; 0xffffffd8
  102a40:	eb001733 	bl	108714 <alt_dma_program_DMALD>
  102a44:	e50b0008 	str	r0, [fp, #-8]
  102a48:	e51b3008 	ldr	r3, [fp, #-8]
  102a4c:	e3530000 	cmp	r3, #0
  102a50:	1a000003 	bne	102a64 <alt_dma_memory_to_memory_segment+0x440>
  102a54:	e3a01000 	mov	r1, #0
  102a58:	e51b0028 	ldr	r0, [fp, #-40]	; 0xffffffd8
  102a5c:	eb0019ca 	bl	10918c <alt_dma_program_DMAST>
  102a60:	e50b0008 	str	r0, [fp, #-8]
  102a64:	e51b3008 	ldr	r3, [fp, #-8]
  102a68:	e1a00003 	mov	r0, r3
  102a6c:	e24bd004 	sub	sp, fp, #4
  102a70:	e8bd8800 	pop	{fp, pc}

00102a74 <alt_dma_memory_to_memory>:
  102a74:	e92d4800 	push	{fp, lr}
  102a78:	e28db004 	add	fp, sp, #4
  102a7c:	e24dd048 	sub	sp, sp, #72	; 0x48
  102a80:	e50b1044 	str	r1, [fp, #-68]	; 0xffffffbc
  102a84:	e50b2048 	str	r2, [fp, #-72]	; 0xffffffb8
  102a88:	e50b304c 	str	r3, [fp, #-76]	; 0xffffffb4
  102a8c:	e1a03000 	mov	r3, r0
  102a90:	e54b303d 	strb	r3, [fp, #-61]	; 0xffffffc3
  102a94:	e59b3004 	ldr	r3, [fp, #4]
  102a98:	e3530000 	cmp	r3, #0
  102a9c:	1a000006 	bne	102abc <alt_dma_memory_to_memory+0x48>
  102aa0:	e5db3008 	ldrb	r3, [fp, #8]
  102aa4:	e2233001 	eor	r3, r3, #1
  102aa8:	e6ef3073 	uxtb	r3, r3
  102aac:	e3530000 	cmp	r3, #0
  102ab0:	0a000001 	beq	102abc <alt_dma_memory_to_memory+0x48>
  102ab4:	e3a03000 	mov	r3, #0
  102ab8:	ea0000b9 	b	102da4 <alt_dma_memory_to_memory+0x330>
  102abc:	e3a03000 	mov	r3, #0
  102ac0:	e50b3008 	str	r3, [fp, #-8]
  102ac4:	e51b3008 	ldr	r3, [fp, #-8]
  102ac8:	e3530000 	cmp	r3, #0
  102acc:	1a000002 	bne	102adc <alt_dma_memory_to_memory+0x68>
  102ad0:	e51b0044 	ldr	r0, [fp, #-68]	; 0xffffffbc
  102ad4:	eb0014b6 	bl	107db4 <alt_dma_program_init>
  102ad8:	e50b0008 	str	r0, [fp, #-8]
  102adc:	e59b3004 	ldr	r3, [fp, #4]
  102ae0:	e3530000 	cmp	r3, #0
  102ae4:	0a00008b 	beq	102d18 <alt_dma_memory_to_memory+0x2a4>
  102ae8:	e51b2048 	ldr	r2, [fp, #-72]	; 0xffffffb8
  102aec:	e51b304c 	ldr	r3, [fp, #-76]	; 0xffffffb4
  102af0:	e1520003 	cmp	r2, r3
  102af4:	9a000008 	bls	102b1c <alt_dma_memory_to_memory+0xa8>
  102af8:	e51b204c 	ldr	r2, [fp, #-76]	; 0xffffffb4
  102afc:	e59b3004 	ldr	r3, [fp, #4]
  102b00:	e0823003 	add	r3, r2, r3
  102b04:	e2432001 	sub	r2, r3, #1
  102b08:	e51b3048 	ldr	r3, [fp, #-72]	; 0xffffffb8
  102b0c:	e1520003 	cmp	r2, r3
  102b10:	9a00000a 	bls	102b40 <alt_dma_memory_to_memory+0xcc>
  102b14:	e3e03008 	mvn	r3, #8
  102b18:	ea0000a1 	b	102da4 <alt_dma_memory_to_memory+0x330>
  102b1c:	e51b2048 	ldr	r2, [fp, #-72]	; 0xffffffb8
  102b20:	e59b3004 	ldr	r3, [fp, #4]
  102b24:	e0823003 	add	r3, r2, r3
  102b28:	e2432001 	sub	r2, r3, #1
  102b2c:	e51b304c 	ldr	r3, [fp, #-76]	; 0xffffffb4
  102b30:	e1520003 	cmp	r2, r3
  102b34:	9a000001 	bls	102b40 <alt_dma_memory_to_memory+0xcc>
  102b38:	e3e03008 	mvn	r3, #8
  102b3c:	ea000098 	b	102da4 <alt_dma_memory_to_memory+0x330>
  102b40:	e51b3008 	ldr	r3, [fp, #-8]
  102b44:	e3530000 	cmp	r3, #0
  102b48:	1a000005 	bne	102b64 <alt_dma_memory_to_memory+0xf0>
  102b4c:	e24b301c 	sub	r3, fp, #28
  102b50:	e59b2004 	ldr	r2, [fp, #4]
  102b54:	e51b1048 	ldr	r1, [fp, #-72]	; 0xffffffb8
  102b58:	e1a00003 	mov	r0, r3
  102b5c:	ebfffe11 	bl	1023a8 <alt_mmu_va_to_pa_coalesce_begin>
  102b60:	e50b0008 	str	r0, [fp, #-8]
  102b64:	e51b3008 	ldr	r3, [fp, #-8]
  102b68:	e3530000 	cmp	r3, #0
  102b6c:	1a000005 	bne	102b88 <alt_dma_memory_to_memory+0x114>
  102b70:	e24b302c 	sub	r3, fp, #44	; 0x2c
  102b74:	e59b2004 	ldr	r2, [fp, #4]
  102b78:	e51b104c 	ldr	r1, [fp, #-76]	; 0xffffffb4
  102b7c:	e1a00003 	mov	r0, r3
  102b80:	ebfffe08 	bl	1023a8 <alt_mmu_va_to_pa_coalesce_begin>
  102b84:	e50b0008 	str	r0, [fp, #-8]
  102b88:	e3a03000 	mov	r3, #0
  102b8c:	e50b3030 	str	r3, [fp, #-48]	; 0xffffffd0
  102b90:	e3a03000 	mov	r3, #0
  102b94:	e50b3034 	str	r3, [fp, #-52]	; 0xffffffcc
  102b98:	e3a03000 	mov	r3, #0
  102b9c:	e50b3038 	str	r3, [fp, #-56]	; 0xffffffc8
  102ba0:	e3a03000 	mov	r3, #0
  102ba4:	e50b303c 	str	r3, [fp, #-60]	; 0xffffffc4
  102ba8:	ea000047 	b	102ccc <alt_dma_memory_to_memory+0x258>
  102bac:	e51b3008 	ldr	r3, [fp, #-8]
  102bb0:	e3530000 	cmp	r3, #0
  102bb4:	1a000048 	bne	102cdc <alt_dma_memory_to_memory+0x268>
  102bb8:	e51b3008 	ldr	r3, [fp, #-8]
  102bbc:	e3530000 	cmp	r3, #0
  102bc0:	1a000008 	bne	102be8 <alt_dma_memory_to_memory+0x174>
  102bc4:	e51b3038 	ldr	r3, [fp, #-56]	; 0xffffffc8
  102bc8:	e3530000 	cmp	r3, #0
  102bcc:	1a000005 	bne	102be8 <alt_dma_memory_to_memory+0x174>
  102bd0:	e24b2038 	sub	r2, fp, #56	; 0x38
  102bd4:	e24b1030 	sub	r1, fp, #48	; 0x30
  102bd8:	e24b301c 	sub	r3, fp, #28
  102bdc:	e1a00003 	mov	r0, r3
  102be0:	ebfffe1f 	bl	102464 <alt_mmu_va_to_pa_coalesce_next>
  102be4:	e50b0008 	str	r0, [fp, #-8]
  102be8:	e51b3008 	ldr	r3, [fp, #-8]
  102bec:	e3530000 	cmp	r3, #0
  102bf0:	1a000008 	bne	102c18 <alt_dma_memory_to_memory+0x1a4>
  102bf4:	e51b303c 	ldr	r3, [fp, #-60]	; 0xffffffc4
  102bf8:	e3530000 	cmp	r3, #0
  102bfc:	1a000005 	bne	102c18 <alt_dma_memory_to_memory+0x1a4>
  102c00:	e24b203c 	sub	r2, fp, #60	; 0x3c
  102c04:	e24b1034 	sub	r1, fp, #52	; 0x34
  102c08:	e24b302c 	sub	r3, fp, #44	; 0x2c
  102c0c:	e1a00003 	mov	r0, r3
  102c10:	ebfffe13 	bl	102464 <alt_mmu_va_to_pa_coalesce_next>
  102c14:	e50b0008 	str	r0, [fp, #-8]
  102c18:	e51b2038 	ldr	r2, [fp, #-56]	; 0xffffffc8
  102c1c:	e51b303c 	ldr	r3, [fp, #-60]	; 0xffffffc4
  102c20:	e1520003 	cmp	r2, r3
  102c24:	31a03002 	movcc	r3, r2
  102c28:	21a03003 	movcs	r3, r3
  102c2c:	e50b300c 	str	r3, [fp, #-12]
  102c30:	e51b3008 	ldr	r3, [fp, #-8]
  102c34:	e3530000 	cmp	r3, #0
  102c38:	1a000005 	bne	102c54 <alt_dma_memory_to_memory+0x1e0>
  102c3c:	e51b1030 	ldr	r1, [fp, #-48]	; 0xffffffd0
  102c40:	e51b2034 	ldr	r2, [fp, #-52]	; 0xffffffcc
  102c44:	e51b300c 	ldr	r3, [fp, #-12]
  102c48:	e51b0044 	ldr	r0, [fp, #-68]	; 0xffffffbc
  102c4c:	ebfffe74 	bl	102624 <alt_dma_memory_to_memory_segment>
  102c50:	e50b0008 	str	r0, [fp, #-8]
  102c54:	e51b2038 	ldr	r2, [fp, #-56]	; 0xffffffc8
  102c58:	e51b300c 	ldr	r3, [fp, #-12]
  102c5c:	e0633002 	rsb	r3, r3, r2
  102c60:	e50b3038 	str	r3, [fp, #-56]	; 0xffffffc8
  102c64:	e51b203c 	ldr	r2, [fp, #-60]	; 0xffffffc4
  102c68:	e51b300c 	ldr	r3, [fp, #-12]
  102c6c:	e0633002 	rsb	r3, r3, r2
  102c70:	e50b303c 	str	r3, [fp, #-60]	; 0xffffffc4
  102c74:	e51b3038 	ldr	r3, [fp, #-56]	; 0xffffffc8
  102c78:	e3530000 	cmp	r3, #0
  102c7c:	0a000003 	beq	102c90 <alt_dma_memory_to_memory+0x21c>
  102c80:	e51b2030 	ldr	r2, [fp, #-48]	; 0xffffffd0
  102c84:	e51b300c 	ldr	r3, [fp, #-12]
  102c88:	e0823003 	add	r3, r2, r3
  102c8c:	e50b3030 	str	r3, [fp, #-48]	; 0xffffffd0
  102c90:	e51b303c 	ldr	r3, [fp, #-60]	; 0xffffffc4
  102c94:	e3530000 	cmp	r3, #0
  102c98:	0a000003 	beq	102cac <alt_dma_memory_to_memory+0x238>
  102c9c:	e51b2034 	ldr	r2, [fp, #-52]	; 0xffffffcc
  102ca0:	e51b300c 	ldr	r3, [fp, #-12]
  102ca4:	e0823003 	add	r3, r2, r3
  102ca8:	e50b3034 	str	r3, [fp, #-52]	; 0xffffffcc
  102cac:	e51b200c 	ldr	r2, [fp, #-12]
  102cb0:	e59b3004 	ldr	r3, [fp, #4]
  102cb4:	e1520003 	cmp	r2, r3
  102cb8:	31a03002 	movcc	r3, r2
  102cbc:	21a03003 	movcs	r3, r3
  102cc0:	e59b2004 	ldr	r2, [fp, #4]
  102cc4:	e0633002 	rsb	r3, r3, r2
  102cc8:	e58b3004 	str	r3, [fp, #4]
  102ccc:	e59b3004 	ldr	r3, [fp, #4]
  102cd0:	e3530000 	cmp	r3, #0
  102cd4:	1affffb4 	bne	102bac <alt_dma_memory_to_memory+0x138>
  102cd8:	ea000000 	b	102ce0 <alt_dma_memory_to_memory+0x26c>
  102cdc:	e1a00000 	nop			; (mov r0, r0)
  102ce0:	e51b3008 	ldr	r3, [fp, #-8]
  102ce4:	e3530000 	cmp	r3, #0
  102ce8:	1a000003 	bne	102cfc <alt_dma_memory_to_memory+0x288>
  102cec:	e24b301c 	sub	r3, fp, #28
  102cf0:	e1a00003 	mov	r0, r3
  102cf4:	ebfffe3b 	bl	1025e8 <alt_mmu_va_to_pa_coalesce_end>
  102cf8:	e50b0008 	str	r0, [fp, #-8]
  102cfc:	e51b3008 	ldr	r3, [fp, #-8]
  102d00:	e3530000 	cmp	r3, #0
  102d04:	1a000003 	bne	102d18 <alt_dma_memory_to_memory+0x2a4>
  102d08:	e24b302c 	sub	r3, fp, #44	; 0x2c
  102d0c:	e1a00003 	mov	r0, r3
  102d10:	ebfffe34 	bl	1025e8 <alt_mmu_va_to_pa_coalesce_end>
  102d14:	e50b0008 	str	r0, [fp, #-8]
  102d18:	e5db3008 	ldrb	r3, [fp, #8]
  102d1c:	e3530000 	cmp	r3, #0
  102d20:	0a00000d 	beq	102d5c <alt_dma_memory_to_memory+0x2e8>
  102d24:	e51b3008 	ldr	r3, [fp, #-8]
  102d28:	e3530000 	cmp	r3, #0
  102d2c:	1a000002 	bne	102d3c <alt_dma_memory_to_memory+0x2c8>
  102d30:	e51b0044 	ldr	r0, [fp, #-68]	; 0xffffffbc
  102d34:	eb001a3d 	bl	109630 <alt_dma_program_DMAWMB>
  102d38:	e50b0008 	str	r0, [fp, #-8]
  102d3c:	e51b3008 	ldr	r3, [fp, #-8]
  102d40:	e3530000 	cmp	r3, #0
  102d44:	1a000004 	bne	102d5c <alt_dma_memory_to_memory+0x2e8>
  102d48:	e5db300c 	ldrb	r3, [fp, #12]
  102d4c:	e1a01003 	mov	r1, r3
  102d50:	e51b0044 	ldr	r0, [fp, #-68]	; 0xffffffbc
  102d54:	eb0018da 	bl	1090c4 <alt_dma_program_DMASEV>
  102d58:	e50b0008 	str	r0, [fp, #-8]
  102d5c:	e51b3008 	ldr	r3, [fp, #-8]
  102d60:	e3530000 	cmp	r3, #0
  102d64:	1a000002 	bne	102d74 <alt_dma_memory_to_memory+0x300>
  102d68:	e51b0044 	ldr	r0, [fp, #-68]	; 0xffffffbc
  102d6c:	eb00158c 	bl	1083a4 <alt_dma_program_DMAEND>
  102d70:	e50b0008 	str	r0, [fp, #-8]
  102d74:	e51b3008 	ldr	r3, [fp, #-8]
  102d78:	e3530000 	cmp	r3, #0
  102d7c:	0a000003 	beq	102d90 <alt_dma_memory_to_memory+0x31c>
  102d80:	e51b0044 	ldr	r0, [fp, #-68]	; 0xffffffbc
  102d84:	eb00142f 	bl	107e48 <alt_dma_program_clear>
  102d88:	e51b3008 	ldr	r3, [fp, #-8]
  102d8c:	ea000004 	b	102da4 <alt_dma_memory_to_memory+0x330>
  102d90:	e55b303d 	ldrb	r3, [fp, #-61]	; 0xffffffc3
  102d94:	e51b1044 	ldr	r1, [fp, #-68]	; 0xffffffbc
  102d98:	e1a00003 	mov	r0, r3
  102d9c:	ebfffb90 	bl	101be4 <alt_dma_channel_exec>
  102da0:	e1a03000 	mov	r3, r0
  102da4:	e1a00003 	mov	r0, r3
  102da8:	e24bd004 	sub	sp, fp, #4
  102dac:	e8bd8800 	pop	{fp, pc}

00102db0 <alt_dma_memory_to_memory_only_prepare_program>:
  102db0:	e92d4800 	push	{fp, lr}
  102db4:	e28db004 	add	fp, sp, #4
  102db8:	e24dd048 	sub	sp, sp, #72	; 0x48
  102dbc:	e50b1044 	str	r1, [fp, #-68]	; 0xffffffbc
  102dc0:	e50b2048 	str	r2, [fp, #-72]	; 0xffffffb8
  102dc4:	e50b304c 	str	r3, [fp, #-76]	; 0xffffffb4
  102dc8:	e1a03000 	mov	r3, r0
  102dcc:	e54b303d 	strb	r3, [fp, #-61]	; 0xffffffc3
  102dd0:	e59b3004 	ldr	r3, [fp, #4]
  102dd4:	e3530000 	cmp	r3, #0
  102dd8:	1a000006 	bne	102df8 <alt_dma_memory_to_memory_only_prepare_program+0x48>
  102ddc:	e5db3008 	ldrb	r3, [fp, #8]
  102de0:	e2233001 	eor	r3, r3, #1
  102de4:	e6ef3073 	uxtb	r3, r3
  102de8:	e3530000 	cmp	r3, #0
  102dec:	0a000001 	beq	102df8 <alt_dma_memory_to_memory_only_prepare_program+0x48>
  102df0:	e3a03000 	mov	r3, #0
  102df4:	ea0000b5 	b	1030d0 <alt_dma_memory_to_memory_only_prepare_program+0x320>
  102df8:	e3a03000 	mov	r3, #0
  102dfc:	e50b3008 	str	r3, [fp, #-8]
  102e00:	e51b3008 	ldr	r3, [fp, #-8]
  102e04:	e3530000 	cmp	r3, #0
  102e08:	1a000002 	bne	102e18 <alt_dma_memory_to_memory_only_prepare_program+0x68>
  102e0c:	e51b0044 	ldr	r0, [fp, #-68]	; 0xffffffbc
  102e10:	eb0013e7 	bl	107db4 <alt_dma_program_init>
  102e14:	e50b0008 	str	r0, [fp, #-8]
  102e18:	e59b3004 	ldr	r3, [fp, #4]
  102e1c:	e3530000 	cmp	r3, #0
  102e20:	0a00008b 	beq	103054 <alt_dma_memory_to_memory_only_prepare_program+0x2a4>
  102e24:	e51b2048 	ldr	r2, [fp, #-72]	; 0xffffffb8
  102e28:	e51b304c 	ldr	r3, [fp, #-76]	; 0xffffffb4
  102e2c:	e1520003 	cmp	r2, r3
  102e30:	9a000008 	bls	102e58 <alt_dma_memory_to_memory_only_prepare_program+0xa8>
  102e34:	e51b204c 	ldr	r2, [fp, #-76]	; 0xffffffb4
  102e38:	e59b3004 	ldr	r3, [fp, #4]
  102e3c:	e0823003 	add	r3, r2, r3
  102e40:	e2432001 	sub	r2, r3, #1
  102e44:	e51b3048 	ldr	r3, [fp, #-72]	; 0xffffffb8
  102e48:	e1520003 	cmp	r2, r3
  102e4c:	9a00000a 	bls	102e7c <alt_dma_memory_to_memory_only_prepare_program+0xcc>
  102e50:	e3e03008 	mvn	r3, #8
  102e54:	ea00009d 	b	1030d0 <alt_dma_memory_to_memory_only_prepare_program+0x320>
  102e58:	e51b2048 	ldr	r2, [fp, #-72]	; 0xffffffb8
  102e5c:	e59b3004 	ldr	r3, [fp, #4]
  102e60:	e0823003 	add	r3, r2, r3
  102e64:	e2432001 	sub	r2, r3, #1
  102e68:	e51b304c 	ldr	r3, [fp, #-76]	; 0xffffffb4
  102e6c:	e1520003 	cmp	r2, r3
  102e70:	9a000001 	bls	102e7c <alt_dma_memory_to_memory_only_prepare_program+0xcc>
  102e74:	e3e03008 	mvn	r3, #8
  102e78:	ea000094 	b	1030d0 <alt_dma_memory_to_memory_only_prepare_program+0x320>
  102e7c:	e51b3008 	ldr	r3, [fp, #-8]
  102e80:	e3530000 	cmp	r3, #0
  102e84:	1a000005 	bne	102ea0 <alt_dma_memory_to_memory_only_prepare_program+0xf0>
  102e88:	e24b301c 	sub	r3, fp, #28
  102e8c:	e59b2004 	ldr	r2, [fp, #4]
  102e90:	e51b1048 	ldr	r1, [fp, #-72]	; 0xffffffb8
  102e94:	e1a00003 	mov	r0, r3
  102e98:	ebfffd42 	bl	1023a8 <alt_mmu_va_to_pa_coalesce_begin>
  102e9c:	e50b0008 	str	r0, [fp, #-8]
  102ea0:	e51b3008 	ldr	r3, [fp, #-8]
  102ea4:	e3530000 	cmp	r3, #0
  102ea8:	1a000005 	bne	102ec4 <alt_dma_memory_to_memory_only_prepare_program+0x114>
  102eac:	e24b302c 	sub	r3, fp, #44	; 0x2c
  102eb0:	e59b2004 	ldr	r2, [fp, #4]
  102eb4:	e51b104c 	ldr	r1, [fp, #-76]	; 0xffffffb4
  102eb8:	e1a00003 	mov	r0, r3
  102ebc:	ebfffd39 	bl	1023a8 <alt_mmu_va_to_pa_coalesce_begin>
  102ec0:	e50b0008 	str	r0, [fp, #-8]
  102ec4:	e3a03000 	mov	r3, #0
  102ec8:	e50b3030 	str	r3, [fp, #-48]	; 0xffffffd0
  102ecc:	e3a03000 	mov	r3, #0
  102ed0:	e50b3034 	str	r3, [fp, #-52]	; 0xffffffcc
  102ed4:	e3a03000 	mov	r3, #0
  102ed8:	e50b3038 	str	r3, [fp, #-56]	; 0xffffffc8
  102edc:	e3a03000 	mov	r3, #0
  102ee0:	e50b303c 	str	r3, [fp, #-60]	; 0xffffffc4
  102ee4:	ea000047 	b	103008 <alt_dma_memory_to_memory_only_prepare_program+0x258>
  102ee8:	e51b3008 	ldr	r3, [fp, #-8]
  102eec:	e3530000 	cmp	r3, #0
  102ef0:	1a000048 	bne	103018 <alt_dma_memory_to_memory_only_prepare_program+0x268>
  102ef4:	e51b3008 	ldr	r3, [fp, #-8]
  102ef8:	e3530000 	cmp	r3, #0
  102efc:	1a000008 	bne	102f24 <alt_dma_memory_to_memory_only_prepare_program+0x174>
  102f00:	e51b3038 	ldr	r3, [fp, #-56]	; 0xffffffc8
  102f04:	e3530000 	cmp	r3, #0
  102f08:	1a000005 	bne	102f24 <alt_dma_memory_to_memory_only_prepare_program+0x174>
  102f0c:	e24b2038 	sub	r2, fp, #56	; 0x38
  102f10:	e24b1030 	sub	r1, fp, #48	; 0x30
  102f14:	e24b301c 	sub	r3, fp, #28
  102f18:	e1a00003 	mov	r0, r3
  102f1c:	ebfffd50 	bl	102464 <alt_mmu_va_to_pa_coalesce_next>
  102f20:	e50b0008 	str	r0, [fp, #-8]
  102f24:	e51b3008 	ldr	r3, [fp, #-8]
  102f28:	e3530000 	cmp	r3, #0
  102f2c:	1a000008 	bne	102f54 <alt_dma_memory_to_memory_only_prepare_program+0x1a4>
  102f30:	e51b303c 	ldr	r3, [fp, #-60]	; 0xffffffc4
  102f34:	e3530000 	cmp	r3, #0
  102f38:	1a000005 	bne	102f54 <alt_dma_memory_to_memory_only_prepare_program+0x1a4>
  102f3c:	e24b203c 	sub	r2, fp, #60	; 0x3c
  102f40:	e24b1034 	sub	r1, fp, #52	; 0x34
  102f44:	e24b302c 	sub	r3, fp, #44	; 0x2c
  102f48:	e1a00003 	mov	r0, r3
  102f4c:	ebfffd44 	bl	102464 <alt_mmu_va_to_pa_coalesce_next>
  102f50:	e50b0008 	str	r0, [fp, #-8]
  102f54:	e51b2038 	ldr	r2, [fp, #-56]	; 0xffffffc8
  102f58:	e51b303c 	ldr	r3, [fp, #-60]	; 0xffffffc4
  102f5c:	e1520003 	cmp	r2, r3
  102f60:	31a03002 	movcc	r3, r2
  102f64:	21a03003 	movcs	r3, r3
  102f68:	e50b300c 	str	r3, [fp, #-12]
  102f6c:	e51b3008 	ldr	r3, [fp, #-8]
  102f70:	e3530000 	cmp	r3, #0
  102f74:	1a000005 	bne	102f90 <alt_dma_memory_to_memory_only_prepare_program+0x1e0>
  102f78:	e51b1030 	ldr	r1, [fp, #-48]	; 0xffffffd0
  102f7c:	e51b2034 	ldr	r2, [fp, #-52]	; 0xffffffcc
  102f80:	e51b300c 	ldr	r3, [fp, #-12]
  102f84:	e51b0044 	ldr	r0, [fp, #-68]	; 0xffffffbc
  102f88:	ebfffda5 	bl	102624 <alt_dma_memory_to_memory_segment>
  102f8c:	e50b0008 	str	r0, [fp, #-8]
  102f90:	e51b2038 	ldr	r2, [fp, #-56]	; 0xffffffc8
  102f94:	e51b300c 	ldr	r3, [fp, #-12]
  102f98:	e0633002 	rsb	r3, r3, r2
  102f9c:	e50b3038 	str	r3, [fp, #-56]	; 0xffffffc8
  102fa0:	e51b203c 	ldr	r2, [fp, #-60]	; 0xffffffc4
  102fa4:	e51b300c 	ldr	r3, [fp, #-12]
  102fa8:	e0633002 	rsb	r3, r3, r2
  102fac:	e50b303c 	str	r3, [fp, #-60]	; 0xffffffc4
  102fb0:	e51b3038 	ldr	r3, [fp, #-56]	; 0xffffffc8
  102fb4:	e3530000 	cmp	r3, #0
  102fb8:	0a000003 	beq	102fcc <alt_dma_memory_to_memory_only_prepare_program+0x21c>
  102fbc:	e51b2030 	ldr	r2, [fp, #-48]	; 0xffffffd0
  102fc0:	e51b300c 	ldr	r3, [fp, #-12]
  102fc4:	e0823003 	add	r3, r2, r3
  102fc8:	e50b3030 	str	r3, [fp, #-48]	; 0xffffffd0
  102fcc:	e51b303c 	ldr	r3, [fp, #-60]	; 0xffffffc4
  102fd0:	e3530000 	cmp	r3, #0
  102fd4:	0a000003 	beq	102fe8 <alt_dma_memory_to_memory_only_prepare_program+0x238>
  102fd8:	e51b2034 	ldr	r2, [fp, #-52]	; 0xffffffcc
  102fdc:	e51b300c 	ldr	r3, [fp, #-12]
  102fe0:	e0823003 	add	r3, r2, r3
  102fe4:	e50b3034 	str	r3, [fp, #-52]	; 0xffffffcc
  102fe8:	e51b200c 	ldr	r2, [fp, #-12]
  102fec:	e59b3004 	ldr	r3, [fp, #4]
  102ff0:	e1520003 	cmp	r2, r3
  102ff4:	31a03002 	movcc	r3, r2
  102ff8:	21a03003 	movcs	r3, r3
  102ffc:	e59b2004 	ldr	r2, [fp, #4]
  103000:	e0633002 	rsb	r3, r3, r2
  103004:	e58b3004 	str	r3, [fp, #4]
  103008:	e59b3004 	ldr	r3, [fp, #4]
  10300c:	e3530000 	cmp	r3, #0
  103010:	1affffb4 	bne	102ee8 <alt_dma_memory_to_memory_only_prepare_program+0x138>
  103014:	ea000000 	b	10301c <alt_dma_memory_to_memory_only_prepare_program+0x26c>
  103018:	e1a00000 	nop			; (mov r0, r0)
  10301c:	e51b3008 	ldr	r3, [fp, #-8]
  103020:	e3530000 	cmp	r3, #0
  103024:	1a000003 	bne	103038 <alt_dma_memory_to_memory_only_prepare_program+0x288>
  103028:	e24b301c 	sub	r3, fp, #28
  10302c:	e1a00003 	mov	r0, r3
  103030:	ebfffd6c 	bl	1025e8 <alt_mmu_va_to_pa_coalesce_end>
  103034:	e50b0008 	str	r0, [fp, #-8]
  103038:	e51b3008 	ldr	r3, [fp, #-8]
  10303c:	e3530000 	cmp	r3, #0
  103040:	1a000003 	bne	103054 <alt_dma_memory_to_memory_only_prepare_program+0x2a4>
  103044:	e24b302c 	sub	r3, fp, #44	; 0x2c
  103048:	e1a00003 	mov	r0, r3
  10304c:	ebfffd65 	bl	1025e8 <alt_mmu_va_to_pa_coalesce_end>
  103050:	e50b0008 	str	r0, [fp, #-8]
  103054:	e5db3008 	ldrb	r3, [fp, #8]
  103058:	e3530000 	cmp	r3, #0
  10305c:	0a00000d 	beq	103098 <alt_dma_memory_to_memory_only_prepare_program+0x2e8>
  103060:	e51b3008 	ldr	r3, [fp, #-8]
  103064:	e3530000 	cmp	r3, #0
  103068:	1a000002 	bne	103078 <alt_dma_memory_to_memory_only_prepare_program+0x2c8>
  10306c:	e51b0044 	ldr	r0, [fp, #-68]	; 0xffffffbc
  103070:	eb00196e 	bl	109630 <alt_dma_program_DMAWMB>
  103074:	e50b0008 	str	r0, [fp, #-8]
  103078:	e51b3008 	ldr	r3, [fp, #-8]
  10307c:	e3530000 	cmp	r3, #0
  103080:	1a000004 	bne	103098 <alt_dma_memory_to_memory_only_prepare_program+0x2e8>
  103084:	e5db300c 	ldrb	r3, [fp, #12]
  103088:	e1a01003 	mov	r1, r3
  10308c:	e51b0044 	ldr	r0, [fp, #-68]	; 0xffffffbc
  103090:	eb00180b 	bl	1090c4 <alt_dma_program_DMASEV>
  103094:	e50b0008 	str	r0, [fp, #-8]
  103098:	e51b3008 	ldr	r3, [fp, #-8]
  10309c:	e3530000 	cmp	r3, #0
  1030a0:	1a000002 	bne	1030b0 <alt_dma_memory_to_memory_only_prepare_program+0x300>
  1030a4:	e51b0044 	ldr	r0, [fp, #-68]	; 0xffffffbc
  1030a8:	eb0014bd 	bl	1083a4 <alt_dma_program_DMAEND>
  1030ac:	e50b0008 	str	r0, [fp, #-8]
  1030b0:	e51b3008 	ldr	r3, [fp, #-8]
  1030b4:	e3530000 	cmp	r3, #0
  1030b8:	0a000003 	beq	1030cc <alt_dma_memory_to_memory_only_prepare_program+0x31c>
  1030bc:	e51b0044 	ldr	r0, [fp, #-68]	; 0xffffffbc
  1030c0:	eb001360 	bl	107e48 <alt_dma_program_clear>
  1030c4:	e51b3008 	ldr	r3, [fp, #-8]
  1030c8:	ea000000 	b	1030d0 <alt_dma_memory_to_memory_only_prepare_program+0x320>
  1030cc:	e3a03000 	mov	r3, #0
  1030d0:	e1a00003 	mov	r0, r3
  1030d4:	e24bd004 	sub	sp, fp, #4
  1030d8:	e8bd8800 	pop	{fp, pc}

001030dc <alt_dma_zero_to_memory_segment>:
  1030dc:	e92d4800 	push	{fp, lr}
  1030e0:	e28db004 	add	fp, sp, #4
  1030e4:	e24dd028 	sub	sp, sp, #40	; 0x28
  1030e8:	e50b0020 	str	r0, [fp, #-32]	; 0xffffffe0
  1030ec:	e50b1024 	str	r1, [fp, #-36]	; 0xffffffdc
  1030f0:	e50b2028 	str	r2, [fp, #-40]	; 0xffffffd8
  1030f4:	e3a03000 	mov	r3, #0
  1030f8:	e50b3008 	str	r3, [fp, #-8]
  1030fc:	e51b3008 	ldr	r3, [fp, #-8]
  103100:	e3530000 	cmp	r3, #0
  103104:	1a000004 	bne	10311c <alt_dma_zero_to_memory_segment+0x40>
  103108:	e51b2024 	ldr	r2, [fp, #-36]	; 0xffffffdc
  10310c:	e3a01002 	mov	r1, #2
  103110:	e51b0020 	ldr	r0, [fp, #-32]	; 0xffffffe0
  103114:	eb00172c 	bl	108dcc <alt_dma_program_DMAMOV>
  103118:	e50b0008 	str	r0, [fp, #-8]
  10311c:	e51b3028 	ldr	r3, [fp, #-40]	; 0xffffffd8
  103120:	e50b300c 	str	r3, [fp, #-12]
  103124:	e51b3024 	ldr	r3, [fp, #-36]	; 0xffffffdc
  103128:	e2033007 	and	r3, r3, #7
  10312c:	e3530000 	cmp	r3, #0
  103130:	0a00001e 	beq	1031b0 <alt_dma_zero_to_memory_segment+0xd4>
  103134:	e51b3024 	ldr	r3, [fp, #-36]	; 0xffffffdc
  103138:	e2033007 	and	r3, r3, #7
  10313c:	e2632008 	rsb	r2, r3, #8
  103140:	e51b300c 	ldr	r3, [fp, #-12]
  103144:	e1520003 	cmp	r2, r3
  103148:	31a03002 	movcc	r3, r2
  10314c:	21a03003 	movcs	r3, r3
  103150:	e50b3018 	str	r3, [fp, #-24]	; 0xffffffe8
  103154:	e51b200c 	ldr	r2, [fp, #-12]
  103158:	e51b3018 	ldr	r3, [fp, #-24]	; 0xffffffe8
  10315c:	e0633002 	rsb	r3, r3, r2
  103160:	e50b300c 	str	r3, [fp, #-12]
  103164:	e51b3008 	ldr	r3, [fp, #-8]
  103168:	e3530000 	cmp	r3, #0
  10316c:	1a000009 	bne	103198 <alt_dma_zero_to_memory_segment+0xbc>
  103170:	e51b3018 	ldr	r3, [fp, #-24]	; 0xffffffe8
  103174:	e2433001 	sub	r3, r3, #1
  103178:	e1a03903 	lsl	r3, r3, #18
  10317c:	e3833901 	orr	r3, r3, #16384	; 0x4000
  103180:	e3833001 	orr	r3, r3, #1
  103184:	e1a02003 	mov	r2, r3
  103188:	e3a01001 	mov	r1, #1
  10318c:	e51b0020 	ldr	r0, [fp, #-32]	; 0xffffffe0
  103190:	eb00170d 	bl	108dcc <alt_dma_program_DMAMOV>
  103194:	e50b0008 	str	r0, [fp, #-8]
  103198:	e51b3008 	ldr	r3, [fp, #-8]
  10319c:	e3530000 	cmp	r3, #0
  1031a0:	1a000002 	bne	1031b0 <alt_dma_zero_to_memory_segment+0xd4>
  1031a4:	e51b0020 	ldr	r0, [fp, #-32]	; 0xffffffe0
  1031a8:	eb001876 	bl	109388 <alt_dma_program_DMASTZ>
  1031ac:	e50b0008 	str	r0, [fp, #-8]
  1031b0:	e51b300c 	ldr	r3, [fp, #-12]
  1031b4:	e1a031a3 	lsr	r3, r3, #3
  1031b8:	e50b3010 	str	r3, [fp, #-16]
  1031bc:	e51b300c 	ldr	r3, [fp, #-12]
  1031c0:	e2033007 	and	r3, r3, #7
  1031c4:	e50b300c 	str	r3, [fp, #-12]
  1031c8:	e51b3010 	ldr	r3, [fp, #-16]
  1031cc:	e1a03223 	lsr	r3, r3, #4
  1031d0:	e3530000 	cmp	r3, #0
  1031d4:	0a00003a 	beq	1032c4 <alt_dma_zero_to_memory_segment+0x1e8>
  1031d8:	e51b3010 	ldr	r3, [fp, #-16]
  1031dc:	e1a03223 	lsr	r3, r3, #4
  1031e0:	e50b3014 	str	r3, [fp, #-20]	; 0xffffffec
  1031e4:	e51b3010 	ldr	r3, [fp, #-16]
  1031e8:	e203300f 	and	r3, r3, #15
  1031ec:	e50b3010 	str	r3, [fp, #-16]
  1031f0:	e51b3008 	ldr	r3, [fp, #-8]
  1031f4:	e3530000 	cmp	r3, #0
  1031f8:	1a00002c 	bne	1032b0 <alt_dma_zero_to_memory_segment+0x1d4>
  1031fc:	e30c2001 	movw	r2, #49153	; 0xc001
  103200:	e340203d 	movt	r2, #61	; 0x3d
  103204:	e3a01001 	mov	r1, #1
  103208:	e51b0020 	ldr	r0, [fp, #-32]	; 0xffffffe0
  10320c:	eb0016ee 	bl	108dcc <alt_dma_program_DMAMOV>
  103210:	e50b0008 	str	r0, [fp, #-8]
  103214:	ea000025 	b	1032b0 <alt_dma_zero_to_memory_segment+0x1d4>
  103218:	e51b3008 	ldr	r3, [fp, #-8]
  10321c:	e3530000 	cmp	r3, #0
  103220:	1a000026 	bne	1032c0 <alt_dma_zero_to_memory_segment+0x1e4>
  103224:	e51b3014 	ldr	r3, [fp, #-20]	; 0xffffffec
  103228:	e3530c01 	cmp	r3, #256	; 0x100
  10322c:	31a03003 	movcc	r3, r3
  103230:	23a03c01 	movcs	r3, #256	; 0x100
  103234:	e50b301c 	str	r3, [fp, #-28]	; 0xffffffe4
  103238:	e51b2014 	ldr	r2, [fp, #-20]	; 0xffffffec
  10323c:	e51b301c 	ldr	r3, [fp, #-28]	; 0xffffffe4
  103240:	e0633002 	rsb	r3, r3, r2
  103244:	e50b3014 	str	r3, [fp, #-20]	; 0xffffffec
  103248:	e51b3008 	ldr	r3, [fp, #-8]
  10324c:	e3530000 	cmp	r3, #0
  103250:	1a000006 	bne	103270 <alt_dma_zero_to_memory_segment+0x194>
  103254:	e51b301c 	ldr	r3, [fp, #-28]	; 0xffffffe4
  103258:	e3530001 	cmp	r3, #1
  10325c:	9a000003 	bls	103270 <alt_dma_zero_to_memory_segment+0x194>
  103260:	e51b101c 	ldr	r1, [fp, #-28]	; 0xffffffe4
  103264:	e51b0020 	ldr	r0, [fp, #-32]	; 0xffffffe0
  103268:	eb0015a8 	bl	108910 <alt_dma_program_DMALP>
  10326c:	e50b0008 	str	r0, [fp, #-8]
  103270:	e51b3008 	ldr	r3, [fp, #-8]
  103274:	e3530000 	cmp	r3, #0
  103278:	1a000002 	bne	103288 <alt_dma_zero_to_memory_segment+0x1ac>
  10327c:	e51b0020 	ldr	r0, [fp, #-32]	; 0xffffffe0
  103280:	eb001840 	bl	109388 <alt_dma_program_DMASTZ>
  103284:	e50b0008 	str	r0, [fp, #-8]
  103288:	e51b3008 	ldr	r3, [fp, #-8]
  10328c:	e3530000 	cmp	r3, #0
  103290:	1a000006 	bne	1032b0 <alt_dma_zero_to_memory_segment+0x1d4>
  103294:	e51b301c 	ldr	r3, [fp, #-28]	; 0xffffffe4
  103298:	e3530001 	cmp	r3, #1
  10329c:	9a000003 	bls	1032b0 <alt_dma_zero_to_memory_segment+0x1d4>
  1032a0:	e3a01000 	mov	r1, #0
  1032a4:	e51b0020 	ldr	r0, [fp, #-32]	; 0xffffffe0
  1032a8:	eb0015f8 	bl	108a90 <alt_dma_program_DMALPEND>
  1032ac:	e50b0008 	str	r0, [fp, #-8]
  1032b0:	e51b3014 	ldr	r3, [fp, #-20]	; 0xffffffec
  1032b4:	e3530000 	cmp	r3, #0
  1032b8:	1affffd6 	bne	103218 <alt_dma_zero_to_memory_segment+0x13c>
  1032bc:	ea000000 	b	1032c4 <alt_dma_zero_to_memory_segment+0x1e8>
  1032c0:	e1a00000 	nop			; (mov r0, r0)
  1032c4:	e51b3010 	ldr	r3, [fp, #-16]
  1032c8:	e3530000 	cmp	r3, #0
  1032cc:	0a000012 	beq	10331c <alt_dma_zero_to_memory_segment+0x240>
  1032d0:	e51b3008 	ldr	r3, [fp, #-8]
  1032d4:	e3530000 	cmp	r3, #0
  1032d8:	1a000009 	bne	103304 <alt_dma_zero_to_memory_segment+0x228>
  1032dc:	e51b3010 	ldr	r3, [fp, #-16]
  1032e0:	e2433001 	sub	r3, r3, #1
  1032e4:	e1a03903 	lsl	r3, r3, #18
  1032e8:	e3833907 	orr	r3, r3, #114688	; 0x1c000
  1032ec:	e3833001 	orr	r3, r3, #1
  1032f0:	e1a02003 	mov	r2, r3
  1032f4:	e3a01001 	mov	r1, #1
  1032f8:	e51b0020 	ldr	r0, [fp, #-32]	; 0xffffffe0
  1032fc:	eb0016b2 	bl	108dcc <alt_dma_program_DMAMOV>
  103300:	e50b0008 	str	r0, [fp, #-8]
  103304:	e51b3008 	ldr	r3, [fp, #-8]
  103308:	e3530000 	cmp	r3, #0
  10330c:	1a000002 	bne	10331c <alt_dma_zero_to_memory_segment+0x240>
  103310:	e51b0020 	ldr	r0, [fp, #-32]	; 0xffffffe0
  103314:	eb00181b 	bl	109388 <alt_dma_program_DMASTZ>
  103318:	e50b0008 	str	r0, [fp, #-8]
  10331c:	e51b300c 	ldr	r3, [fp, #-12]
  103320:	e3530000 	cmp	r3, #0
  103324:	0a000012 	beq	103374 <alt_dma_zero_to_memory_segment+0x298>
  103328:	e51b3008 	ldr	r3, [fp, #-8]
  10332c:	e3530000 	cmp	r3, #0
  103330:	1a000009 	bne	10335c <alt_dma_zero_to_memory_segment+0x280>
  103334:	e51b300c 	ldr	r3, [fp, #-12]
  103338:	e2433001 	sub	r3, r3, #1
  10333c:	e1a03903 	lsl	r3, r3, #18
  103340:	e3833901 	orr	r3, r3, #16384	; 0x4000
  103344:	e3833001 	orr	r3, r3, #1
  103348:	e1a02003 	mov	r2, r3
  10334c:	e3a01001 	mov	r1, #1
  103350:	e51b0020 	ldr	r0, [fp, #-32]	; 0xffffffe0
  103354:	eb00169c 	bl	108dcc <alt_dma_program_DMAMOV>
  103358:	e50b0008 	str	r0, [fp, #-8]
  10335c:	e51b3008 	ldr	r3, [fp, #-8]
  103360:	e3530000 	cmp	r3, #0
  103364:	1a000002 	bne	103374 <alt_dma_zero_to_memory_segment+0x298>
  103368:	e51b0020 	ldr	r0, [fp, #-32]	; 0xffffffe0
  10336c:	eb001805 	bl	109388 <alt_dma_program_DMASTZ>
  103370:	e50b0008 	str	r0, [fp, #-8]
  103374:	e51b3008 	ldr	r3, [fp, #-8]
  103378:	e1a00003 	mov	r0, r3
  10337c:	e24bd004 	sub	sp, fp, #4
  103380:	e8bd8800 	pop	{fp, pc}

00103384 <alt_dma_zero_to_memory>:
  103384:	e92d4800 	push	{fp, lr}
  103388:	e28db004 	add	fp, sp, #4
  10338c:	e24dd030 	sub	sp, sp, #48	; 0x30
  103390:	e50b102c 	str	r1, [fp, #-44]	; 0xffffffd4
  103394:	e50b2030 	str	r2, [fp, #-48]	; 0xffffffd0
  103398:	e50b3034 	str	r3, [fp, #-52]	; 0xffffffcc
  10339c:	e1a03000 	mov	r3, r0
  1033a0:	e54b3025 	strb	r3, [fp, #-37]	; 0xffffffdb
  1033a4:	e51b3034 	ldr	r3, [fp, #-52]	; 0xffffffcc
  1033a8:	e3530000 	cmp	r3, #0
  1033ac:	1a000006 	bne	1033cc <alt_dma_zero_to_memory+0x48>
  1033b0:	e5db3004 	ldrb	r3, [fp, #4]
  1033b4:	e2233001 	eor	r3, r3, #1
  1033b8:	e6ef3073 	uxtb	r3, r3
  1033bc:	e3530000 	cmp	r3, #0
  1033c0:	0a000001 	beq	1033cc <alt_dma_zero_to_memory+0x48>
  1033c4:	e3a03000 	mov	r3, #0
  1033c8:	ea00005a 	b	103538 <alt_dma_zero_to_memory+0x1b4>
  1033cc:	e3a03000 	mov	r3, #0
  1033d0:	e50b3008 	str	r3, [fp, #-8]
  1033d4:	e51b3008 	ldr	r3, [fp, #-8]
  1033d8:	e3530000 	cmp	r3, #0
  1033dc:	1a000002 	bne	1033ec <alt_dma_zero_to_memory+0x68>
  1033e0:	e51b002c 	ldr	r0, [fp, #-44]	; 0xffffffd4
  1033e4:	eb001272 	bl	107db4 <alt_dma_program_init>
  1033e8:	e50b0008 	str	r0, [fp, #-8]
  1033ec:	e51b3034 	ldr	r3, [fp, #-52]	; 0xffffffcc
  1033f0:	e3530000 	cmp	r3, #0
  1033f4:	0a000032 	beq	1034c4 <alt_dma_zero_to_memory+0x140>
  1033f8:	e51b3008 	ldr	r3, [fp, #-8]
  1033fc:	e3530000 	cmp	r3, #0
  103400:	1a000023 	bne	103494 <alt_dma_zero_to_memory+0x110>
  103404:	e24b3018 	sub	r3, fp, #24
  103408:	e51b2034 	ldr	r2, [fp, #-52]	; 0xffffffcc
  10340c:	e51b1030 	ldr	r1, [fp, #-48]	; 0xffffffd0
  103410:	e1a00003 	mov	r0, r3
  103414:	ebfffbe3 	bl	1023a8 <alt_mmu_va_to_pa_coalesce_begin>
  103418:	e50b0008 	str	r0, [fp, #-8]
  10341c:	ea00001c 	b	103494 <alt_dma_zero_to_memory+0x110>
  103420:	e51b3008 	ldr	r3, [fp, #-8]
  103424:	e3530000 	cmp	r3, #0
  103428:	1a00001d 	bne	1034a4 <alt_dma_zero_to_memory+0x120>
  10342c:	e3a03000 	mov	r3, #0
  103430:	e50b301c 	str	r3, [fp, #-28]	; 0xffffffe4
  103434:	e3a03000 	mov	r3, #0
  103438:	e50b3020 	str	r3, [fp, #-32]	; 0xffffffe0
  10343c:	e51b3008 	ldr	r3, [fp, #-8]
  103440:	e3530000 	cmp	r3, #0
  103444:	1a000005 	bne	103460 <alt_dma_zero_to_memory+0xdc>
  103448:	e24b2020 	sub	r2, fp, #32
  10344c:	e24b101c 	sub	r1, fp, #28
  103450:	e24b3018 	sub	r3, fp, #24
  103454:	e1a00003 	mov	r0, r3
  103458:	ebfffc01 	bl	102464 <alt_mmu_va_to_pa_coalesce_next>
  10345c:	e50b0008 	str	r0, [fp, #-8]
  103460:	e51b3020 	ldr	r3, [fp, #-32]	; 0xffffffe0
  103464:	e51b2034 	ldr	r2, [fp, #-52]	; 0xffffffcc
  103468:	e0633002 	rsb	r3, r3, r2
  10346c:	e50b3034 	str	r3, [fp, #-52]	; 0xffffffcc
  103470:	e51b3008 	ldr	r3, [fp, #-8]
  103474:	e3530000 	cmp	r3, #0
  103478:	1a000005 	bne	103494 <alt_dma_zero_to_memory+0x110>
  10347c:	e51b301c 	ldr	r3, [fp, #-28]	; 0xffffffe4
  103480:	e51b2020 	ldr	r2, [fp, #-32]	; 0xffffffe0
  103484:	e1a01003 	mov	r1, r3
  103488:	e51b002c 	ldr	r0, [fp, #-44]	; 0xffffffd4
  10348c:	ebffff12 	bl	1030dc <alt_dma_zero_to_memory_segment>
  103490:	e50b0008 	str	r0, [fp, #-8]
  103494:	e51b3034 	ldr	r3, [fp, #-52]	; 0xffffffcc
  103498:	e3530000 	cmp	r3, #0
  10349c:	1affffdf 	bne	103420 <alt_dma_zero_to_memory+0x9c>
  1034a0:	ea000000 	b	1034a8 <alt_dma_zero_to_memory+0x124>
  1034a4:	e1a00000 	nop			; (mov r0, r0)
  1034a8:	e51b3008 	ldr	r3, [fp, #-8]
  1034ac:	e3530000 	cmp	r3, #0
  1034b0:	1a000003 	bne	1034c4 <alt_dma_zero_to_memory+0x140>
  1034b4:	e24b3018 	sub	r3, fp, #24
  1034b8:	e1a00003 	mov	r0, r3
  1034bc:	ebfffc49 	bl	1025e8 <alt_mmu_va_to_pa_coalesce_end>
  1034c0:	e50b0008 	str	r0, [fp, #-8]
  1034c4:	e5db3004 	ldrb	r3, [fp, #4]
  1034c8:	e3530000 	cmp	r3, #0
  1034cc:	0a000007 	beq	1034f0 <alt_dma_zero_to_memory+0x16c>
  1034d0:	e51b3008 	ldr	r3, [fp, #-8]
  1034d4:	e3530000 	cmp	r3, #0
  1034d8:	1a000004 	bne	1034f0 <alt_dma_zero_to_memory+0x16c>
  1034dc:	e5db3008 	ldrb	r3, [fp, #8]
  1034e0:	e1a01003 	mov	r1, r3
  1034e4:	e51b002c 	ldr	r0, [fp, #-44]	; 0xffffffd4
  1034e8:	eb0016f5 	bl	1090c4 <alt_dma_program_DMASEV>
  1034ec:	e50b0008 	str	r0, [fp, #-8]
  1034f0:	e51b3008 	ldr	r3, [fp, #-8]
  1034f4:	e3530000 	cmp	r3, #0
  1034f8:	1a000002 	bne	103508 <alt_dma_zero_to_memory+0x184>
  1034fc:	e51b002c 	ldr	r0, [fp, #-44]	; 0xffffffd4
  103500:	eb0013a7 	bl	1083a4 <alt_dma_program_DMAEND>
  103504:	e50b0008 	str	r0, [fp, #-8]
  103508:	e51b3008 	ldr	r3, [fp, #-8]
  10350c:	e3530000 	cmp	r3, #0
  103510:	0a000003 	beq	103524 <alt_dma_zero_to_memory+0x1a0>
  103514:	e51b002c 	ldr	r0, [fp, #-44]	; 0xffffffd4
  103518:	eb00124a 	bl	107e48 <alt_dma_program_clear>
  10351c:	e51b3008 	ldr	r3, [fp, #-8]
  103520:	ea000004 	b	103538 <alt_dma_zero_to_memory+0x1b4>
  103524:	e55b3025 	ldrb	r3, [fp, #-37]	; 0xffffffdb
  103528:	e51b102c 	ldr	r1, [fp, #-44]	; 0xffffffd4
  10352c:	e1a00003 	mov	r0, r3
  103530:	ebfff9ab 	bl	101be4 <alt_dma_channel_exec>
  103534:	e1a03000 	mov	r3, r0
  103538:	e1a00003 	mov	r0, r3
  10353c:	e24bd004 	sub	sp, fp, #4
  103540:	e8bd8800 	pop	{fp, pc}

00103544 <alt_dma_memory_to_register_segment>:
  103544:	e92d4800 	push	{fp, lr}
  103548:	e28db004 	add	fp, sp, #4
  10354c:	e24dd028 	sub	sp, sp, #40	; 0x28
  103550:	e50b1024 	str	r1, [fp, #-36]	; 0xffffffdc
  103554:	e50b2028 	str	r2, [fp, #-40]	; 0xffffffd8
  103558:	e50b302c 	str	r3, [fp, #-44]	; 0xffffffd4
  10355c:	e1a03000 	mov	r3, r0
  103560:	e54b301d 	strb	r3, [fp, #-29]	; 0xffffffe3
  103564:	e3a03000 	mov	r3, #0
  103568:	e50b3008 	str	r3, [fp, #-8]
  10356c:	e51b3008 	ldr	r3, [fp, #-8]
  103570:	e3530000 	cmp	r3, #0
  103574:	1a000004 	bne	10358c <alt_dma_memory_to_register_segment+0x48>
  103578:	e51b202c 	ldr	r2, [fp, #-44]	; 0xffffffd4
  10357c:	e3a01000 	mov	r1, #0
  103580:	e51b0024 	ldr	r0, [fp, #-36]	; 0xffffffdc
  103584:	eb001610 	bl	108dcc <alt_dma_program_DMAMOV>
  103588:	e50b0008 	str	r0, [fp, #-8]
  10358c:	e59b3004 	ldr	r3, [fp, #4]
  103590:	e50b300c 	str	r3, [fp, #-12]
  103594:	e51b300c 	ldr	r3, [fp, #-12]
  103598:	e1a03223 	lsr	r3, r3, #4
  10359c:	e3530000 	cmp	r3, #0
  1035a0:	0a000085 	beq	1037bc <alt_dma_memory_to_register_segment+0x278>
  1035a4:	e51b3008 	ldr	r3, [fp, #-8]
  1035a8:	e3530000 	cmp	r3, #0
  1035ac:	1a000007 	bne	1035d0 <alt_dma_memory_to_register_segment+0x8c>
  1035b0:	e51b3028 	ldr	r3, [fp, #-40]	; 0xffffffd8
  1035b4:	e383370f 	orr	r3, r3, #3932160	; 0x3c0000
  1035b8:	e38330f1 	orr	r3, r3, #241	; 0xf1
  1035bc:	e1a02003 	mov	r2, r3
  1035c0:	e3a01001 	mov	r1, #1
  1035c4:	e51b0024 	ldr	r0, [fp, #-36]	; 0xffffffdc
  1035c8:	eb0015ff 	bl	108dcc <alt_dma_program_DMAMOV>
  1035cc:	e50b0008 	str	r0, [fp, #-8]
  1035d0:	e51b300c 	ldr	r3, [fp, #-12]
  1035d4:	e1a03223 	lsr	r3, r3, #4
  1035d8:	e50b3010 	str	r3, [fp, #-16]
  1035dc:	e51b300c 	ldr	r3, [fp, #-12]
  1035e0:	e203300f 	and	r3, r3, #15
  1035e4:	e50b300c 	str	r3, [fp, #-12]
  1035e8:	e51b3010 	ldr	r3, [fp, #-16]
  1035ec:	e1a03423 	lsr	r3, r3, #8
  1035f0:	e3530000 	cmp	r3, #0
  1035f4:	0a000047 	beq	103718 <alt_dma_memory_to_register_segment+0x1d4>
  1035f8:	e51b3010 	ldr	r3, [fp, #-16]
  1035fc:	e1a03423 	lsr	r3, r3, #8
  103600:	e50b3014 	str	r3, [fp, #-20]	; 0xffffffec
  103604:	e51b3010 	ldr	r3, [fp, #-16]
  103608:	e6ef3073 	uxtb	r3, r3
  10360c:	e50b3010 	str	r3, [fp, #-16]
  103610:	ea00003b 	b	103704 <alt_dma_memory_to_register_segment+0x1c0>
  103614:	e51b3008 	ldr	r3, [fp, #-8]
  103618:	e3530000 	cmp	r3, #0
  10361c:	1a00003c 	bne	103714 <alt_dma_memory_to_register_segment+0x1d0>
  103620:	e51b3014 	ldr	r3, [fp, #-20]	; 0xffffffec
  103624:	e3530c01 	cmp	r3, #256	; 0x100
  103628:	31a03003 	movcc	r3, r3
  10362c:	23a03c01 	movcs	r3, #256	; 0x100
  103630:	e50b3018 	str	r3, [fp, #-24]	; 0xffffffe8
  103634:	e51b2014 	ldr	r2, [fp, #-20]	; 0xffffffec
  103638:	e51b3018 	ldr	r3, [fp, #-24]	; 0xffffffe8
  10363c:	e0633002 	rsb	r3, r3, r2
  103640:	e50b3014 	str	r3, [fp, #-20]	; 0xffffffec
  103644:	e51b3008 	ldr	r3, [fp, #-8]
  103648:	e3530000 	cmp	r3, #0
  10364c:	1a000006 	bne	10366c <alt_dma_memory_to_register_segment+0x128>
  103650:	e51b3018 	ldr	r3, [fp, #-24]	; 0xffffffe8
  103654:	e3530001 	cmp	r3, #1
  103658:	9a000003 	bls	10366c <alt_dma_memory_to_register_segment+0x128>
  10365c:	e51b1018 	ldr	r1, [fp, #-24]	; 0xffffffe8
  103660:	e51b0024 	ldr	r0, [fp, #-36]	; 0xffffffdc
  103664:	eb0014a9 	bl	108910 <alt_dma_program_DMALP>
  103668:	e50b0008 	str	r0, [fp, #-8]
  10366c:	e51b3008 	ldr	r3, [fp, #-8]
  103670:	e3530000 	cmp	r3, #0
  103674:	1a000003 	bne	103688 <alt_dma_memory_to_register_segment+0x144>
  103678:	e3a01c01 	mov	r1, #256	; 0x100
  10367c:	e51b0024 	ldr	r0, [fp, #-36]	; 0xffffffdc
  103680:	eb0014a2 	bl	108910 <alt_dma_program_DMALP>
  103684:	e50b0008 	str	r0, [fp, #-8]
  103688:	e51b3008 	ldr	r3, [fp, #-8]
  10368c:	e3530000 	cmp	r3, #0
  103690:	1a000003 	bne	1036a4 <alt_dma_memory_to_register_segment+0x160>
  103694:	e3a01000 	mov	r1, #0
  103698:	e51b0024 	ldr	r0, [fp, #-36]	; 0xffffffdc
  10369c:	eb00141c 	bl	108714 <alt_dma_program_DMALD>
  1036a0:	e50b0008 	str	r0, [fp, #-8]
  1036a4:	e51b3008 	ldr	r3, [fp, #-8]
  1036a8:	e3530000 	cmp	r3, #0
  1036ac:	1a000003 	bne	1036c0 <alt_dma_memory_to_register_segment+0x17c>
  1036b0:	e3a01000 	mov	r1, #0
  1036b4:	e51b0024 	ldr	r0, [fp, #-36]	; 0xffffffdc
  1036b8:	eb0016b3 	bl	10918c <alt_dma_program_DMAST>
  1036bc:	e50b0008 	str	r0, [fp, #-8]
  1036c0:	e51b3008 	ldr	r3, [fp, #-8]
  1036c4:	e3530000 	cmp	r3, #0
  1036c8:	1a000003 	bne	1036dc <alt_dma_memory_to_register_segment+0x198>
  1036cc:	e3a01000 	mov	r1, #0
  1036d0:	e51b0024 	ldr	r0, [fp, #-36]	; 0xffffffdc
  1036d4:	eb0014ed 	bl	108a90 <alt_dma_program_DMALPEND>
  1036d8:	e50b0008 	str	r0, [fp, #-8]
  1036dc:	e51b3008 	ldr	r3, [fp, #-8]
  1036e0:	e3530000 	cmp	r3, #0
  1036e4:	1a000006 	bne	103704 <alt_dma_memory_to_register_segment+0x1c0>
  1036e8:	e51b3018 	ldr	r3, [fp, #-24]	; 0xffffffe8
  1036ec:	e3530001 	cmp	r3, #1
  1036f0:	9a000003 	bls	103704 <alt_dma_memory_to_register_segment+0x1c0>
  1036f4:	e3a01000 	mov	r1, #0
  1036f8:	e51b0024 	ldr	r0, [fp, #-36]	; 0xffffffdc
  1036fc:	eb0014e3 	bl	108a90 <alt_dma_program_DMALPEND>
  103700:	e50b0008 	str	r0, [fp, #-8]
  103704:	e51b3014 	ldr	r3, [fp, #-20]	; 0xffffffec
  103708:	e3530000 	cmp	r3, #0
  10370c:	1affffc0 	bne	103614 <alt_dma_memory_to_register_segment+0xd0>
  103710:	ea000000 	b	103718 <alt_dma_memory_to_register_segment+0x1d4>
  103714:	e1a00000 	nop			; (mov r0, r0)
  103718:	e51b3010 	ldr	r3, [fp, #-16]
  10371c:	e3530000 	cmp	r3, #0
  103720:	0a000025 	beq	1037bc <alt_dma_memory_to_register_segment+0x278>
  103724:	e51b3010 	ldr	r3, [fp, #-16]
  103728:	e50b301c 	str	r3, [fp, #-28]	; 0xffffffe4
  10372c:	e3a03000 	mov	r3, #0
  103730:	e50b3010 	str	r3, [fp, #-16]
  103734:	e51b3008 	ldr	r3, [fp, #-8]
  103738:	e3530000 	cmp	r3, #0
  10373c:	1a000006 	bne	10375c <alt_dma_memory_to_register_segment+0x218>
  103740:	e51b301c 	ldr	r3, [fp, #-28]	; 0xffffffe4
  103744:	e3530001 	cmp	r3, #1
  103748:	9a000003 	bls	10375c <alt_dma_memory_to_register_segment+0x218>
  10374c:	e51b101c 	ldr	r1, [fp, #-28]	; 0xffffffe4
  103750:	e51b0024 	ldr	r0, [fp, #-36]	; 0xffffffdc
  103754:	eb00146d 	bl	108910 <alt_dma_program_DMALP>
  103758:	e50b0008 	str	r0, [fp, #-8]
  10375c:	e51b3008 	ldr	r3, [fp, #-8]
  103760:	e3530000 	cmp	r3, #0
  103764:	1a000003 	bne	103778 <alt_dma_memory_to_register_segment+0x234>
  103768:	e3a01000 	mov	r1, #0
  10376c:	e51b0024 	ldr	r0, [fp, #-36]	; 0xffffffdc
  103770:	eb0013e7 	bl	108714 <alt_dma_program_DMALD>
  103774:	e50b0008 	str	r0, [fp, #-8]
  103778:	e51b3008 	ldr	r3, [fp, #-8]
  10377c:	e3530000 	cmp	r3, #0
  103780:	1a000003 	bne	103794 <alt_dma_memory_to_register_segment+0x250>
  103784:	e3a01000 	mov	r1, #0
  103788:	e51b0024 	ldr	r0, [fp, #-36]	; 0xffffffdc
  10378c:	eb00167e 	bl	10918c <alt_dma_program_DMAST>
  103790:	e50b0008 	str	r0, [fp, #-8]
  103794:	e51b3008 	ldr	r3, [fp, #-8]
  103798:	e3530000 	cmp	r3, #0
  10379c:	1a000006 	bne	1037bc <alt_dma_memory_to_register_segment+0x278>
  1037a0:	e51b301c 	ldr	r3, [fp, #-28]	; 0xffffffe4
  1037a4:	e3530001 	cmp	r3, #1
  1037a8:	9a000003 	bls	1037bc <alt_dma_memory_to_register_segment+0x278>
  1037ac:	e3a01000 	mov	r1, #0
  1037b0:	e51b0024 	ldr	r0, [fp, #-36]	; 0xffffffdc
  1037b4:	eb0014b5 	bl	108a90 <alt_dma_program_DMALPEND>
  1037b8:	e50b0008 	str	r0, [fp, #-8]
  1037bc:	e51b300c 	ldr	r3, [fp, #-12]
  1037c0:	e3530000 	cmp	r3, #0
  1037c4:	0a00001f 	beq	103848 <alt_dma_memory_to_register_segment+0x304>
  1037c8:	e51b3008 	ldr	r3, [fp, #-8]
  1037cc:	e3530000 	cmp	r3, #0
  1037d0:	1a00000e 	bne	103810 <alt_dma_memory_to_register_segment+0x2cc>
  1037d4:	e51b300c 	ldr	r3, [fp, #-12]
  1037d8:	e2433001 	sub	r3, r3, #1
  1037dc:	e1a02203 	lsl	r2, r3, #4
  1037e0:	e51b3028 	ldr	r3, [fp, #-40]	; 0xffffffd8
  1037e4:	e1822003 	orr	r2, r2, r3
  1037e8:	e51b300c 	ldr	r3, [fp, #-12]
  1037ec:	e2433001 	sub	r3, r3, #1
  1037f0:	e1a03903 	lsl	r3, r3, #18
  1037f4:	e1823003 	orr	r3, r2, r3
  1037f8:	e3833001 	orr	r3, r3, #1
  1037fc:	e1a02003 	mov	r2, r3
  103800:	e3a01001 	mov	r1, #1
  103804:	e51b0024 	ldr	r0, [fp, #-36]	; 0xffffffdc
  103808:	eb00156f 	bl	108dcc <alt_dma_program_DMAMOV>
  10380c:	e50b0008 	str	r0, [fp, #-8]
  103810:	e51b3008 	ldr	r3, [fp, #-8]
  103814:	e3530000 	cmp	r3, #0
  103818:	1a000003 	bne	10382c <alt_dma_memory_to_register_segment+0x2e8>
  10381c:	e3a01000 	mov	r1, #0
  103820:	e51b0024 	ldr	r0, [fp, #-36]	; 0xffffffdc
  103824:	eb0013ba 	bl	108714 <alt_dma_program_DMALD>
  103828:	e50b0008 	str	r0, [fp, #-8]
  10382c:	e51b3008 	ldr	r3, [fp, #-8]
  103830:	e3530000 	cmp	r3, #0
  103834:	1a000003 	bne	103848 <alt_dma_memory_to_register_segment+0x304>
  103838:	e3a01000 	mov	r1, #0
  10383c:	e51b0024 	ldr	r0, [fp, #-36]	; 0xffffffdc
  103840:	eb001651 	bl	10918c <alt_dma_program_DMAST>
  103844:	e50b0008 	str	r0, [fp, #-8]
  103848:	e51b3008 	ldr	r3, [fp, #-8]
  10384c:	e1a00003 	mov	r0, r3
  103850:	e24bd004 	sub	sp, fp, #4
  103854:	e8bd8800 	pop	{fp, pc}

00103858 <alt_dma_memory_to_register>:
  103858:	e92d4800 	push	{fp, lr}
  10385c:	e28db004 	add	fp, sp, #4
  103860:	e24dd040 	sub	sp, sp, #64	; 0x40
  103864:	e50b1034 	str	r1, [fp, #-52]	; 0xffffffcc
  103868:	e50b2038 	str	r2, [fp, #-56]	; 0xffffffc8
  10386c:	e50b303c 	str	r3, [fp, #-60]	; 0xffffffc4
  103870:	e1a03000 	mov	r3, r0
  103874:	e54b302d 	strb	r3, [fp, #-45]	; 0xffffffd3
  103878:	e59b3004 	ldr	r3, [fp, #4]
  10387c:	e3530000 	cmp	r3, #0
  103880:	1a000006 	bne	1038a0 <alt_dma_memory_to_register+0x48>
  103884:	e5db300c 	ldrb	r3, [fp, #12]
  103888:	e2233001 	eor	r3, r3, #1
  10388c:	e6ef3073 	uxtb	r3, r3
  103890:	e3530000 	cmp	r3, #0
  103894:	0a000001 	beq	1038a0 <alt_dma_memory_to_register+0x48>
  103898:	e3a03000 	mov	r3, #0
  10389c:	ea0000b3 	b	103b70 <alt_dma_memory_to_register+0x318>
  1038a0:	e3a03000 	mov	r3, #0
  1038a4:	e50b3008 	str	r3, [fp, #-8]
  1038a8:	e51b3008 	ldr	r3, [fp, #-8]
  1038ac:	e3530000 	cmp	r3, #0
  1038b0:	1a000002 	bne	1038c0 <alt_dma_memory_to_register+0x68>
  1038b4:	e51b0034 	ldr	r0, [fp, #-52]	; 0xffffffcc
  1038b8:	eb00113d 	bl	107db4 <alt_dma_program_init>
  1038bc:	e50b0008 	str	r0, [fp, #-8]
  1038c0:	e59b3004 	ldr	r3, [fp, #4]
  1038c4:	e3530000 	cmp	r3, #0
  1038c8:	0a00008b 	beq	103afc <alt_dma_memory_to_register+0x2a4>
  1038cc:	e3a03000 	mov	r3, #0
  1038d0:	e50b300c 	str	r3, [fp, #-12]
  1038d4:	e3a03000 	mov	r3, #0
  1038d8:	e50b3010 	str	r3, [fp, #-16]
  1038dc:	e51b3008 	ldr	r3, [fp, #-8]
  1038e0:	e3530000 	cmp	r3, #0
  1038e4:	1a000025 	bne	103980 <alt_dma_memory_to_register+0x128>
  1038e8:	e59b3008 	ldr	r3, [fp, #8]
  1038ec:	e3530010 	cmp	r3, #16
  1038f0:	0a00000e 	beq	103930 <alt_dma_memory_to_register+0xd8>
  1038f4:	e3530010 	cmp	r3, #16
  1038f8:	8a000002 	bhi	103908 <alt_dma_memory_to_register+0xb0>
  1038fc:	e3530008 	cmp	r3, #8
  103900:	0a000005 	beq	10391c <alt_dma_memory_to_register+0xc4>
  103904:	ea00001a 	b	103974 <alt_dma_memory_to_register+0x11c>
  103908:	e3530020 	cmp	r3, #32
  10390c:	0a00000c 	beq	103944 <alt_dma_memory_to_register+0xec>
  103910:	e3530040 	cmp	r3, #64	; 0x40
  103914:	0a000010 	beq	10395c <alt_dma_memory_to_register+0x104>
  103918:	ea000015 	b	103974 <alt_dma_memory_to_register+0x11c>
  10391c:	e3a03000 	mov	r3, #0
  103920:	e50b300c 	str	r3, [fp, #-12]
  103924:	e3a03000 	mov	r3, #0
  103928:	e50b3010 	str	r3, [fp, #-16]
  10392c:	ea000013 	b	103980 <alt_dma_memory_to_register+0x128>
  103930:	e3083002 	movw	r3, #32770	; 0x8002
  103934:	e50b300c 	str	r3, [fp, #-12]
  103938:	e3a03001 	mov	r3, #1
  10393c:	e50b3010 	str	r3, [fp, #-16]
  103940:	ea00000e 	b	103980 <alt_dma_memory_to_register+0x128>
  103944:	e3a03004 	mov	r3, #4
  103948:	e3403001 	movt	r3, #1
  10394c:	e50b300c 	str	r3, [fp, #-12]
  103950:	e3a03002 	mov	r3, #2
  103954:	e50b3010 	str	r3, [fp, #-16]
  103958:	ea000008 	b	103980 <alt_dma_memory_to_register+0x128>
  10395c:	e3083006 	movw	r3, #32774	; 0x8006
  103960:	e3403001 	movt	r3, #1
  103964:	e50b300c 	str	r3, [fp, #-12]
  103968:	e3a03003 	mov	r3, #3
  10396c:	e50b3010 	str	r3, [fp, #-16]
  103970:	ea000002 	b	103980 <alt_dma_memory_to_register+0x128>
  103974:	e3e03008 	mvn	r3, #8
  103978:	e50b3008 	str	r3, [fp, #-8]
  10397c:	e1a00000 	nop			; (mov r0, r0)
  103980:	e51b3008 	ldr	r3, [fp, #-8]
  103984:	e3530000 	cmp	r3, #0
  103988:	1a000016 	bne	1039e8 <alt_dma_memory_to_register+0x190>
  10398c:	e3a02001 	mov	r2, #1
  103990:	e51b3010 	ldr	r3, [fp, #-16]
  103994:	e1a03312 	lsl	r3, r2, r3
  103998:	e2433001 	sub	r3, r3, #1
  10399c:	e1a02003 	mov	r2, r3
  1039a0:	e51b3038 	ldr	r3, [fp, #-56]	; 0xffffffc8
  1039a4:	e0033002 	and	r3, r3, r2
  1039a8:	e3530000 	cmp	r3, #0
  1039ac:	0a000002 	beq	1039bc <alt_dma_memory_to_register+0x164>
  1039b0:	e3e03008 	mvn	r3, #8
  1039b4:	e50b3008 	str	r3, [fp, #-8]
  1039b8:	ea00000a 	b	1039e8 <alt_dma_memory_to_register+0x190>
  1039bc:	e3a02001 	mov	r2, #1
  1039c0:	e51b3010 	ldr	r3, [fp, #-16]
  1039c4:	e1a03312 	lsl	r3, r2, r3
  1039c8:	e2433001 	sub	r3, r3, #1
  1039cc:	e1a02003 	mov	r2, r3
  1039d0:	e51b303c 	ldr	r3, [fp, #-60]	; 0xffffffc4
  1039d4:	e0033002 	and	r3, r3, r2
  1039d8:	e3530000 	cmp	r3, #0
  1039dc:	0a000001 	beq	1039e8 <alt_dma_memory_to_register+0x190>
  1039e0:	e3e03008 	mvn	r3, #8
  1039e4:	e50b3008 	str	r3, [fp, #-8]
  1039e8:	e51b3008 	ldr	r3, [fp, #-8]
  1039ec:	e3530000 	cmp	r3, #0
  1039f0:	1a000005 	bne	103a0c <alt_dma_memory_to_register+0x1b4>
  1039f4:	e51b3038 	ldr	r3, [fp, #-56]	; 0xffffffc8
  1039f8:	e1a02003 	mov	r2, r3
  1039fc:	e3a01002 	mov	r1, #2
  103a00:	e51b0034 	ldr	r0, [fp, #-52]	; 0xffffffcc
  103a04:	eb0014f0 	bl	108dcc <alt_dma_program_DMAMOV>
  103a08:	e50b0008 	str	r0, [fp, #-8]
  103a0c:	e59b2004 	ldr	r2, [fp, #4]
  103a10:	e51b3010 	ldr	r3, [fp, #-16]
  103a14:	e1a03312 	lsl	r3, r2, r3
  103a18:	e50b3014 	str	r3, [fp, #-20]	; 0xffffffec
  103a1c:	e51b3008 	ldr	r3, [fp, #-8]
  103a20:	e3530000 	cmp	r3, #0
  103a24:	1a000028 	bne	103acc <alt_dma_memory_to_register+0x274>
  103a28:	e24b3024 	sub	r3, fp, #36	; 0x24
  103a2c:	e51b2014 	ldr	r2, [fp, #-20]	; 0xffffffec
  103a30:	e51b103c 	ldr	r1, [fp, #-60]	; 0xffffffc4
  103a34:	e1a00003 	mov	r0, r3
  103a38:	ebfffa5a 	bl	1023a8 <alt_mmu_va_to_pa_coalesce_begin>
  103a3c:	e50b0008 	str	r0, [fp, #-8]
  103a40:	ea000021 	b	103acc <alt_dma_memory_to_register+0x274>
  103a44:	e51b3008 	ldr	r3, [fp, #-8]
  103a48:	e3530000 	cmp	r3, #0
  103a4c:	1a000022 	bne	103adc <alt_dma_memory_to_register+0x284>
  103a50:	e3a03000 	mov	r3, #0
  103a54:	e50b3028 	str	r3, [fp, #-40]	; 0xffffffd8
  103a58:	e3a03000 	mov	r3, #0
  103a5c:	e50b302c 	str	r3, [fp, #-44]	; 0xffffffd4
  103a60:	e51b3008 	ldr	r3, [fp, #-8]
  103a64:	e3530000 	cmp	r3, #0
  103a68:	1a000005 	bne	103a84 <alt_dma_memory_to_register+0x22c>
  103a6c:	e24b202c 	sub	r2, fp, #44	; 0x2c
  103a70:	e24b1028 	sub	r1, fp, #40	; 0x28
  103a74:	e24b3024 	sub	r3, fp, #36	; 0x24
  103a78:	e1a00003 	mov	r0, r3
  103a7c:	ebfffa78 	bl	102464 <alt_mmu_va_to_pa_coalesce_next>
  103a80:	e50b0008 	str	r0, [fp, #-8]
  103a84:	e51b302c 	ldr	r3, [fp, #-44]	; 0xffffffd4
  103a88:	e51b2014 	ldr	r2, [fp, #-20]	; 0xffffffec
  103a8c:	e0633002 	rsb	r3, r3, r2
  103a90:	e50b3014 	str	r3, [fp, #-20]	; 0xffffffec
  103a94:	e51b3008 	ldr	r3, [fp, #-8]
  103a98:	e3530000 	cmp	r3, #0
  103a9c:	1a00000a 	bne	103acc <alt_dma_memory_to_register+0x274>
  103aa0:	e51b1028 	ldr	r1, [fp, #-40]	; 0xffffffd8
  103aa4:	e51b202c 	ldr	r2, [fp, #-44]	; 0xffffffd4
  103aa8:	e51b3010 	ldr	r3, [fp, #-16]
  103aac:	e1a03332 	lsr	r3, r2, r3
  103ab0:	e55b002d 	ldrb	r0, [fp, #-45]	; 0xffffffd3
  103ab4:	e58d3000 	str	r3, [sp]
  103ab8:	e1a03001 	mov	r3, r1
  103abc:	e51b200c 	ldr	r2, [fp, #-12]
  103ac0:	e51b1034 	ldr	r1, [fp, #-52]	; 0xffffffcc
  103ac4:	ebfffe9e 	bl	103544 <alt_dma_memory_to_register_segment>
  103ac8:	e50b0008 	str	r0, [fp, #-8]
  103acc:	e51b3014 	ldr	r3, [fp, #-20]	; 0xffffffec
  103ad0:	e3530000 	cmp	r3, #0
  103ad4:	1affffda 	bne	103a44 <alt_dma_memory_to_register+0x1ec>
  103ad8:	ea000000 	b	103ae0 <alt_dma_memory_to_register+0x288>
  103adc:	e1a00000 	nop			; (mov r0, r0)
  103ae0:	e51b3008 	ldr	r3, [fp, #-8]
  103ae4:	e3530000 	cmp	r3, #0
  103ae8:	1a000003 	bne	103afc <alt_dma_memory_to_register+0x2a4>
  103aec:	e24b3024 	sub	r3, fp, #36	; 0x24
  103af0:	e1a00003 	mov	r0, r3
  103af4:	ebfffabb 	bl	1025e8 <alt_mmu_va_to_pa_coalesce_end>
  103af8:	e50b0008 	str	r0, [fp, #-8]
  103afc:	e5db300c 	ldrb	r3, [fp, #12]
  103b00:	e3530000 	cmp	r3, #0
  103b04:	0a000007 	beq	103b28 <alt_dma_memory_to_register+0x2d0>
  103b08:	e51b3008 	ldr	r3, [fp, #-8]
  103b0c:	e3530000 	cmp	r3, #0
  103b10:	1a000004 	bne	103b28 <alt_dma_memory_to_register+0x2d0>
  103b14:	e5db3010 	ldrb	r3, [fp, #16]
  103b18:	e1a01003 	mov	r1, r3
  103b1c:	e51b0034 	ldr	r0, [fp, #-52]	; 0xffffffcc
  103b20:	eb001567 	bl	1090c4 <alt_dma_program_DMASEV>
  103b24:	e50b0008 	str	r0, [fp, #-8]
  103b28:	e51b3008 	ldr	r3, [fp, #-8]
  103b2c:	e3530000 	cmp	r3, #0
  103b30:	1a000002 	bne	103b40 <alt_dma_memory_to_register+0x2e8>
  103b34:	e51b0034 	ldr	r0, [fp, #-52]	; 0xffffffcc
  103b38:	eb001219 	bl	1083a4 <alt_dma_program_DMAEND>
  103b3c:	e50b0008 	str	r0, [fp, #-8]
  103b40:	e51b3008 	ldr	r3, [fp, #-8]
  103b44:	e3530000 	cmp	r3, #0
  103b48:	0a000003 	beq	103b5c <alt_dma_memory_to_register+0x304>
  103b4c:	e51b0034 	ldr	r0, [fp, #-52]	; 0xffffffcc
  103b50:	eb0010bc 	bl	107e48 <alt_dma_program_clear>
  103b54:	e51b3008 	ldr	r3, [fp, #-8]
  103b58:	ea000004 	b	103b70 <alt_dma_memory_to_register+0x318>
  103b5c:	e55b302d 	ldrb	r3, [fp, #-45]	; 0xffffffd3
  103b60:	e51b1034 	ldr	r1, [fp, #-52]	; 0xffffffcc
  103b64:	e1a00003 	mov	r0, r3
  103b68:	ebfff81d 	bl	101be4 <alt_dma_channel_exec>
  103b6c:	e1a03000 	mov	r3, r0
  103b70:	e1a00003 	mov	r0, r3
  103b74:	e24bd004 	sub	sp, fp, #4
  103b78:	e8bd8800 	pop	{fp, pc}

00103b7c <alt_dma_register_to_memory_segment>:
  103b7c:	e92d4800 	push	{fp, lr}
  103b80:	e28db004 	add	fp, sp, #4
  103b84:	e24dd028 	sub	sp, sp, #40	; 0x28
  103b88:	e50b1024 	str	r1, [fp, #-36]	; 0xffffffdc
  103b8c:	e50b2028 	str	r2, [fp, #-40]	; 0xffffffd8
  103b90:	e50b302c 	str	r3, [fp, #-44]	; 0xffffffd4
  103b94:	e1a03000 	mov	r3, r0
  103b98:	e54b301d 	strb	r3, [fp, #-29]	; 0xffffffe3
  103b9c:	e3a03000 	mov	r3, #0
  103ba0:	e50b3008 	str	r3, [fp, #-8]
  103ba4:	e51b3008 	ldr	r3, [fp, #-8]
  103ba8:	e3530000 	cmp	r3, #0
  103bac:	1a000004 	bne	103bc4 <alt_dma_register_to_memory_segment+0x48>
  103bb0:	e51b202c 	ldr	r2, [fp, #-44]	; 0xffffffd4
  103bb4:	e3a01002 	mov	r1, #2
  103bb8:	e51b0024 	ldr	r0, [fp, #-36]	; 0xffffffdc
  103bbc:	eb001482 	bl	108dcc <alt_dma_program_DMAMOV>
  103bc0:	e50b0008 	str	r0, [fp, #-8]
  103bc4:	e59b3004 	ldr	r3, [fp, #4]
  103bc8:	e50b300c 	str	r3, [fp, #-12]
  103bcc:	e51b300c 	ldr	r3, [fp, #-12]
  103bd0:	e1a03223 	lsr	r3, r3, #4
  103bd4:	e3530000 	cmp	r3, #0
  103bd8:	0a000085 	beq	103df4 <alt_dma_register_to_memory_segment+0x278>
  103bdc:	e51b300c 	ldr	r3, [fp, #-12]
  103be0:	e1a03223 	lsr	r3, r3, #4
  103be4:	e50b3010 	str	r3, [fp, #-16]
  103be8:	e51b300c 	ldr	r3, [fp, #-12]
  103bec:	e203300f 	and	r3, r3, #15
  103bf0:	e50b300c 	str	r3, [fp, #-12]
  103bf4:	e51b3008 	ldr	r3, [fp, #-8]
  103bf8:	e3530000 	cmp	r3, #0
  103bfc:	1a000007 	bne	103c20 <alt_dma_register_to_memory_segment+0xa4>
  103c00:	e51b3028 	ldr	r3, [fp, #-40]	; 0xffffffd8
  103c04:	e38339f1 	orr	r3, r3, #3948544	; 0x3c4000
  103c08:	e38330f0 	orr	r3, r3, #240	; 0xf0
  103c0c:	e1a02003 	mov	r2, r3
  103c10:	e3a01001 	mov	r1, #1
  103c14:	e51b0024 	ldr	r0, [fp, #-36]	; 0xffffffdc
  103c18:	eb00146b 	bl	108dcc <alt_dma_program_DMAMOV>
  103c1c:	e50b0008 	str	r0, [fp, #-8]
  103c20:	e51b3010 	ldr	r3, [fp, #-16]
  103c24:	e1a03423 	lsr	r3, r3, #8
  103c28:	e3530000 	cmp	r3, #0
  103c2c:	0a000047 	beq	103d50 <alt_dma_register_to_memory_segment+0x1d4>
  103c30:	e51b3010 	ldr	r3, [fp, #-16]
  103c34:	e1a03423 	lsr	r3, r3, #8
  103c38:	e50b3014 	str	r3, [fp, #-20]	; 0xffffffec
  103c3c:	e51b3010 	ldr	r3, [fp, #-16]
  103c40:	e6ef3073 	uxtb	r3, r3
  103c44:	e50b3010 	str	r3, [fp, #-16]
  103c48:	ea00003b 	b	103d3c <alt_dma_register_to_memory_segment+0x1c0>
  103c4c:	e51b3008 	ldr	r3, [fp, #-8]
  103c50:	e3530000 	cmp	r3, #0
  103c54:	1a00003c 	bne	103d4c <alt_dma_register_to_memory_segment+0x1d0>
  103c58:	e51b3014 	ldr	r3, [fp, #-20]	; 0xffffffec
  103c5c:	e3530c01 	cmp	r3, #256	; 0x100
  103c60:	31a03003 	movcc	r3, r3
  103c64:	23a03c01 	movcs	r3, #256	; 0x100
  103c68:	e50b3018 	str	r3, [fp, #-24]	; 0xffffffe8
  103c6c:	e51b2014 	ldr	r2, [fp, #-20]	; 0xffffffec
  103c70:	e51b3018 	ldr	r3, [fp, #-24]	; 0xffffffe8
  103c74:	e0633002 	rsb	r3, r3, r2
  103c78:	e50b3014 	str	r3, [fp, #-20]	; 0xffffffec
  103c7c:	e51b3008 	ldr	r3, [fp, #-8]
  103c80:	e3530000 	cmp	r3, #0
  103c84:	1a000006 	bne	103ca4 <alt_dma_register_to_memory_segment+0x128>
  103c88:	e51b3018 	ldr	r3, [fp, #-24]	; 0xffffffe8
  103c8c:	e3530001 	cmp	r3, #1
  103c90:	9a000003 	bls	103ca4 <alt_dma_register_to_memory_segment+0x128>
  103c94:	e51b1018 	ldr	r1, [fp, #-24]	; 0xffffffe8
  103c98:	e51b0024 	ldr	r0, [fp, #-36]	; 0xffffffdc
  103c9c:	eb00131b 	bl	108910 <alt_dma_program_DMALP>
  103ca0:	e50b0008 	str	r0, [fp, #-8]
  103ca4:	e51b3008 	ldr	r3, [fp, #-8]
  103ca8:	e3530000 	cmp	r3, #0
  103cac:	1a000003 	bne	103cc0 <alt_dma_register_to_memory_segment+0x144>
  103cb0:	e3a01c01 	mov	r1, #256	; 0x100
  103cb4:	e51b0024 	ldr	r0, [fp, #-36]	; 0xffffffdc
  103cb8:	eb001314 	bl	108910 <alt_dma_program_DMALP>
  103cbc:	e50b0008 	str	r0, [fp, #-8]
  103cc0:	e51b3008 	ldr	r3, [fp, #-8]
  103cc4:	e3530000 	cmp	r3, #0
  103cc8:	1a000003 	bne	103cdc <alt_dma_register_to_memory_segment+0x160>
  103ccc:	e3a01000 	mov	r1, #0
  103cd0:	e51b0024 	ldr	r0, [fp, #-36]	; 0xffffffdc
  103cd4:	eb00128e 	bl	108714 <alt_dma_program_DMALD>
  103cd8:	e50b0008 	str	r0, [fp, #-8]
  103cdc:	e51b3008 	ldr	r3, [fp, #-8]
  103ce0:	e3530000 	cmp	r3, #0
  103ce4:	1a000003 	bne	103cf8 <alt_dma_register_to_memory_segment+0x17c>
  103ce8:	e3a01000 	mov	r1, #0
  103cec:	e51b0024 	ldr	r0, [fp, #-36]	; 0xffffffdc
  103cf0:	eb001525 	bl	10918c <alt_dma_program_DMAST>
  103cf4:	e50b0008 	str	r0, [fp, #-8]
  103cf8:	e51b3008 	ldr	r3, [fp, #-8]
  103cfc:	e3530000 	cmp	r3, #0
  103d00:	1a000003 	bne	103d14 <alt_dma_register_to_memory_segment+0x198>
  103d04:	e3a01000 	mov	r1, #0
  103d08:	e51b0024 	ldr	r0, [fp, #-36]	; 0xffffffdc
  103d0c:	eb00135f 	bl	108a90 <alt_dma_program_DMALPEND>
  103d10:	e50b0008 	str	r0, [fp, #-8]
  103d14:	e51b3008 	ldr	r3, [fp, #-8]
  103d18:	e3530000 	cmp	r3, #0
  103d1c:	1a000006 	bne	103d3c <alt_dma_register_to_memory_segment+0x1c0>
  103d20:	e51b3018 	ldr	r3, [fp, #-24]	; 0xffffffe8
  103d24:	e3530001 	cmp	r3, #1
  103d28:	9a000003 	bls	103d3c <alt_dma_register_to_memory_segment+0x1c0>
  103d2c:	e3a01000 	mov	r1, #0
  103d30:	e51b0024 	ldr	r0, [fp, #-36]	; 0xffffffdc
  103d34:	eb001355 	bl	108a90 <alt_dma_program_DMALPEND>
  103d38:	e50b0008 	str	r0, [fp, #-8]
  103d3c:	e51b3014 	ldr	r3, [fp, #-20]	; 0xffffffec
  103d40:	e3530000 	cmp	r3, #0
  103d44:	1affffc0 	bne	103c4c <alt_dma_register_to_memory_segment+0xd0>
  103d48:	ea000000 	b	103d50 <alt_dma_register_to_memory_segment+0x1d4>
  103d4c:	e1a00000 	nop			; (mov r0, r0)
  103d50:	e51b3010 	ldr	r3, [fp, #-16]
  103d54:	e3530000 	cmp	r3, #0
  103d58:	0a000025 	beq	103df4 <alt_dma_register_to_memory_segment+0x278>
  103d5c:	e51b3010 	ldr	r3, [fp, #-16]
  103d60:	e50b301c 	str	r3, [fp, #-28]	; 0xffffffe4
  103d64:	e3a03000 	mov	r3, #0
  103d68:	e50b3010 	str	r3, [fp, #-16]
  103d6c:	e51b3008 	ldr	r3, [fp, #-8]
  103d70:	e3530000 	cmp	r3, #0
  103d74:	1a000006 	bne	103d94 <alt_dma_register_to_memory_segment+0x218>
  103d78:	e51b301c 	ldr	r3, [fp, #-28]	; 0xffffffe4
  103d7c:	e3530001 	cmp	r3, #1
  103d80:	9a000003 	bls	103d94 <alt_dma_register_to_memory_segment+0x218>
  103d84:	e51b101c 	ldr	r1, [fp, #-28]	; 0xffffffe4
  103d88:	e51b0024 	ldr	r0, [fp, #-36]	; 0xffffffdc
  103d8c:	eb0012df 	bl	108910 <alt_dma_program_DMALP>
  103d90:	e50b0008 	str	r0, [fp, #-8]
  103d94:	e51b3008 	ldr	r3, [fp, #-8]
  103d98:	e3530000 	cmp	r3, #0
  103d9c:	1a000003 	bne	103db0 <alt_dma_register_to_memory_segment+0x234>
  103da0:	e3a01000 	mov	r1, #0
  103da4:	e51b0024 	ldr	r0, [fp, #-36]	; 0xffffffdc
  103da8:	eb001259 	bl	108714 <alt_dma_program_DMALD>
  103dac:	e50b0008 	str	r0, [fp, #-8]
  103db0:	e51b3008 	ldr	r3, [fp, #-8]
  103db4:	e3530000 	cmp	r3, #0
  103db8:	1a000003 	bne	103dcc <alt_dma_register_to_memory_segment+0x250>
  103dbc:	e3a01000 	mov	r1, #0
  103dc0:	e51b0024 	ldr	r0, [fp, #-36]	; 0xffffffdc
  103dc4:	eb0014f0 	bl	10918c <alt_dma_program_DMAST>
  103dc8:	e50b0008 	str	r0, [fp, #-8]
  103dcc:	e51b3008 	ldr	r3, [fp, #-8]
  103dd0:	e3530000 	cmp	r3, #0
  103dd4:	1a000006 	bne	103df4 <alt_dma_register_to_memory_segment+0x278>
  103dd8:	e51b301c 	ldr	r3, [fp, #-28]	; 0xffffffe4
  103ddc:	e3530001 	cmp	r3, #1
  103de0:	9a000003 	bls	103df4 <alt_dma_register_to_memory_segment+0x278>
  103de4:	e3a01000 	mov	r1, #0
  103de8:	e51b0024 	ldr	r0, [fp, #-36]	; 0xffffffdc
  103dec:	eb001327 	bl	108a90 <alt_dma_program_DMALPEND>
  103df0:	e50b0008 	str	r0, [fp, #-8]
  103df4:	e51b300c 	ldr	r3, [fp, #-12]
  103df8:	e3530000 	cmp	r3, #0
  103dfc:	0a00001f 	beq	103e80 <alt_dma_register_to_memory_segment+0x304>
  103e00:	e51b3008 	ldr	r3, [fp, #-8]
  103e04:	e3530000 	cmp	r3, #0
  103e08:	1a00000e 	bne	103e48 <alt_dma_register_to_memory_segment+0x2cc>
  103e0c:	e51b300c 	ldr	r3, [fp, #-12]
  103e10:	e2433001 	sub	r3, r3, #1
  103e14:	e1a02203 	lsl	r2, r3, #4
  103e18:	e51b3028 	ldr	r3, [fp, #-40]	; 0xffffffd8
  103e1c:	e1822003 	orr	r2, r2, r3
  103e20:	e51b300c 	ldr	r3, [fp, #-12]
  103e24:	e2433001 	sub	r3, r3, #1
  103e28:	e1a03903 	lsl	r3, r3, #18
  103e2c:	e1823003 	orr	r3, r2, r3
  103e30:	e3833901 	orr	r3, r3, #16384	; 0x4000
  103e34:	e1a02003 	mov	r2, r3
  103e38:	e3a01001 	mov	r1, #1
  103e3c:	e51b0024 	ldr	r0, [fp, #-36]	; 0xffffffdc
  103e40:	eb0013e1 	bl	108dcc <alt_dma_program_DMAMOV>
  103e44:	e50b0008 	str	r0, [fp, #-8]
  103e48:	e51b3008 	ldr	r3, [fp, #-8]
  103e4c:	e3530000 	cmp	r3, #0
  103e50:	1a000003 	bne	103e64 <alt_dma_register_to_memory_segment+0x2e8>
  103e54:	e3a01000 	mov	r1, #0
  103e58:	e51b0024 	ldr	r0, [fp, #-36]	; 0xffffffdc
  103e5c:	eb00122c 	bl	108714 <alt_dma_program_DMALD>
  103e60:	e50b0008 	str	r0, [fp, #-8]
  103e64:	e51b3008 	ldr	r3, [fp, #-8]
  103e68:	e3530000 	cmp	r3, #0
  103e6c:	1a000003 	bne	103e80 <alt_dma_register_to_memory_segment+0x304>
  103e70:	e3a01000 	mov	r1, #0
  103e74:	e51b0024 	ldr	r0, [fp, #-36]	; 0xffffffdc
  103e78:	eb0014c3 	bl	10918c <alt_dma_program_DMAST>
  103e7c:	e50b0008 	str	r0, [fp, #-8]
  103e80:	e51b3008 	ldr	r3, [fp, #-8]
  103e84:	e1a00003 	mov	r0, r3
  103e88:	e24bd004 	sub	sp, fp, #4
  103e8c:	e8bd8800 	pop	{fp, pc}

00103e90 <alt_dma_register_to_memory>:
  103e90:	e92d4800 	push	{fp, lr}
  103e94:	e28db004 	add	fp, sp, #4
  103e98:	e24dd040 	sub	sp, sp, #64	; 0x40
  103e9c:	e50b1034 	str	r1, [fp, #-52]	; 0xffffffcc
  103ea0:	e50b2038 	str	r2, [fp, #-56]	; 0xffffffc8
  103ea4:	e50b303c 	str	r3, [fp, #-60]	; 0xffffffc4
  103ea8:	e1a03000 	mov	r3, r0
  103eac:	e54b302d 	strb	r3, [fp, #-45]	; 0xffffffd3
  103eb0:	e59b3004 	ldr	r3, [fp, #4]
  103eb4:	e3530000 	cmp	r3, #0
  103eb8:	1a000006 	bne	103ed8 <alt_dma_register_to_memory+0x48>
  103ebc:	e5db300c 	ldrb	r3, [fp, #12]
  103ec0:	e2233001 	eor	r3, r3, #1
  103ec4:	e6ef3073 	uxtb	r3, r3
  103ec8:	e3530000 	cmp	r3, #0
  103ecc:	0a000001 	beq	103ed8 <alt_dma_register_to_memory+0x48>
  103ed0:	e3a03000 	mov	r3, #0
  103ed4:	ea0000b3 	b	1041a8 <alt_dma_register_to_memory+0x318>
  103ed8:	e3a03000 	mov	r3, #0
  103edc:	e50b3008 	str	r3, [fp, #-8]
  103ee0:	e51b3008 	ldr	r3, [fp, #-8]
  103ee4:	e3530000 	cmp	r3, #0
  103ee8:	1a000002 	bne	103ef8 <alt_dma_register_to_memory+0x68>
  103eec:	e51b0034 	ldr	r0, [fp, #-52]	; 0xffffffcc
  103ef0:	eb000faf 	bl	107db4 <alt_dma_program_init>
  103ef4:	e50b0008 	str	r0, [fp, #-8]
  103ef8:	e59b3004 	ldr	r3, [fp, #4]
  103efc:	e3530000 	cmp	r3, #0
  103f00:	0a00008b 	beq	104134 <alt_dma_register_to_memory+0x2a4>
  103f04:	e3a03000 	mov	r3, #0
  103f08:	e50b300c 	str	r3, [fp, #-12]
  103f0c:	e3a03000 	mov	r3, #0
  103f10:	e50b3010 	str	r3, [fp, #-16]
  103f14:	e51b3008 	ldr	r3, [fp, #-8]
  103f18:	e3530000 	cmp	r3, #0
  103f1c:	1a000025 	bne	103fb8 <alt_dma_register_to_memory+0x128>
  103f20:	e59b3008 	ldr	r3, [fp, #8]
  103f24:	e3530010 	cmp	r3, #16
  103f28:	0a00000e 	beq	103f68 <alt_dma_register_to_memory+0xd8>
  103f2c:	e3530010 	cmp	r3, #16
  103f30:	8a000002 	bhi	103f40 <alt_dma_register_to_memory+0xb0>
  103f34:	e3530008 	cmp	r3, #8
  103f38:	0a000005 	beq	103f54 <alt_dma_register_to_memory+0xc4>
  103f3c:	ea00001a 	b	103fac <alt_dma_register_to_memory+0x11c>
  103f40:	e3530020 	cmp	r3, #32
  103f44:	0a00000c 	beq	103f7c <alt_dma_register_to_memory+0xec>
  103f48:	e3530040 	cmp	r3, #64	; 0x40
  103f4c:	0a000010 	beq	103f94 <alt_dma_register_to_memory+0x104>
  103f50:	ea000015 	b	103fac <alt_dma_register_to_memory+0x11c>
  103f54:	e3a03000 	mov	r3, #0
  103f58:	e50b300c 	str	r3, [fp, #-12]
  103f5c:	e3a03000 	mov	r3, #0
  103f60:	e50b3010 	str	r3, [fp, #-16]
  103f64:	ea000013 	b	103fb8 <alt_dma_register_to_memory+0x128>
  103f68:	e3083002 	movw	r3, #32770	; 0x8002
  103f6c:	e50b300c 	str	r3, [fp, #-12]
  103f70:	e3a03001 	mov	r3, #1
  103f74:	e50b3010 	str	r3, [fp, #-16]
  103f78:	ea00000e 	b	103fb8 <alt_dma_register_to_memory+0x128>
  103f7c:	e3a03004 	mov	r3, #4
  103f80:	e3403001 	movt	r3, #1
  103f84:	e50b300c 	str	r3, [fp, #-12]
  103f88:	e3a03002 	mov	r3, #2
  103f8c:	e50b3010 	str	r3, [fp, #-16]
  103f90:	ea000008 	b	103fb8 <alt_dma_register_to_memory+0x128>
  103f94:	e3083006 	movw	r3, #32774	; 0x8006
  103f98:	e3403001 	movt	r3, #1
  103f9c:	e50b300c 	str	r3, [fp, #-12]
  103fa0:	e3a03003 	mov	r3, #3
  103fa4:	e50b3010 	str	r3, [fp, #-16]
  103fa8:	ea000002 	b	103fb8 <alt_dma_register_to_memory+0x128>
  103fac:	e3e03008 	mvn	r3, #8
  103fb0:	e50b3008 	str	r3, [fp, #-8]
  103fb4:	e1a00000 	nop			; (mov r0, r0)
  103fb8:	e51b3008 	ldr	r3, [fp, #-8]
  103fbc:	e3530000 	cmp	r3, #0
  103fc0:	1a000016 	bne	104020 <alt_dma_register_to_memory+0x190>
  103fc4:	e3a02001 	mov	r2, #1
  103fc8:	e51b3010 	ldr	r3, [fp, #-16]
  103fcc:	e1a03312 	lsl	r3, r2, r3
  103fd0:	e2433001 	sub	r3, r3, #1
  103fd4:	e1a02003 	mov	r2, r3
  103fd8:	e51b3038 	ldr	r3, [fp, #-56]	; 0xffffffc8
  103fdc:	e0033002 	and	r3, r3, r2
  103fe0:	e3530000 	cmp	r3, #0
  103fe4:	0a000002 	beq	103ff4 <alt_dma_register_to_memory+0x164>
  103fe8:	e3e03008 	mvn	r3, #8
  103fec:	e50b3008 	str	r3, [fp, #-8]
  103ff0:	ea00000a 	b	104020 <alt_dma_register_to_memory+0x190>
  103ff4:	e3a02001 	mov	r2, #1
  103ff8:	e51b3010 	ldr	r3, [fp, #-16]
  103ffc:	e1a03312 	lsl	r3, r2, r3
  104000:	e2433001 	sub	r3, r3, #1
  104004:	e1a02003 	mov	r2, r3
  104008:	e51b303c 	ldr	r3, [fp, #-60]	; 0xffffffc4
  10400c:	e0033002 	and	r3, r3, r2
  104010:	e3530000 	cmp	r3, #0
  104014:	0a000001 	beq	104020 <alt_dma_register_to_memory+0x190>
  104018:	e3e03008 	mvn	r3, #8
  10401c:	e50b3008 	str	r3, [fp, #-8]
  104020:	e51b3008 	ldr	r3, [fp, #-8]
  104024:	e3530000 	cmp	r3, #0
  104028:	1a000005 	bne	104044 <alt_dma_register_to_memory+0x1b4>
  10402c:	e51b303c 	ldr	r3, [fp, #-60]	; 0xffffffc4
  104030:	e1a02003 	mov	r2, r3
  104034:	e3a01000 	mov	r1, #0
  104038:	e51b0034 	ldr	r0, [fp, #-52]	; 0xffffffcc
  10403c:	eb001362 	bl	108dcc <alt_dma_program_DMAMOV>
  104040:	e50b0008 	str	r0, [fp, #-8]
  104044:	e59b2004 	ldr	r2, [fp, #4]
  104048:	e51b3010 	ldr	r3, [fp, #-16]
  10404c:	e1a03312 	lsl	r3, r2, r3
  104050:	e50b3014 	str	r3, [fp, #-20]	; 0xffffffec
  104054:	e51b3008 	ldr	r3, [fp, #-8]
  104058:	e3530000 	cmp	r3, #0
  10405c:	1a000028 	bne	104104 <alt_dma_register_to_memory+0x274>
  104060:	e24b3024 	sub	r3, fp, #36	; 0x24
  104064:	e51b2014 	ldr	r2, [fp, #-20]	; 0xffffffec
  104068:	e51b1038 	ldr	r1, [fp, #-56]	; 0xffffffc8
  10406c:	e1a00003 	mov	r0, r3
  104070:	ebfff8cc 	bl	1023a8 <alt_mmu_va_to_pa_coalesce_begin>
  104074:	e50b0008 	str	r0, [fp, #-8]
  104078:	ea000021 	b	104104 <alt_dma_register_to_memory+0x274>
  10407c:	e51b3008 	ldr	r3, [fp, #-8]
  104080:	e3530000 	cmp	r3, #0
  104084:	1a000022 	bne	104114 <alt_dma_register_to_memory+0x284>
  104088:	e3a03000 	mov	r3, #0
  10408c:	e50b3028 	str	r3, [fp, #-40]	; 0xffffffd8
  104090:	e3a03000 	mov	r3, #0
  104094:	e50b302c 	str	r3, [fp, #-44]	; 0xffffffd4
  104098:	e51b3008 	ldr	r3, [fp, #-8]
  10409c:	e3530000 	cmp	r3, #0
  1040a0:	1a000005 	bne	1040bc <alt_dma_register_to_memory+0x22c>
  1040a4:	e24b202c 	sub	r2, fp, #44	; 0x2c
  1040a8:	e24b1028 	sub	r1, fp, #40	; 0x28
  1040ac:	e24b3024 	sub	r3, fp, #36	; 0x24
  1040b0:	e1a00003 	mov	r0, r3
  1040b4:	ebfff8ea 	bl	102464 <alt_mmu_va_to_pa_coalesce_next>
  1040b8:	e50b0008 	str	r0, [fp, #-8]
  1040bc:	e51b302c 	ldr	r3, [fp, #-44]	; 0xffffffd4
  1040c0:	e51b2014 	ldr	r2, [fp, #-20]	; 0xffffffec
  1040c4:	e0633002 	rsb	r3, r3, r2
  1040c8:	e50b3014 	str	r3, [fp, #-20]	; 0xffffffec
  1040cc:	e51b3008 	ldr	r3, [fp, #-8]
  1040d0:	e3530000 	cmp	r3, #0
  1040d4:	1a00000a 	bne	104104 <alt_dma_register_to_memory+0x274>
  1040d8:	e51b1028 	ldr	r1, [fp, #-40]	; 0xffffffd8
  1040dc:	e51b202c 	ldr	r2, [fp, #-44]	; 0xffffffd4
  1040e0:	e51b3010 	ldr	r3, [fp, #-16]
  1040e4:	e1a03332 	lsr	r3, r2, r3
  1040e8:	e55b002d 	ldrb	r0, [fp, #-45]	; 0xffffffd3
  1040ec:	e58d3000 	str	r3, [sp]
  1040f0:	e1a03001 	mov	r3, r1
  1040f4:	e51b200c 	ldr	r2, [fp, #-12]
  1040f8:	e51b1034 	ldr	r1, [fp, #-52]	; 0xffffffcc
  1040fc:	ebfffe9e 	bl	103b7c <alt_dma_register_to_memory_segment>
  104100:	e50b0008 	str	r0, [fp, #-8]
  104104:	e51b3014 	ldr	r3, [fp, #-20]	; 0xffffffec
  104108:	e3530000 	cmp	r3, #0
  10410c:	1affffda 	bne	10407c <alt_dma_register_to_memory+0x1ec>
  104110:	ea000000 	b	104118 <alt_dma_register_to_memory+0x288>
  104114:	e1a00000 	nop			; (mov r0, r0)
  104118:	e51b3008 	ldr	r3, [fp, #-8]
  10411c:	e3530000 	cmp	r3, #0
  104120:	1a000003 	bne	104134 <alt_dma_register_to_memory+0x2a4>
  104124:	e24b3024 	sub	r3, fp, #36	; 0x24
  104128:	e1a00003 	mov	r0, r3
  10412c:	ebfff92d 	bl	1025e8 <alt_mmu_va_to_pa_coalesce_end>
  104130:	e50b0008 	str	r0, [fp, #-8]
  104134:	e5db300c 	ldrb	r3, [fp, #12]
  104138:	e3530000 	cmp	r3, #0
  10413c:	0a000007 	beq	104160 <alt_dma_register_to_memory+0x2d0>
  104140:	e51b3008 	ldr	r3, [fp, #-8]
  104144:	e3530000 	cmp	r3, #0
  104148:	1a000004 	bne	104160 <alt_dma_register_to_memory+0x2d0>
  10414c:	e5db3010 	ldrb	r3, [fp, #16]
  104150:	e1a01003 	mov	r1, r3
  104154:	e51b0034 	ldr	r0, [fp, #-52]	; 0xffffffcc
  104158:	eb0013d9 	bl	1090c4 <alt_dma_program_DMASEV>
  10415c:	e50b0008 	str	r0, [fp, #-8]
  104160:	e51b3008 	ldr	r3, [fp, #-8]
  104164:	e3530000 	cmp	r3, #0
  104168:	1a000002 	bne	104178 <alt_dma_register_to_memory+0x2e8>
  10416c:	e51b0034 	ldr	r0, [fp, #-52]	; 0xffffffcc
  104170:	eb00108b 	bl	1083a4 <alt_dma_program_DMAEND>
  104174:	e50b0008 	str	r0, [fp, #-8]
  104178:	e51b3008 	ldr	r3, [fp, #-8]
  10417c:	e3530000 	cmp	r3, #0
  104180:	0a000003 	beq	104194 <alt_dma_register_to_memory+0x304>
  104184:	e51b0034 	ldr	r0, [fp, #-52]	; 0xffffffcc
  104188:	eb000f2e 	bl	107e48 <alt_dma_program_clear>
  10418c:	e51b3008 	ldr	r3, [fp, #-8]
  104190:	ea000004 	b	1041a8 <alt_dma_register_to_memory+0x318>
  104194:	e55b302d 	ldrb	r3, [fp, #-45]	; 0xffffffd3
  104198:	e51b1034 	ldr	r1, [fp, #-52]	; 0xffffffcc
  10419c:	e1a00003 	mov	r0, r3
  1041a0:	ebfff68f 	bl	101be4 <alt_dma_channel_exec>
  1041a4:	e1a03000 	mov	r3, r0
  1041a8:	e1a00003 	mov	r0, r3
  1041ac:	e24bd004 	sub	sp, fp, #4
  1041b0:	e8bd8800 	pop	{fp, pc}

001041b4 <alt_i2c_op_mode_get>:
  1041b4:	e52db004 	push	{fp}		; (str fp, [sp, #-4]!)
  1041b8:	e28db000 	add	fp, sp, #0
  1041bc:	e24dd014 	sub	sp, sp, #20
  1041c0:	e50b0010 	str	r0, [fp, #-16]
  1041c4:	e50b1014 	str	r1, [fp, #-20]	; 0xffffffec
  1041c8:	e51b3010 	ldr	r3, [fp, #-16]
  1041cc:	e5933000 	ldr	r3, [r3]
  1041d0:	e5933000 	ldr	r3, [r3]
  1041d4:	e50b3008 	str	r3, [fp, #-8]
  1041d8:	e51b3008 	ldr	r3, [fp, #-8]
  1041dc:	e2033001 	and	r3, r3, #1
  1041e0:	e50b300c 	str	r3, [fp, #-12]
  1041e4:	e51b300c 	ldr	r3, [fp, #-12]
  1041e8:	e6ef2073 	uxtb	r2, r3
  1041ec:	e51b3014 	ldr	r3, [fp, #-20]	; 0xffffffec
  1041f0:	e5c32000 	strb	r2, [r3]
  1041f4:	e3a03000 	mov	r3, #0
  1041f8:	e1a00003 	mov	r0, r3
  1041fc:	e24bd000 	sub	sp, fp, #0
  104200:	e49db004 	pop	{fp}		; (ldr fp, [sp], #4)
  104204:	e12fff1e 	bx	lr

00104208 <alt_dma_memory_to_i2c_master_custom>:
  104208:	e92d4800 	push	{fp, lr}
  10420c:	e28db004 	add	fp, sp, #4
  104210:	e24dd018 	sub	sp, sp, #24
  104214:	e50b0010 	str	r0, [fp, #-16]
  104218:	e50b2018 	str	r2, [fp, #-24]	; 0xffffffe8
  10421c:	e50b301c 	str	r3, [fp, #-28]	; 0xffffffe4
  104220:	e1a03001 	mov	r3, r1
  104224:	e54b3011 	strb	r3, [fp, #-17]	; 0xffffffef
  104228:	e3a03000 	mov	r3, #0
  10422c:	e50b3008 	str	r3, [fp, #-8]
  104230:	e51b3008 	ldr	r3, [fp, #-8]
  104234:	e3530000 	cmp	r3, #0
  104238:	1a00000a 	bne	104268 <alt_dma_memory_to_i2c_master_custom+0x60>
  10423c:	e5db3008 	ldrb	r3, [fp, #8]
  104240:	e3530000 	cmp	r3, #0
  104244:	0a000007 	beq	104268 <alt_dma_memory_to_i2c_master_custom+0x60>
  104248:	e51b3018 	ldr	r3, [fp, #-24]	; 0xffffffe8
  10424c:	e5933000 	ldr	r3, [r3]
  104250:	e2833010 	add	r3, r3, #16
  104254:	e1a02003 	mov	r2, r3
  104258:	e3a01002 	mov	r1, #2
  10425c:	e51b0010 	ldr	r0, [fp, #-16]
  104260:	eb0012d9 	bl	108dcc <alt_dma_program_DMAMOV>
  104264:	e50b0008 	str	r0, [fp, #-8]
  104268:	e51b3008 	ldr	r3, [fp, #-8]
  10426c:	e3530000 	cmp	r3, #0
  104270:	1a000004 	bne	104288 <alt_dma_memory_to_i2c_master_custom+0x80>
  104274:	e51b201c 	ldr	r2, [fp, #-28]	; 0xffffffe4
  104278:	e3a01000 	mov	r1, #0
  10427c:	e51b0010 	ldr	r0, [fp, #-16]
  104280:	eb0012d1 	bl	108dcc <alt_dma_program_DMAMOV>
  104284:	e50b0008 	str	r0, [fp, #-8]
  104288:	e51b3008 	ldr	r3, [fp, #-8]
  10428c:	e3530000 	cmp	r3, #0
  104290:	1a000048 	bne	1043b8 <alt_dma_memory_to_i2c_master_custom+0x1b0>
  104294:	e5db3008 	ldrb	r3, [fp, #8]
  104298:	e3530000 	cmp	r3, #0
  10429c:	0a000045 	beq	1043b8 <alt_dma_memory_to_i2c_master_custom+0x1b0>
  1042a0:	e3a02004 	mov	r2, #4
  1042a4:	e3402001 	movt	r2, #1
  1042a8:	e3a01001 	mov	r1, #1
  1042ac:	e51b0010 	ldr	r0, [fp, #-16]
  1042b0:	eb0012c5 	bl	108dcc <alt_dma_program_DMAMOV>
  1042b4:	e50b0008 	str	r0, [fp, #-8]
  1042b8:	ea00003e 	b	1043b8 <alt_dma_memory_to_i2c_master_custom+0x1b0>
  1042bc:	e51b3008 	ldr	r3, [fp, #-8]
  1042c0:	e3530000 	cmp	r3, #0
  1042c4:	1a00003f 	bne	1043c8 <alt_dma_memory_to_i2c_master_custom+0x1c0>
  1042c8:	e59b3004 	ldr	r3, [fp, #4]
  1042cc:	e3530c01 	cmp	r3, #256	; 0x100
  1042d0:	31a03003 	movcc	r3, r3
  1042d4:	23a03c01 	movcs	r3, #256	; 0x100
  1042d8:	e50b300c 	str	r3, [fp, #-12]
  1042dc:	e59b2004 	ldr	r2, [fp, #4]
  1042e0:	e51b300c 	ldr	r3, [fp, #-12]
  1042e4:	e0633002 	rsb	r3, r3, r2
  1042e8:	e58b3004 	str	r3, [fp, #4]
  1042ec:	e51b3008 	ldr	r3, [fp, #-8]
  1042f0:	e3530000 	cmp	r3, #0
  1042f4:	1a000006 	bne	104314 <alt_dma_memory_to_i2c_master_custom+0x10c>
  1042f8:	e51b300c 	ldr	r3, [fp, #-12]
  1042fc:	e3530001 	cmp	r3, #1
  104300:	9a000003 	bls	104314 <alt_dma_memory_to_i2c_master_custom+0x10c>
  104304:	e51b100c 	ldr	r1, [fp, #-12]
  104308:	e51b0010 	ldr	r0, [fp, #-16]
  10430c:	eb00117f 	bl	108910 <alt_dma_program_DMALP>
  104310:	e50b0008 	str	r0, [fp, #-8]
  104314:	e51b3008 	ldr	r3, [fp, #-8]
  104318:	e3530000 	cmp	r3, #0
  10431c:	1a000004 	bne	104334 <alt_dma_memory_to_i2c_master_custom+0x12c>
  104320:	e55b3011 	ldrb	r3, [fp, #-17]	; 0xffffffef
  104324:	e1a01003 	mov	r1, r3
  104328:	e51b0010 	ldr	r0, [fp, #-16]
  10432c:	eb001044 	bl	108444 <alt_dma_program_DMAFLUSHP>
  104330:	e50b0008 	str	r0, [fp, #-8]
  104334:	e51b3008 	ldr	r3, [fp, #-8]
  104338:	e3530000 	cmp	r3, #0
  10433c:	1a000005 	bne	104358 <alt_dma_memory_to_i2c_master_custom+0x150>
  104340:	e55b3011 	ldrb	r3, [fp, #-17]	; 0xffffffef
  104344:	e3a02001 	mov	r2, #1
  104348:	e1a01003 	mov	r1, r3
  10434c:	e51b0010 	ldr	r0, [fp, #-16]
  104350:	eb00146e 	bl	109510 <alt_dma_program_DMAWFP>
  104354:	e50b0008 	str	r0, [fp, #-8]
  104358:	e51b3008 	ldr	r3, [fp, #-8]
  10435c:	e3530000 	cmp	r3, #0
  104360:	1a000003 	bne	104374 <alt_dma_memory_to_i2c_master_custom+0x16c>
  104364:	e3a01001 	mov	r1, #1
  104368:	e51b0010 	ldr	r0, [fp, #-16]
  10436c:	eb0010e8 	bl	108714 <alt_dma_program_DMALD>
  104370:	e50b0008 	str	r0, [fp, #-8]
  104374:	e51b3008 	ldr	r3, [fp, #-8]
  104378:	e3530000 	cmp	r3, #0
  10437c:	1a000003 	bne	104390 <alt_dma_memory_to_i2c_master_custom+0x188>
  104380:	e3a01001 	mov	r1, #1
  104384:	e51b0010 	ldr	r0, [fp, #-16]
  104388:	eb00137f 	bl	10918c <alt_dma_program_DMAST>
  10438c:	e50b0008 	str	r0, [fp, #-8]
  104390:	e51b3008 	ldr	r3, [fp, #-8]
  104394:	e3530000 	cmp	r3, #0
  104398:	1a000006 	bne	1043b8 <alt_dma_memory_to_i2c_master_custom+0x1b0>
  10439c:	e51b300c 	ldr	r3, [fp, #-12]
  1043a0:	e3530001 	cmp	r3, #1
  1043a4:	9a000003 	bls	1043b8 <alt_dma_memory_to_i2c_master_custom+0x1b0>
  1043a8:	e3a01000 	mov	r1, #0
  1043ac:	e51b0010 	ldr	r0, [fp, #-16]
  1043b0:	eb0011b6 	bl	108a90 <alt_dma_program_DMALPEND>
  1043b4:	e50b0008 	str	r0, [fp, #-8]
  1043b8:	e59b3004 	ldr	r3, [fp, #4]
  1043bc:	e3530000 	cmp	r3, #0
  1043c0:	1affffbd 	bne	1042bc <alt_dma_memory_to_i2c_master_custom+0xb4>
  1043c4:	ea000000 	b	1043cc <alt_dma_memory_to_i2c_master_custom+0x1c4>
  1043c8:	e1a00000 	nop			; (mov r0, r0)
  1043cc:	e51b3008 	ldr	r3, [fp, #-8]
  1043d0:	e1a00003 	mov	r0, r3
  1043d4:	e24bd004 	sub	sp, fp, #4
  1043d8:	e8bd8800 	pop	{fp, pc}

001043dc <alt_dma_memory_to_i2c_common_segment>:
  1043dc:	e92d4800 	push	{fp, lr}
  1043e0:	e28db004 	add	fp, sp, #4
  1043e4:	e24dd038 	sub	sp, sp, #56	; 0x38
  1043e8:	e50b0030 	str	r0, [fp, #-48]	; 0xffffffd0
  1043ec:	e50b3038 	str	r3, [fp, #-56]	; 0xffffffc8
  1043f0:	e1a03001 	mov	r3, r1
  1043f4:	e54b3031 	strb	r3, [fp, #-49]	; 0xffffffcf
  1043f8:	e1a03002 	mov	r3, r2
  1043fc:	e54b3032 	strb	r3, [fp, #-50]	; 0xffffffce
  104400:	e3a03000 	mov	r3, #0
  104404:	e50b3008 	str	r3, [fp, #-8]
  104408:	e3a03000 	mov	r3, #0
  10440c:	e50b300c 	str	r3, [fp, #-12]
  104410:	e3a03000 	mov	r3, #0
  104414:	e50b3010 	str	r3, [fp, #-16]
  104418:	e3a03000 	mov	r3, #0
  10441c:	e50b3014 	str	r3, [fp, #-20]	; 0xffffffec
  104420:	e51b3008 	ldr	r3, [fp, #-8]
  104424:	e3530000 	cmp	r3, #0
  104428:	1a000016 	bne	104488 <alt_dma_memory_to_i2c_common_segment+0xac>
  10442c:	e59b3004 	ldr	r3, [fp, #4]
  104430:	e50b3018 	str	r3, [fp, #-24]	; 0xffffffe8
  104434:	e55b3032 	ldrb	r3, [fp, #-50]	; 0xffffffce
  104438:	e3530001 	cmp	r3, #1
  10443c:	9a00000f 	bls	104480 <alt_dma_memory_to_i2c_common_segment+0xa4>
  104440:	e55b3032 	ldrb	r3, [fp, #-50]	; 0xffffffce
  104444:	e3530010 	cmp	r3, #16
  104448:	9a000001 	bls	104454 <alt_dma_memory_to_i2c_common_segment+0x78>
  10444c:	e3a03010 	mov	r3, #16
  104450:	e54b3032 	strb	r3, [fp, #-50]	; 0xffffffce
  104454:	e55b3032 	ldrb	r3, [fp, #-50]	; 0xffffffce
  104458:	e50b300c 	str	r3, [fp, #-12]
  10445c:	e51b1018 	ldr	r1, [fp, #-24]	; 0xffffffe8
  104460:	e51b200c 	ldr	r2, [fp, #-12]
  104464:	e24b302c 	sub	r3, fp, #44	; 0x2c
  104468:	e1a00003 	mov	r0, r3
  10446c:	eb0019c8 	bl	10ab94 <ldiv>
  104470:	e51b302c 	ldr	r3, [fp, #-44]	; 0xffffffd4
  104474:	e50b3010 	str	r3, [fp, #-16]
  104478:	e51b3028 	ldr	r3, [fp, #-40]	; 0xffffffd8
  10447c:	e50b3018 	str	r3, [fp, #-24]	; 0xffffffe8
  104480:	e51b3018 	ldr	r3, [fp, #-24]	; 0xffffffe8
  104484:	e50b3014 	str	r3, [fp, #-20]	; 0xffffffec
  104488:	e51b3008 	ldr	r3, [fp, #-8]
  10448c:	e3530000 	cmp	r3, #0
  104490:	1a000004 	bne	1044a8 <alt_dma_memory_to_i2c_common_segment+0xcc>
  104494:	e51b2038 	ldr	r2, [fp, #-56]	; 0xffffffc8
  104498:	e3a01000 	mov	r1, #0
  10449c:	e51b0030 	ldr	r0, [fp, #-48]	; 0xffffffd0
  1044a0:	eb001249 	bl	108dcc <alt_dma_program_DMAMOV>
  1044a4:	e50b0008 	str	r0, [fp, #-8]
  1044a8:	e51b3010 	ldr	r3, [fp, #-16]
  1044ac:	e3530000 	cmp	r3, #0
  1044b0:	0a00005a 	beq	104620 <alt_dma_memory_to_i2c_common_segment+0x244>
  1044b4:	e51b3008 	ldr	r3, [fp, #-8]
  1044b8:	e3530000 	cmp	r3, #0
  1044bc:	1a000052 	bne	10460c <alt_dma_memory_to_i2c_common_segment+0x230>
  1044c0:	e51b300c 	ldr	r3, [fp, #-12]
  1044c4:	e2433001 	sub	r3, r3, #1
  1044c8:	e1a03203 	lsl	r3, r3, #4
  1044cc:	e3833001 	orr	r3, r3, #1
  1044d0:	e1a02003 	mov	r2, r3
  1044d4:	e3a01001 	mov	r1, #1
  1044d8:	e51b0030 	ldr	r0, [fp, #-48]	; 0xffffffd0
  1044dc:	eb00123a 	bl	108dcc <alt_dma_program_DMAMOV>
  1044e0:	e50b0008 	str	r0, [fp, #-8]
  1044e4:	ea000048 	b	10460c <alt_dma_memory_to_i2c_common_segment+0x230>
  1044e8:	e51b3008 	ldr	r3, [fp, #-8]
  1044ec:	e3530000 	cmp	r3, #0
  1044f0:	1a000049 	bne	10461c <alt_dma_memory_to_i2c_common_segment+0x240>
  1044f4:	e51b3010 	ldr	r3, [fp, #-16]
  1044f8:	e3530c01 	cmp	r3, #256	; 0x100
  1044fc:	31a03003 	movcc	r3, r3
  104500:	23a03c01 	movcs	r3, #256	; 0x100
  104504:	e50b3020 	str	r3, [fp, #-32]	; 0xffffffe0
  104508:	e51b2010 	ldr	r2, [fp, #-16]
  10450c:	e51b3020 	ldr	r3, [fp, #-32]	; 0xffffffe0
  104510:	e0633002 	rsb	r3, r3, r2
  104514:	e50b3010 	str	r3, [fp, #-16]
  104518:	e51b3008 	ldr	r3, [fp, #-8]
  10451c:	e3530000 	cmp	r3, #0
  104520:	1a000006 	bne	104540 <alt_dma_memory_to_i2c_common_segment+0x164>
  104524:	e51b3020 	ldr	r3, [fp, #-32]	; 0xffffffe0
  104528:	e3530001 	cmp	r3, #1
  10452c:	9a000003 	bls	104540 <alt_dma_memory_to_i2c_common_segment+0x164>
  104530:	e51b1020 	ldr	r1, [fp, #-32]	; 0xffffffe0
  104534:	e51b0030 	ldr	r0, [fp, #-48]	; 0xffffffd0
  104538:	eb0010f4 	bl	108910 <alt_dma_program_DMALP>
  10453c:	e50b0008 	str	r0, [fp, #-8]
  104540:	e51b3008 	ldr	r3, [fp, #-8]
  104544:	e3530000 	cmp	r3, #0
  104548:	1a000004 	bne	104560 <alt_dma_memory_to_i2c_common_segment+0x184>
  10454c:	e55b3031 	ldrb	r3, [fp, #-49]	; 0xffffffcf
  104550:	e1a01003 	mov	r1, r3
  104554:	e51b0030 	ldr	r0, [fp, #-48]	; 0xffffffd0
  104558:	eb000fb9 	bl	108444 <alt_dma_program_DMAFLUSHP>
  10455c:	e50b0008 	str	r0, [fp, #-8]
  104560:	e51b3008 	ldr	r3, [fp, #-8]
  104564:	e3530000 	cmp	r3, #0
  104568:	1a000005 	bne	104584 <alt_dma_memory_to_i2c_common_segment+0x1a8>
  10456c:	e55b3031 	ldrb	r3, [fp, #-49]	; 0xffffffcf
  104570:	e3a02002 	mov	r2, #2
  104574:	e1a01003 	mov	r1, r3
  104578:	e51b0030 	ldr	r0, [fp, #-48]	; 0xffffffd0
  10457c:	eb0013e3 	bl	109510 <alt_dma_program_DMAWFP>
  104580:	e50b0008 	str	r0, [fp, #-8]
  104584:	e51b3008 	ldr	r3, [fp, #-8]
  104588:	e3530000 	cmp	r3, #0
  10458c:	1a000003 	bne	1045a0 <alt_dma_memory_to_i2c_common_segment+0x1c4>
  104590:	e3a01002 	mov	r1, #2
  104594:	e51b0030 	ldr	r0, [fp, #-48]	; 0xffffffd0
  104598:	eb00105d 	bl	108714 <alt_dma_program_DMALD>
  10459c:	e50b0008 	str	r0, [fp, #-8]
  1045a0:	e3a03000 	mov	r3, #0
  1045a4:	e50b301c 	str	r3, [fp, #-28]	; 0xffffffe4
  1045a8:	ea000009 	b	1045d4 <alt_dma_memory_to_i2c_common_segment+0x1f8>
  1045ac:	e51b3008 	ldr	r3, [fp, #-8]
  1045b0:	e3530000 	cmp	r3, #0
  1045b4:	1a000003 	bne	1045c8 <alt_dma_memory_to_i2c_common_segment+0x1ec>
  1045b8:	e3a01002 	mov	r1, #2
  1045bc:	e51b0030 	ldr	r0, [fp, #-48]	; 0xffffffd0
  1045c0:	eb0012f1 	bl	10918c <alt_dma_program_DMAST>
  1045c4:	e50b0008 	str	r0, [fp, #-8]
  1045c8:	e51b301c 	ldr	r3, [fp, #-28]	; 0xffffffe4
  1045cc:	e2833001 	add	r3, r3, #1
  1045d0:	e50b301c 	str	r3, [fp, #-28]	; 0xffffffe4
  1045d4:	e51b201c 	ldr	r2, [fp, #-28]	; 0xffffffe4
  1045d8:	e51b300c 	ldr	r3, [fp, #-12]
  1045dc:	e1520003 	cmp	r2, r3
  1045e0:	3afffff1 	bcc	1045ac <alt_dma_memory_to_i2c_common_segment+0x1d0>
  1045e4:	e51b3008 	ldr	r3, [fp, #-8]
  1045e8:	e3530000 	cmp	r3, #0
  1045ec:	1a000006 	bne	10460c <alt_dma_memory_to_i2c_common_segment+0x230>
  1045f0:	e51b3020 	ldr	r3, [fp, #-32]	; 0xffffffe0
  1045f4:	e3530001 	cmp	r3, #1
  1045f8:	9a000003 	bls	10460c <alt_dma_memory_to_i2c_common_segment+0x230>
  1045fc:	e3a01000 	mov	r1, #0
  104600:	e51b0030 	ldr	r0, [fp, #-48]	; 0xffffffd0
  104604:	eb001121 	bl	108a90 <alt_dma_program_DMALPEND>
  104608:	e50b0008 	str	r0, [fp, #-8]
  10460c:	e51b3010 	ldr	r3, [fp, #-16]
  104610:	e3530000 	cmp	r3, #0
  104614:	1affffb3 	bne	1044e8 <alt_dma_memory_to_i2c_common_segment+0x10c>
  104618:	ea000000 	b	104620 <alt_dma_memory_to_i2c_common_segment+0x244>
  10461c:	e1a00000 	nop			; (mov r0, r0)
  104620:	e51b3014 	ldr	r3, [fp, #-20]	; 0xffffffec
  104624:	e3530000 	cmp	r3, #0
  104628:	0a00004c 	beq	104760 <alt_dma_memory_to_i2c_common_segment+0x384>
  10462c:	e51b3008 	ldr	r3, [fp, #-8]
  104630:	e3530000 	cmp	r3, #0
  104634:	1a000044 	bne	10474c <alt_dma_memory_to_i2c_common_segment+0x370>
  104638:	e3a02001 	mov	r2, #1
  10463c:	e3a01001 	mov	r1, #1
  104640:	e51b0030 	ldr	r0, [fp, #-48]	; 0xffffffd0
  104644:	eb0011e0 	bl	108dcc <alt_dma_program_DMAMOV>
  104648:	e50b0008 	str	r0, [fp, #-8]
  10464c:	ea00003e 	b	10474c <alt_dma_memory_to_i2c_common_segment+0x370>
  104650:	e51b3008 	ldr	r3, [fp, #-8]
  104654:	e3530000 	cmp	r3, #0
  104658:	1a00003f 	bne	10475c <alt_dma_memory_to_i2c_common_segment+0x380>
  10465c:	e51b3014 	ldr	r3, [fp, #-20]	; 0xffffffec
  104660:	e3530c01 	cmp	r3, #256	; 0x100
  104664:	31a03003 	movcc	r3, r3
  104668:	23a03c01 	movcs	r3, #256	; 0x100
  10466c:	e50b3024 	str	r3, [fp, #-36]	; 0xffffffdc
  104670:	e51b2014 	ldr	r2, [fp, #-20]	; 0xffffffec
  104674:	e51b3024 	ldr	r3, [fp, #-36]	; 0xffffffdc
  104678:	e0633002 	rsb	r3, r3, r2
  10467c:	e50b3014 	str	r3, [fp, #-20]	; 0xffffffec
  104680:	e51b3008 	ldr	r3, [fp, #-8]
  104684:	e3530000 	cmp	r3, #0
  104688:	1a000006 	bne	1046a8 <alt_dma_memory_to_i2c_common_segment+0x2cc>
  10468c:	e51b3024 	ldr	r3, [fp, #-36]	; 0xffffffdc
  104690:	e3530001 	cmp	r3, #1
  104694:	9a000003 	bls	1046a8 <alt_dma_memory_to_i2c_common_segment+0x2cc>
  104698:	e51b1024 	ldr	r1, [fp, #-36]	; 0xffffffdc
  10469c:	e51b0030 	ldr	r0, [fp, #-48]	; 0xffffffd0
  1046a0:	eb00109a 	bl	108910 <alt_dma_program_DMALP>
  1046a4:	e50b0008 	str	r0, [fp, #-8]
  1046a8:	e51b3008 	ldr	r3, [fp, #-8]
  1046ac:	e3530000 	cmp	r3, #0
  1046b0:	1a000004 	bne	1046c8 <alt_dma_memory_to_i2c_common_segment+0x2ec>
  1046b4:	e55b3031 	ldrb	r3, [fp, #-49]	; 0xffffffcf
  1046b8:	e1a01003 	mov	r1, r3
  1046bc:	e51b0030 	ldr	r0, [fp, #-48]	; 0xffffffd0
  1046c0:	eb000f5f 	bl	108444 <alt_dma_program_DMAFLUSHP>
  1046c4:	e50b0008 	str	r0, [fp, #-8]
  1046c8:	e51b3008 	ldr	r3, [fp, #-8]
  1046cc:	e3530000 	cmp	r3, #0
  1046d0:	1a000005 	bne	1046ec <alt_dma_memory_to_i2c_common_segment+0x310>
  1046d4:	e55b3031 	ldrb	r3, [fp, #-49]	; 0xffffffcf
  1046d8:	e3a02001 	mov	r2, #1
  1046dc:	e1a01003 	mov	r1, r3
  1046e0:	e51b0030 	ldr	r0, [fp, #-48]	; 0xffffffd0
  1046e4:	eb001389 	bl	109510 <alt_dma_program_DMAWFP>
  1046e8:	e50b0008 	str	r0, [fp, #-8]
  1046ec:	e51b3008 	ldr	r3, [fp, #-8]
  1046f0:	e3530000 	cmp	r3, #0
  1046f4:	1a000003 	bne	104708 <alt_dma_memory_to_i2c_common_segment+0x32c>
  1046f8:	e3a01001 	mov	r1, #1
  1046fc:	e51b0030 	ldr	r0, [fp, #-48]	; 0xffffffd0
  104700:	eb001003 	bl	108714 <alt_dma_program_DMALD>
  104704:	e50b0008 	str	r0, [fp, #-8]
  104708:	e51b3008 	ldr	r3, [fp, #-8]
  10470c:	e3530000 	cmp	r3, #0
  104710:	1a000003 	bne	104724 <alt_dma_memory_to_i2c_common_segment+0x348>
  104714:	e3a01001 	mov	r1, #1
  104718:	e51b0030 	ldr	r0, [fp, #-48]	; 0xffffffd0
  10471c:	eb00129a 	bl	10918c <alt_dma_program_DMAST>
  104720:	e50b0008 	str	r0, [fp, #-8]
  104724:	e51b3008 	ldr	r3, [fp, #-8]
  104728:	e3530000 	cmp	r3, #0
  10472c:	1a000006 	bne	10474c <alt_dma_memory_to_i2c_common_segment+0x370>
  104730:	e51b3024 	ldr	r3, [fp, #-36]	; 0xffffffdc
  104734:	e3530001 	cmp	r3, #1
  104738:	9a000003 	bls	10474c <alt_dma_memory_to_i2c_common_segment+0x370>
  10473c:	e3a01000 	mov	r1, #0
  104740:	e51b0030 	ldr	r0, [fp, #-48]	; 0xffffffd0
  104744:	eb0010d1 	bl	108a90 <alt_dma_program_DMALPEND>
  104748:	e50b0008 	str	r0, [fp, #-8]
  10474c:	e51b3014 	ldr	r3, [fp, #-20]	; 0xffffffec
  104750:	e3530000 	cmp	r3, #0
  104754:	1affffbd 	bne	104650 <alt_dma_memory_to_i2c_common_segment+0x274>
  104758:	ea000000 	b	104760 <alt_dma_memory_to_i2c_common_segment+0x384>
  10475c:	e1a00000 	nop			; (mov r0, r0)
  104760:	e51b3008 	ldr	r3, [fp, #-8]
  104764:	e1a00003 	mov	r0, r3
  104768:	e24bd004 	sub	sp, fp, #4
  10476c:	e8bd8800 	pop	{fp, pc}

00104770 <alt_dma_memory_to_i2c_common>:
  104770:	e92d4800 	push	{fp, lr}
  104774:	e28db004 	add	fp, sp, #4
  104778:	e24dd038 	sub	sp, sp, #56	; 0x38
  10477c:	e50b0028 	str	r0, [fp, #-40]	; 0xffffffd8
  104780:	e50b2030 	str	r2, [fp, #-48]	; 0xffffffd0
  104784:	e50b3034 	str	r3, [fp, #-52]	; 0xffffffcc
  104788:	e1a03001 	mov	r3, r1
  10478c:	e54b3029 	strb	r3, [fp, #-41]	; 0xffffffd7
  104790:	e3a03000 	mov	r3, #0
  104794:	e50b3008 	str	r3, [fp, #-8]
  104798:	e51b3030 	ldr	r3, [fp, #-48]	; 0xffffffd0
  10479c:	e5933000 	ldr	r3, [r3]
  1047a0:	e5933000 	ldr	r3, [r3]
  1047a4:	e283303c 	add	r3, r3, #60	; 0x3c
  1047a8:	e5933000 	ldr	r3, [r3]
  1047ac:	e6ef3073 	uxtb	r3, r3
  1047b0:	e2833001 	add	r3, r3, #1
  1047b4:	e54b3009 	strb	r3, [fp, #-9]
  1047b8:	e51b3008 	ldr	r3, [fp, #-8]
  1047bc:	e3530000 	cmp	r3, #0
  1047c0:	1a000008 	bne	1047e8 <alt_dma_memory_to_i2c_common+0x78>
  1047c4:	e51b3030 	ldr	r3, [fp, #-48]	; 0xffffffd0
  1047c8:	e5933000 	ldr	r3, [r3]
  1047cc:	e5933000 	ldr	r3, [r3]
  1047d0:	e2833010 	add	r3, r3, #16
  1047d4:	e1a02003 	mov	r2, r3
  1047d8:	e3a01002 	mov	r1, #2
  1047dc:	e51b0028 	ldr	r0, [fp, #-40]	; 0xffffffd8
  1047e0:	eb001179 	bl	108dcc <alt_dma_program_DMAMOV>
  1047e4:	e50b0008 	str	r0, [fp, #-8]
  1047e8:	e51b3008 	ldr	r3, [fp, #-8]
  1047ec:	e3530000 	cmp	r3, #0
  1047f0:	1a000026 	bne	104890 <alt_dma_memory_to_i2c_common+0x120>
  1047f4:	e24b301c 	sub	r3, fp, #28
  1047f8:	e59b2004 	ldr	r2, [fp, #4]
  1047fc:	e51b1034 	ldr	r1, [fp, #-52]	; 0xffffffcc
  104800:	e1a00003 	mov	r0, r3
  104804:	ebfff6e7 	bl	1023a8 <alt_mmu_va_to_pa_coalesce_begin>
  104808:	e50b0008 	str	r0, [fp, #-8]
  10480c:	ea00001f 	b	104890 <alt_dma_memory_to_i2c_common+0x120>
  104810:	e51b3008 	ldr	r3, [fp, #-8]
  104814:	e3530000 	cmp	r3, #0
  104818:	1a000020 	bne	1048a0 <alt_dma_memory_to_i2c_common+0x130>
  10481c:	e3a03000 	mov	r3, #0
  104820:	e50b3020 	str	r3, [fp, #-32]	; 0xffffffe0
  104824:	e3a03000 	mov	r3, #0
  104828:	e50b3024 	str	r3, [fp, #-36]	; 0xffffffdc
  10482c:	e51b3008 	ldr	r3, [fp, #-8]
  104830:	e3530000 	cmp	r3, #0
  104834:	1a000005 	bne	104850 <alt_dma_memory_to_i2c_common+0xe0>
  104838:	e24b2024 	sub	r2, fp, #36	; 0x24
  10483c:	e24b1020 	sub	r1, fp, #32
  104840:	e24b301c 	sub	r3, fp, #28
  104844:	e1a00003 	mov	r0, r3
  104848:	ebfff705 	bl	102464 <alt_mmu_va_to_pa_coalesce_next>
  10484c:	e50b0008 	str	r0, [fp, #-8]
  104850:	e51b3024 	ldr	r3, [fp, #-36]	; 0xffffffdc
  104854:	e59b2004 	ldr	r2, [fp, #4]
  104858:	e0633002 	rsb	r3, r3, r2
  10485c:	e58b3004 	str	r3, [fp, #4]
  104860:	e51b3008 	ldr	r3, [fp, #-8]
  104864:	e3530000 	cmp	r3, #0
  104868:	1a000008 	bne	104890 <alt_dma_memory_to_i2c_common+0x120>
  10486c:	e51b0020 	ldr	r0, [fp, #-32]	; 0xffffffe0
  104870:	e51b3024 	ldr	r3, [fp, #-36]	; 0xffffffdc
  104874:	e55b2009 	ldrb	r2, [fp, #-9]
  104878:	e55b1029 	ldrb	r1, [fp, #-41]	; 0xffffffd7
  10487c:	e58d3000 	str	r3, [sp]
  104880:	e1a03000 	mov	r3, r0
  104884:	e51b0028 	ldr	r0, [fp, #-40]	; 0xffffffd8
  104888:	ebfffed3 	bl	1043dc <alt_dma_memory_to_i2c_common_segment>
  10488c:	e50b0008 	str	r0, [fp, #-8]
  104890:	e59b3004 	ldr	r3, [fp, #4]
  104894:	e3530000 	cmp	r3, #0
  104898:	1affffdc 	bne	104810 <alt_dma_memory_to_i2c_common+0xa0>
  10489c:	ea000000 	b	1048a4 <alt_dma_memory_to_i2c_common+0x134>
  1048a0:	e1a00000 	nop			; (mov r0, r0)
  1048a4:	e51b3008 	ldr	r3, [fp, #-8]
  1048a8:	e3530000 	cmp	r3, #0
  1048ac:	1a000003 	bne	1048c0 <alt_dma_memory_to_i2c_common+0x150>
  1048b0:	e24b301c 	sub	r3, fp, #28
  1048b4:	e1a00003 	mov	r0, r3
  1048b8:	ebfff74a 	bl	1025e8 <alt_mmu_va_to_pa_coalesce_end>
  1048bc:	e50b0008 	str	r0, [fp, #-8]
  1048c0:	e51b3008 	ldr	r3, [fp, #-8]
  1048c4:	e1a00003 	mov	r0, r3
  1048c8:	e24bd004 	sub	sp, fp, #4
  1048cc:	e8bd8800 	pop	{fp, pc}

001048d0 <alt_dma_memory_to_i2c_master>:
  1048d0:	e92d4800 	push	{fp, lr}
  1048d4:	e28db004 	add	fp, sp, #4
  1048d8:	e24dd038 	sub	sp, sp, #56	; 0x38
  1048dc:	e50b0028 	str	r0, [fp, #-40]	; 0xffffffd8
  1048e0:	e50b2030 	str	r2, [fp, #-48]	; 0xffffffd0
  1048e4:	e50b3034 	str	r3, [fp, #-52]	; 0xffffffcc
  1048e8:	e1a03001 	mov	r3, r1
  1048ec:	e54b3029 	strb	r3, [fp, #-41]	; 0xffffffd7
  1048f0:	e3a03000 	mov	r3, #0
  1048f4:	e50b3008 	str	r3, [fp, #-8]
  1048f8:	e51b3008 	ldr	r3, [fp, #-8]
  1048fc:	e3530000 	cmp	r3, #0
  104900:	1a00000e 	bne	104940 <alt_dma_memory_to_i2c_master+0x70>
  104904:	e51b3030 	ldr	r3, [fp, #-48]	; 0xffffffd0
  104908:	e2833008 	add	r3, r3, #8
  10490c:	e24b201c 	sub	r2, fp, #28
  104910:	e24b1020 	sub	r1, fp, #32
  104914:	e1a00003 	mov	r0, r3
  104918:	ebfff336 	bl	1015f8 <alt_mmu_va_to_pa>
  10491c:	e50b000c 	str	r0, [fp, #-12]
  104920:	e51b301c 	ldr	r3, [fp, #-28]	; 0xffffffe4
  104924:	e3530000 	cmp	r3, #0
  104928:	0a000004 	beq	104940 <alt_dma_memory_to_i2c_master+0x70>
  10492c:	e3040da8 	movw	r0, #19880	; 0x4da8
  104930:	e3400011 	movt	r0, #17
  104934:	eb00193e 	bl	10ae34 <puts>
  104938:	e3e03000 	mvn	r3, #0
  10493c:	e50b3008 	str	r3, [fp, #-8]
  104940:	e59b3004 	ldr	r3, [fp, #4]
  104944:	e3530001 	cmp	r3, #1
  104948:	1a000020 	bne	1049d0 <alt_dma_memory_to_i2c_master+0x100>
  10494c:	e51b3034 	ldr	r3, [fp, #-52]	; 0xffffffcc
  104950:	e5d33000 	ldrb	r3, [r3]
  104954:	e1a02003 	mov	r2, r3
  104958:	e51b3030 	ldr	r3, [fp, #-48]	; 0xffffffd0
  10495c:	e5d33004 	ldrb	r3, [r3, #4]
  104960:	e1a03503 	lsl	r3, r3, #10
  104964:	e2033b01 	and	r3, r3, #1024	; 0x400
  104968:	e1822003 	orr	r2, r2, r3
  10496c:	e51b3030 	ldr	r3, [fp, #-48]	; 0xffffffd0
  104970:	e5d33005 	ldrb	r3, [r3, #5]
  104974:	e1a03483 	lsl	r3, r3, #9
  104978:	e2033c02 	and	r3, r3, #512	; 0x200
  10497c:	e1823003 	orr	r3, r2, r3
  104980:	e1a02003 	mov	r2, r3
  104984:	e51b3030 	ldr	r3, [fp, #-48]	; 0xffffffd0
  104988:	e5832014 	str	r2, [r3, #20]
  10498c:	e51b3008 	ldr	r3, [fp, #-8]
  104990:	e3530000 	cmp	r3, #0
  104994:	1a000063 	bne	104b28 <alt_dma_memory_to_i2c_master+0x258>
  104998:	e51b3030 	ldr	r3, [fp, #-48]	; 0xffffffd0
  10499c:	e5932000 	ldr	r2, [r3]
  1049a0:	e51b300c 	ldr	r3, [fp, #-12]
  1049a4:	e283000c 	add	r0, r3, #12
  1049a8:	e55b1029 	ldrb	r1, [fp, #-41]	; 0xffffffd7
  1049ac:	e3a03001 	mov	r3, #1
  1049b0:	e58d3004 	str	r3, [sp, #4]
  1049b4:	e3a03001 	mov	r3, #1
  1049b8:	e58d3000 	str	r3, [sp]
  1049bc:	e1a03000 	mov	r3, r0
  1049c0:	e51b0028 	ldr	r0, [fp, #-40]	; 0xffffffd8
  1049c4:	ebfffe0f 	bl	104208 <alt_dma_memory_to_i2c_master_custom>
  1049c8:	e50b0008 	str	r0, [fp, #-8]
  1049cc:	ea000055 	b	104b28 <alt_dma_memory_to_i2c_master+0x258>
  1049d0:	e51b3030 	ldr	r3, [fp, #-48]	; 0xffffffd0
  1049d4:	e5d33005 	ldrb	r3, [r3, #5]
  1049d8:	e3530000 	cmp	r3, #0
  1049dc:	0a00000b 	beq	104a10 <alt_dma_memory_to_i2c_master+0x140>
  1049e0:	e59b3004 	ldr	r3, [fp, #4]
  1049e4:	e2433001 	sub	r3, r3, #1
  1049e8:	e51b2034 	ldr	r2, [fp, #-52]	; 0xffffffcc
  1049ec:	e0823003 	add	r3, r2, r3
  1049f0:	e5d33000 	ldrb	r3, [r3]
  1049f4:	e3833c02 	orr	r3, r3, #512	; 0x200
  1049f8:	e1a02003 	mov	r2, r3
  1049fc:	e51b3030 	ldr	r3, [fp, #-48]	; 0xffffffd0
  104a00:	e5832010 	str	r2, [r3, #16]
  104a04:	e59b3004 	ldr	r3, [fp, #4]
  104a08:	e2433001 	sub	r3, r3, #1
  104a0c:	e58b3004 	str	r3, [fp, #4]
  104a10:	e51b3030 	ldr	r3, [fp, #-48]	; 0xffffffd0
  104a14:	e5d33004 	ldrb	r3, [r3, #4]
  104a18:	e3530000 	cmp	r3, #0
  104a1c:	0a00001b 	beq	104a90 <alt_dma_memory_to_i2c_master+0x1c0>
  104a20:	e51b3034 	ldr	r3, [fp, #-52]	; 0xffffffcc
  104a24:	e5d33000 	ldrb	r3, [r3]
  104a28:	e3833b01 	orr	r3, r3, #1024	; 0x400
  104a2c:	e1a02003 	mov	r2, r3
  104a30:	e51b3030 	ldr	r3, [fp, #-48]	; 0xffffffd0
  104a34:	e583200c 	str	r2, [r3, #12]
  104a38:	e59b3004 	ldr	r3, [fp, #4]
  104a3c:	e2433001 	sub	r3, r3, #1
  104a40:	e58b3004 	str	r3, [fp, #4]
  104a44:	e51b3008 	ldr	r3, [fp, #-8]
  104a48:	e3530000 	cmp	r3, #0
  104a4c:	1a00000f 	bne	104a90 <alt_dma_memory_to_i2c_master+0x1c0>
  104a50:	e51b3030 	ldr	r3, [fp, #-48]	; 0xffffffd0
  104a54:	e5932000 	ldr	r2, [r3]
  104a58:	e51b300c 	ldr	r3, [fp, #-12]
  104a5c:	e2830004 	add	r0, r3, #4
  104a60:	e55b1029 	ldrb	r1, [fp, #-41]	; 0xffffffd7
  104a64:	e3a03001 	mov	r3, #1
  104a68:	e58d3004 	str	r3, [sp, #4]
  104a6c:	e3a03001 	mov	r3, #1
  104a70:	e58d3000 	str	r3, [sp]
  104a74:	e1a03000 	mov	r3, r0
  104a78:	e51b0028 	ldr	r0, [fp, #-40]	; 0xffffffd8
  104a7c:	ebfffde1 	bl	104208 <alt_dma_memory_to_i2c_master_custom>
  104a80:	e50b0008 	str	r0, [fp, #-8]
  104a84:	e51b3034 	ldr	r3, [fp, #-52]	; 0xffffffcc
  104a88:	e2833001 	add	r3, r3, #1
  104a8c:	e50b3034 	str	r3, [fp, #-52]	; 0xffffffcc
  104a90:	e51b3008 	ldr	r3, [fp, #-8]
  104a94:	e3530000 	cmp	r3, #0
  104a98:	1a00000a 	bne	104ac8 <alt_dma_memory_to_i2c_master+0x1f8>
  104a9c:	e59b3004 	ldr	r3, [fp, #4]
  104aa0:	e3530000 	cmp	r3, #0
  104aa4:	0a000007 	beq	104ac8 <alt_dma_memory_to_i2c_master+0x1f8>
  104aa8:	e55b1029 	ldrb	r1, [fp, #-41]	; 0xffffffd7
  104aac:	e59b3004 	ldr	r3, [fp, #4]
  104ab0:	e58d3000 	str	r3, [sp]
  104ab4:	e51b3034 	ldr	r3, [fp, #-52]	; 0xffffffcc
  104ab8:	e51b2030 	ldr	r2, [fp, #-48]	; 0xffffffd0
  104abc:	e51b0028 	ldr	r0, [fp, #-40]	; 0xffffffd8
  104ac0:	ebffff2a 	bl	104770 <alt_dma_memory_to_i2c_common>
  104ac4:	e50b0008 	str	r0, [fp, #-8]
  104ac8:	e51b3030 	ldr	r3, [fp, #-48]	; 0xffffffd0
  104acc:	e5d33005 	ldrb	r3, [r3, #5]
  104ad0:	e3530000 	cmp	r3, #0
  104ad4:	0a000013 	beq	104b28 <alt_dma_memory_to_i2c_master+0x258>
  104ad8:	e51b3008 	ldr	r3, [fp, #-8]
  104adc:	e3530000 	cmp	r3, #0
  104ae0:	1a000010 	bne	104b28 <alt_dma_memory_to_i2c_master+0x258>
  104ae4:	e51b3030 	ldr	r3, [fp, #-48]	; 0xffffffd0
  104ae8:	e5932000 	ldr	r2, [r3]
  104aec:	e51b300c 	ldr	r3, [fp, #-12]
  104af0:	e2830008 	add	r0, r3, #8
  104af4:	e59b3004 	ldr	r3, [fp, #4]
  104af8:	e3530000 	cmp	r3, #0
  104afc:	13a03001 	movne	r3, #1
  104b00:	03a03000 	moveq	r3, #0
  104b04:	e6ef3073 	uxtb	r3, r3
  104b08:	e55b1029 	ldrb	r1, [fp, #-41]	; 0xffffffd7
  104b0c:	e58d3004 	str	r3, [sp, #4]
  104b10:	e3a03001 	mov	r3, #1
  104b14:	e58d3000 	str	r3, [sp]
  104b18:	e1a03000 	mov	r3, r0
  104b1c:	e51b0028 	ldr	r0, [fp, #-40]	; 0xffffffd8
  104b20:	ebfffdb8 	bl	104208 <alt_dma_memory_to_i2c_master_custom>
  104b24:	e50b0008 	str	r0, [fp, #-8]
  104b28:	e51b3008 	ldr	r3, [fp, #-8]
  104b2c:	e3530000 	cmp	r3, #0
  104b30:	1a000010 	bne	104b78 <alt_dma_memory_to_i2c_master+0x2a8>
  104b34:	e51b3030 	ldr	r3, [fp, #-48]	; 0xffffffd0
  104b38:	e2833008 	add	r3, r3, #8
  104b3c:	e3c3301f 	bic	r3, r3, #31
  104b40:	e50b3010 	str	r3, [fp, #-16]
  104b44:	e51b3030 	ldr	r3, [fp, #-48]	; 0xffffffd0
  104b48:	e2833008 	add	r3, r3, #8
  104b4c:	e283302f 	add	r3, r3, #47	; 0x2f
  104b50:	e3c3301f 	bic	r3, r3, #31
  104b54:	e50b3014 	str	r3, [fp, #-20]	; 0xffffffec
  104b58:	e51b2014 	ldr	r2, [fp, #-20]	; 0xffffffec
  104b5c:	e51b3010 	ldr	r3, [fp, #-16]
  104b60:	e0633002 	rsb	r3, r3, r2
  104b64:	e50b3018 	str	r3, [fp, #-24]	; 0xffffffe8
  104b68:	e51b1018 	ldr	r1, [fp, #-24]	; 0xffffffe8
  104b6c:	e51b0010 	ldr	r0, [fp, #-16]
  104b70:	ebfff2b1 	bl	10163c <alt_cache_system_clean>
  104b74:	e50b0008 	str	r0, [fp, #-8]
  104b78:	e51b3008 	ldr	r3, [fp, #-8]
  104b7c:	e1a00003 	mov	r0, r3
  104b80:	e24bd004 	sub	sp, fp, #4
  104b84:	e8bd8800 	pop	{fp, pc}

00104b88 <alt_dma_memory_to_i2c>:
  104b88:	e92d4800 	push	{fp, lr}
  104b8c:	e28db004 	add	fp, sp, #4
  104b90:	e24dd020 	sub	sp, sp, #32
  104b94:	e50b0010 	str	r0, [fp, #-16]
  104b98:	e50b2018 	str	r2, [fp, #-24]	; 0xffffffe8
  104b9c:	e50b301c 	str	r3, [fp, #-28]	; 0xffffffe4
  104ba0:	e1a03001 	mov	r3, r1
  104ba4:	e54b3011 	strb	r3, [fp, #-17]	; 0xffffffef
  104ba8:	e3a03000 	mov	r3, #0
  104bac:	e50b3008 	str	r3, [fp, #-8]
  104bb0:	e51b3008 	ldr	r3, [fp, #-8]
  104bb4:	e3530000 	cmp	r3, #0
  104bb8:	1a000006 	bne	104bd8 <alt_dma_memory_to_i2c+0x50>
  104bbc:	e51b3018 	ldr	r3, [fp, #-24]	; 0xffffffe8
  104bc0:	e5933000 	ldr	r3, [r3]
  104bc4:	e24b2009 	sub	r2, fp, #9
  104bc8:	e1a01002 	mov	r1, r2
  104bcc:	e1a00003 	mov	r0, r3
  104bd0:	ebfffd77 	bl	1041b4 <alt_i2c_op_mode_get>
  104bd4:	e50b0008 	str	r0, [fp, #-8]
  104bd8:	e51b3008 	ldr	r3, [fp, #-8]
  104bdc:	e3530000 	cmp	r3, #0
  104be0:	1a000013 	bne	104c34 <alt_dma_memory_to_i2c+0xac>
  104be4:	e55b3009 	ldrb	r3, [fp, #-9]
  104be8:	e3530001 	cmp	r3, #1
  104bec:	1a000008 	bne	104c14 <alt_dma_memory_to_i2c+0x8c>
  104bf0:	e55b1011 	ldrb	r1, [fp, #-17]	; 0xffffffef
  104bf4:	e59b3004 	ldr	r3, [fp, #4]
  104bf8:	e58d3000 	str	r3, [sp]
  104bfc:	e51b301c 	ldr	r3, [fp, #-28]	; 0xffffffe4
  104c00:	e51b2018 	ldr	r2, [fp, #-24]	; 0xffffffe8
  104c04:	e51b0010 	ldr	r0, [fp, #-16]
  104c08:	ebffff30 	bl	1048d0 <alt_dma_memory_to_i2c_master>
  104c0c:	e50b0008 	str	r0, [fp, #-8]
  104c10:	ea000007 	b	104c34 <alt_dma_memory_to_i2c+0xac>
  104c14:	e55b1011 	ldrb	r1, [fp, #-17]	; 0xffffffef
  104c18:	e59b3004 	ldr	r3, [fp, #4]
  104c1c:	e58d3000 	str	r3, [sp]
  104c20:	e51b301c 	ldr	r3, [fp, #-28]	; 0xffffffe4
  104c24:	e51b2018 	ldr	r2, [fp, #-24]	; 0xffffffe8
  104c28:	e51b0010 	ldr	r0, [fp, #-16]
  104c2c:	ebfffecf 	bl	104770 <alt_dma_memory_to_i2c_common>
  104c30:	e50b0008 	str	r0, [fp, #-8]
  104c34:	e51b3008 	ldr	r3, [fp, #-8]
  104c38:	e1a00003 	mov	r0, r3
  104c3c:	e24bd004 	sub	sp, fp, #4
  104c40:	e8bd8800 	pop	{fp, pc}

00104c44 <alt_dma_i2c_to_memory_common_segment>:
  104c44:	e92d4800 	push	{fp, lr}
  104c48:	e28db004 	add	fp, sp, #4
  104c4c:	e24dd038 	sub	sp, sp, #56	; 0x38
  104c50:	e50b0030 	str	r0, [fp, #-48]	; 0xffffffd0
  104c54:	e50b3038 	str	r3, [fp, #-56]	; 0xffffffc8
  104c58:	e1a03001 	mov	r3, r1
  104c5c:	e54b3031 	strb	r3, [fp, #-49]	; 0xffffffcf
  104c60:	e1a03002 	mov	r3, r2
  104c64:	e54b3032 	strb	r3, [fp, #-50]	; 0xffffffce
  104c68:	e3a03000 	mov	r3, #0
  104c6c:	e50b3008 	str	r3, [fp, #-8]
  104c70:	e3a03000 	mov	r3, #0
  104c74:	e50b300c 	str	r3, [fp, #-12]
  104c78:	e3a03000 	mov	r3, #0
  104c7c:	e50b3010 	str	r3, [fp, #-16]
  104c80:	e3a03000 	mov	r3, #0
  104c84:	e50b3014 	str	r3, [fp, #-20]	; 0xffffffec
  104c88:	e51b3008 	ldr	r3, [fp, #-8]
  104c8c:	e3530000 	cmp	r3, #0
  104c90:	1a000016 	bne	104cf0 <alt_dma_i2c_to_memory_common_segment+0xac>
  104c94:	e59b3004 	ldr	r3, [fp, #4]
  104c98:	e50b3018 	str	r3, [fp, #-24]	; 0xffffffe8
  104c9c:	e55b3032 	ldrb	r3, [fp, #-50]	; 0xffffffce
  104ca0:	e3530001 	cmp	r3, #1
  104ca4:	9a00000f 	bls	104ce8 <alt_dma_i2c_to_memory_common_segment+0xa4>
  104ca8:	e55b3032 	ldrb	r3, [fp, #-50]	; 0xffffffce
  104cac:	e3530010 	cmp	r3, #16
  104cb0:	9a000001 	bls	104cbc <alt_dma_i2c_to_memory_common_segment+0x78>
  104cb4:	e3a03010 	mov	r3, #16
  104cb8:	e54b3032 	strb	r3, [fp, #-50]	; 0xffffffce
  104cbc:	e55b3032 	ldrb	r3, [fp, #-50]	; 0xffffffce
  104cc0:	e50b300c 	str	r3, [fp, #-12]
  104cc4:	e51b1018 	ldr	r1, [fp, #-24]	; 0xffffffe8
  104cc8:	e51b200c 	ldr	r2, [fp, #-12]
  104ccc:	e24b302c 	sub	r3, fp, #44	; 0x2c
  104cd0:	e1a00003 	mov	r0, r3
  104cd4:	eb0017ae 	bl	10ab94 <ldiv>
  104cd8:	e51b302c 	ldr	r3, [fp, #-44]	; 0xffffffd4
  104cdc:	e50b3010 	str	r3, [fp, #-16]
  104ce0:	e51b3028 	ldr	r3, [fp, #-40]	; 0xffffffd8
  104ce4:	e50b3018 	str	r3, [fp, #-24]	; 0xffffffe8
  104ce8:	e51b3018 	ldr	r3, [fp, #-24]	; 0xffffffe8
  104cec:	e50b3014 	str	r3, [fp, #-20]	; 0xffffffec
  104cf0:	e51b3008 	ldr	r3, [fp, #-8]
  104cf4:	e3530000 	cmp	r3, #0
  104cf8:	1a000004 	bne	104d10 <alt_dma_i2c_to_memory_common_segment+0xcc>
  104cfc:	e51b2038 	ldr	r2, [fp, #-56]	; 0xffffffc8
  104d00:	e3a01002 	mov	r1, #2
  104d04:	e51b0030 	ldr	r0, [fp, #-48]	; 0xffffffd0
  104d08:	eb00102f 	bl	108dcc <alt_dma_program_DMAMOV>
  104d0c:	e50b0008 	str	r0, [fp, #-8]
  104d10:	e51b3010 	ldr	r3, [fp, #-16]
  104d14:	e3530000 	cmp	r3, #0
  104d18:	0a00005a 	beq	104e88 <alt_dma_i2c_to_memory_common_segment+0x244>
  104d1c:	e51b3008 	ldr	r3, [fp, #-8]
  104d20:	e3530000 	cmp	r3, #0
  104d24:	1a000052 	bne	104e74 <alt_dma_i2c_to_memory_common_segment+0x230>
  104d28:	e51b300c 	ldr	r3, [fp, #-12]
  104d2c:	e2433001 	sub	r3, r3, #1
  104d30:	e1a03903 	lsl	r3, r3, #18
  104d34:	e3833901 	orr	r3, r3, #16384	; 0x4000
  104d38:	e1a02003 	mov	r2, r3
  104d3c:	e3a01001 	mov	r1, #1
  104d40:	e51b0030 	ldr	r0, [fp, #-48]	; 0xffffffd0
  104d44:	eb001020 	bl	108dcc <alt_dma_program_DMAMOV>
  104d48:	e50b0008 	str	r0, [fp, #-8]
  104d4c:	ea000048 	b	104e74 <alt_dma_i2c_to_memory_common_segment+0x230>
  104d50:	e51b3008 	ldr	r3, [fp, #-8]
  104d54:	e3530000 	cmp	r3, #0
  104d58:	1a000049 	bne	104e84 <alt_dma_i2c_to_memory_common_segment+0x240>
  104d5c:	e51b3010 	ldr	r3, [fp, #-16]
  104d60:	e3530c01 	cmp	r3, #256	; 0x100
  104d64:	31a03003 	movcc	r3, r3
  104d68:	23a03c01 	movcs	r3, #256	; 0x100
  104d6c:	e50b3020 	str	r3, [fp, #-32]	; 0xffffffe0
  104d70:	e51b2010 	ldr	r2, [fp, #-16]
  104d74:	e51b3020 	ldr	r3, [fp, #-32]	; 0xffffffe0
  104d78:	e0633002 	rsb	r3, r3, r2
  104d7c:	e50b3010 	str	r3, [fp, #-16]
  104d80:	e51b3008 	ldr	r3, [fp, #-8]
  104d84:	e3530000 	cmp	r3, #0
  104d88:	1a000006 	bne	104da8 <alt_dma_i2c_to_memory_common_segment+0x164>
  104d8c:	e51b3020 	ldr	r3, [fp, #-32]	; 0xffffffe0
  104d90:	e3530001 	cmp	r3, #1
  104d94:	9a000003 	bls	104da8 <alt_dma_i2c_to_memory_common_segment+0x164>
  104d98:	e51b1020 	ldr	r1, [fp, #-32]	; 0xffffffe0
  104d9c:	e51b0030 	ldr	r0, [fp, #-48]	; 0xffffffd0
  104da0:	eb000eda 	bl	108910 <alt_dma_program_DMALP>
  104da4:	e50b0008 	str	r0, [fp, #-8]
  104da8:	e51b3008 	ldr	r3, [fp, #-8]
  104dac:	e3530000 	cmp	r3, #0
  104db0:	1a000004 	bne	104dc8 <alt_dma_i2c_to_memory_common_segment+0x184>
  104db4:	e55b3031 	ldrb	r3, [fp, #-49]	; 0xffffffcf
  104db8:	e1a01003 	mov	r1, r3
  104dbc:	e51b0030 	ldr	r0, [fp, #-48]	; 0xffffffd0
  104dc0:	eb000d9f 	bl	108444 <alt_dma_program_DMAFLUSHP>
  104dc4:	e50b0008 	str	r0, [fp, #-8]
  104dc8:	e51b3008 	ldr	r3, [fp, #-8]
  104dcc:	e3530000 	cmp	r3, #0
  104dd0:	1a000005 	bne	104dec <alt_dma_i2c_to_memory_common_segment+0x1a8>
  104dd4:	e55b3031 	ldrb	r3, [fp, #-49]	; 0xffffffcf
  104dd8:	e3a02002 	mov	r2, #2
  104ddc:	e1a01003 	mov	r1, r3
  104de0:	e51b0030 	ldr	r0, [fp, #-48]	; 0xffffffd0
  104de4:	eb0011c9 	bl	109510 <alt_dma_program_DMAWFP>
  104de8:	e50b0008 	str	r0, [fp, #-8]
  104dec:	e3a03000 	mov	r3, #0
  104df0:	e50b301c 	str	r3, [fp, #-28]	; 0xffffffe4
  104df4:	ea000009 	b	104e20 <alt_dma_i2c_to_memory_common_segment+0x1dc>
  104df8:	e51b3008 	ldr	r3, [fp, #-8]
  104dfc:	e3530000 	cmp	r3, #0
  104e00:	1a000003 	bne	104e14 <alt_dma_i2c_to_memory_common_segment+0x1d0>
  104e04:	e3a01002 	mov	r1, #2
  104e08:	e51b0030 	ldr	r0, [fp, #-48]	; 0xffffffd0
  104e0c:	eb000e40 	bl	108714 <alt_dma_program_DMALD>
  104e10:	e50b0008 	str	r0, [fp, #-8]
  104e14:	e51b301c 	ldr	r3, [fp, #-28]	; 0xffffffe4
  104e18:	e2833001 	add	r3, r3, #1
  104e1c:	e50b301c 	str	r3, [fp, #-28]	; 0xffffffe4
  104e20:	e51b201c 	ldr	r2, [fp, #-28]	; 0xffffffe4
  104e24:	e51b300c 	ldr	r3, [fp, #-12]
  104e28:	e1520003 	cmp	r2, r3
  104e2c:	3afffff1 	bcc	104df8 <alt_dma_i2c_to_memory_common_segment+0x1b4>
  104e30:	e51b3008 	ldr	r3, [fp, #-8]
  104e34:	e3530000 	cmp	r3, #0
  104e38:	1a000003 	bne	104e4c <alt_dma_i2c_to_memory_common_segment+0x208>
  104e3c:	e3a01002 	mov	r1, #2
  104e40:	e51b0030 	ldr	r0, [fp, #-48]	; 0xffffffd0
  104e44:	eb0010d0 	bl	10918c <alt_dma_program_DMAST>
  104e48:	e50b0008 	str	r0, [fp, #-8]
  104e4c:	e51b3008 	ldr	r3, [fp, #-8]
  104e50:	e3530000 	cmp	r3, #0
  104e54:	1a000006 	bne	104e74 <alt_dma_i2c_to_memory_common_segment+0x230>
  104e58:	e51b3020 	ldr	r3, [fp, #-32]	; 0xffffffe0
  104e5c:	e3530001 	cmp	r3, #1
  104e60:	9a000003 	bls	104e74 <alt_dma_i2c_to_memory_common_segment+0x230>
  104e64:	e3a01000 	mov	r1, #0
  104e68:	e51b0030 	ldr	r0, [fp, #-48]	; 0xffffffd0
  104e6c:	eb000f07 	bl	108a90 <alt_dma_program_DMALPEND>
  104e70:	e50b0008 	str	r0, [fp, #-8]
  104e74:	e51b3010 	ldr	r3, [fp, #-16]
  104e78:	e3530000 	cmp	r3, #0
  104e7c:	1affffb3 	bne	104d50 <alt_dma_i2c_to_memory_common_segment+0x10c>
  104e80:	ea000000 	b	104e88 <alt_dma_i2c_to_memory_common_segment+0x244>
  104e84:	e1a00000 	nop			; (mov r0, r0)
  104e88:	e51b3014 	ldr	r3, [fp, #-20]	; 0xffffffec
  104e8c:	e3530000 	cmp	r3, #0
  104e90:	0a00004c 	beq	104fc8 <alt_dma_i2c_to_memory_common_segment+0x384>
  104e94:	e51b3008 	ldr	r3, [fp, #-8]
  104e98:	e3530000 	cmp	r3, #0
  104e9c:	1a000044 	bne	104fb4 <alt_dma_i2c_to_memory_common_segment+0x370>
  104ea0:	e3a02901 	mov	r2, #16384	; 0x4000
  104ea4:	e3a01001 	mov	r1, #1
  104ea8:	e51b0030 	ldr	r0, [fp, #-48]	; 0xffffffd0
  104eac:	eb000fc6 	bl	108dcc <alt_dma_program_DMAMOV>
  104eb0:	e50b0008 	str	r0, [fp, #-8]
  104eb4:	ea00003e 	b	104fb4 <alt_dma_i2c_to_memory_common_segment+0x370>
  104eb8:	e51b3008 	ldr	r3, [fp, #-8]
  104ebc:	e3530000 	cmp	r3, #0
  104ec0:	1a00003f 	bne	104fc4 <alt_dma_i2c_to_memory_common_segment+0x380>
  104ec4:	e51b3014 	ldr	r3, [fp, #-20]	; 0xffffffec
  104ec8:	e3530c01 	cmp	r3, #256	; 0x100
  104ecc:	31a03003 	movcc	r3, r3
  104ed0:	23a03c01 	movcs	r3, #256	; 0x100
  104ed4:	e50b3024 	str	r3, [fp, #-36]	; 0xffffffdc
  104ed8:	e51b2014 	ldr	r2, [fp, #-20]	; 0xffffffec
  104edc:	e51b3024 	ldr	r3, [fp, #-36]	; 0xffffffdc
  104ee0:	e0633002 	rsb	r3, r3, r2
  104ee4:	e50b3014 	str	r3, [fp, #-20]	; 0xffffffec
  104ee8:	e51b3008 	ldr	r3, [fp, #-8]
  104eec:	e3530000 	cmp	r3, #0
  104ef0:	1a000006 	bne	104f10 <alt_dma_i2c_to_memory_common_segment+0x2cc>
  104ef4:	e51b3024 	ldr	r3, [fp, #-36]	; 0xffffffdc
  104ef8:	e3530001 	cmp	r3, #1
  104efc:	9a000003 	bls	104f10 <alt_dma_i2c_to_memory_common_segment+0x2cc>
  104f00:	e51b1024 	ldr	r1, [fp, #-36]	; 0xffffffdc
  104f04:	e51b0030 	ldr	r0, [fp, #-48]	; 0xffffffd0
  104f08:	eb000e80 	bl	108910 <alt_dma_program_DMALP>
  104f0c:	e50b0008 	str	r0, [fp, #-8]
  104f10:	e51b3008 	ldr	r3, [fp, #-8]
  104f14:	e3530000 	cmp	r3, #0
  104f18:	1a000004 	bne	104f30 <alt_dma_i2c_to_memory_common_segment+0x2ec>
  104f1c:	e55b3031 	ldrb	r3, [fp, #-49]	; 0xffffffcf
  104f20:	e1a01003 	mov	r1, r3
  104f24:	e51b0030 	ldr	r0, [fp, #-48]	; 0xffffffd0
  104f28:	eb000d45 	bl	108444 <alt_dma_program_DMAFLUSHP>
  104f2c:	e50b0008 	str	r0, [fp, #-8]
  104f30:	e51b3008 	ldr	r3, [fp, #-8]
  104f34:	e3530000 	cmp	r3, #0
  104f38:	1a000005 	bne	104f54 <alt_dma_i2c_to_memory_common_segment+0x310>
  104f3c:	e55b3031 	ldrb	r3, [fp, #-49]	; 0xffffffcf
  104f40:	e3a02001 	mov	r2, #1
  104f44:	e1a01003 	mov	r1, r3
  104f48:	e51b0030 	ldr	r0, [fp, #-48]	; 0xffffffd0
  104f4c:	eb00116f 	bl	109510 <alt_dma_program_DMAWFP>
  104f50:	e50b0008 	str	r0, [fp, #-8]
  104f54:	e51b3008 	ldr	r3, [fp, #-8]
  104f58:	e3530000 	cmp	r3, #0
  104f5c:	1a000003 	bne	104f70 <alt_dma_i2c_to_memory_common_segment+0x32c>
  104f60:	e3a01001 	mov	r1, #1
  104f64:	e51b0030 	ldr	r0, [fp, #-48]	; 0xffffffd0
  104f68:	eb000de9 	bl	108714 <alt_dma_program_DMALD>
  104f6c:	e50b0008 	str	r0, [fp, #-8]
  104f70:	e51b3008 	ldr	r3, [fp, #-8]
  104f74:	e3530000 	cmp	r3, #0
  104f78:	1a000003 	bne	104f8c <alt_dma_i2c_to_memory_common_segment+0x348>
  104f7c:	e3a01001 	mov	r1, #1
  104f80:	e51b0030 	ldr	r0, [fp, #-48]	; 0xffffffd0
  104f84:	eb001080 	bl	10918c <alt_dma_program_DMAST>
  104f88:	e50b0008 	str	r0, [fp, #-8]
  104f8c:	e51b3008 	ldr	r3, [fp, #-8]
  104f90:	e3530000 	cmp	r3, #0
  104f94:	1a000006 	bne	104fb4 <alt_dma_i2c_to_memory_common_segment+0x370>
  104f98:	e51b3024 	ldr	r3, [fp, #-36]	; 0xffffffdc
  104f9c:	e3530001 	cmp	r3, #1
  104fa0:	9a000003 	bls	104fb4 <alt_dma_i2c_to_memory_common_segment+0x370>
  104fa4:	e3a01000 	mov	r1, #0
  104fa8:	e51b0030 	ldr	r0, [fp, #-48]	; 0xffffffd0
  104fac:	eb000eb7 	bl	108a90 <alt_dma_program_DMALPEND>
  104fb0:	e50b0008 	str	r0, [fp, #-8]
  104fb4:	e51b3014 	ldr	r3, [fp, #-20]	; 0xffffffec
  104fb8:	e3530000 	cmp	r3, #0
  104fbc:	1affffbd 	bne	104eb8 <alt_dma_i2c_to_memory_common_segment+0x274>
  104fc0:	ea000000 	b	104fc8 <alt_dma_i2c_to_memory_common_segment+0x384>
  104fc4:	e1a00000 	nop			; (mov r0, r0)
  104fc8:	e51b3008 	ldr	r3, [fp, #-8]
  104fcc:	e1a00003 	mov	r0, r3
  104fd0:	e24bd004 	sub	sp, fp, #4
  104fd4:	e8bd8800 	pop	{fp, pc}

00104fd8 <alt_dma_i2c_to_memory_common>:
  104fd8:	e92d4800 	push	{fp, lr}
  104fdc:	e28db004 	add	fp, sp, #4
  104fe0:	e24dd038 	sub	sp, sp, #56	; 0x38
  104fe4:	e50b0028 	str	r0, [fp, #-40]	; 0xffffffd8
  104fe8:	e50b2030 	str	r2, [fp, #-48]	; 0xffffffd0
  104fec:	e50b3034 	str	r3, [fp, #-52]	; 0xffffffcc
  104ff0:	e1a03001 	mov	r3, r1
  104ff4:	e54b3029 	strb	r3, [fp, #-41]	; 0xffffffd7
  104ff8:	e3a03000 	mov	r3, #0
  104ffc:	e50b3008 	str	r3, [fp, #-8]
  105000:	e51b3030 	ldr	r3, [fp, #-48]	; 0xffffffd0
  105004:	e5933000 	ldr	r3, [r3]
  105008:	e5933000 	ldr	r3, [r3]
  10500c:	e2833038 	add	r3, r3, #56	; 0x38
  105010:	e5933000 	ldr	r3, [r3]
  105014:	e6ef3073 	uxtb	r3, r3
  105018:	e2833001 	add	r3, r3, #1
  10501c:	e54b3009 	strb	r3, [fp, #-9]
  105020:	e51b3008 	ldr	r3, [fp, #-8]
  105024:	e3530000 	cmp	r3, #0
  105028:	1a000008 	bne	105050 <alt_dma_i2c_to_memory_common+0x78>
  10502c:	e51b3030 	ldr	r3, [fp, #-48]	; 0xffffffd0
  105030:	e5933000 	ldr	r3, [r3]
  105034:	e5933000 	ldr	r3, [r3]
  105038:	e2833010 	add	r3, r3, #16
  10503c:	e1a02003 	mov	r2, r3
  105040:	e3a01000 	mov	r1, #0
  105044:	e51b0028 	ldr	r0, [fp, #-40]	; 0xffffffd8
  105048:	eb000f5f 	bl	108dcc <alt_dma_program_DMAMOV>
  10504c:	e50b0008 	str	r0, [fp, #-8]
  105050:	e51b3008 	ldr	r3, [fp, #-8]
  105054:	e3530000 	cmp	r3, #0
  105058:	1a000026 	bne	1050f8 <alt_dma_i2c_to_memory_common+0x120>
  10505c:	e24b301c 	sub	r3, fp, #28
  105060:	e59b2004 	ldr	r2, [fp, #4]
  105064:	e51b1034 	ldr	r1, [fp, #-52]	; 0xffffffcc
  105068:	e1a00003 	mov	r0, r3
  10506c:	ebfff4cd 	bl	1023a8 <alt_mmu_va_to_pa_coalesce_begin>
  105070:	e50b0008 	str	r0, [fp, #-8]
  105074:	ea00001f 	b	1050f8 <alt_dma_i2c_to_memory_common+0x120>
  105078:	e51b3008 	ldr	r3, [fp, #-8]
  10507c:	e3530000 	cmp	r3, #0
  105080:	1a000020 	bne	105108 <alt_dma_i2c_to_memory_common+0x130>
  105084:	e3a03000 	mov	r3, #0
  105088:	e50b3020 	str	r3, [fp, #-32]	; 0xffffffe0
  10508c:	e3a03000 	mov	r3, #0
  105090:	e50b3024 	str	r3, [fp, #-36]	; 0xffffffdc
  105094:	e51b3008 	ldr	r3, [fp, #-8]
  105098:	e3530000 	cmp	r3, #0
  10509c:	1a000005 	bne	1050b8 <alt_dma_i2c_to_memory_common+0xe0>
  1050a0:	e24b2024 	sub	r2, fp, #36	; 0x24
  1050a4:	e24b1020 	sub	r1, fp, #32
  1050a8:	e24b301c 	sub	r3, fp, #28
  1050ac:	e1a00003 	mov	r0, r3
  1050b0:	ebfff4eb 	bl	102464 <alt_mmu_va_to_pa_coalesce_next>
  1050b4:	e50b0008 	str	r0, [fp, #-8]
  1050b8:	e51b3024 	ldr	r3, [fp, #-36]	; 0xffffffdc
  1050bc:	e59b2004 	ldr	r2, [fp, #4]
  1050c0:	e0633002 	rsb	r3, r3, r2
  1050c4:	e58b3004 	str	r3, [fp, #4]
  1050c8:	e51b3008 	ldr	r3, [fp, #-8]
  1050cc:	e3530000 	cmp	r3, #0
  1050d0:	1a000008 	bne	1050f8 <alt_dma_i2c_to_memory_common+0x120>
  1050d4:	e51b0020 	ldr	r0, [fp, #-32]	; 0xffffffe0
  1050d8:	e51b3024 	ldr	r3, [fp, #-36]	; 0xffffffdc
  1050dc:	e55b2009 	ldrb	r2, [fp, #-9]
  1050e0:	e55b1029 	ldrb	r1, [fp, #-41]	; 0xffffffd7
  1050e4:	e58d3000 	str	r3, [sp]
  1050e8:	e1a03000 	mov	r3, r0
  1050ec:	e51b0028 	ldr	r0, [fp, #-40]	; 0xffffffd8
  1050f0:	ebfffed3 	bl	104c44 <alt_dma_i2c_to_memory_common_segment>
  1050f4:	e50b0008 	str	r0, [fp, #-8]
  1050f8:	e59b3004 	ldr	r3, [fp, #4]
  1050fc:	e3530000 	cmp	r3, #0
  105100:	1affffdc 	bne	105078 <alt_dma_i2c_to_memory_common+0xa0>
  105104:	ea000000 	b	10510c <alt_dma_i2c_to_memory_common+0x134>
  105108:	e1a00000 	nop			; (mov r0, r0)
  10510c:	e51b3008 	ldr	r3, [fp, #-8]
  105110:	e3530000 	cmp	r3, #0
  105114:	1a000003 	bne	105128 <alt_dma_i2c_to_memory_common+0x150>
  105118:	e24b301c 	sub	r3, fp, #28
  10511c:	e1a00003 	mov	r0, r3
  105120:	ebfff530 	bl	1025e8 <alt_mmu_va_to_pa_coalesce_end>
  105124:	e50b0008 	str	r0, [fp, #-8]
  105128:	e51b3008 	ldr	r3, [fp, #-8]
  10512c:	e1a00003 	mov	r0, r3
  105130:	e24bd004 	sub	sp, fp, #4
  105134:	e8bd8800 	pop	{fp, pc}

00105138 <alt_dma_i2c_to_memory_master>:
  105138:	e92d4800 	push	{fp, lr}
  10513c:	e28db004 	add	fp, sp, #4
  105140:	e24dd050 	sub	sp, sp, #80	; 0x50
  105144:	e50b0040 	str	r0, [fp, #-64]	; 0xffffffc0
  105148:	e50b2048 	str	r2, [fp, #-72]	; 0xffffffb8
  10514c:	e50b304c 	str	r3, [fp, #-76]	; 0xffffffb4
  105150:	e1a03001 	mov	r3, r1
  105154:	e54b3041 	strb	r3, [fp, #-65]	; 0xffffffbf
  105158:	e3a03000 	mov	r3, #0
  10515c:	e50b3008 	str	r3, [fp, #-8]
  105160:	e51b3008 	ldr	r3, [fp, #-8]
  105164:	e3530000 	cmp	r3, #0
  105168:	1a00000e 	bne	1051a8 <alt_dma_i2c_to_memory_master+0x70>
  10516c:	e51b3048 	ldr	r3, [fp, #-72]	; 0xffffffb8
  105170:	e2833008 	add	r3, r3, #8
  105174:	e24b2038 	sub	r2, fp, #56	; 0x38
  105178:	e24b103c 	sub	r1, fp, #60	; 0x3c
  10517c:	e1a00003 	mov	r0, r3
  105180:	ebfff11c 	bl	1015f8 <alt_mmu_va_to_pa>
  105184:	e50b000c 	str	r0, [fp, #-12]
  105188:	e51b3038 	ldr	r3, [fp, #-56]	; 0xffffffc8
  10518c:	e3530000 	cmp	r3, #0
  105190:	0a000004 	beq	1051a8 <alt_dma_i2c_to_memory_master+0x70>
  105194:	e3040da8 	movw	r0, #19880	; 0x4da8
  105198:	e3400011 	movt	r0, #17
  10519c:	eb001724 	bl	10ae34 <puts>
  1051a0:	e3e03000 	mvn	r3, #0
  1051a4:	e50b3008 	str	r3, [fp, #-8]
  1051a8:	e55b3041 	ldrb	r3, [fp, #-65]	; 0xffffffbf
  1051ac:	e2433001 	sub	r3, r3, #1
  1051b0:	e54b3015 	strb	r3, [fp, #-21]	; 0xffffffeb
  1051b4:	e59b3004 	ldr	r3, [fp, #4]
  1051b8:	e50b3010 	str	r3, [fp, #-16]
  1051bc:	e59b3004 	ldr	r3, [fp, #4]
  1051c0:	e50b3014 	str	r3, [fp, #-20]	; 0xffffffec
  1051c4:	e3a03040 	mov	r3, #64	; 0x40
  1051c8:	e50b301c 	str	r3, [fp, #-28]	; 0xffffffe4
  1051cc:	e51b3048 	ldr	r3, [fp, #-72]	; 0xffffffb8
  1051d0:	e3a02c01 	mov	r2, #256	; 0x100
  1051d4:	e5832008 	str	r2, [r3, #8]
  1051d8:	e51b3048 	ldr	r3, [fp, #-72]	; 0xffffffb8
  1051dc:	e5d33004 	ldrb	r3, [r3, #4]
  1051e0:	e1a03503 	lsl	r3, r3, #10
  1051e4:	e2033b01 	and	r3, r3, #1024	; 0x400
  1051e8:	e3833c01 	orr	r3, r3, #256	; 0x100
  1051ec:	e1a02003 	mov	r2, r3
  1051f0:	e51b3048 	ldr	r3, [fp, #-72]	; 0xffffffb8
  1051f4:	e583200c 	str	r2, [r3, #12]
  1051f8:	e51b3048 	ldr	r3, [fp, #-72]	; 0xffffffb8
  1051fc:	e5d33005 	ldrb	r3, [r3, #5]
  105200:	e1a03483 	lsl	r3, r3, #9
  105204:	e2033c02 	and	r3, r3, #512	; 0x200
  105208:	e3833c01 	orr	r3, r3, #256	; 0x100
  10520c:	e1a02003 	mov	r2, r3
  105210:	e51b3048 	ldr	r3, [fp, #-72]	; 0xffffffb8
  105214:	e5832010 	str	r2, [r3, #16]
  105218:	e51b3048 	ldr	r3, [fp, #-72]	; 0xffffffb8
  10521c:	e5d33004 	ldrb	r3, [r3, #4]
  105220:	e1a03503 	lsl	r3, r3, #10
  105224:	e2033b01 	and	r3, r3, #1024	; 0x400
  105228:	e3832c01 	orr	r2, r3, #256	; 0x100
  10522c:	e51b3048 	ldr	r3, [fp, #-72]	; 0xffffffb8
  105230:	e5d33005 	ldrb	r3, [r3, #5]
  105234:	e1a03483 	lsl	r3, r3, #9
  105238:	e2033c02 	and	r3, r3, #512	; 0x200
  10523c:	e1823003 	orr	r3, r2, r3
  105240:	e1a02003 	mov	r2, r3
  105244:	e51b3048 	ldr	r3, [fp, #-72]	; 0xffffffb8
  105248:	e5832014 	str	r2, [r3, #20]
  10524c:	e51b2010 	ldr	r2, [fp, #-16]
  105250:	e51b301c 	ldr	r3, [fp, #-28]	; 0xffffffe4
  105254:	e1520003 	cmp	r2, r3
  105258:	31a03002 	movcc	r3, r2
  10525c:	21a03003 	movcs	r3, r3
  105260:	e50b3020 	str	r3, [fp, #-32]	; 0xffffffe0
  105264:	e51b2010 	ldr	r2, [fp, #-16]
  105268:	e51b3020 	ldr	r3, [fp, #-32]	; 0xffffffe0
  10526c:	e0633002 	rsb	r3, r3, r2
  105270:	e50b3010 	str	r3, [fp, #-16]
  105274:	e51b3020 	ldr	r3, [fp, #-32]	; 0xffffffe0
  105278:	e3530001 	cmp	r3, #1
  10527c:	1a000010 	bne	1052c4 <alt_dma_i2c_to_memory_master+0x18c>
  105280:	e51b3008 	ldr	r3, [fp, #-8]
  105284:	e3530000 	cmp	r3, #0
  105288:	1a0000c2 	bne	105598 <alt_dma_i2c_to_memory_master+0x460>
  10528c:	e51b3048 	ldr	r3, [fp, #-72]	; 0xffffffb8
  105290:	e5932000 	ldr	r2, [r3]
  105294:	e51b300c 	ldr	r3, [fp, #-12]
  105298:	e283000c 	add	r0, r3, #12
  10529c:	e55b1015 	ldrb	r1, [fp, #-21]	; 0xffffffeb
  1052a0:	e3a03001 	mov	r3, #1
  1052a4:	e58d3004 	str	r3, [sp, #4]
  1052a8:	e3a03001 	mov	r3, #1
  1052ac:	e58d3000 	str	r3, [sp]
  1052b0:	e1a03000 	mov	r3, r0
  1052b4:	e51b0040 	ldr	r0, [fp, #-64]	; 0xffffffc0
  1052b8:	ebfffbd2 	bl	104208 <alt_dma_memory_to_i2c_master_custom>
  1052bc:	e50b0008 	str	r0, [fp, #-8]
  1052c0:	ea0000b4 	b	105598 <alt_dma_i2c_to_memory_master+0x460>
  1052c4:	e51b3010 	ldr	r3, [fp, #-16]
  1052c8:	e3530000 	cmp	r3, #0
  1052cc:	1a000033 	bne	1053a0 <alt_dma_i2c_to_memory_master+0x268>
  1052d0:	e51b3008 	ldr	r3, [fp, #-8]
  1052d4:	e3530000 	cmp	r3, #0
  1052d8:	1a00000c 	bne	105310 <alt_dma_i2c_to_memory_master+0x1d8>
  1052dc:	e51b3048 	ldr	r3, [fp, #-72]	; 0xffffffb8
  1052e0:	e5932000 	ldr	r2, [r3]
  1052e4:	e51b300c 	ldr	r3, [fp, #-12]
  1052e8:	e2830004 	add	r0, r3, #4
  1052ec:	e55b1015 	ldrb	r1, [fp, #-21]	; 0xffffffeb
  1052f0:	e3a03001 	mov	r3, #1
  1052f4:	e58d3004 	str	r3, [sp, #4]
  1052f8:	e3a03001 	mov	r3, #1
  1052fc:	e58d3000 	str	r3, [sp]
  105300:	e1a03000 	mov	r3, r0
  105304:	e51b0040 	ldr	r0, [fp, #-64]	; 0xffffffc0
  105308:	ebfffbbe 	bl	104208 <alt_dma_memory_to_i2c_master_custom>
  10530c:	e50b0008 	str	r0, [fp, #-8]
  105310:	e51b3008 	ldr	r3, [fp, #-8]
  105314:	e3530000 	cmp	r3, #0
  105318:	1a00000f 	bne	10535c <alt_dma_i2c_to_memory_master+0x224>
  10531c:	e51b3020 	ldr	r3, [fp, #-32]	; 0xffffffe0
  105320:	e3530002 	cmp	r3, #2
  105324:	9a00000c 	bls	10535c <alt_dma_i2c_to_memory_master+0x224>
  105328:	e51b3048 	ldr	r3, [fp, #-72]	; 0xffffffb8
  10532c:	e5930000 	ldr	r0, [r3]
  105330:	e51b3020 	ldr	r3, [fp, #-32]	; 0xffffffe0
  105334:	e2433002 	sub	r3, r3, #2
  105338:	e55b1015 	ldrb	r1, [fp, #-21]	; 0xffffffeb
  10533c:	e3a02000 	mov	r2, #0
  105340:	e58d2004 	str	r2, [sp, #4]
  105344:	e58d3000 	str	r3, [sp]
  105348:	e51b300c 	ldr	r3, [fp, #-12]
  10534c:	e1a02000 	mov	r2, r0
  105350:	e51b0040 	ldr	r0, [fp, #-64]	; 0xffffffc0
  105354:	ebfffbab 	bl	104208 <alt_dma_memory_to_i2c_master_custom>
  105358:	e50b0008 	str	r0, [fp, #-8]
  10535c:	e51b3008 	ldr	r3, [fp, #-8]
  105360:	e3530000 	cmp	r3, #0
  105364:	1a00008b 	bne	105598 <alt_dma_i2c_to_memory_master+0x460>
  105368:	e51b3048 	ldr	r3, [fp, #-72]	; 0xffffffb8
  10536c:	e5932000 	ldr	r2, [r3]
  105370:	e51b300c 	ldr	r3, [fp, #-12]
  105374:	e2830008 	add	r0, r3, #8
  105378:	e55b1015 	ldrb	r1, [fp, #-21]	; 0xffffffeb
  10537c:	e3a03000 	mov	r3, #0
  105380:	e58d3004 	str	r3, [sp, #4]
  105384:	e3a03001 	mov	r3, #1
  105388:	e58d3000 	str	r3, [sp]
  10538c:	e1a03000 	mov	r3, r0
  105390:	e51b0040 	ldr	r0, [fp, #-64]	; 0xffffffc0
  105394:	ebfffb9b 	bl	104208 <alt_dma_memory_to_i2c_master_custom>
  105398:	e50b0008 	str	r0, [fp, #-8]
  10539c:	ea00007d 	b	105598 <alt_dma_i2c_to_memory_master+0x460>
  1053a0:	e51b3008 	ldr	r3, [fp, #-8]
  1053a4:	e3530000 	cmp	r3, #0
  1053a8:	1a00000c 	bne	1053e0 <alt_dma_i2c_to_memory_master+0x2a8>
  1053ac:	e51b3048 	ldr	r3, [fp, #-72]	; 0xffffffb8
  1053b0:	e5932000 	ldr	r2, [r3]
  1053b4:	e51b300c 	ldr	r3, [fp, #-12]
  1053b8:	e2830004 	add	r0, r3, #4
  1053bc:	e55b1015 	ldrb	r1, [fp, #-21]	; 0xffffffeb
  1053c0:	e3a03001 	mov	r3, #1
  1053c4:	e58d3004 	str	r3, [sp, #4]
  1053c8:	e3a03001 	mov	r3, #1
  1053cc:	e58d3000 	str	r3, [sp]
  1053d0:	e1a03000 	mov	r3, r0
  1053d4:	e51b0040 	ldr	r0, [fp, #-64]	; 0xffffffc0
  1053d8:	ebfffb8a 	bl	104208 <alt_dma_memory_to_i2c_master_custom>
  1053dc:	e50b0008 	str	r0, [fp, #-8]
  1053e0:	e51b3008 	ldr	r3, [fp, #-8]
  1053e4:	e3530000 	cmp	r3, #0
  1053e8:	1a00006a 	bne	105598 <alt_dma_i2c_to_memory_master+0x460>
  1053ec:	e51b3048 	ldr	r3, [fp, #-72]	; 0xffffffb8
  1053f0:	e5930000 	ldr	r0, [r3]
  1053f4:	e51b3020 	ldr	r3, [fp, #-32]	; 0xffffffe0
  1053f8:	e2433001 	sub	r3, r3, #1
  1053fc:	e55b1015 	ldrb	r1, [fp, #-21]	; 0xffffffeb
  105400:	e3a02000 	mov	r2, #0
  105404:	e58d2004 	str	r2, [sp, #4]
  105408:	e58d3000 	str	r3, [sp]
  10540c:	e51b300c 	ldr	r3, [fp, #-12]
  105410:	e1a02000 	mov	r2, r0
  105414:	e51b0040 	ldr	r0, [fp, #-64]	; 0xffffffc0
  105418:	ebfffb7a 	bl	104208 <alt_dma_memory_to_i2c_master_custom>
  10541c:	e50b0008 	str	r0, [fp, #-8]
  105420:	ea00005c 	b	105598 <alt_dma_i2c_to_memory_master+0x460>
  105424:	e51b3008 	ldr	r3, [fp, #-8]
  105428:	e3530000 	cmp	r3, #0
  10542c:	1a00005d 	bne	1055a8 <alt_dma_i2c_to_memory_master+0x470>
  105430:	e51b301c 	ldr	r3, [fp, #-28]	; 0xffffffe4
  105434:	e1a020a3 	lsr	r2, r3, #1
  105438:	e51b3014 	ldr	r3, [fp, #-20]	; 0xffffffec
  10543c:	e1520003 	cmp	r2, r3
  105440:	31a03002 	movcc	r3, r2
  105444:	21a03003 	movcs	r3, r3
  105448:	e50b3024 	str	r3, [fp, #-36]	; 0xffffffdc
  10544c:	e51b3008 	ldr	r3, [fp, #-8]
  105450:	e3530000 	cmp	r3, #0
  105454:	1a000007 	bne	105478 <alt_dma_i2c_to_memory_master+0x340>
  105458:	e55b1041 	ldrb	r1, [fp, #-65]	; 0xffffffbf
  10545c:	e51b3024 	ldr	r3, [fp, #-36]	; 0xffffffdc
  105460:	e58d3000 	str	r3, [sp]
  105464:	e51b304c 	ldr	r3, [fp, #-76]	; 0xffffffb4
  105468:	e51b2048 	ldr	r2, [fp, #-72]	; 0xffffffb8
  10546c:	e51b0040 	ldr	r0, [fp, #-64]	; 0xffffffc0
  105470:	ebfffed8 	bl	104fd8 <alt_dma_i2c_to_memory_common>
  105474:	e50b0008 	str	r0, [fp, #-8]
  105478:	e51b2014 	ldr	r2, [fp, #-20]	; 0xffffffec
  10547c:	e51b3024 	ldr	r3, [fp, #-36]	; 0xffffffdc
  105480:	e0633002 	rsb	r3, r3, r2
  105484:	e50b3014 	str	r3, [fp, #-20]	; 0xffffffec
  105488:	e51b204c 	ldr	r2, [fp, #-76]	; 0xffffffb4
  10548c:	e51b3024 	ldr	r3, [fp, #-36]	; 0xffffffdc
  105490:	e0823003 	add	r3, r2, r3
  105494:	e50b304c 	str	r3, [fp, #-76]	; 0xffffffb4
  105498:	e51b3010 	ldr	r3, [fp, #-16]
  10549c:	e3530000 	cmp	r3, #0
  1054a0:	0a00003c 	beq	105598 <alt_dma_i2c_to_memory_master+0x460>
  1054a4:	e51b301c 	ldr	r3, [fp, #-28]	; 0xffffffe4
  1054a8:	e1a020a3 	lsr	r2, r3, #1
  1054ac:	e51b3010 	ldr	r3, [fp, #-16]
  1054b0:	e1520003 	cmp	r2, r3
  1054b4:	31a03002 	movcc	r3, r2
  1054b8:	21a03003 	movcs	r3, r3
  1054bc:	e50b3028 	str	r3, [fp, #-40]	; 0xffffffd8
  1054c0:	e51b2010 	ldr	r2, [fp, #-16]
  1054c4:	e51b3028 	ldr	r3, [fp, #-40]	; 0xffffffd8
  1054c8:	e0633002 	rsb	r3, r3, r2
  1054cc:	e50b3010 	str	r3, [fp, #-16]
  1054d0:	e51b3010 	ldr	r3, [fp, #-16]
  1054d4:	e3530000 	cmp	r3, #0
  1054d8:	1a000020 	bne	105560 <alt_dma_i2c_to_memory_master+0x428>
  1054dc:	e51b3008 	ldr	r3, [fp, #-8]
  1054e0:	e3530000 	cmp	r3, #0
  1054e4:	1a00000c 	bne	10551c <alt_dma_i2c_to_memory_master+0x3e4>
  1054e8:	e51b3048 	ldr	r3, [fp, #-72]	; 0xffffffb8
  1054ec:	e5930000 	ldr	r0, [r3]
  1054f0:	e51b3028 	ldr	r3, [fp, #-40]	; 0xffffffd8
  1054f4:	e2433001 	sub	r3, r3, #1
  1054f8:	e55b1015 	ldrb	r1, [fp, #-21]	; 0xffffffeb
  1054fc:	e3a02001 	mov	r2, #1
  105500:	e58d2004 	str	r2, [sp, #4]
  105504:	e58d3000 	str	r3, [sp]
  105508:	e51b300c 	ldr	r3, [fp, #-12]
  10550c:	e1a02000 	mov	r2, r0
  105510:	e51b0040 	ldr	r0, [fp, #-64]	; 0xffffffc0
  105514:	ebfffb3b 	bl	104208 <alt_dma_memory_to_i2c_master_custom>
  105518:	e50b0008 	str	r0, [fp, #-8]
  10551c:	e51b3008 	ldr	r3, [fp, #-8]
  105520:	e3530000 	cmp	r3, #0
  105524:	1a00001b 	bne	105598 <alt_dma_i2c_to_memory_master+0x460>
  105528:	e51b3048 	ldr	r3, [fp, #-72]	; 0xffffffb8
  10552c:	e5932000 	ldr	r2, [r3]
  105530:	e51b300c 	ldr	r3, [fp, #-12]
  105534:	e2830008 	add	r0, r3, #8
  105538:	e55b1015 	ldrb	r1, [fp, #-21]	; 0xffffffeb
  10553c:	e3a03000 	mov	r3, #0
  105540:	e58d3004 	str	r3, [sp, #4]
  105544:	e3a03001 	mov	r3, #1
  105548:	e58d3000 	str	r3, [sp]
  10554c:	e1a03000 	mov	r3, r0
  105550:	e51b0040 	ldr	r0, [fp, #-64]	; 0xffffffc0
  105554:	ebfffb2b 	bl	104208 <alt_dma_memory_to_i2c_master_custom>
  105558:	e50b0008 	str	r0, [fp, #-8]
  10555c:	ea00000d 	b	105598 <alt_dma_i2c_to_memory_master+0x460>
  105560:	e51b3008 	ldr	r3, [fp, #-8]
  105564:	e3530000 	cmp	r3, #0
  105568:	1a00000a 	bne	105598 <alt_dma_i2c_to_memory_master+0x460>
  10556c:	e51b3048 	ldr	r3, [fp, #-72]	; 0xffffffb8
  105570:	e5932000 	ldr	r2, [r3]
  105574:	e55b1015 	ldrb	r1, [fp, #-21]	; 0xffffffeb
  105578:	e3a03001 	mov	r3, #1
  10557c:	e58d3004 	str	r3, [sp, #4]
  105580:	e51b3028 	ldr	r3, [fp, #-40]	; 0xffffffd8
  105584:	e58d3000 	str	r3, [sp]
  105588:	e51b300c 	ldr	r3, [fp, #-12]
  10558c:	e51b0040 	ldr	r0, [fp, #-64]	; 0xffffffc0
  105590:	ebfffb1c 	bl	104208 <alt_dma_memory_to_i2c_master_custom>
  105594:	e50b0008 	str	r0, [fp, #-8]
  105598:	e51b3014 	ldr	r3, [fp, #-20]	; 0xffffffec
  10559c:	e3530000 	cmp	r3, #0
  1055a0:	1affff9f 	bne	105424 <alt_dma_i2c_to_memory_master+0x2ec>
  1055a4:	ea000000 	b	1055ac <alt_dma_i2c_to_memory_master+0x474>
  1055a8:	e1a00000 	nop			; (mov r0, r0)
  1055ac:	e51b3008 	ldr	r3, [fp, #-8]
  1055b0:	e3530000 	cmp	r3, #0
  1055b4:	1a000010 	bne	1055fc <alt_dma_i2c_to_memory_master+0x4c4>
  1055b8:	e51b3048 	ldr	r3, [fp, #-72]	; 0xffffffb8
  1055bc:	e2833008 	add	r3, r3, #8
  1055c0:	e3c3301f 	bic	r3, r3, #31
  1055c4:	e50b302c 	str	r3, [fp, #-44]	; 0xffffffd4
  1055c8:	e51b3048 	ldr	r3, [fp, #-72]	; 0xffffffb8
  1055cc:	e2833008 	add	r3, r3, #8
  1055d0:	e283302f 	add	r3, r3, #47	; 0x2f
  1055d4:	e3c3301f 	bic	r3, r3, #31
  1055d8:	e50b3030 	str	r3, [fp, #-48]	; 0xffffffd0
  1055dc:	e51b2030 	ldr	r2, [fp, #-48]	; 0xffffffd0
  1055e0:	e51b302c 	ldr	r3, [fp, #-44]	; 0xffffffd4
  1055e4:	e0633002 	rsb	r3, r3, r2
  1055e8:	e50b3034 	str	r3, [fp, #-52]	; 0xffffffcc
  1055ec:	e51b1034 	ldr	r1, [fp, #-52]	; 0xffffffcc
  1055f0:	e51b002c 	ldr	r0, [fp, #-44]	; 0xffffffd4
  1055f4:	ebfff010 	bl	10163c <alt_cache_system_clean>
  1055f8:	e50b0008 	str	r0, [fp, #-8]
  1055fc:	e51b3008 	ldr	r3, [fp, #-8]
  105600:	e1a00003 	mov	r0, r3
  105604:	e24bd004 	sub	sp, fp, #4
  105608:	e8bd8800 	pop	{fp, pc}

0010560c <alt_dma_i2c_to_memory>:
  10560c:	e92d4800 	push	{fp, lr}
  105610:	e28db004 	add	fp, sp, #4
  105614:	e24dd020 	sub	sp, sp, #32
  105618:	e50b0010 	str	r0, [fp, #-16]
  10561c:	e50b2018 	str	r2, [fp, #-24]	; 0xffffffe8
  105620:	e50b301c 	str	r3, [fp, #-28]	; 0xffffffe4
  105624:	e1a03001 	mov	r3, r1
  105628:	e54b3011 	strb	r3, [fp, #-17]	; 0xffffffef
  10562c:	e3a03000 	mov	r3, #0
  105630:	e50b3008 	str	r3, [fp, #-8]
  105634:	e51b3008 	ldr	r3, [fp, #-8]
  105638:	e3530000 	cmp	r3, #0
  10563c:	1a000006 	bne	10565c <alt_dma_i2c_to_memory+0x50>
  105640:	e51b3018 	ldr	r3, [fp, #-24]	; 0xffffffe8
  105644:	e5933000 	ldr	r3, [r3]
  105648:	e24b2009 	sub	r2, fp, #9
  10564c:	e1a01002 	mov	r1, r2
  105650:	e1a00003 	mov	r0, r3
  105654:	ebfffad6 	bl	1041b4 <alt_i2c_op_mode_get>
  105658:	e50b0008 	str	r0, [fp, #-8]
  10565c:	e51b3008 	ldr	r3, [fp, #-8]
  105660:	e3530000 	cmp	r3, #0
  105664:	1a000013 	bne	1056b8 <alt_dma_i2c_to_memory+0xac>
  105668:	e55b3009 	ldrb	r3, [fp, #-9]
  10566c:	e3530001 	cmp	r3, #1
  105670:	1a000008 	bne	105698 <alt_dma_i2c_to_memory+0x8c>
  105674:	e55b1011 	ldrb	r1, [fp, #-17]	; 0xffffffef
  105678:	e59b3004 	ldr	r3, [fp, #4]
  10567c:	e58d3000 	str	r3, [sp]
  105680:	e51b301c 	ldr	r3, [fp, #-28]	; 0xffffffe4
  105684:	e51b2018 	ldr	r2, [fp, #-24]	; 0xffffffe8
  105688:	e51b0010 	ldr	r0, [fp, #-16]
  10568c:	ebfffea9 	bl	105138 <alt_dma_i2c_to_memory_master>
  105690:	e50b0008 	str	r0, [fp, #-8]
  105694:	ea000007 	b	1056b8 <alt_dma_i2c_to_memory+0xac>
  105698:	e55b1011 	ldrb	r1, [fp, #-17]	; 0xffffffef
  10569c:	e59b3004 	ldr	r3, [fp, #4]
  1056a0:	e58d3000 	str	r3, [sp]
  1056a4:	e51b301c 	ldr	r3, [fp, #-28]	; 0xffffffe4
  1056a8:	e51b2018 	ldr	r2, [fp, #-24]	; 0xffffffe8
  1056ac:	e51b0010 	ldr	r0, [fp, #-16]
  1056b0:	ebfffe48 	bl	104fd8 <alt_dma_i2c_to_memory_common>
  1056b4:	e50b0008 	str	r0, [fp, #-8]
  1056b8:	e51b3008 	ldr	r3, [fp, #-8]
  1056bc:	e1a00003 	mov	r0, r3
  1056c0:	e24bd004 	sub	sp, fp, #4
  1056c4:	e8bd8800 	pop	{fp, pc}

001056c8 <alt_dma_memory_to_qspi_segment>:
  1056c8:	e92d4800 	push	{fp, lr}
  1056cc:	e28db004 	add	fp, sp, #4
  1056d0:	e24dd060 	sub	sp, sp, #96	; 0x60
  1056d4:	e50b0058 	str	r0, [fp, #-88]	; 0xffffffa8
  1056d8:	e50b105c 	str	r1, [fp, #-92]	; 0xffffffa4
  1056dc:	e50b2060 	str	r2, [fp, #-96]	; 0xffffffa0
  1056e0:	e50b3064 	str	r3, [fp, #-100]	; 0xffffff9c
  1056e4:	e51b3064 	ldr	r3, [fp, #-100]	; 0xffffff9c
  1056e8:	e2033003 	and	r3, r3, #3
  1056ec:	e3530000 	cmp	r3, #0
  1056f0:	0a000001 	beq	1056fc <alt_dma_memory_to_qspi_segment+0x34>
  1056f4:	e3e03000 	mvn	r3, #0
  1056f8:	ea00017f 	b	105cfc <alt_dma_memory_to_qspi_segment+0x634>
  1056fc:	e59b3004 	ldr	r3, [fp, #4]
  105700:	e2033003 	and	r3, r3, #3
  105704:	e3530000 	cmp	r3, #0
  105708:	0a000001 	beq	105714 <alt_dma_memory_to_qspi_segment+0x4c>
  10570c:	e3e03000 	mvn	r3, #0
  105710:	ea000179 	b	105cfc <alt_dma_memory_to_qspi_segment+0x634>
  105714:	e3a03000 	mov	r3, #0
  105718:	e50b3008 	str	r3, [fp, #-8]
  10571c:	e51b3008 	ldr	r3, [fp, #-8]
  105720:	e3530000 	cmp	r3, #0
  105724:	1a000004 	bne	10573c <alt_dma_memory_to_qspi_segment+0x74>
  105728:	e51b2064 	ldr	r2, [fp, #-100]	; 0xffffff9c
  10572c:	e3a01000 	mov	r1, #0
  105730:	e51b0058 	ldr	r0, [fp, #-88]	; 0xffffffa8
  105734:	eb000da4 	bl	108dcc <alt_dma_program_DMAMOV>
  105738:	e50b0008 	str	r0, [fp, #-8]
  10573c:	e3a02001 	mov	r2, #1
  105740:	e51b305c 	ldr	r3, [fp, #-92]	; 0xffffffa4
  105744:	e1a03312 	lsl	r3, r2, r3
  105748:	e50b3034 	str	r3, [fp, #-52]	; 0xffffffcc
  10574c:	e3a02001 	mov	r2, #1
  105750:	e51b3060 	ldr	r3, [fp, #-96]	; 0xffffffa0
  105754:	e1a03312 	lsl	r3, r2, r3
  105758:	e50b3038 	str	r3, [fp, #-56]	; 0xffffffc8
  10575c:	e51b3034 	ldr	r3, [fp, #-52]	; 0xffffffcc
  105760:	e2432001 	sub	r2, r3, #1
  105764:	e59b3004 	ldr	r3, [fp, #4]
  105768:	e0033002 	and	r3, r3, r2
  10576c:	e3530000 	cmp	r3, #0
  105770:	0a000001 	beq	10577c <alt_dma_memory_to_qspi_segment+0xb4>
  105774:	e3e03000 	mvn	r3, #0
  105778:	ea00015f 	b	105cfc <alt_dma_memory_to_qspi_segment+0x634>
  10577c:	e51b3064 	ldr	r3, [fp, #-100]	; 0xffffff9c
  105780:	e2033007 	and	r3, r3, #7
  105784:	e3530000 	cmp	r3, #0
  105788:	0a000028 	beq	105830 <alt_dma_memory_to_qspi_segment+0x168>
  10578c:	e51b3008 	ldr	r3, [fp, #-8]
  105790:	e3530000 	cmp	r3, #0
  105794:	1a000005 	bne	1057b0 <alt_dma_memory_to_qspi_segment+0xe8>
  105798:	e3a02005 	mov	r2, #5
  10579c:	e3402001 	movt	r2, #1
  1057a0:	e3a01001 	mov	r1, #1
  1057a4:	e51b0058 	ldr	r0, [fp, #-88]	; 0xffffffa8
  1057a8:	eb000d87 	bl	108dcc <alt_dma_program_DMAMOV>
  1057ac:	e50b0008 	str	r0, [fp, #-8]
  1057b0:	e51b3008 	ldr	r3, [fp, #-8]
  1057b4:	e3530000 	cmp	r3, #0
  1057b8:	1a000003 	bne	1057cc <alt_dma_memory_to_qspi_segment+0x104>
  1057bc:	e3a01018 	mov	r1, #24
  1057c0:	e51b0058 	ldr	r0, [fp, #-88]	; 0xffffffa8
  1057c4:	eb000b1e 	bl	108444 <alt_dma_program_DMAFLUSHP>
  1057c8:	e50b0008 	str	r0, [fp, #-8]
  1057cc:	e51b3008 	ldr	r3, [fp, #-8]
  1057d0:	e3530000 	cmp	r3, #0
  1057d4:	1a000004 	bne	1057ec <alt_dma_memory_to_qspi_segment+0x124>
  1057d8:	e3a02001 	mov	r2, #1
  1057dc:	e3a01018 	mov	r1, #24
  1057e0:	e51b0058 	ldr	r0, [fp, #-88]	; 0xffffffa8
  1057e4:	eb000f49 	bl	109510 <alt_dma_program_DMAWFP>
  1057e8:	e50b0008 	str	r0, [fp, #-8]
  1057ec:	e51b3008 	ldr	r3, [fp, #-8]
  1057f0:	e3530000 	cmp	r3, #0
  1057f4:	1a000003 	bne	105808 <alt_dma_memory_to_qspi_segment+0x140>
  1057f8:	e3a01001 	mov	r1, #1
  1057fc:	e51b0058 	ldr	r0, [fp, #-88]	; 0xffffffa8
  105800:	eb000bc3 	bl	108714 <alt_dma_program_DMALD>
  105804:	e50b0008 	str	r0, [fp, #-8]
  105808:	e51b3008 	ldr	r3, [fp, #-8]
  10580c:	e3530000 	cmp	r3, #0
  105810:	1a000003 	bne	105824 <alt_dma_memory_to_qspi_segment+0x15c>
  105814:	e3a01001 	mov	r1, #1
  105818:	e51b0058 	ldr	r0, [fp, #-88]	; 0xffffffa8
  10581c:	eb000e5a 	bl	10918c <alt_dma_program_DMAST>
  105820:	e50b0008 	str	r0, [fp, #-8]
  105824:	e59b3004 	ldr	r3, [fp, #4]
  105828:	e2433004 	sub	r3, r3, #4
  10582c:	e58b3004 	str	r3, [fp, #4]
  105830:	e3a03000 	mov	r3, #0
  105834:	e50b300c 	str	r3, [fp, #-12]
  105838:	e59b2004 	ldr	r2, [fp, #4]
  10583c:	e51b3060 	ldr	r3, [fp, #-96]	; 0xffffffa0
  105840:	e1a03332 	lsr	r3, r2, r3
  105844:	e50b3010 	str	r3, [fp, #-16]
  105848:	e51b2060 	ldr	r2, [fp, #-96]	; 0xffffffa0
  10584c:	e51b305c 	ldr	r3, [fp, #-92]	; 0xffffffa4
  105850:	e1520003 	cmp	r2, r3
  105854:	9a000095 	bls	105ab0 <alt_dma_memory_to_qspi_segment+0x3e8>
  105858:	e51b3010 	ldr	r3, [fp, #-16]
  10585c:	e3530000 	cmp	r3, #0
  105860:	0a000092 	beq	105ab0 <alt_dma_memory_to_qspi_segment+0x3e8>
  105864:	e51b3038 	ldr	r3, [fp, #-56]	; 0xffffffc8
  105868:	e2432001 	sub	r2, r3, #1
  10586c:	e59b3004 	ldr	r3, [fp, #4]
  105870:	e0022003 	and	r2, r2, r3
  105874:	e51b305c 	ldr	r3, [fp, #-92]	; 0xffffffa4
  105878:	e1a03332 	lsr	r3, r2, r3
  10587c:	e50b300c 	str	r3, [fp, #-12]
  105880:	e51b3060 	ldr	r3, [fp, #-96]	; 0xffffffa0
  105884:	e3530003 	cmp	r3, #3
  105888:	31a03003 	movcc	r3, r3
  10588c:	23a03003 	movcs	r3, #3
  105890:	e50b303c 	str	r3, [fp, #-60]	; 0xffffffc4
  105894:	e3a03000 	mov	r3, #0
  105898:	e50b3014 	str	r3, [fp, #-20]	; 0xffffffec
  10589c:	e3a03000 	mov	r3, #0
  1058a0:	e50b3018 	str	r3, [fp, #-24]	; 0xffffffe8
  1058a4:	e51b2038 	ldr	r2, [fp, #-56]	; 0xffffffc8
  1058a8:	e51b303c 	ldr	r3, [fp, #-60]	; 0xffffffc4
  1058ac:	e1a03332 	lsr	r3, r2, r3
  1058b0:	e3530010 	cmp	r3, #16
  1058b4:	8a000006 	bhi	1058d4 <alt_dma_memory_to_qspi_segment+0x20c>
  1058b8:	e51b2038 	ldr	r2, [fp, #-56]	; 0xffffffc8
  1058bc:	e51b303c 	ldr	r3, [fp, #-60]	; 0xffffffc4
  1058c0:	e1a03332 	lsr	r3, r2, r3
  1058c4:	e50b3014 	str	r3, [fp, #-20]	; 0xffffffec
  1058c8:	e3a03001 	mov	r3, #1
  1058cc:	e50b3018 	str	r3, [fp, #-24]	; 0xffffffe8
  1058d0:	ea00000b 	b	105904 <alt_dma_memory_to_qspi_segment+0x23c>
  1058d4:	e3a03010 	mov	r3, #16
  1058d8:	e50b3014 	str	r3, [fp, #-20]	; 0xffffffec
  1058dc:	e51b2038 	ldr	r2, [fp, #-56]	; 0xffffffc8
  1058e0:	e51b303c 	ldr	r3, [fp, #-60]	; 0xffffffc4
  1058e4:	e1a03332 	lsr	r3, r2, r3
  1058e8:	e1a03223 	lsr	r3, r3, #4
  1058ec:	e50b3018 	str	r3, [fp, #-24]	; 0xffffffe8
  1058f0:	e51b3018 	ldr	r3, [fp, #-24]	; 0xffffffe8
  1058f4:	e3530000 	cmp	r3, #0
  1058f8:	1a000001 	bne	105904 <alt_dma_memory_to_qspi_segment+0x23c>
  1058fc:	e3e03000 	mvn	r3, #0
  105900:	e50b3008 	str	r3, [fp, #-8]
  105904:	e51b3038 	ldr	r3, [fp, #-56]	; 0xffffffc8
  105908:	e1a03123 	lsr	r3, r3, #2
  10590c:	e50b3040 	str	r3, [fp, #-64]	; 0xffffffc0
  105910:	e51b3008 	ldr	r3, [fp, #-8]
  105914:	e3530000 	cmp	r3, #0
  105918:	1a00005e 	bne	105a98 <alt_dma_memory_to_qspi_segment+0x3d0>
  10591c:	e51b303c 	ldr	r3, [fp, #-60]	; 0xffffffc4
  105920:	e1a02083 	lsl	r2, r3, #1
  105924:	e51b3014 	ldr	r3, [fp, #-20]	; 0xffffffec
  105928:	e2433001 	sub	r3, r3, #1
  10592c:	e1a03203 	lsl	r3, r3, #4
  105930:	e1823003 	orr	r3, r2, r3
  105934:	e3833801 	orr	r3, r3, #65536	; 0x10000
  105938:	e3833001 	orr	r3, r3, #1
  10593c:	e1a02003 	mov	r2, r3
  105940:	e3a01001 	mov	r1, #1
  105944:	e51b0058 	ldr	r0, [fp, #-88]	; 0xffffffa8
  105948:	eb000d1f 	bl	108dcc <alt_dma_program_DMAMOV>
  10594c:	e50b0008 	str	r0, [fp, #-8]
  105950:	ea000050 	b	105a98 <alt_dma_memory_to_qspi_segment+0x3d0>
  105954:	e51b3008 	ldr	r3, [fp, #-8]
  105958:	e3530000 	cmp	r3, #0
  10595c:	1a000051 	bne	105aa8 <alt_dma_memory_to_qspi_segment+0x3e0>
  105960:	e51b3010 	ldr	r3, [fp, #-16]
  105964:	e3530c01 	cmp	r3, #256	; 0x100
  105968:	31a03003 	movcc	r3, r3
  10596c:	23a03c01 	movcs	r3, #256	; 0x100
  105970:	e50b3044 	str	r3, [fp, #-68]	; 0xffffffbc
  105974:	e51b2010 	ldr	r2, [fp, #-16]
  105978:	e51b3044 	ldr	r3, [fp, #-68]	; 0xffffffbc
  10597c:	e0633002 	rsb	r3, r3, r2
  105980:	e50b3010 	str	r3, [fp, #-16]
  105984:	e51b3008 	ldr	r3, [fp, #-8]
  105988:	e3530000 	cmp	r3, #0
  10598c:	1a000006 	bne	1059ac <alt_dma_memory_to_qspi_segment+0x2e4>
  105990:	e51b3044 	ldr	r3, [fp, #-68]	; 0xffffffbc
  105994:	e3530001 	cmp	r3, #1
  105998:	9a000003 	bls	1059ac <alt_dma_memory_to_qspi_segment+0x2e4>
  10599c:	e51b1044 	ldr	r1, [fp, #-68]	; 0xffffffbc
  1059a0:	e51b0058 	ldr	r0, [fp, #-88]	; 0xffffffa8
  1059a4:	eb000bd9 	bl	108910 <alt_dma_program_DMALP>
  1059a8:	e50b0008 	str	r0, [fp, #-8]
  1059ac:	e51b3008 	ldr	r3, [fp, #-8]
  1059b0:	e3530000 	cmp	r3, #0
  1059b4:	1a000003 	bne	1059c8 <alt_dma_memory_to_qspi_segment+0x300>
  1059b8:	e3a01018 	mov	r1, #24
  1059bc:	e51b0058 	ldr	r0, [fp, #-88]	; 0xffffffa8
  1059c0:	eb000a9f 	bl	108444 <alt_dma_program_DMAFLUSHP>
  1059c4:	e50b0008 	str	r0, [fp, #-8]
  1059c8:	e51b3008 	ldr	r3, [fp, #-8]
  1059cc:	e3530000 	cmp	r3, #0
  1059d0:	1a000004 	bne	1059e8 <alt_dma_memory_to_qspi_segment+0x320>
  1059d4:	e3a02002 	mov	r2, #2
  1059d8:	e3a01018 	mov	r1, #24
  1059dc:	e51b0058 	ldr	r0, [fp, #-88]	; 0xffffffa8
  1059e0:	eb000eca 	bl	109510 <alt_dma_program_DMAWFP>
  1059e4:	e50b0008 	str	r0, [fp, #-8]
  1059e8:	e3a03000 	mov	r3, #0
  1059ec:	e50b301c 	str	r3, [fp, #-28]	; 0xffffffe4
  1059f0:	ea000009 	b	105a1c <alt_dma_memory_to_qspi_segment+0x354>
  1059f4:	e51b3008 	ldr	r3, [fp, #-8]
  1059f8:	e3530000 	cmp	r3, #0
  1059fc:	1a000003 	bne	105a10 <alt_dma_memory_to_qspi_segment+0x348>
  105a00:	e3a01002 	mov	r1, #2
  105a04:	e51b0058 	ldr	r0, [fp, #-88]	; 0xffffffa8
  105a08:	eb000b41 	bl	108714 <alt_dma_program_DMALD>
  105a0c:	e50b0008 	str	r0, [fp, #-8]
  105a10:	e51b301c 	ldr	r3, [fp, #-28]	; 0xffffffe4
  105a14:	e2833001 	add	r3, r3, #1
  105a18:	e50b301c 	str	r3, [fp, #-28]	; 0xffffffe4
  105a1c:	e51b201c 	ldr	r2, [fp, #-28]	; 0xffffffe4
  105a20:	e51b3018 	ldr	r3, [fp, #-24]	; 0xffffffe8
  105a24:	e1520003 	cmp	r2, r3
  105a28:	3afffff1 	bcc	1059f4 <alt_dma_memory_to_qspi_segment+0x32c>
  105a2c:	e3a03000 	mov	r3, #0
  105a30:	e50b3020 	str	r3, [fp, #-32]	; 0xffffffe0
  105a34:	ea000009 	b	105a60 <alt_dma_memory_to_qspi_segment+0x398>
  105a38:	e51b3008 	ldr	r3, [fp, #-8]
  105a3c:	e3530000 	cmp	r3, #0
  105a40:	1a000003 	bne	105a54 <alt_dma_memory_to_qspi_segment+0x38c>
  105a44:	e3a01002 	mov	r1, #2
  105a48:	e51b0058 	ldr	r0, [fp, #-88]	; 0xffffffa8
  105a4c:	eb000dce 	bl	10918c <alt_dma_program_DMAST>
  105a50:	e50b0008 	str	r0, [fp, #-8]
  105a54:	e51b3020 	ldr	r3, [fp, #-32]	; 0xffffffe0
  105a58:	e2833001 	add	r3, r3, #1
  105a5c:	e50b3020 	str	r3, [fp, #-32]	; 0xffffffe0
  105a60:	e51b2020 	ldr	r2, [fp, #-32]	; 0xffffffe0
  105a64:	e51b3040 	ldr	r3, [fp, #-64]	; 0xffffffc0
  105a68:	e1520003 	cmp	r2, r3
  105a6c:	3afffff1 	bcc	105a38 <alt_dma_memory_to_qspi_segment+0x370>
  105a70:	e51b3008 	ldr	r3, [fp, #-8]
  105a74:	e3530000 	cmp	r3, #0
  105a78:	1a000006 	bne	105a98 <alt_dma_memory_to_qspi_segment+0x3d0>
  105a7c:	e51b3044 	ldr	r3, [fp, #-68]	; 0xffffffbc
  105a80:	e3530001 	cmp	r3, #1
  105a84:	9a000003 	bls	105a98 <alt_dma_memory_to_qspi_segment+0x3d0>
  105a88:	e3a01000 	mov	r1, #0
  105a8c:	e51b0058 	ldr	r0, [fp, #-88]	; 0xffffffa8
  105a90:	eb000bfe 	bl	108a90 <alt_dma_program_DMALPEND>
