
main.axf:     file format elf32-littlearm


Disassembly of section .text:

00100040 <__cs3_interrupt_vector>:
  100040:	18 f0 9f e5 18 f0 9f e5 18 f0 9f e5 18 f0 9f e5     ................
  100050:	18 f0 9f e5 18 f0 9f e5 18 f0 9f e5 18 f0 9f e5     ................
  100060:	80 00 10 00 dc 9f 10 00 e0 9f 10 00 e4 9f 10 00     ................
  100070:	e8 9f 10 00 d8 9f 10 00 ec 9f 10 00 f0 9f 10 00     ................

00100080 <__cs3_reset>:
  100080:	ea000022 	b	100110 <_start>

00100084 <__cs3_start_c>:
  100084:	e3008002 	movw	r8, #2
  100088:	e92d4080 	push	{r7, lr}
  10008c:	e3408000 	movt	r8, #0
  100090:	e3580000 	cmp	r8, #0
  100094:	0a00001c 	beq	10010c <__cs3_start_c+0x88>
  100098:	e30ae330 	movw	lr, #41776	; 0xa330
  10009c:	e2488001 	sub	r8, r8, #1
  1000a0:	e3a04000 	mov	r4, #0
  1000a4:	e3a05000 	mov	r5, #0
  1000a8:	e340e010 	movt	lr, #16
  1000ac:	e99e1005 	ldmib	lr, {r0, r2, ip}
  1000b0:	e1500002 	cmp	r0, r2
  1000b4:	0082200c 	addeq	r2, r2, ip
  1000b8:	0a000007 	beq	1000dc <__cs3_start_c+0x58>
  1000bc:	e35c0000 	cmp	ip, #0
  1000c0:	0a000005 	beq	1000dc <__cs3_start_c+0x58>
  1000c4:	e1a03000 	mov	r3, r0
  1000c8:	e0c360d8 	ldrd	r6, [r3], #8
  1000cc:	e0601003 	rsb	r1, r0, r3
  1000d0:	e0c260f8 	strd	r6, [r2], #8
  1000d4:	e15c0001 	cmp	ip, r1
  1000d8:	1afffffa 	bne	1000c8 <__cs3_start_c+0x44>
  1000dc:	e59e0010 	ldr	r0, [lr, #16]
  1000e0:	e3500000 	cmp	r0, #0
  1000e4:	11a03002 	movne	r3, r2
  1000e8:	0a000003 	beq	1000fc <__cs3_start_c+0x78>
  1000ec:	e0c340f8 	strd	r4, [r3], #8
  1000f0:	e0621003 	rsb	r1, r2, r3
  1000f4:	e1500001 	cmp	r0, r1
  1000f8:	1afffffb 	bne	1000ec <__cs3_start_c+0x68>
  1000fc:	e2488001 	sub	r8, r8, #1
  100100:	e28ee014 	add	lr, lr, #20
  100104:	e3780001 	cmn	r8, #1
  100108:	1affffe7 	bne	1000ac <__cs3_start_c+0x28>
  10010c:	eb002767 	bl	109eb0 <__cs3_premain>

00100110 <_start>:
  100110:	e51fd000 	ldr	sp, [pc, #-0]	; 100118 <_start+0x8>
  100114:	eaffffda 	b	100084 <__cs3_start_c>
  100118:	01100040 	.word	0x01100040

0010011c <deregister_tm_clones>:
  10011c:	e59f3024 	ldr	r3, [pc, #36]	; 100148 <deregister_tm_clones+0x2c>
  100120:	e30a0c28 	movw	r0, #44072	; 0xac28
  100124:	e3400010 	movt	r0, #16
  100128:	e0603003 	rsb	r3, r0, r3
  10012c:	e3530006 	cmp	r3, #6
  100130:	912fff1e 	bxls	lr
  100134:	e3003000 	movw	r3, #0
  100138:	e3403000 	movt	r3, #0
  10013c:	e3530000 	cmp	r3, #0
  100140:	012fff1e 	bxeq	lr
  100144:	e12fff13 	bx	r3
  100148:	0010ac2b 	.word	0x0010ac2b

0010014c <register_tm_clones>:
  10014c:	e30a3c28 	movw	r3, #44072	; 0xac28
  100150:	e30a0c28 	movw	r0, #44072	; 0xac28
  100154:	e3403010 	movt	r3, #16
  100158:	e3400010 	movt	r0, #16
  10015c:	e0601003 	rsb	r1, r0, r3
  100160:	e1a01141 	asr	r1, r1, #2
  100164:	e0811fa1 	add	r1, r1, r1, lsr #31
  100168:	e1b010c1 	asrs	r1, r1, #1
  10016c:	012fff1e 	bxeq	lr
  100170:	e3003000 	movw	r3, #0
  100174:	e3403000 	movt	r3, #0
  100178:	e3530000 	cmp	r3, #0
  10017c:	012fff1e 	bxeq	lr
  100180:	e12fff13 	bx	r3

00100184 <__do_global_dtors_aux>:
  100184:	e92d4010 	push	{r4, lr}
  100188:	e30a4c28 	movw	r4, #44072	; 0xac28
  10018c:	e3404010 	movt	r4, #16
  100190:	e5d43000 	ldrb	r3, [r4]
  100194:	e3530000 	cmp	r3, #0
  100198:	18bd8010 	popne	{r4, pc}
  10019c:	ebffffde 	bl	10011c <deregister_tm_clones>
  1001a0:	e3003000 	movw	r3, #0
  1001a4:	e3403000 	movt	r3, #0
  1001a8:	e3530000 	cmp	r3, #0
  1001ac:	0a000002 	beq	1001bc <__do_global_dtors_aux+0x38>
  1001b0:	e30a0078 	movw	r0, #41080	; 0xa078
  1001b4:	e3400010 	movt	r0, #16
  1001b8:	e320f000 	nop	{0}
  1001bc:	e3a03001 	mov	r3, #1
  1001c0:	e5c43000 	strb	r3, [r4]
  1001c4:	e8bd8010 	pop	{r4, pc}

001001c8 <frame_dummy>:
  1001c8:	e3003000 	movw	r3, #0
  1001cc:	e92d4010 	push	{r4, lr}
  1001d0:	e3403000 	movt	r3, #0
  1001d4:	e3530000 	cmp	r3, #0
  1001d8:	0a000004 	beq	1001f0 <frame_dummy+0x28>
  1001dc:	e30a1c2c 	movw	r1, #44076	; 0xac2c
  1001e0:	e30a0078 	movw	r0, #41080	; 0xa078
  1001e4:	e3401010 	movt	r1, #16
  1001e8:	e3400010 	movt	r0, #16
  1001ec:	e320f000 	nop	{0}
  1001f0:	e30a0358 	movw	r0, #41816	; 0xa358
  1001f4:	e3400010 	movt	r0, #16
  1001f8:	e5903000 	ldr	r3, [r0]
  1001fc:	e3530000 	cmp	r3, #0
  100200:	1a000001 	bne	10020c <frame_dummy+0x44>
  100204:	e8bd4010 	pop	{r4, lr}
  100208:	eaffffcf 	b	10014c <register_tm_clones>
  10020c:	e3003000 	movw	r3, #0
  100210:	e3403000 	movt	r3, #0
  100214:	e3530000 	cmp	r3, #0
  100218:	0afffff9 	beq	100204 <frame_dummy+0x3c>
  10021c:	e12fff33 	blx	r3
  100220:	eafffff7 	b	100204 <frame_dummy+0x3c>
  100224:	00000000 	andeq	r0, r0, r0

00100228 <main>:
  100228:	e92d4800 	push	{fp, lr}
  10022c:	e28db004 	add	fp, sp, #4
  100230:	e24dd010 	sub	sp, sp, #16
  100234:	e30a0088 	movw	r0, #41096	; 0xa088
  100238:	e3400010 	movt	r0, #16
  10023c:	eb0001a6 	bl	1008dc <puts>
  100240:	e3a01001 	mov	r1, #1
  100244:	e3a00e32 	mov	r0, #800	; 0x320
  100248:	eb0000a9 	bl	1004f4 <pmu_init_ns>
  10024c:	eb0000d6 	bl	1005ac <pmu_counter_enable>
  100250:	eb0000cc 	bl	100588 <pmu_getres_ns>
  100254:	e50b000c 	str	r0, [fp, #-12]
  100258:	e30a0098 	movw	r0, #41112	; 0xa098
  10025c:	e3400010 	movt	r0, #16
  100260:	eb00014d 	bl	10079c <printf>
  100264:	ed5b7a03 	vldr	s15, [fp, #-12]
  100268:	eef70ae7 	vcvt.f64.f32	d16, s15
  10026c:	ec532b30 	vmov	r2, r3, d16
  100270:	e30a00d4 	movw	r0, #41172	; 0xa0d4
  100274:	e3400010 	movt	r0, #16
  100278:	eb000147 	bl	10079c <printf>
  10027c:	e3a03000 	mov	r3, #0
  100280:	e50b3008 	str	r3, [fp, #-8]
  100284:	eb0000db 	bl	1005f8 <pmu_counter_reset>
  100288:	e51b1008 	ldr	r1, [fp, #-8]
  10028c:	e30a00fc 	movw	r0, #41212	; 0xa0fc
  100290:	e3400010 	movt	r0, #16
  100294:	eb000140 	bl	10079c <printf>
  100298:	ea000010 	b	1002e0 <main+0xb8>
  10029c:	e24b3014 	sub	r3, fp, #20
  1002a0:	e1a00003 	mov	r0, r3
  1002a4:	eb0000ff 	bl	1006a8 <pmu_counter_read_ns>
  1002a8:	e14b21d4 	ldrd	r2, [fp, #-20]	; 0xffffffec
  1002ac:	e28f1054 	add	r1, pc, #84	; 0x54
  1002b0:	e1c100d0 	ldrd	r0, [r1]
  1002b4:	e1530001 	cmp	r3, r1
  1002b8:	01520000 	cmpeq	r2, r0
  1002bc:	9a000007 	bls	1002e0 <main+0xb8>
  1002c0:	eb0000cc 	bl	1005f8 <pmu_counter_reset>
  1002c4:	e51b3008 	ldr	r3, [fp, #-8]
  1002c8:	e2833001 	add	r3, r3, #1
  1002cc:	e50b3008 	str	r3, [fp, #-8]
  1002d0:	e51b1008 	ldr	r1, [fp, #-8]
  1002d4:	e30a00fc 	movw	r0, #41212	; 0xa0fc
  1002d8:	e3400010 	movt	r0, #16
  1002dc:	eb00012e 	bl	10079c <printf>
  1002e0:	e51b3008 	ldr	r3, [fp, #-8]
  1002e4:	e353003c 	cmp	r3, #60	; 0x3c
  1002e8:	daffffeb 	ble	10029c <main+0x74>
  1002ec:	e30a0104 	movw	r0, #41220	; 0xa104
  1002f0:	e3400010 	movt	r0, #16
  1002f4:	eb000128 	bl	10079c <printf>
  1002f8:	e3a03000 	mov	r3, #0
  1002fc:	e1a00003 	mov	r0, r3
  100300:	e24bd004 	sub	sp, fp, #4
  100304:	e8bd8800 	pop	{fp, pc}
  100308:	3b9aca00 	.word	0x3b9aca00
  10030c:	00000000 	.word	0x00000000

00100310 <_close>:
  100310:	e52db004 	push	{fp}		; (str fp, [sp, #-4]!)
  100314:	e28db000 	add	fp, sp, #0
  100318:	e24dd00c 	sub	sp, sp, #12
  10031c:	e50b0008 	str	r0, [fp, #-8]
  100320:	e51b3008 	ldr	r3, [fp, #-8]
  100324:	e3530001 	cmp	r3, #1
  100328:	1a000001 	bne	100334 <_close+0x24>
  10032c:	e3a03000 	mov	r3, #0
  100330:	ea000000 	b	100338 <_close+0x28>
  100334:	e3e03000 	mvn	r3, #0
  100338:	e1a00003 	mov	r0, r3
  10033c:	e24bd000 	sub	sp, fp, #0
  100340:	e49db004 	pop	{fp}		; (ldr fp, [sp], #4)
  100344:	e12fff1e 	bx	lr

00100348 <_fstat>:
  100348:	e52db004 	push	{fp}		; (str fp, [sp, #-4]!)
  10034c:	e28db000 	add	fp, sp, #0
  100350:	e24dd00c 	sub	sp, sp, #12
  100354:	e50b0008 	str	r0, [fp, #-8]
  100358:	e50b100c 	str	r1, [fp, #-12]
  10035c:	e51b3008 	ldr	r3, [fp, #-8]
  100360:	e3530001 	cmp	r3, #1
  100364:	1a000001 	bne	100370 <_fstat+0x28>
  100368:	e3a03000 	mov	r3, #0
  10036c:	ea000000 	b	100374 <_fstat+0x2c>
  100370:	e3e03000 	mvn	r3, #0
  100374:	e1a00003 	mov	r0, r3
  100378:	e24bd000 	sub	sp, fp, #0
  10037c:	e49db004 	pop	{fp}		; (ldr fp, [sp], #4)
  100380:	e12fff1e 	bx	lr

00100384 <_isatty>:
  100384:	e52db004 	push	{fp}		; (str fp, [sp, #-4]!)
  100388:	e28db000 	add	fp, sp, #0
  10038c:	e24dd00c 	sub	sp, sp, #12
  100390:	e50b0008 	str	r0, [fp, #-8]
  100394:	e51b3008 	ldr	r3, [fp, #-8]
  100398:	e3530001 	cmp	r3, #1
  10039c:	1a000001 	bne	1003a8 <_isatty+0x24>
  1003a0:	e3a03001 	mov	r3, #1
  1003a4:	ea000000 	b	1003ac <_isatty+0x28>
  1003a8:	e3e03000 	mvn	r3, #0
  1003ac:	e1a00003 	mov	r0, r3
  1003b0:	e24bd000 	sub	sp, fp, #0
  1003b4:	e49db004 	pop	{fp}		; (ldr fp, [sp], #4)
  1003b8:	e12fff1e 	bx	lr

001003bc <_lseek>:
  1003bc:	e52db004 	push	{fp}		; (str fp, [sp, #-4]!)
  1003c0:	e28db000 	add	fp, sp, #0
  1003c4:	e24dd014 	sub	sp, sp, #20
  1003c8:	e50b0008 	str	r0, [fp, #-8]
  1003cc:	e50b100c 	str	r1, [fp, #-12]
  1003d0:	e50b2010 	str	r2, [fp, #-16]
  1003d4:	e51b3008 	ldr	r3, [fp, #-8]
  1003d8:	e3530001 	cmp	r3, #1
  1003dc:	1a000001 	bne	1003e8 <_lseek+0x2c>
  1003e0:	e3a03000 	mov	r3, #0
  1003e4:	ea000000 	b	1003ec <_lseek+0x30>
  1003e8:	e3e03000 	mvn	r3, #0
  1003ec:	e1a00003 	mov	r0, r3
  1003f0:	e24bd000 	sub	sp, fp, #0
  1003f4:	e49db004 	pop	{fp}		; (ldr fp, [sp], #4)
  1003f8:	e12fff1e 	bx	lr

001003fc <_read>:
  1003fc:	e52db004 	push	{fp}		; (str fp, [sp, #-4]!)
  100400:	e28db000 	add	fp, sp, #0
  100404:	e24dd014 	sub	sp, sp, #20
  100408:	e50b0008 	str	r0, [fp, #-8]
  10040c:	e50b100c 	str	r1, [fp, #-12]
  100410:	e50b2010 	str	r2, [fp, #-16]
  100414:	e3e03000 	mvn	r3, #0
  100418:	e1a00003 	mov	r0, r3
  10041c:	e24bd000 	sub	sp, fp, #0
  100420:	e49db004 	pop	{fp}		; (ldr fp, [sp], #4)
  100424:	e12fff1e 	bx	lr

00100428 <_write>:
  100428:	e52db004 	push	{fp}		; (str fp, [sp, #-4]!)
  10042c:	e28db000 	add	fp, sp, #0
  100430:	e24dd01c 	sub	sp, sp, #28
  100434:	e50b0010 	str	r0, [fp, #-16]
  100438:	e50b1014 	str	r1, [fp, #-20]	; 0xffffffec
  10043c:	e50b2018 	str	r2, [fp, #-24]	; 0xffffffe8
  100440:	e50b301c 	str	r3, [fp, #-28]	; 0xffffffe4
  100444:	e51b3010 	ldr	r3, [fp, #-16]
  100448:	e3530001 	cmp	r3, #1
  10044c:	0a000001 	beq	100458 <_write+0x30>
  100450:	e3e03000 	mvn	r3, #0
  100454:	ea000019 	b	1004c0 <_write+0x98>
  100458:	e3a03000 	mov	r3, #0
  10045c:	e50b3008 	str	r3, [fp, #-8]
  100460:	ea000011 	b	1004ac <_write+0x84>
  100464:	e1a00000 	nop			; (mov r0, r0)
  100468:	e3023014 	movw	r3, #8212	; 0x2014
  10046c:	e34f3fc0 	movt	r3, #65472	; 0xffc0
  100470:	e5933000 	ldr	r3, [r3]
  100474:	e2033020 	and	r3, r3, #32
  100478:	e1a032a3 	lsr	r3, r3, #5
  10047c:	e3530001 	cmp	r3, #1
  100480:	1afffff8 	bne	100468 <_write+0x40>
  100484:	e3a03a02 	mov	r3, #8192	; 0x2000
  100488:	e34f3fc0 	movt	r3, #65472	; 0xffc0
  10048c:	e51b2008 	ldr	r2, [fp, #-8]
  100490:	e51b1014 	ldr	r1, [fp, #-20]	; 0xffffffec
  100494:	e0812002 	add	r2, r1, r2
  100498:	e5d22000 	ldrb	r2, [r2]
  10049c:	e5832000 	str	r2, [r3]
  1004a0:	e51b3008 	ldr	r3, [fp, #-8]
  1004a4:	e2833001 	add	r3, r3, #1
  1004a8:	e50b3008 	str	r3, [fp, #-8]
  1004ac:	e51b2008 	ldr	r2, [fp, #-8]
  1004b0:	e51b3018 	ldr	r3, [fp, #-24]	; 0xffffffe8
  1004b4:	e1520003 	cmp	r2, r3
  1004b8:	3affffe9 	bcc	100464 <_write+0x3c>
  1004bc:	e51b3018 	ldr	r3, [fp, #-24]	; 0xffffffe8
  1004c0:	e1a00003 	mov	r0, r3
  1004c4:	e24bd000 	sub	sp, fp, #0
  1004c8:	e49db004 	pop	{fp}		; (ldr fp, [sp], #4)
  1004cc:	e12fff1e 	bx	lr

001004d0 <pmu_init>:
  1004d0:	e52db004 	push	{fp}		; (str fp, [sp, #-4]!)
  1004d4:	e28db000 	add	fp, sp, #0
  1004d8:	ee190f1c 	mrc	15, 0, r0, cr9, cr12, {0}
  1004dc:	e3800001 	orr	r0, r0, #1
  1004e0:	ee090f1c 	mcr	15, 0, r0, cr9, cr12, {0}
  1004e4:	e1a00000 	nop			; (mov r0, r0)
  1004e8:	e24bd000 	sub	sp, fp, #0
  1004ec:	e49db004 	pop	{fp}		; (ldr fp, [sp], #4)
  1004f0:	e12fff1e 	bx	lr

001004f4 <pmu_init_ns>:
  1004f4:	e92d4800 	push	{fp, lr}
  1004f8:	e28db004 	add	fp, sp, #4
  1004fc:	e24dd008 	sub	sp, sp, #8
  100500:	e50b0008 	str	r0, [fp, #-8]
  100504:	e50b100c 	str	r1, [fp, #-12]
  100508:	ebfffff0 	bl	1004d0 <pmu_init>
  10050c:	ee190f1c 	mrc	15, 0, r0, cr9, cr12, {0}
  100510:	e51b300c 	ldr	r3, [fp, #-12]
  100514:	e3530001 	cmp	r3, #1
  100518:	1a000001 	bne	100524 <pmu_init_ns+0x30>
  10051c:	e3c00008 	bic	r0, r0, #8
  100520:	ea000003 	b	100534 <pmu_init_ns+0x40>
  100524:	e51b300c 	ldr	r3, [fp, #-12]
  100528:	e3530040 	cmp	r3, #64	; 0x40
  10052c:	1a000000 	bne	100534 <pmu_init_ns+0x40>
  100530:	e3800008 	orr	r0, r0, #8
  100534:	ee090f1c 	mcr	15, 0, r0, cr9, cr12, {0}
  100538:	e51b300c 	ldr	r3, [fp, #-12]
  10053c:	ee073a90 	vmov	s15, r3
  100540:	eef87ae7 	vcvt.f32.s32	s15, s15
  100544:	eef70ae7 	vcvt.f64.f32	d16, s15
  100548:	eddf1b0c 	vldr	d17, [pc, #48]	; 100580 <pmu_init_ns+0x8c>
  10054c:	ee602ba1 	vmul.f64	d18, d16, d17
  100550:	e51b3008 	ldr	r3, [fp, #-8]
  100554:	ee073a90 	vmov	s15, r3
  100558:	eef87ae7 	vcvt.f32.s32	s15, s15
  10055c:	eef71ae7 	vcvt.f64.f32	d17, s15
  100560:	eec20ba1 	vdiv.f64	d16, d18, d17
  100564:	eef77be0 	vcvt.f32.f64	s15, d16
  100568:	e30a3c48 	movw	r3, #44104	; 0xac48
  10056c:	e3403010 	movt	r3, #16
  100570:	edc37a00 	vstr	s15, [r3]
  100574:	e1a00000 	nop			; (mov r0, r0)
  100578:	e24bd004 	sub	sp, fp, #4
  10057c:	e8bd8800 	pop	{fp, pc}
  100580:	00000000 	.word	0x00000000
  100584:	408f4000 	.word	0x408f4000

00100588 <pmu_getres_ns>:
  100588:	e52db004 	push	{fp}		; (str fp, [sp, #-4]!)
  10058c:	e28db000 	add	fp, sp, #0
  100590:	e30a3c48 	movw	r3, #44104	; 0xac48
  100594:	e3403010 	movt	r3, #16
  100598:	e5933000 	ldr	r3, [r3]
  10059c:	e1a00003 	mov	r0, r3
  1005a0:	e24bd000 	sub	sp, fp, #0
  1005a4:	e49db004 	pop	{fp}		; (ldr fp, [sp], #4)
  1005a8:	e12fff1e 	bx	lr

001005ac <pmu_counter_enable>:
  1005ac:	e52db004 	push	{fp}		; (str fp, [sp, #-4]!)
  1005b0:	e28db000 	add	fp, sp, #0
  1005b4:	ee190f3c 	mrc	15, 0, r0, cr9, cr12, {1}
  1005b8:	e3800102 	orr	r0, r0, #-2147483648	; 0x80000000
  1005bc:	ee090f3c 	mcr	15, 0, r0, cr9, cr12, {1}
  1005c0:	e1a00000 	nop			; (mov r0, r0)
  1005c4:	e24bd000 	sub	sp, fp, #0
  1005c8:	e49db004 	pop	{fp}		; (ldr fp, [sp], #4)
  1005cc:	e12fff1e 	bx	lr

001005d0 <pmu_counter_disable>:
  1005d0:	e52db004 	push	{fp}		; (str fp, [sp, #-4]!)
  1005d4:	e28db000 	add	fp, sp, #0
  1005d8:	ee190f3c 	mrc	15, 0, r0, cr9, cr12, {1}
  1005dc:	e3e01102 	mvn	r1, #-2147483648	; 0x80000000
  1005e0:	e0000001 	and	r0, r0, r1
  1005e4:	ee090f3c 	mcr	15, 0, r0, cr9, cr12, {1}
  1005e8:	e1a00000 	nop			; (mov r0, r0)
  1005ec:	e24bd000 	sub	sp, fp, #0
  1005f0:	e49db004 	pop	{fp}		; (ldr fp, [sp], #4)
  1005f4:	e12fff1e 	bx	lr

001005f8 <pmu_counter_reset>:
  1005f8:	e52db004 	push	{fp}		; (str fp, [sp, #-4]!)
  1005fc:	e28db000 	add	fp, sp, #0
  100600:	ee190f1c 	mrc	15, 0, r0, cr9, cr12, {0}
  100604:	e3800004 	orr	r0, r0, #4
  100608:	ee090f1c 	mcr	15, 0, r0, cr9, cr12, {0}
  10060c:	ee190f7c 	mrc	15, 0, r0, cr9, cr12, {3}
  100610:	e3800102 	orr	r0, r0, #-2147483648	; 0x80000000
  100614:	ee090f7c 	mcr	15, 0, r0, cr9, cr12, {3}
  100618:	ee190f1c 	mrc	15, 0, r0, cr9, cr12, {0}
  10061c:	e3800004 	orr	r0, r0, #4
  100620:	ee090f1c 	mcr	15, 0, r0, cr9, cr12, {0}
  100624:	e1a00000 	nop			; (mov r0, r0)
  100628:	e24bd000 	sub	sp, fp, #0
  10062c:	e49db004 	pop	{fp}		; (ldr fp, [sp], #4)
  100630:	e12fff1e 	bx	lr

00100634 <pmu_counter_read>:
  100634:	e52db004 	push	{fp}		; (str fp, [sp, #-4]!)
  100638:	e28db000 	add	fp, sp, #0
  10063c:	e24dd014 	sub	sp, sp, #20
  100640:	e50b0010 	str	r0, [fp, #-16]
  100644:	e3a03000 	mov	r3, #0
  100648:	e50b3008 	str	r3, [fp, #-8]
  10064c:	e3a03000 	mov	r3, #0
  100650:	e50b300c 	str	r3, [fp, #-12]
  100654:	e51b3008 	ldr	r3, [fp, #-8]
  100658:	ee193f1d 	mrc	15, 0, r3, cr9, cr13, {0}
  10065c:	e50b3008 	str	r3, [fp, #-8]
  100660:	e51b2008 	ldr	r2, [fp, #-8]
  100664:	e51b3010 	ldr	r3, [fp, #-16]
  100668:	e5832000 	str	r2, [r3]
  10066c:	ee190f7c 	mrc	15, 0, r0, cr9, cr12, {3}
  100670:	e2000102 	and	r0, r0, #-2147483648	; 0x80000000
  100674:	e51b300c 	ldr	r3, [fp, #-12]
  100678:	e1a03000 	mov	r3, r0
  10067c:	e50b300c 	str	r3, [fp, #-12]
  100680:	e51b300c 	ldr	r3, [fp, #-12]
  100684:	e3530000 	cmp	r3, #0
  100688:	1a000001 	bne	100694 <pmu_counter_read+0x60>
  10068c:	e3a03000 	mov	r3, #0
  100690:	ea000000 	b	100698 <pmu_counter_read+0x64>
  100694:	e3a03001 	mov	r3, #1
  100698:	e1a00003 	mov	r0, r3
  10069c:	e24bd000 	sub	sp, fp, #0
  1006a0:	e49db004 	pop	{fp}		; (ldr fp, [sp], #4)
  1006a4:	e12fff1e 	bx	lr

001006a8 <pmu_counter_read_ns>:
  1006a8:	e92d4800 	push	{fp, lr}
  1006ac:	e28db004 	add	fp, sp, #4
  1006b0:	e24dd010 	sub	sp, sp, #16
  1006b4:	e50b0010 	str	r0, [fp, #-16]
  1006b8:	e24b300c 	sub	r3, fp, #12
  1006bc:	e1a00003 	mov	r0, r3
  1006c0:	ebffffdb 	bl	100634 <pmu_counter_read>
  1006c4:	e50b0008 	str	r0, [fp, #-8]
  1006c8:	e51b300c 	ldr	r3, [fp, #-12]
  1006cc:	ee073a90 	vmov	s15, r3
  1006d0:	eeb87a67 	vcvt.f32.u32	s14, s15
  1006d4:	e30a3c48 	movw	r3, #44104	; 0xac48
  1006d8:	e3403010 	movt	r3, #16
  1006dc:	edd37a00 	vldr	s15, [r3]
  1006e0:	ee677a27 	vmul.f32	s15, s14, s15
  1006e4:	ee170a90 	vmov	r0, s15
  1006e8:	eb000008 	bl	100710 <__aeabi_f2ulz>
  1006ec:	e1a02000 	mov	r2, r0
  1006f0:	e1a03001 	mov	r3, r1
  1006f4:	e51b1010 	ldr	r1, [fp, #-16]
  1006f8:	e1c120f0 	strd	r2, [r1]
  1006fc:	e51b3008 	ldr	r3, [fp, #-8]
  100700:	e1a00003 	mov	r0, r3
  100704:	e24bd004 	sub	sp, fp, #4
  100708:	e8bd8800 	pop	{fp, pc}
  10070c:	00000000 	andeq	r0, r0, r0

00100710 <__aeabi_f2ulz>:
  100710:	ee070a90 	vmov	s15, r0
  100714:	e3a02000 	mov	r2, #0
  100718:	eef70ae7 	vcvt.f64.f32	d16, s15
  10071c:	eddf1b0d 	vldr	d17, [pc, #52]	; 100758 <__aeabi_f2ulz+0x48>
  100720:	ed9f7b0e 	vldr	d7, [pc, #56]	; 100760 <__aeabi_f2ulz+0x50>
  100724:	ee207b87 	vmul.f64	d7, d16, d7
  100728:	eebc7bc7 	vcvt.u32.f64	s14, d7
  10072c:	eef82b47 	vcvt.f64.u32	d18, s14
  100730:	ee173a10 	vmov	r3, s14
  100734:	ee420be1 	vmls.f64	d16, d18, d17
  100738:	eeb07b60 	vmov.f64	d7, d16
  10073c:	eefc7bc7 	vcvt.u32.f64	s15, d7
  100740:	ee170a90 	vmov	r0, s15
  100744:	e1822000 	orr	r2, r2, r0
  100748:	e1a00002 	mov	r0, r2
  10074c:	e1a01003 	mov	r1, r3
  100750:	e12fff1e 	bx	lr
  100754:	e320f000 	nop	{0}
  100758:	00000000 	.word	0x00000000
  10075c:	41f00000 	.word	0x41f00000
  100760:	00000000 	.word	0x00000000
  100764:	3df00000 	.word	0x3df00000

00100768 <_printf_r>:
  100768:	e92d000e 	push	{r1, r2, r3}
  10076c:	e52de004 	push	{lr}		; (str lr, [sp, #-4]!)
  100770:	e24dd008 	sub	sp, sp, #8
  100774:	e28dc010 	add	ip, sp, #16
  100778:	e1a0300c 	mov	r3, ip
  10077c:	e59d200c 	ldr	r2, [sp, #12]
  100780:	e5901008 	ldr	r1, [r0, #8]
  100784:	e58dc004 	str	ip, [sp, #4]
  100788:	eb000094 	bl	1009e0 <_vfprintf_r>
  10078c:	e28dd008 	add	sp, sp, #8
  100790:	e49de004 	pop	{lr}		; (ldr lr, [sp], #4)
  100794:	e28dd00c 	add	sp, sp, #12
  100798:	e12fff1e 	bx	lr

0010079c <printf>:
  10079c:	e92d000f 	push	{r0, r1, r2, r3}
  1007a0:	e52de004 	push	{lr}		; (str lr, [sp, #-4]!)
  1007a4:	e24dd00c 	sub	sp, sp, #12
  1007a8:	eb001302 	bl	1053b8 <__getreent>
  1007ac:	e28dc014 	add	ip, sp, #20
  1007b0:	e5901008 	ldr	r1, [r0, #8]
  1007b4:	e59d2010 	ldr	r2, [sp, #16]
  1007b8:	e1a0300c 	mov	r3, ip
  1007bc:	e58dc004 	str	ip, [sp, #4]
  1007c0:	eb000086 	bl	1009e0 <_vfprintf_r>
  1007c4:	e28dd00c 	add	sp, sp, #12
  1007c8:	e49de004 	pop	{lr}		; (ldr lr, [sp], #4)
  1007cc:	e28dd010 	add	sp, sp, #16
  1007d0:	e12fff1e 	bx	lr

001007d4 <_puts_r>:
  1007d4:	e92d4030 	push	{r4, r5, lr}
  1007d8:	e1a05000 	mov	r5, r0
  1007dc:	e24dd024 	sub	sp, sp, #36	; 0x24
  1007e0:	e1a00001 	mov	r0, r1
  1007e4:	e1a04001 	mov	r4, r1
  1007e8:	fa000044 	blx	100900 <strlen>
  1007ec:	e30a3114 	movw	r3, #41236	; 0xa114
  1007f0:	e3550000 	cmp	r5, #0
  1007f4:	e280e001 	add	lr, r0, #1
  1007f8:	e3403010 	movt	r3, #16
  1007fc:	e3a0c001 	mov	ip, #1
  100800:	e28d1010 	add	r1, sp, #16
  100804:	e3a02002 	mov	r2, #2
  100808:	e58d4010 	str	r4, [sp, #16]
  10080c:	e58d0014 	str	r0, [sp, #20]
  100810:	e58de00c 	str	lr, [sp, #12]
  100814:	e58d3018 	str	r3, [sp, #24]
  100818:	e58dc01c 	str	ip, [sp, #28]
  10081c:	e98d0006 	stmib	sp, {r1, r2}
  100820:	0a000002 	beq	100830 <_puts_r+0x5c>
  100824:	e5953038 	ldr	r3, [r5, #56]	; 0x38
  100828:	e3530000 	cmp	r3, #0
  10082c:	0a000022 	beq	1008bc <_puts_r+0xe8>
  100830:	e5954008 	ldr	r4, [r5, #8]
  100834:	e5943064 	ldr	r3, [r4, #100]	; 0x64
  100838:	e3130001 	tst	r3, #1
  10083c:	e1d430bc 	ldrh	r3, [r4, #12]
  100840:	e6ff2073 	uxth	r2, r3
  100844:	1a000001 	bne	100850 <_puts_r+0x7c>
  100848:	e3120c02 	tst	r2, #512	; 0x200
  10084c:	0a00001d 	beq	1008c8 <_puts_r+0xf4>
  100850:	e3120a02 	tst	r2, #8192	; 0x2000
  100854:	e1a00005 	mov	r0, r5
  100858:	05942064 	ldreq	r2, [r4, #100]	; 0x64
  10085c:	03833a02 	orreq	r3, r3, #8192	; 0x2000
  100860:	01c430bc 	strheq	r3, [r4, #12]
  100864:	e1a01004 	mov	r1, r4
  100868:	03c23a02 	biceq	r3, r2, #8192	; 0x2000
  10086c:	e28d2004 	add	r2, sp, #4
  100870:	05843064 	streq	r3, [r4, #100]	; 0x64
  100874:	eb001168 	bl	104e1c <__sfvwrite_r>
  100878:	e5943064 	ldr	r3, [r4, #100]	; 0x64
  10087c:	e3500000 	cmp	r0, #0
  100880:	03a0500a 	moveq	r5, #10
  100884:	13e05000 	mvnne	r5, #0
  100888:	e3130001 	tst	r3, #1
  10088c:	1a000002 	bne	10089c <_puts_r+0xc8>
  100890:	e1d430bc 	ldrh	r3, [r4, #12]
  100894:	e3130c02 	tst	r3, #512	; 0x200
  100898:	0a000002 	beq	1008a8 <_puts_r+0xd4>
  10089c:	e1a00005 	mov	r0, r5
  1008a0:	e28dd024 	add	sp, sp, #36	; 0x24
  1008a4:	e8bd8030 	pop	{r4, r5, pc}
  1008a8:	e2840058 	add	r0, r4, #88	; 0x58
  1008ac:	eb002578 	bl	109e94 <__generic_gxx_recursive_mutex_unlock>
  1008b0:	e1a00005 	mov	r0, r5
  1008b4:	e28dd024 	add	sp, sp, #36	; 0x24
  1008b8:	e8bd8030 	pop	{r4, r5, pc}
  1008bc:	e1a00005 	mov	r0, r5
  1008c0:	eb000fce 	bl	104800 <__sinit>
  1008c4:	eaffffd9 	b	100830 <_puts_r+0x5c>
  1008c8:	e2840058 	add	r0, r4, #88	; 0x58
  1008cc:	eb002572 	bl	109e9c <__generic_gxx_recursive_mutex_lock>
  1008d0:	e1d430bc 	ldrh	r3, [r4, #12]
  1008d4:	e6ff2073 	uxth	r2, r3
  1008d8:	eaffffdc 	b	100850 <_puts_r+0x7c>

001008dc <puts>:
  1008dc:	e92d4010 	push	{r4, lr}
  1008e0:	e1a04000 	mov	r4, r0
  1008e4:	eb0012b3 	bl	1053b8 <__getreent>
  1008e8:	e1a01004 	mov	r1, r4
  1008ec:	e8bd4010 	pop	{r4, lr}
  1008f0:	eaffffb7 	b	1007d4 <_puts_r>
	...

00100900 <strlen>:
  100900:	f890 f000 	pld	[r0]
  100904:	e96d 4502 	strd	r4, r5, [sp, #-8]!
  100908:	f020 0107 	bic.w	r1, r0, #7
  10090c:	f06f 0c00 	mvn.w	ip, #0
  100910:	f010 0407 	ands.w	r4, r0, #7
  100914:	f891 f020 	pld	[r1, #32]
  100918:	f040 8049 	bne.w	1009ae <strlen+0xae>
  10091c:	f04f 0400 	mov.w	r4, #0
  100920:	f06f 0007 	mvn.w	r0, #7
  100924:	e9d1 2300 	ldrd	r2, r3, [r1]
  100928:	f891 f040 	pld	[r1, #64]	; 0x40
  10092c:	f100 0008 	add.w	r0, r0, #8
  100930:	fa82 f24c 	uadd8	r2, r2, ip
  100934:	faa4 f28c 	sel	r2, r4, ip
  100938:	fa83 f34c 	uadd8	r3, r3, ip
  10093c:	faa2 f38c 	sel	r3, r2, ip
  100940:	bb4b      	cbnz	r3, 100996 <strlen+0x96>
  100942:	e9d1 2302 	ldrd	r2, r3, [r1, #8]
  100946:	fa82 f24c 	uadd8	r2, r2, ip
  10094a:	f100 0008 	add.w	r0, r0, #8
  10094e:	faa4 f28c 	sel	r2, r4, ip
  100952:	fa83 f34c 	uadd8	r3, r3, ip
  100956:	faa2 f38c 	sel	r3, r2, ip
  10095a:	b9e3      	cbnz	r3, 100996 <strlen+0x96>
  10095c:	e9d1 2304 	ldrd	r2, r3, [r1, #16]
  100960:	fa82 f24c 	uadd8	r2, r2, ip
  100964:	f100 0008 	add.w	r0, r0, #8
  100968:	faa4 f28c 	sel	r2, r4, ip
  10096c:	fa83 f34c 	uadd8	r3, r3, ip
  100970:	faa2 f38c 	sel	r3, r2, ip
  100974:	b97b      	cbnz	r3, 100996 <strlen+0x96>
  100976:	e9d1 2306 	ldrd	r2, r3, [r1, #24]
  10097a:	f101 0120 	add.w	r1, r1, #32
  10097e:	fa82 f24c 	uadd8	r2, r2, ip
  100982:	f100 0008 	add.w	r0, r0, #8
  100986:	faa4 f28c 	sel	r2, r4, ip
  10098a:	fa83 f34c 	uadd8	r3, r3, ip
  10098e:	faa2 f38c 	sel	r3, r2, ip
  100992:	2b00      	cmp	r3, #0
  100994:	d0c6      	beq.n	100924 <strlen+0x24>
  100996:	2a00      	cmp	r2, #0
  100998:	bf04      	itt	eq
  10099a:	3004      	addeq	r0, #4
  10099c:	461a      	moveq	r2, r3
  10099e:	ba12      	rev	r2, r2
  1009a0:	fab2 f282 	clz	r2, r2
  1009a4:	e8fd 4502 	ldrd	r4, r5, [sp], #8
  1009a8:	eb00 00d2 	add.w	r0, r0, r2, lsr #3
  1009ac:	4770      	bx	lr
  1009ae:	e9d1 2300 	ldrd	r2, r3, [r1]
  1009b2:	f004 0503 	and.w	r5, r4, #3
  1009b6:	f1c4 0000 	rsb	r0, r4, #0
  1009ba:	ea4f 05c5 	mov.w	r5, r5, lsl #3
  1009be:	f014 0f04 	tst.w	r4, #4
  1009c2:	f891 f040 	pld	[r1, #64]	; 0x40
  1009c6:	fa0c f505 	lsl.w	r5, ip, r5
  1009ca:	ea62 0205 	orn	r2, r2, r5
  1009ce:	bf1c      	itt	ne
  1009d0:	ea63 0305 	ornne	r3, r3, r5
  1009d4:	4662      	movne	r2, ip
  1009d6:	f04f 0400 	mov.w	r4, #0
  1009da:	e7a9      	b.n	100930 <strlen+0x30>
  1009dc:	0000      	movs	r0, r0
	...

001009e0 <_vfprintf_r>:
  1009e0:	e92d4ff0 	push	{r4, r5, r6, r7, r8, r9, sl, fp, lr}
  1009e4:	e1a04003 	mov	r4, r3
  1009e8:	ed2d8b04 	vpush	{d8-d9}
  1009ec:	e24ddf43 	sub	sp, sp, #268	; 0x10c
  1009f0:	e1a08001 	mov	r8, r1
  1009f4:	e1a06002 	mov	r6, r2
  1009f8:	e1a0b000 	mov	fp, r0
  1009fc:	eb00129b 	bl	105470 <_localeconv_r>
  100a00:	e5903000 	ldr	r3, [r0]
  100a04:	e58d403c 	str	r4, [sp, #60]	; 0x3c
  100a08:	e1a00003 	mov	r0, r3
  100a0c:	e58d3058 	str	r3, [sp, #88]	; 0x58
  100a10:	faffffba 	blx	100900 <strlen>
  100a14:	e35b0000 	cmp	fp, #0
  100a18:	e58d005c 	str	r0, [sp, #92]	; 0x5c
  100a1c:	0a000002 	beq	100a2c <_vfprintf_r+0x4c>
  100a20:	e59b3038 	ldr	r3, [fp, #56]	; 0x38
  100a24:	e3530000 	cmp	r3, #0
  100a28:	0a0000d9 	beq	100d94 <_vfprintf_r+0x3b4>
  100a2c:	e5983064 	ldr	r3, [r8, #100]	; 0x64
  100a30:	e3130001 	tst	r3, #1
  100a34:	e1d830bc 	ldrh	r3, [r8, #12]
  100a38:	e6ff1073 	uxth	r1, r3
  100a3c:	1a000001 	bne	100a48 <_vfprintf_r+0x68>
  100a40:	e3110c02 	tst	r1, #512	; 0x200
  100a44:	0a0000e9 	beq	100df0 <_vfprintf_r+0x410>
  100a48:	e3110a02 	tst	r1, #8192	; 0x2000
  100a4c:	1a000005 	bne	100a68 <_vfprintf_r+0x88>
  100a50:	e5982064 	ldr	r2, [r8, #100]	; 0x64
  100a54:	e3833a02 	orr	r3, r3, #8192	; 0x2000
  100a58:	e6ff1073 	uxth	r1, r3
  100a5c:	e1c830bc 	strh	r3, [r8, #12]
  100a60:	e3c23a02 	bic	r3, r2, #8192	; 0x2000
  100a64:	e5883064 	str	r3, [r8, #100]	; 0x64
  100a68:	e3110008 	tst	r1, #8
  100a6c:	0a00009c 	beq	100ce4 <_vfprintf_r+0x304>
  100a70:	e5983010 	ldr	r3, [r8, #16]
  100a74:	e3530000 	cmp	r3, #0
  100a78:	0a000099 	beq	100ce4 <_vfprintf_r+0x304>
  100a7c:	e201301a 	and	r3, r1, #26
  100a80:	e353000a 	cmp	r3, #10
  100a84:	0a0000c5 	beq	100da0 <_vfprintf_r+0x3c0>
  100a88:	ed9f8be6 	vldr	d8, [pc, #920]	; 100e28 <_vfprintf_r+0x448>
  100a8c:	e28da0c8 	add	sl, sp, #200	; 0xc8
  100a90:	e30a1118 	movw	r1, #41240	; 0xa118
  100a94:	e3060667 	movw	r0, #26215	; 0x6667
  100a98:	e58db02c 	str	fp, [sp, #44]	; 0x2c
  100a9c:	e1a0900a 	mov	r9, sl
  100aa0:	e1a0b008 	mov	fp, r8
  100aa4:	e3a03000 	mov	r3, #0
  100aa8:	e3401010 	movt	r1, #16
  100aac:	e3460666 	movt	r0, #26214	; 0x6666
  100ab0:	e58d3050 	str	r3, [sp, #80]	; 0x50
  100ab4:	e58d3068 	str	r3, [sp, #104]	; 0x68
  100ab8:	e58d3030 	str	r3, [sp, #48]	; 0x30
  100abc:	e58d1054 	str	r1, [sp, #84]	; 0x54
  100ac0:	e58d006c 	str	r0, [sp, #108]	; 0x6c
  100ac4:	e58d309c 	str	r3, [sp, #156]	; 0x9c
  100ac8:	e58d3098 	str	r3, [sp, #152]	; 0x98
  100acc:	e58da094 	str	sl, [sp, #148]	; 0x94
  100ad0:	e5d63000 	ldrb	r3, [r6]
  100ad4:	e1a04006 	mov	r4, r6
  100ad8:	e3530000 	cmp	r3, #0
  100adc:	13530025 	cmpne	r3, #37	; 0x25
  100ae0:	0a000013 	beq	100b34 <_vfprintf_r+0x154>
  100ae4:	e5f43001 	ldrb	r3, [r4, #1]!
  100ae8:	e3530000 	cmp	r3, #0
  100aec:	13530025 	cmpne	r3, #37	; 0x25
  100af0:	1afffffb 	bne	100ae4 <_vfprintf_r+0x104>
  100af4:	e0545006 	subs	r5, r4, r6
  100af8:	0a00000d 	beq	100b34 <_vfprintf_r+0x154>
  100afc:	e59d3098 	ldr	r3, [sp, #152]	; 0x98
  100b00:	e59d209c 	ldr	r2, [sp, #156]	; 0x9c
  100b04:	e5896000 	str	r6, [r9]
  100b08:	e2833001 	add	r3, r3, #1
  100b0c:	e5895004 	str	r5, [r9, #4]
  100b10:	e3530007 	cmp	r3, #7
  100b14:	e0822005 	add	r2, r2, r5
  100b18:	e58d3098 	str	r3, [sp, #152]	; 0x98
  100b1c:	d2899008 	addle	r9, r9, #8
  100b20:	e58d209c 	str	r2, [sp, #156]	; 0x9c
  100b24:	ca00007f 	bgt	100d28 <_vfprintf_r+0x348>
  100b28:	e59d3030 	ldr	r3, [sp, #48]	; 0x30
  100b2c:	e0833005 	add	r3, r3, r5
  100b30:	e58d3030 	str	r3, [sp, #48]	; 0x30
  100b34:	e5d43000 	ldrb	r3, [r4]
  100b38:	e3530000 	cmp	r3, #0
  100b3c:	0a000713 	beq	102790 <_vfprintf_r+0x1db0>
  100b40:	e3a03000 	mov	r3, #0
  100b44:	e2846001 	add	r6, r4, #1
  100b48:	e1a02003 	mov	r2, r3
  100b4c:	e5cd3077 	strb	r3, [sp, #119]	; 0x77
  100b50:	e1a01003 	mov	r1, r3
  100b54:	e58d3034 	str	r3, [sp, #52]	; 0x34
  100b58:	e58d301c 	str	r3, [sp, #28]
  100b5c:	e5d43001 	ldrb	r3, [r4, #1]
  100b60:	e3e00000 	mvn	r0, #0
  100b64:	e58d0028 	str	r0, [sp, #40]	; 0x28
  100b68:	e2866001 	add	r6, r6, #1
  100b6c:	e1a07003 	mov	r7, r3
  100b70:	e2473020 	sub	r3, r7, #32
  100b74:	e3530058 	cmp	r3, #88	; 0x58
  100b78:	979ff103 	ldrls	pc, [pc, r3, lsl #2]
  100b7c:	ea0002d6 	b	1016dc <_vfprintf_r+0xcfc>
  100b80:	001014a0 	.word	0x001014a0
  100b84:	001016dc 	.word	0x001016dc
  100b88:	001016dc 	.word	0x001016dc
  100b8c:	001013b4 	.word	0x001013b4
  100b90:	001016dc 	.word	0x001016dc
  100b94:	001016dc 	.word	0x001016dc
  100b98:	001016dc 	.word	0x001016dc
  100b9c:	001016dc 	.word	0x001016dc
  100ba0:	001016dc 	.word	0x001016dc
  100ba4:	001016dc 	.word	0x001016dc
  100ba8:	001013c8 	.word	0x001013c8
  100bac:	001011a8 	.word	0x001011a8
  100bb0:	001016dc 	.word	0x001016dc
  100bb4:	00100e14 	.word	0x00100e14
  100bb8:	00101354 	.word	0x00101354
  100bbc:	001016dc 	.word	0x001016dc
  100bc0:	001013a0 	.word	0x001013a0
  100bc4:	001013ec 	.word	0x001013ec
  100bc8:	001013ec 	.word	0x001013ec
  100bcc:	001013ec 	.word	0x001013ec
  100bd0:	001013ec 	.word	0x001013ec
  100bd4:	001013ec 	.word	0x001013ec
  100bd8:	001013ec 	.word	0x001013ec
  100bdc:	001013ec 	.word	0x001013ec
  100be0:	001013ec 	.word	0x001013ec
  100be4:	001013ec 	.word	0x001013ec
  100be8:	001016dc 	.word	0x001016dc
  100bec:	001016dc 	.word	0x001016dc
  100bf0:	001016dc 	.word	0x001016dc
  100bf4:	001016dc 	.word	0x001016dc
  100bf8:	001016dc 	.word	0x001016dc
  100bfc:	001016dc 	.word	0x001016dc
  100c00:	001016dc 	.word	0x001016dc
  100c04:	001016dc 	.word	0x001016dc
  100c08:	001016dc 	.word	0x001016dc
  100c0c:	001016dc 	.word	0x001016dc
  100c10:	00101418 	.word	0x00101418
  100c14:	001010f0 	.word	0x001010f0
  100c18:	001016dc 	.word	0x001016dc
  100c1c:	001010f0 	.word	0x001010f0
  100c20:	001016dc 	.word	0x001016dc
  100c24:	001016dc 	.word	0x001016dc
  100c28:	001016dc 	.word	0x001016dc
  100c2c:	001016dc 	.word	0x001016dc
  100c30:	00101194 	.word	0x00101194
  100c34:	001016dc 	.word	0x001016dc
  100c38:	001016dc 	.word	0x001016dc
  100c3c:	001011b8 	.word	0x001011b8
  100c40:	001016dc 	.word	0x001016dc
  100c44:	001016dc 	.word	0x001016dc
  100c48:	001016dc 	.word	0x001016dc
  100c4c:	001016dc 	.word	0x001016dc
  100c50:	001016dc 	.word	0x001016dc
  100c54:	0010128c 	.word	0x0010128c
  100c58:	001016dc 	.word	0x001016dc
  100c5c:	001016dc 	.word	0x001016dc
  100c60:	00101314 	.word	0x00101314
  100c64:	001016dc 	.word	0x001016dc
  100c68:	001016dc 	.word	0x001016dc
  100c6c:	001016dc 	.word	0x001016dc
  100c70:	001016dc 	.word	0x001016dc
  100c74:	001016dc 	.word	0x001016dc
  100c78:	001016dc 	.word	0x001016dc
  100c7c:	001016dc 	.word	0x001016dc
  100c80:	001016dc 	.word	0x001016dc
  100c84:	001016dc 	.word	0x001016dc
  100c88:	001016dc 	.word	0x001016dc
  100c8c:	001014b4 	.word	0x001014b4
  100c90:	001014f4 	.word	0x001014f4
  100c94:	001010f0 	.word	0x001010f0
  100c98:	001010f0 	.word	0x001010f0
  100c9c:	001010f0 	.word	0x001010f0
  100ca0:	0010153c 	.word	0x0010153c
  100ca4:	001014f4 	.word	0x001014f4
  100ca8:	001016dc 	.word	0x001016dc
  100cac:	001016dc 	.word	0x001016dc
  100cb0:	00101550 	.word	0x00101550
  100cb4:	001016dc 	.word	0x001016dc
  100cb8:	0010157c 	.word	0x0010157c
  100cbc:	001015b4 	.word	0x001015b4
  100cc0:	0010164c 	.word	0x0010164c
  100cc4:	001016c8 	.word	0x001016c8
  100cc8:	001016dc 	.word	0x001016dc
  100ccc:	00101008 	.word	0x00101008
  100cd0:	001016dc 	.word	0x001016dc
  100cd4:	00101074 	.word	0x00101074
  100cd8:	001016dc 	.word	0x001016dc
  100cdc:	001016dc 	.word	0x001016dc
  100ce0:	00100e34 	.word	0x00100e34
  100ce4:	e1a01008 	mov	r1, r8
  100ce8:	e1a0000b 	mov	r0, fp
  100cec:	eb00084a 	bl	102e1c <__swsetup_r>
  100cf0:	e3500000 	cmp	r0, #0
  100cf4:	0a00003b 	beq	100de8 <_vfprintf_r+0x408>
  100cf8:	e5983064 	ldr	r3, [r8, #100]	; 0x64
  100cfc:	e3130001 	tst	r3, #1
  100d00:	1a000004 	bne	100d18 <_vfprintf_r+0x338>
  100d04:	e1d830bc 	ldrh	r3, [r8, #12]
  100d08:	e3130c02 	tst	r3, #512	; 0x200
  100d0c:	1a000001 	bne	100d18 <_vfprintf_r+0x338>
  100d10:	e2880058 	add	r0, r8, #88	; 0x58
  100d14:	eb00245e 	bl	109e94 <__generic_gxx_recursive_mutex_unlock>
  100d18:	e3e00000 	mvn	r0, #0
  100d1c:	e28ddf43 	add	sp, sp, #268	; 0x10c
  100d20:	ecbd8b04 	vpop	{d8-d9}
  100d24:	e8bd8ff0 	pop	{r4, r5, r6, r7, r8, r9, sl, fp, pc}
  100d28:	e28d2094 	add	r2, sp, #148	; 0x94
  100d2c:	e1a0100b 	mov	r1, fp
  100d30:	e59d002c 	ldr	r0, [sp, #44]	; 0x2c
  100d34:	eb001b21 	bl	1079c0 <__sprint_r>
  100d38:	e3500000 	cmp	r0, #0
  100d3c:	1a000007 	bne	100d60 <_vfprintf_r+0x380>
  100d40:	e1a0900a 	mov	r9, sl
  100d44:	eaffff77 	b	100b28 <_vfprintf_r+0x148>
  100d48:	e28d2094 	add	r2, sp, #148	; 0x94
  100d4c:	e1a0100b 	mov	r1, fp
  100d50:	e59d002c 	ldr	r0, [sp, #44]	; 0x2c
  100d54:	eb001b19 	bl	1079c0 <__sprint_r>
  100d58:	e3500000 	cmp	r0, #0
  100d5c:	0a000322 	beq	1019ec <_vfprintf_r+0x100c>
  100d60:	e1a0800b 	mov	r8, fp
  100d64:	e5983064 	ldr	r3, [r8, #100]	; 0x64
  100d68:	e3130001 	tst	r3, #1
  100d6c:	e1d830bc 	ldrh	r3, [r8, #12]
  100d70:	1a000001 	bne	100d7c <_vfprintf_r+0x39c>
  100d74:	e3130c02 	tst	r3, #512	; 0x200
  100d78:	0a000472 	beq	101f48 <_vfprintf_r+0x1568>
  100d7c:	e3130040 	tst	r3, #64	; 0x40
  100d80:	1affffe4 	bne	100d18 <_vfprintf_r+0x338>
  100d84:	e59d0030 	ldr	r0, [sp, #48]	; 0x30
  100d88:	e28ddf43 	add	sp, sp, #268	; 0x10c
  100d8c:	ecbd8b04 	vpop	{d8-d9}
  100d90:	e8bd8ff0 	pop	{r4, r5, r6, r7, r8, r9, sl, fp, pc}
  100d94:	e1a0000b 	mov	r0, fp
  100d98:	eb000e98 	bl	104800 <__sinit>
  100d9c:	eaffff22 	b	100a2c <_vfprintf_r+0x4c>
  100da0:	e1d830fe 	ldrsh	r3, [r8, #14]
  100da4:	e3530000 	cmp	r3, #0
  100da8:	baffff36 	blt	100a88 <_vfprintf_r+0xa8>
  100dac:	e5983064 	ldr	r3, [r8, #100]	; 0x64
  100db0:	e3130001 	tst	r3, #1
  100db4:	1a000003 	bne	100dc8 <_vfprintf_r+0x3e8>
  100db8:	e3110c02 	tst	r1, #512	; 0x200
  100dbc:	1a000001 	bne	100dc8 <_vfprintf_r+0x3e8>
  100dc0:	e2880058 	add	r0, r8, #88	; 0x58
  100dc4:	eb002432 	bl	109e94 <__generic_gxx_recursive_mutex_unlock>
  100dc8:	e1a03004 	mov	r3, r4
  100dcc:	e1a02006 	mov	r2, r6
  100dd0:	e1a01008 	mov	r1, r8
  100dd4:	e1a0000b 	mov	r0, fp
  100dd8:	eb0007dc 	bl	102d50 <__sbprintf>
  100ddc:	e28ddf43 	add	sp, sp, #268	; 0x10c
  100de0:	ecbd8b04 	vpop	{d8-d9}
  100de4:	e8bd8ff0 	pop	{r4, r5, r6, r7, r8, r9, sl, fp, pc}
  100de8:	e1d810bc 	ldrh	r1, [r8, #12]
  100dec:	eaffff22 	b	100a7c <_vfprintf_r+0x9c>
  100df0:	e2880058 	add	r0, r8, #88	; 0x58
  100df4:	eb002428 	bl	109e9c <__generic_gxx_recursive_mutex_lock>
  100df8:	e1d830bc 	ldrh	r3, [r8, #12]
  100dfc:	e6ff1073 	uxth	r1, r3
  100e00:	eaffff10 	b	100a48 <_vfprintf_r+0x68>
  100e04:	e59d0034 	ldr	r0, [sp, #52]	; 0x34
  100e08:	e58d303c 	str	r3, [sp, #60]	; 0x3c
  100e0c:	e2600000 	rsb	r0, r0, #0
  100e10:	e58d0034 	str	r0, [sp, #52]	; 0x34
  100e14:	e59d301c 	ldr	r3, [sp, #28]
  100e18:	e3833004 	orr	r3, r3, #4
  100e1c:	e58d301c 	str	r3, [sp, #28]
  100e20:	e5d63000 	ldrb	r3, [r6]
  100e24:	eaffff4f 	b	100b68 <_vfprintf_r+0x188>
	...
  100e30:	0010a128 	.word	0x0010a128
  100e34:	e59d301c 	ldr	r3, [sp, #28]
  100e38:	e3520000 	cmp	r2, #0
  100e3c:	15cd1077 	strbne	r1, [sp, #119]	; 0x77
  100e40:	e30a015c 	movw	r0, #41308	; 0xa15c
  100e44:	e3400010 	movt	r0, #16
  100e48:	e3130020 	tst	r3, #32
  100e4c:	0a000137 	beq	101330 <_vfprintf_r+0x950>
  100e50:	e59d303c 	ldr	r3, [sp, #60]	; 0x3c
  100e54:	e2838007 	add	r8, r3, #7
  100e58:	e3c83007 	bic	r3, r8, #7
  100e5c:	e2832008 	add	r2, r3, #8
  100e60:	e58d203c 	str	r2, [sp, #60]	; 0x3c
  100e64:	e1c320d0 	ldrd	r2, [r3]
  100e68:	e59d101c 	ldr	r1, [sp, #28]
  100e6c:	e2111001 	ands	r1, r1, #1
  100e70:	0a000413 	beq	101ec4 <_vfprintf_r+0x14e4>
  100e74:	e1921003 	orrs	r1, r2, r3
  100e78:	0a0004eb 	beq	10222c <_vfprintf_r+0x184c>
  100e7c:	e59d1028 	ldr	r1, [sp, #40]	; 0x28
  100e80:	e3a0c030 	mov	ip, #48	; 0x30
  100e84:	e5cd7079 	strb	r7, [sp, #121]	; 0x79
  100e88:	e5cdc078 	strb	ip, [sp, #120]	; 0x78
  100e8c:	e3510000 	cmp	r1, #0
  100e90:	e3a01000 	mov	r1, #0
  100e94:	e5cd1077 	strb	r1, [sp, #119]	; 0x77
  100e98:	e59d101c 	ldr	r1, [sp, #28]
  100e9c:	a3c11080 	bicge	r1, r1, #128	; 0x80
  100ea0:	e3811002 	orr	r1, r1, #2
  100ea4:	e58d101c 	str	r1, [sp, #28]
  100ea8:	e1a0100a 	mov	r1, sl
  100eac:	e202c00f 	and	ip, r2, #15
  100eb0:	e1a02222 	lsr	r2, r2, #4
  100eb4:	e7d0c00c 	ldrb	ip, [r0, ip]
  100eb8:	e1822e03 	orr	r2, r2, r3, lsl #28
  100ebc:	e1a03223 	lsr	r3, r3, #4
  100ec0:	e192e003 	orrs	lr, r2, r3
  100ec4:	e561c001 	strb	ip, [r1, #-1]!
  100ec8:	1afffff7 	bne	100eac <_vfprintf_r+0x4cc>
  100ecc:	e3a05000 	mov	r5, #0
  100ed0:	e061300a 	rsb	r3, r1, sl
  100ed4:	e58d1048 	str	r1, [sp, #72]	; 0x48
  100ed8:	e58d3038 	str	r3, [sp, #56]	; 0x38
  100edc:	e59d3038 	ldr	r3, [sp, #56]	; 0x38
  100ee0:	e3a01000 	mov	r1, #0
  100ee4:	e59d2028 	ldr	r2, [sp, #40]	; 0x28
  100ee8:	e58d104c 	str	r1, [sp, #76]	; 0x4c
  100eec:	e1530002 	cmp	r3, r2
  100ef0:	b1a03002 	movlt	r3, r2
  100ef4:	e58d3020 	str	r3, [sp, #32]
  100ef8:	e3550000 	cmp	r5, #0
  100efc:	0a000002 	beq	100f0c <_vfprintf_r+0x52c>
  100f00:	e59d3020 	ldr	r3, [sp, #32]
  100f04:	e2833001 	add	r3, r3, #1
  100f08:	e58d3020 	str	r3, [sp, #32]
  100f0c:	e59d301c 	ldr	r3, [sp, #28]
  100f10:	e2133002 	ands	r3, r3, #2
  100f14:	e58d3040 	str	r3, [sp, #64]	; 0x40
  100f18:	159d3020 	ldrne	r3, [sp, #32]
  100f1c:	12833002 	addne	r3, r3, #2
  100f20:	158d3020 	strne	r3, [sp, #32]
  100f24:	e59d301c 	ldr	r3, [sp, #28]
  100f28:	e2133084 	ands	r3, r3, #132	; 0x84
  100f2c:	e58d3044 	str	r3, [sp, #68]	; 0x44
  100f30:	1a0001fe 	bne	101730 <_vfprintf_r+0xd50>
  100f34:	e59d3034 	ldr	r3, [sp, #52]	; 0x34
  100f38:	e59d2020 	ldr	r2, [sp, #32]
  100f3c:	e0624003 	rsb	r4, r2, r3
  100f40:	e3540000 	cmp	r4, #0
  100f44:	da0001f9 	ble	101730 <_vfprintf_r+0xd50>
  100f48:	e3540010 	cmp	r4, #16
  100f4c:	da00064b 	ble	102880 <_vfprintf_r+0x1ea0>
  100f50:	e30a5118 	movw	r5, #41240	; 0xa118
  100f54:	e58d6060 	str	r6, [sp, #96]	; 0x60
  100f58:	e3405010 	movt	r5, #16
  100f5c:	e59d109c 	ldr	r1, [sp, #156]	; 0x9c
  100f60:	e58d5064 	str	r5, [sp, #100]	; 0x64
  100f64:	e3a08010 	mov	r8, #16
  100f68:	e59d2098 	ldr	r2, [sp, #152]	; 0x98
  100f6c:	e59d502c 	ldr	r5, [sp, #44]	; 0x2c
  100f70:	e59d6054 	ldr	r6, [sp, #84]	; 0x54
  100f74:	ea000002 	b	100f84 <_vfprintf_r+0x5a4>
  100f78:	e2444010 	sub	r4, r4, #16
  100f7c:	e3540010 	cmp	r4, #16
  100f80:	da000013 	ble	100fd4 <_vfprintf_r+0x5f4>
  100f84:	e2822001 	add	r2, r2, #1
  100f88:	e2811010 	add	r1, r1, #16
  100f8c:	e3520007 	cmp	r2, #7
  100f90:	e8890140 	stm	r9, {r6, r8}
  100f94:	e58d2098 	str	r2, [sp, #152]	; 0x98
  100f98:	d2899008 	addle	r9, r9, #8
  100f9c:	e58d109c 	str	r1, [sp, #156]	; 0x9c
  100fa0:	dafffff4 	ble	100f78 <_vfprintf_r+0x598>
  100fa4:	e28d2094 	add	r2, sp, #148	; 0x94
  100fa8:	e1a0100b 	mov	r1, fp
  100fac:	e1a00005 	mov	r0, r5
  100fb0:	e1a0900a 	mov	r9, sl
  100fb4:	eb001a81 	bl	1079c0 <__sprint_r>
  100fb8:	e3500000 	cmp	r0, #0
  100fbc:	1affff67 	bne	100d60 <_vfprintf_r+0x380>
  100fc0:	e2444010 	sub	r4, r4, #16
  100fc4:	e59d109c 	ldr	r1, [sp, #156]	; 0x9c
  100fc8:	e3540010 	cmp	r4, #16
  100fcc:	e59d2098 	ldr	r2, [sp, #152]	; 0x98
  100fd0:	caffffeb 	bgt	100f84 <_vfprintf_r+0x5a4>
  100fd4:	e59d6060 	ldr	r6, [sp, #96]	; 0x60
  100fd8:	e59d5064 	ldr	r5, [sp, #100]	; 0x64
  100fdc:	e2822001 	add	r2, r2, #1
  100fe0:	e0843001 	add	r3, r4, r1
  100fe4:	e3520007 	cmp	r2, #7
  100fe8:	e58d2098 	str	r2, [sp, #152]	; 0x98
  100fec:	e58d309c 	str	r3, [sp, #156]	; 0x9c
  100ff0:	e5895000 	str	r5, [r9]
  100ff4:	e5894004 	str	r4, [r9, #4]
  100ff8:	ca0001c4 	bgt	101710 <_vfprintf_r+0xd30>
  100ffc:	e2899008 	add	r9, r9, #8
  101000:	e5dd5077 	ldrb	r5, [sp, #119]	; 0x77
  101004:	ea0001ca 	b	101734 <_vfprintf_r+0xd54>
  101008:	e59d303c 	ldr	r3, [sp, #60]	; 0x3c
  10100c:	e3a04000 	mov	r4, #0
  101010:	e5cd4077 	strb	r4, [sp, #119]	; 0x77
  101014:	e5932000 	ldr	r2, [r3]
  101018:	e2838004 	add	r8, r3, #4
  10101c:	e59d3028 	ldr	r3, [sp, #40]	; 0x28
  101020:	e1520004 	cmp	r2, r4
  101024:	e58d2048 	str	r2, [sp, #72]	; 0x48
  101028:	0a00064f 	beq	10296c <_vfprintf_r+0x1f8c>
  10102c:	e3530000 	cmp	r3, #0
  101030:	ba00060c 	blt	102868 <_vfprintf_r+0x1e88>
  101034:	e1a02003 	mov	r2, r3
  101038:	e1a01004 	mov	r1, r4
  10103c:	e59d0048 	ldr	r0, [sp, #72]	; 0x48
  101040:	eb00136a 	bl	105df0 <memchr>
  101044:	e3500000 	cmp	r0, #0
  101048:	0a000690 	beq	102a90 <_vfprintf_r+0x20b0>
  10104c:	e59d3048 	ldr	r3, [sp, #72]	; 0x48
  101050:	e58d4028 	str	r4, [sp, #40]	; 0x28
  101054:	e0633000 	rsb	r3, r3, r0
  101058:	e58d3038 	str	r3, [sp, #56]	; 0x38
  10105c:	e1c33fc3 	bic	r3, r3, r3, asr #31
  101060:	e58d803c 	str	r8, [sp, #60]	; 0x3c
  101064:	e58d404c 	str	r4, [sp, #76]	; 0x4c
  101068:	e58d3020 	str	r3, [sp, #32]
  10106c:	e5dd5077 	ldrb	r5, [sp, #119]	; 0x77
  101070:	eaffffa0 	b	100ef8 <_vfprintf_r+0x518>
  101074:	e3520000 	cmp	r2, #0
  101078:	15cd1077 	strbne	r1, [sp, #119]	; 0x77
  10107c:	e59d101c 	ldr	r1, [sp, #28]
  101080:	e2113020 	ands	r3, r1, #32
  101084:	0a000088 	beq	1012ac <_vfprintf_r+0x8cc>
  101088:	e59d303c 	ldr	r3, [sp, #60]	; 0x3c
  10108c:	e3a05000 	mov	r5, #0
  101090:	e59d0028 	ldr	r0, [sp, #40]	; 0x28
  101094:	e5cd5077 	strb	r5, [sp, #119]	; 0x77
  101098:	e2838007 	add	r8, r3, #7
  10109c:	e3c83007 	bic	r3, r8, #7
  1010a0:	e3500000 	cmp	r0, #0
  1010a4:	e2832008 	add	r2, r3, #8
  1010a8:	e58d203c 	str	r2, [sp, #60]	; 0x3c
  1010ac:	e1c320d0 	ldrd	r2, [r3]
  1010b0:	e1cd22f0 	strd	r2, [sp, #32]
  1010b4:	ba000358 	blt	101e1c <_vfprintf_r+0x143c>
  1010b8:	e1823003 	orr	r3, r2, r3
  1010bc:	e3c12080 	bic	r2, r1, #128	; 0x80
  1010c0:	e1530005 	cmp	r3, r5
  1010c4:	01500005 	cmpeq	r0, r5
  1010c8:	e58d201c 	str	r2, [sp, #28]
  1010cc:	13a03001 	movne	r3, #1
  1010d0:	03a03000 	moveq	r3, #0
  1010d4:	1a000350 	bne	101e1c <_vfprintf_r+0x143c>
  1010d8:	e1a05003 	mov	r5, r3
  1010dc:	e3a03000 	mov	r3, #0
  1010e0:	e58da048 	str	sl, [sp, #72]	; 0x48
  1010e4:	e58d3028 	str	r3, [sp, #40]	; 0x28
  1010e8:	e58d3038 	str	r3, [sp, #56]	; 0x38
  1010ec:	eaffff7a 	b	100edc <_vfprintf_r+0x4fc>
  1010f0:	e59d301c 	ldr	r3, [sp, #28]
  1010f4:	e3520000 	cmp	r2, #0
  1010f8:	15cd1077 	strbne	r1, [sp, #119]	; 0x77
  1010fc:	e3130008 	tst	r3, #8
  101100:	e59d303c 	ldr	r3, [sp, #60]	; 0x3c
  101104:	e2838007 	add	r8, r3, #7
  101108:	13c83007 	bicne	r3, r8, #7
  10110c:	03c88007 	biceq	r8, r8, #7
  101110:	1d938b00 	vldrne	d8, [r3]
  101114:	12832008 	addne	r2, r3, #8
  101118:	0d988b00 	vldreq	d8, [r8]
  10111c:	02883008 	addeq	r3, r8, #8
  101120:	158d203c 	strne	r2, [sp, #60]	; 0x3c
  101124:	058d303c 	streq	r3, [sp, #60]	; 0x3c
  101128:	ec510b18 	vmov	r0, r1, d8
  10112c:	eb0018e4 	bl	1074c4 <__fpclassifyd>
  101130:	e3500001 	cmp	r0, #1
  101134:	1a000446 	bne	102254 <_vfprintf_r+0x1874>
  101138:	eeb58bc0 	vcmpe.f64	d8, #0.0
  10113c:	e30a213c 	movw	r2, #41276	; 0xa13c
  101140:	eef1fa10 	vmrs	APSR_nzcv, fpscr
  101144:	e3402010 	movt	r2, #16
  101148:	43a0302d 	movmi	r3, #45	; 0x2d
  10114c:	e59dc01c 	ldr	ip, [sp, #28]
  101150:	41a05003 	movmi	r5, r3
  101154:	45cd3077 	strbmi	r3, [sp, #119]	; 0x77
  101158:	e30a3138 	movw	r3, #41272	; 0xa138
  10115c:	55dd5077 	ldrbpl	r5, [sp, #119]	; 0x77
  101160:	e3403010 	movt	r3, #16
  101164:	e3570047 	cmp	r7, #71	; 0x47
  101168:	e3a01003 	mov	r1, #3
  10116c:	e3a00000 	mov	r0, #0
  101170:	e3ccc080 	bic	ip, ip, #128	; 0x80
  101174:	d1a02003 	movle	r2, r3
  101178:	e58d1020 	str	r1, [sp, #32]
  10117c:	e58d0028 	str	r0, [sp, #40]	; 0x28
  101180:	e58dc01c 	str	ip, [sp, #28]
  101184:	e58d2048 	str	r2, [sp, #72]	; 0x48
  101188:	e58d1038 	str	r1, [sp, #56]	; 0x38
  10118c:	e58d004c 	str	r0, [sp, #76]	; 0x4c
  101190:	eaffff58 	b	100ef8 <_vfprintf_r+0x518>
  101194:	e59d301c 	ldr	r3, [sp, #28]
  101198:	e3833008 	orr	r3, r3, #8
  10119c:	e58d301c 	str	r3, [sp, #28]
  1011a0:	e5d63000 	ldrb	r3, [r6]
  1011a4:	eafffe6f 	b	100b68 <_vfprintf_r+0x188>
  1011a8:	e5d63000 	ldrb	r3, [r6]
  1011ac:	e3a02001 	mov	r2, #1
  1011b0:	e3a0102b 	mov	r1, #43	; 0x2b
  1011b4:	eafffe6b 	b	100b68 <_vfprintf_r+0x188>
  1011b8:	e59d301c 	ldr	r3, [sp, #28]
  1011bc:	e3520000 	cmp	r2, #0
  1011c0:	15cd1077 	strbne	r1, [sp, #119]	; 0x77
  1011c4:	e3833010 	orr	r3, r3, #16
  1011c8:	e58d301c 	str	r3, [sp, #28]
  1011cc:	e59d001c 	ldr	r0, [sp, #28]
  1011d0:	e2103020 	ands	r3, r0, #32
  1011d4:	0a0000fb 	beq	1015c8 <_vfprintf_r+0xbe8>
  1011d8:	e59d303c 	ldr	r3, [sp, #60]	; 0x3c
  1011dc:	e3a01000 	mov	r1, #0
  1011e0:	e5cd1077 	strb	r1, [sp, #119]	; 0x77
  1011e4:	e2838007 	add	r8, r3, #7
  1011e8:	e59d3028 	ldr	r3, [sp, #40]	; 0x28
  1011ec:	e3530000 	cmp	r3, #0
  1011f0:	e3c83007 	bic	r3, r8, #7
  1011f4:	e2832008 	add	r2, r3, #8
  1011f8:	e58d203c 	str	r2, [sp, #60]	; 0x3c
  1011fc:	e1c320d0 	ldrd	r2, [r3]
  101200:	ba000006 	blt	101220 <_vfprintf_r+0x840>
  101204:	13a01001 	movne	r1, #1
  101208:	e192c003 	orrs	ip, r2, r3
  10120c:	13811001 	orrne	r1, r1, #1
  101210:	e3c00080 	bic	r0, r0, #128	; 0x80
  101214:	e3510000 	cmp	r1, #0
  101218:	e58d001c 	str	r0, [sp, #28]
  10121c:	0a0000fd 	beq	101618 <_vfprintf_r+0xc38>
  101220:	e1a0000a 	mov	r0, sl
  101224:	e2021007 	and	r1, r2, #7
  101228:	e1a021a2 	lsr	r2, r2, #3
  10122c:	e2811030 	add	r1, r1, #48	; 0x30
  101230:	e1822e83 	orr	r2, r2, r3, lsl #29
  101234:	e1a031a3 	lsr	r3, r3, #3
  101238:	e5601001 	strb	r1, [r0, #-1]!
  10123c:	e192c003 	orrs	ip, r2, r3
  101240:	1afffff7 	bne	101224 <_vfprintf_r+0x844>
  101244:	e59d501c 	ldr	r5, [sp, #28]
  101248:	e3510030 	cmp	r1, #48	; 0x30
  10124c:	03a05000 	moveq	r5, #0
  101250:	12055001 	andne	r5, r5, #1
  101254:	e3550000 	cmp	r5, #0
  101258:	0060300a 	rsbeq	r3, r0, sl
  10125c:	058d0048 	streq	r0, [sp, #72]	; 0x48
  101260:	058d3038 	streq	r3, [sp, #56]	; 0x38
  101264:	0affff1c 	beq	100edc <_vfprintf_r+0x4fc>
  101268:	e2403001 	sub	r3, r0, #1
  10126c:	e3a05000 	mov	r5, #0
  101270:	e1a02003 	mov	r2, r3
  101274:	e58d3048 	str	r3, [sp, #72]	; 0x48
  101278:	e062200a 	rsb	r2, r2, sl
  10127c:	e3a03030 	mov	r3, #48	; 0x30
  101280:	e58d2038 	str	r2, [sp, #56]	; 0x38
  101284:	e5403001 	strb	r3, [r0, #-1]
  101288:	eaffff13 	b	100edc <_vfprintf_r+0x4fc>
  10128c:	e59d301c 	ldr	r3, [sp, #28]
  101290:	e3520000 	cmp	r2, #0
  101294:	15cd1077 	strbne	r1, [sp, #119]	; 0x77
  101298:	e3833010 	orr	r3, r3, #16
  10129c:	e58d301c 	str	r3, [sp, #28]
  1012a0:	e59d101c 	ldr	r1, [sp, #28]
  1012a4:	e2113020 	ands	r3, r1, #32
  1012a8:	1affff76 	bne	101088 <_vfprintf_r+0x6a8>
  1012ac:	e59d101c 	ldr	r1, [sp, #28]
  1012b0:	e2112010 	ands	r2, r1, #16
  1012b4:	0a000453 	beq	102408 <_vfprintf_r+0x1a28>
  1012b8:	e59d003c 	ldr	r0, [sp, #60]	; 0x3c
  1012bc:	e59dc028 	ldr	ip, [sp, #40]	; 0x28
  1012c0:	e5cd3077 	strb	r3, [sp, #119]	; 0x77
  1012c4:	e5902000 	ldr	r2, [r0]
  1012c8:	e2808004 	add	r8, r0, #4
  1012cc:	e35c0000 	cmp	ip, #0
  1012d0:	ee802b90 	vdup.32	d16, r2
  1012d4:	f3e000b0 	vshr.u64	d16, d16, #32
  1012d8:	edcd0b08 	vstr	d16, [sp, #32]
  1012dc:	ba0004e3 	blt	102670 <_vfprintf_r+0x1c90>
  1012e0:	e59d2020 	ldr	r2, [sp, #32]
  1012e4:	13a05001 	movne	r5, #1
  1012e8:	e59d0024 	ldr	r0, [sp, #36]	; 0x24
  1012ec:	03a05000 	moveq	r5, #0
  1012f0:	e58d803c 	str	r8, [sp, #60]	; 0x3c
  1012f4:	e1922000 	orrs	r2, r2, r0
  1012f8:	e3c12080 	bic	r2, r1, #128	; 0x80
  1012fc:	13855001 	orrne	r5, r5, #1
  101300:	e58d201c 	str	r2, [sp, #28]
  101304:	e3550000 	cmp	r5, #0
  101308:	0affff73 	beq	1010dc <_vfprintf_r+0x6fc>
  10130c:	e1a05003 	mov	r5, r3
  101310:	ea0002c1 	b	101e1c <_vfprintf_r+0x143c>
  101314:	e59d301c 	ldr	r3, [sp, #28]
  101318:	e3520000 	cmp	r2, #0
  10131c:	15cd1077 	strbne	r1, [sp, #119]	; 0x77
  101320:	e30a0148 	movw	r0, #41288	; 0xa148
  101324:	e3400010 	movt	r0, #16
  101328:	e3130020 	tst	r3, #32
  10132c:	1afffec7 	bne	100e50 <_vfprintf_r+0x470>
  101330:	e59d301c 	ldr	r3, [sp, #28]
  101334:	e3130010 	tst	r3, #16
  101338:	0a000429 	beq	1023e4 <_vfprintf_r+0x1a04>
  10133c:	e59d303c 	ldr	r3, [sp, #60]	; 0x3c
  101340:	e5932000 	ldr	r2, [r3]
  101344:	e2833004 	add	r3, r3, #4
  101348:	e58d303c 	str	r3, [sp, #60]	; 0x3c
  10134c:	e3a03000 	mov	r3, #0
  101350:	eafffec4 	b	100e68 <_vfprintf_r+0x488>
  101354:	e5d67000 	ldrb	r7, [r6]
  101358:	e2860001 	add	r0, r6, #1
  10135c:	e357002a 	cmp	r7, #42	; 0x2a
  101360:	0a000660 	beq	102ce8 <_vfprintf_r+0x2308>
  101364:	e247c030 	sub	ip, r7, #48	; 0x30
  101368:	e1a06000 	mov	r6, r0
  10136c:	e35c0009 	cmp	ip, #9
  101370:	e3a03000 	mov	r3, #0
  101374:	8a000007 	bhi	101398 <_vfprintf_r+0x9b8>
  101378:	e1a00183 	lsl	r0, r3, #3
  10137c:	e4d67001 	ldrb	r7, [r6], #1
  101380:	e0803083 	add	r3, r0, r3, lsl #1
  101384:	e083300c 	add	r3, r3, ip
  101388:	e247c030 	sub	ip, r7, #48	; 0x30
  10138c:	e35c0009 	cmp	ip, #9
  101390:	9afffff8 	bls	101378 <_vfprintf_r+0x998>
  101394:	e1833fc3 	orr	r3, r3, r3, asr #31
  101398:	e58d3028 	str	r3, [sp, #40]	; 0x28
  10139c:	eafffdf3 	b	100b70 <_vfprintf_r+0x190>
  1013a0:	e59d301c 	ldr	r3, [sp, #28]
  1013a4:	e3833080 	orr	r3, r3, #128	; 0x80
  1013a8:	e58d301c 	str	r3, [sp, #28]
  1013ac:	e5d63000 	ldrb	r3, [r6]
  1013b0:	eafffdec 	b	100b68 <_vfprintf_r+0x188>
  1013b4:	e59d301c 	ldr	r3, [sp, #28]
  1013b8:	e3833001 	orr	r3, r3, #1
  1013bc:	e58d301c 	str	r3, [sp, #28]
  1013c0:	e5d63000 	ldrb	r3, [r6]
  1013c4:	eafffde7 	b	100b68 <_vfprintf_r+0x188>
  1013c8:	e59d303c 	ldr	r3, [sp, #60]	; 0x3c
  1013cc:	e5930000 	ldr	r0, [r3]
  1013d0:	e2833004 	add	r3, r3, #4
  1013d4:	e3500000 	cmp	r0, #0
  1013d8:	e58d0034 	str	r0, [sp, #52]	; 0x34
  1013dc:	bafffe88 	blt	100e04 <_vfprintf_r+0x424>
  1013e0:	e58d303c 	str	r3, [sp, #60]	; 0x3c
  1013e4:	e5d63000 	ldrb	r3, [r6]
  1013e8:	eafffdde 	b	100b68 <_vfprintf_r+0x188>
  1013ec:	e247c030 	sub	ip, r7, #48	; 0x30
  1013f0:	e3a03000 	mov	r3, #0
  1013f4:	e1a00183 	lsl	r0, r3, #3
  1013f8:	e4d67001 	ldrb	r7, [r6], #1
  1013fc:	e0803083 	add	r3, r0, r3, lsl #1
  101400:	e08c3003 	add	r3, ip, r3
  101404:	e247c030 	sub	ip, r7, #48	; 0x30
  101408:	e35c0009 	cmp	ip, #9
  10140c:	9afffff8 	bls	1013f4 <_vfprintf_r+0xa14>
  101410:	e58d3034 	str	r3, [sp, #52]	; 0x34
  101414:	eafffdd5 	b	100b70 <_vfprintf_r+0x190>
  101418:	e59d301c 	ldr	r3, [sp, #28]
  10141c:	e3520000 	cmp	r2, #0
  101420:	15cd1077 	strbne	r1, [sp, #119]	; 0x77
  101424:	e3833010 	orr	r3, r3, #16
  101428:	e58d301c 	str	r3, [sp, #28]
  10142c:	e59d301c 	ldr	r3, [sp, #28]
  101430:	e3130020 	tst	r3, #32
  101434:	0a000033 	beq	101508 <_vfprintf_r+0xb28>
  101438:	e59d303c 	ldr	r3, [sp, #60]	; 0x3c
  10143c:	e2838007 	add	r8, r3, #7
  101440:	e3c88007 	bic	r8, r8, #7
  101444:	e1c820d0 	ldrd	r2, [r8]
  101448:	e2881008 	add	r1, r8, #8
  10144c:	e58d103c 	str	r1, [sp, #60]	; 0x3c
  101450:	e1cd22f0 	strd	r2, [sp, #32]
  101454:	e3520000 	cmp	r2, #0
  101458:	e2d33000 	sbcs	r3, r3, #0
  10145c:	ba000366 	blt	1021fc <_vfprintf_r+0x181c>
  101460:	e59d3028 	ldr	r3, [sp, #40]	; 0x28
  101464:	e3530000 	cmp	r3, #0
  101468:	ba00026a 	blt	101e18 <_vfprintf_r+0x1438>
  10146c:	e1cd02d0 	ldrd	r0, [sp, #32]
  101470:	13a03001 	movne	r3, #1
  101474:	03a03000 	moveq	r3, #0
  101478:	e1a02000 	mov	r2, r0
  10147c:	e1922001 	orrs	r2, r2, r1
  101480:	e59d201c 	ldr	r2, [sp, #28]
  101484:	13833001 	orrne	r3, r3, #1
  101488:	e3530000 	cmp	r3, #0
  10148c:	e3c22080 	bic	r2, r2, #128	; 0x80
  101490:	e58d201c 	str	r2, [sp, #28]
  101494:	1a00025f 	bne	101e18 <_vfprintf_r+0x1438>
  101498:	e5dd5077 	ldrb	r5, [sp, #119]	; 0x77
  10149c:	eaffff0e 	b	1010dc <_vfprintf_r+0x6fc>
  1014a0:	e3510000 	cmp	r1, #0
  1014a4:	e5d63000 	ldrb	r3, [r6]
  1014a8:	03a02001 	moveq	r2, #1
  1014ac:	03a01020 	moveq	r1, #32
  1014b0:	eafffdac 	b	100b68 <_vfprintf_r+0x188>
  1014b4:	e59d103c 	ldr	r1, [sp, #60]	; 0x3c
  1014b8:	e3a00001 	mov	r0, #1
  1014bc:	e3a02000 	mov	r2, #0
  1014c0:	e58d0020 	str	r0, [sp, #32]
  1014c4:	e5cd2077 	strb	r2, [sp, #119]	; 0x77
  1014c8:	e5913000 	ldr	r3, [r1]
  1014cc:	e2811004 	add	r1, r1, #4
  1014d0:	e58d103c 	str	r1, [sp, #60]	; 0x3c
  1014d4:	e58d0038 	str	r0, [sp, #56]	; 0x38
  1014d8:	e5cd30a0 	strb	r3, [sp, #160]	; 0xa0
  1014dc:	e28d30a0 	add	r3, sp, #160	; 0xa0
  1014e0:	e58d3048 	str	r3, [sp, #72]	; 0x48
  1014e4:	e3a05000 	mov	r5, #0
  1014e8:	e58d5028 	str	r5, [sp, #40]	; 0x28
  1014ec:	e58d504c 	str	r5, [sp, #76]	; 0x4c
  1014f0:	eafffe85 	b	100f0c <_vfprintf_r+0x52c>
  1014f4:	e59d301c 	ldr	r3, [sp, #28]
  1014f8:	e3520000 	cmp	r2, #0
  1014fc:	15cd1077 	strbne	r1, [sp, #119]	; 0x77
  101500:	e3130020 	tst	r3, #32
  101504:	1affffcb 	bne	101438 <_vfprintf_r+0xa58>
  101508:	e59d301c 	ldr	r3, [sp, #28]
  10150c:	e3130010 	tst	r3, #16
  101510:	1a000279 	bne	101efc <_vfprintf_r+0x151c>
  101514:	e59d301c 	ldr	r3, [sp, #28]
  101518:	e3130040 	tst	r3, #64	; 0x40
  10151c:	0a000276 	beq	101efc <_vfprintf_r+0x151c>
  101520:	e59d103c 	ldr	r1, [sp, #60]	; 0x3c
  101524:	e1d120f0 	ldrsh	r2, [r1]
  101528:	e2811004 	add	r1, r1, #4
  10152c:	e58d103c 	str	r1, [sp, #60]	; 0x3c
  101530:	e1a03fc2 	asr	r3, r2, #31
  101534:	e1cd22f0 	strd	r2, [sp, #32]
  101538:	eaffffc5 	b	101454 <_vfprintf_r+0xa74>
  10153c:	e59d301c 	ldr	r3, [sp, #28]
  101540:	e3833040 	orr	r3, r3, #64	; 0x40
  101544:	e58d301c 	str	r3, [sp, #28]
  101548:	e5d63000 	ldrb	r3, [r6]
  10154c:	eafffd85 	b	100b68 <_vfprintf_r+0x188>
  101550:	e5d63000 	ldrb	r3, [r6]
  101554:	e353006c 	cmp	r3, #108	; 0x6c
  101558:	059d301c 	ldreq	r3, [sp, #28]
  10155c:	159d001c 	ldrne	r0, [sp, #28]
  101560:	03833020 	orreq	r3, r3, #32
  101564:	13800010 	orrne	r0, r0, #16
  101568:	058d301c 	streq	r3, [sp, #28]
  10156c:	158d001c 	strne	r0, [sp, #28]
  101570:	05d63001 	ldrbeq	r3, [r6, #1]
  101574:	02866001 	addeq	r6, r6, #1
  101578:	eafffd7a 	b	100b68 <_vfprintf_r+0x188>
  10157c:	e59d301c 	ldr	r3, [sp, #28]
  101580:	e3520000 	cmp	r2, #0
  101584:	15cd1077 	strbne	r1, [sp, #119]	; 0x77
  101588:	e3130020 	tst	r3, #32
  10158c:	0a0003cc 	beq	1024c4 <_vfprintf_r+0x1ae4>
  101590:	e59d1030 	ldr	r1, [sp, #48]	; 0x30
  101594:	e59d203c 	ldr	r2, [sp, #60]	; 0x3c
  101598:	ee801b90 	vdup.32	d16, r1
  10159c:	e2822004 	add	r2, r2, #4
  1015a0:	e5123004 	ldr	r3, [r2, #-4]
  1015a4:	f2e000b0 	vshr.s64	d16, d16, #32
  1015a8:	e58d203c 	str	r2, [sp, #60]	; 0x3c
  1015ac:	edc30b00 	vstr	d16, [r3]
  1015b0:	eafffd46 	b	100ad0 <_vfprintf_r+0xf0>
  1015b4:	e59d001c 	ldr	r0, [sp, #28]
  1015b8:	e3520000 	cmp	r2, #0
  1015bc:	15cd1077 	strbne	r1, [sp, #119]	; 0x77
  1015c0:	e2103020 	ands	r3, r0, #32
  1015c4:	1affff03 	bne	1011d8 <_vfprintf_r+0x7f8>
  1015c8:	e59d001c 	ldr	r0, [sp, #28]
  1015cc:	e2102010 	ands	r2, r0, #16
  1015d0:	0a0003a5 	beq	10246c <_vfprintf_r+0x1a8c>
  1015d4:	e59dc028 	ldr	ip, [sp, #40]	; 0x28
  1015d8:	e59d103c 	ldr	r1, [sp, #60]	; 0x3c
  1015dc:	e5cd3077 	strb	r3, [sp, #119]	; 0x77
  1015e0:	e3a03000 	mov	r3, #0
  1015e4:	e35c0000 	cmp	ip, #0
  1015e8:	e5912000 	ldr	r2, [r1]
  1015ec:	e2818004 	add	r8, r1, #4
  1015f0:	ba00041c 	blt	102668 <_vfprintf_r+0x1c88>
  1015f4:	13a01001 	movne	r1, #1
  1015f8:	03a01000 	moveq	r1, #0
  1015fc:	e192c003 	orrs	ip, r2, r3
  101600:	e3c00080 	bic	r0, r0, #128	; 0x80
  101604:	13811001 	orrne	r1, r1, #1
  101608:	e58d001c 	str	r0, [sp, #28]
  10160c:	e3510000 	cmp	r1, #0
  101610:	e58d803c 	str	r8, [sp, #60]	; 0x3c
  101614:	1affff01 	bne	101220 <_vfprintf_r+0x840>
  101618:	e59d301c 	ldr	r3, [sp, #28]
  10161c:	e2135001 	ands	r5, r3, #1
  101620:	058da048 	streq	sl, [sp, #72]	; 0x48
  101624:	058d5038 	streq	r5, [sp, #56]	; 0x38
  101628:	0afffe2b 	beq	100edc <_vfprintf_r+0x4fc>
  10162c:	e28d3f42 	add	r3, sp, #264	; 0x108
  101630:	e3a02030 	mov	r2, #48	; 0x30
  101634:	e5632041 	strb	r2, [r3, #-65]!	; 0xffffffbf
  101638:	e063200a 	rsb	r2, r3, sl
  10163c:	e3a05000 	mov	r5, #0
  101640:	e58d2038 	str	r2, [sp, #56]	; 0x38
  101644:	e58d3048 	str	r3, [sp, #72]	; 0x48
  101648:	eafffe23 	b	100edc <_vfprintf_r+0x4fc>
  10164c:	e59d1028 	ldr	r1, [sp, #40]	; 0x28
  101650:	e3a00030 	mov	r0, #48	; 0x30
  101654:	e59d303c 	ldr	r3, [sp, #60]	; 0x3c
  101658:	e3a0c078 	mov	ip, #120	; 0x78
  10165c:	e5cd0078 	strb	r0, [sp, #120]	; 0x78
  101660:	e3510000 	cmp	r1, #0
  101664:	e3a01000 	mov	r1, #0
  101668:	e5932000 	ldr	r2, [r3]
  10166c:	e2838004 	add	r8, r3, #4
  101670:	e5cdc079 	strb	ip, [sp, #121]	; 0x79
  101674:	e3a03000 	mov	r3, #0
  101678:	e5cd1077 	strb	r1, [sp, #119]	; 0x77
  10167c:	ba00044b 	blt	1027b0 <_vfprintf_r+0x1dd0>
  101680:	e59d001c 	ldr	r0, [sp, #28]
  101684:	e1821003 	orr	r1, r2, r3
  101688:	e59de028 	ldr	lr, [sp, #40]	; 0x28
  10168c:	e3c00080 	bic	r0, r0, #128	; 0x80
  101690:	e3510000 	cmp	r1, #0
  101694:	035e0000 	cmpeq	lr, #0
  101698:	e3801002 	orr	r1, r0, #2
  10169c:	13a05001 	movne	r5, #1
  1016a0:	03a05000 	moveq	r5, #0
  1016a4:	e58d101c 	str	r1, [sp, #28]
  1016a8:	01a0700c 	moveq	r7, ip
  1016ac:	058d803c 	streq	r8, [sp, #60]	; 0x3c
  1016b0:	0afffe89 	beq	1010dc <_vfprintf_r+0x6fc>
  1016b4:	e30a015c 	movw	r0, #41308	; 0xa15c
  1016b8:	e58d803c 	str	r8, [sp, #60]	; 0x3c
  1016bc:	e1a0700c 	mov	r7, ip
  1016c0:	e3400010 	movt	r0, #16
  1016c4:	eafffdf7 	b	100ea8 <_vfprintf_r+0x4c8>
  1016c8:	e59d301c 	ldr	r3, [sp, #28]
  1016cc:	e3833020 	orr	r3, r3, #32
  1016d0:	e58d301c 	str	r3, [sp, #28]
  1016d4:	e5d63000 	ldrb	r3, [r6]
  1016d8:	eafffd22 	b	100b68 <_vfprintf_r+0x188>
  1016dc:	e3520000 	cmp	r2, #0
  1016e0:	15cd1077 	strbne	r1, [sp, #119]	; 0x77
  1016e4:	e3570000 	cmp	r7, #0
  1016e8:	0a000428 	beq	102790 <_vfprintf_r+0x1db0>
  1016ec:	e3a03000 	mov	r3, #0
  1016f0:	e3a02001 	mov	r2, #1
  1016f4:	e5cd3077 	strb	r3, [sp, #119]	; 0x77
  1016f8:	e28d30a0 	add	r3, sp, #160	; 0xa0
  1016fc:	e58d2020 	str	r2, [sp, #32]
  101700:	e5cd70a0 	strb	r7, [sp, #160]	; 0xa0
  101704:	e58d2038 	str	r2, [sp, #56]	; 0x38
  101708:	e58d3048 	str	r3, [sp, #72]	; 0x48
  10170c:	eaffff74 	b	1014e4 <_vfprintf_r+0xb04>
  101710:	e28d2094 	add	r2, sp, #148	; 0x94
  101714:	e1a0100b 	mov	r1, fp
  101718:	e59d002c 	ldr	r0, [sp, #44]	; 0x2c
  10171c:	eb0018a7 	bl	1079c0 <__sprint_r>
  101720:	e3500000 	cmp	r0, #0
  101724:	1afffd8d 	bne	100d60 <_vfprintf_r+0x380>
  101728:	e5dd5077 	ldrb	r5, [sp, #119]	; 0x77
  10172c:	e1a0900a 	mov	r9, sl
  101730:	e59d309c 	ldr	r3, [sp, #156]	; 0x9c
  101734:	e3550000 	cmp	r5, #0
  101738:	0a00000b 	beq	10176c <_vfprintf_r+0xd8c>
  10173c:	e59d2098 	ldr	r2, [sp, #152]	; 0x98
  101740:	e28d1077 	add	r1, sp, #119	; 0x77
  101744:	e5891000 	str	r1, [r9]
  101748:	e3a01001 	mov	r1, #1
  10174c:	e2833001 	add	r3, r3, #1
  101750:	e5891004 	str	r1, [r9, #4]
  101754:	e0822001 	add	r2, r2, r1
  101758:	e58d309c 	str	r3, [sp, #156]	; 0x9c
  10175c:	e3520007 	cmp	r2, #7
  101760:	e58d2098 	str	r2, [sp, #152]	; 0x98
  101764:	d2899008 	addle	r9, r9, #8
  101768:	ca000160 	bgt	101cf0 <_vfprintf_r+0x1310>
  10176c:	e59d2040 	ldr	r2, [sp, #64]	; 0x40
  101770:	e3520000 	cmp	r2, #0
  101774:	0a00000b 	beq	1017a8 <_vfprintf_r+0xdc8>
  101778:	e59d2098 	ldr	r2, [sp, #152]	; 0x98
  10177c:	e28d1078 	add	r1, sp, #120	; 0x78
  101780:	e5891000 	str	r1, [r9]
  101784:	e2833002 	add	r3, r3, #2
  101788:	e3a01002 	mov	r1, #2
  10178c:	e58d309c 	str	r3, [sp, #156]	; 0x9c
  101790:	e2822001 	add	r2, r2, #1
  101794:	e5891004 	str	r1, [r9, #4]
  101798:	e3520007 	cmp	r2, #7
  10179c:	e58d2098 	str	r2, [sp, #152]	; 0x98
  1017a0:	d2899008 	addle	r9, r9, #8
  1017a4:	ca00015a 	bgt	101d14 <_vfprintf_r+0x1334>
  1017a8:	e59d2044 	ldr	r2, [sp, #68]	; 0x44
  1017ac:	e3520080 	cmp	r2, #128	; 0x80
  1017b0:	0a0000d6 	beq	101b10 <_vfprintf_r+0x1130>
  1017b4:	e59d2028 	ldr	r2, [sp, #40]	; 0x28
  1017b8:	e59d1038 	ldr	r1, [sp, #56]	; 0x38
  1017bc:	e0614002 	rsb	r4, r1, r2
  1017c0:	e3540000 	cmp	r4, #0
  1017c4:	da000035 	ble	1018a0 <_vfprintf_r+0xec0>
  1017c8:	e3540010 	cmp	r4, #16
  1017cc:	e59d2098 	ldr	r2, [sp, #152]	; 0x98
  1017d0:	d51f59a8 	ldrle	r5, [pc, #-2472]	; 100e30 <_vfprintf_r+0x450>
  1017d4:	da000020 	ble	10185c <_vfprintf_r+0xe7c>
  1017d8:	e51f59b0 	ldr	r5, [pc, #-2480]	; 100e30 <_vfprintf_r+0x450>
  1017dc:	e3a08010 	mov	r8, #16
  1017e0:	e58d6028 	str	r6, [sp, #40]	; 0x28
  1017e4:	e1a01003 	mov	r1, r3
  1017e8:	e1a06005 	mov	r6, r5
  1017ec:	e59d502c 	ldr	r5, [sp, #44]	; 0x2c
  1017f0:	ea000002 	b	101800 <_vfprintf_r+0xe20>
  1017f4:	e2444010 	sub	r4, r4, #16
  1017f8:	e3540010 	cmp	r4, #16
  1017fc:	da000013 	ble	101850 <_vfprintf_r+0xe70>
  101800:	e2822001 	add	r2, r2, #1
  101804:	e2811010 	add	r1, r1, #16
  101808:	e3520007 	cmp	r2, #7
  10180c:	e8890140 	stm	r9, {r6, r8}
  101810:	e58d2098 	str	r2, [sp, #152]	; 0x98
  101814:	d2899008 	addle	r9, r9, #8
  101818:	e58d109c 	str	r1, [sp, #156]	; 0x9c
  10181c:	dafffff4 	ble	1017f4 <_vfprintf_r+0xe14>
  101820:	e28d2094 	add	r2, sp, #148	; 0x94
  101824:	e1a0100b 	mov	r1, fp
  101828:	e1a00005 	mov	r0, r5
  10182c:	e1a0900a 	mov	r9, sl
  101830:	eb001862 	bl	1079c0 <__sprint_r>
  101834:	e3500000 	cmp	r0, #0
  101838:	1afffd48 	bne	100d60 <_vfprintf_r+0x380>
  10183c:	e2444010 	sub	r4, r4, #16
  101840:	e59d109c 	ldr	r1, [sp, #156]	; 0x9c
  101844:	e3540010 	cmp	r4, #16
  101848:	e59d2098 	ldr	r2, [sp, #152]	; 0x98
  10184c:	caffffeb 	bgt	101800 <_vfprintf_r+0xe20>
  101850:	e1a05006 	mov	r5, r6
  101854:	e59d6028 	ldr	r6, [sp, #40]	; 0x28
  101858:	e1a03001 	mov	r3, r1
  10185c:	e2822001 	add	r2, r2, #1
  101860:	e0833004 	add	r3, r3, r4
  101864:	e3520007 	cmp	r2, #7
  101868:	e5895000 	str	r5, [r9]
  10186c:	e5894004 	str	r4, [r9, #4]
  101870:	d2899008 	addle	r9, r9, #8
  101874:	e58d2098 	str	r2, [sp, #152]	; 0x98
  101878:	e58d309c 	str	r3, [sp, #156]	; 0x9c
  10187c:	da000007 	ble	1018a0 <_vfprintf_r+0xec0>
  101880:	e28d2094 	add	r2, sp, #148	; 0x94
  101884:	e1a0100b 	mov	r1, fp
  101888:	e59d002c 	ldr	r0, [sp, #44]	; 0x2c
  10188c:	eb00184b 	bl	1079c0 <__sprint_r>
  101890:	e3500000 	cmp	r0, #0
  101894:	1afffd31 	bne	100d60 <_vfprintf_r+0x380>
  101898:	e59d309c 	ldr	r3, [sp, #156]	; 0x9c
  10189c:	e1a0900a 	mov	r9, sl
  1018a0:	e59d201c 	ldr	r2, [sp, #28]
  1018a4:	e3120c01 	tst	r2, #256	; 0x100
  1018a8:	1a000053 	bne	1019fc <_vfprintf_r+0x101c>
  1018ac:	e59d2098 	ldr	r2, [sp, #152]	; 0x98
  1018b0:	e59d1038 	ldr	r1, [sp, #56]	; 0x38
  1018b4:	e59d0048 	ldr	r0, [sp, #72]	; 0x48
  1018b8:	e2822001 	add	r2, r2, #1
  1018bc:	e3520007 	cmp	r2, #7
  1018c0:	e0833001 	add	r3, r3, r1
  1018c4:	e58d309c 	str	r3, [sp, #156]	; 0x9c
  1018c8:	e5890000 	str	r0, [r9]
  1018cc:	e5891004 	str	r1, [r9, #4]
  1018d0:	e58d2098 	str	r2, [sp, #152]	; 0x98
  1018d4:	ca0000fc 	bgt	101ccc <_vfprintf_r+0x12ec>
  1018d8:	e2899008 	add	r9, r9, #8
  1018dc:	e59d201c 	ldr	r2, [sp, #28]
  1018e0:	e3120004 	tst	r2, #4
  1018e4:	0a000037 	beq	1019c8 <_vfprintf_r+0xfe8>
  1018e8:	e59d2034 	ldr	r2, [sp, #52]	; 0x34
  1018ec:	e59d1020 	ldr	r1, [sp, #32]
  1018f0:	e0614002 	rsb	r4, r1, r2
  1018f4:	e3540000 	cmp	r4, #0
  1018f8:	da000032 	ble	1019c8 <_vfprintf_r+0xfe8>
  1018fc:	e3540010 	cmp	r4, #16
  101900:	da000423 	ble	102994 <_vfprintf_r+0x1fb4>
  101904:	e30a5118 	movw	r5, #41240	; 0xa118
  101908:	e59d2098 	ldr	r2, [sp, #152]	; 0x98
  10190c:	e3405010 	movt	r5, #16
  101910:	e3a07010 	mov	r7, #16
  101914:	e58d501c 	str	r5, [sp, #28]
  101918:	e1a01003 	mov	r1, r3
  10191c:	e59d802c 	ldr	r8, [sp, #44]	; 0x2c
  101920:	e59d5054 	ldr	r5, [sp, #84]	; 0x54
  101924:	ea000002 	b	101934 <_vfprintf_r+0xf54>
  101928:	e2444010 	sub	r4, r4, #16
  10192c:	e3540010 	cmp	r4, #16
  101930:	da000013 	ble	101984 <_vfprintf_r+0xfa4>
  101934:	e2822001 	add	r2, r2, #1
  101938:	e2811010 	add	r1, r1, #16
  10193c:	e3520007 	cmp	r2, #7
  101940:	e88900a0 	stm	r9, {r5, r7}
  101944:	e58d2098 	str	r2, [sp, #152]	; 0x98
  101948:	d2899008 	addle	r9, r9, #8
  10194c:	e58d109c 	str	r1, [sp, #156]	; 0x9c
  101950:	dafffff4 	ble	101928 <_vfprintf_r+0xf48>
  101954:	e28d2094 	add	r2, sp, #148	; 0x94
  101958:	e1a0100b 	mov	r1, fp
  10195c:	e1a00008 	mov	r0, r8
  101960:	e1a0900a 	mov	r9, sl
  101964:	eb001815 	bl	1079c0 <__sprint_r>
  101968:	e3500000 	cmp	r0, #0
  10196c:	1afffcfb 	bne	100d60 <_vfprintf_r+0x380>
  101970:	e2444010 	sub	r4, r4, #16
  101974:	e59d109c 	ldr	r1, [sp, #156]	; 0x9c
  101978:	e3540010 	cmp	r4, #16
  10197c:	e59d2098 	ldr	r2, [sp, #152]	; 0x98
  101980:	caffffeb 	bgt	101934 <_vfprintf_r+0xf54>
  101984:	e59d501c 	ldr	r5, [sp, #28]
  101988:	e1a03001 	mov	r3, r1
  10198c:	e2822001 	add	r2, r2, #1
  101990:	e0833004 	add	r3, r3, r4
  101994:	e3520007 	cmp	r2, #7
  101998:	e58d2098 	str	r2, [sp, #152]	; 0x98
  10199c:	e58d309c 	str	r3, [sp, #156]	; 0x9c
  1019a0:	e5895000 	str	r5, [r9]
  1019a4:	e5894004 	str	r4, [r9, #4]
  1019a8:	da000006 	ble	1019c8 <_vfprintf_r+0xfe8>
  1019ac:	e28d2094 	add	r2, sp, #148	; 0x94
  1019b0:	e1a0100b 	mov	r1, fp
  1019b4:	e59d002c 	ldr	r0, [sp, #44]	; 0x2c
  1019b8:	eb001800 	bl	1079c0 <__sprint_r>
  1019bc:	e3500000 	cmp	r0, #0
  1019c0:	1afffce6 	bne	100d60 <_vfprintf_r+0x380>
  1019c4:	e59d309c 	ldr	r3, [sp, #156]	; 0x9c
  1019c8:	e59d2030 	ldr	r2, [sp, #48]	; 0x30
  1019cc:	e59d1034 	ldr	r1, [sp, #52]	; 0x34
  1019d0:	e59d0020 	ldr	r0, [sp, #32]
  1019d4:	e1510000 	cmp	r1, r0
  1019d8:	a0822001 	addge	r2, r2, r1
  1019dc:	b0822000 	addlt	r2, r2, r0
  1019e0:	e3530000 	cmp	r3, #0
  1019e4:	e58d2030 	str	r2, [sp, #48]	; 0x30
  1019e8:	1afffcd6 	bne	100d48 <_vfprintf_r+0x368>
  1019ec:	e3a03000 	mov	r3, #0
  1019f0:	e1a0900a 	mov	r9, sl
  1019f4:	e58d3098 	str	r3, [sp, #152]	; 0x98
  1019f8:	eafffc34 	b	100ad0 <_vfprintf_r+0xf0>
  1019fc:	e3570065 	cmp	r7, #101	; 0x65
  101a00:	da00007e 	ble	101c00 <_vfprintf_r+0x1220>
  101a04:	eeb58b40 	vcmp.f64	d8, #0.0
  101a08:	eef1fa10 	vmrs	APSR_nzcv, fpscr
  101a0c:	1a0000c9 	bne	101d38 <_vfprintf_r+0x1358>
  101a10:	e59d2098 	ldr	r2, [sp, #152]	; 0x98
  101a14:	e30a1178 	movw	r1, #41336	; 0xa178
  101a18:	e3401010 	movt	r1, #16
  101a1c:	e2833001 	add	r3, r3, #1
  101a20:	e5891000 	str	r1, [r9]
  101a24:	e3a01001 	mov	r1, #1
  101a28:	e2822001 	add	r2, r2, #1
  101a2c:	e5891004 	str	r1, [r9, #4]
  101a30:	e3520007 	cmp	r2, #7
  101a34:	e58d309c 	str	r3, [sp, #156]	; 0x9c
  101a38:	e58d2098 	str	r2, [sp, #152]	; 0x98
  101a3c:	d2899008 	addle	r9, r9, #8
  101a40:	ca00030c 	bgt	102678 <_vfprintf_r+0x1c98>
  101a44:	e59d207c 	ldr	r2, [sp, #124]	; 0x7c
  101a48:	e59d1050 	ldr	r1, [sp, #80]	; 0x50
  101a4c:	e1510002 	cmp	r1, r2
  101a50:	ca000002 	bgt	101a60 <_vfprintf_r+0x1080>
  101a54:	e59d201c 	ldr	r2, [sp, #28]
  101a58:	e3120001 	tst	r2, #1
  101a5c:	0affff9e 	beq	1018dc <_vfprintf_r+0xefc>
  101a60:	e59d2098 	ldr	r2, [sp, #152]	; 0x98
  101a64:	e59d105c 	ldr	r1, [sp, #92]	; 0x5c
  101a68:	e59d0058 	ldr	r0, [sp, #88]	; 0x58
  101a6c:	e2822001 	add	r2, r2, #1
  101a70:	e3520007 	cmp	r2, #7
  101a74:	e0833001 	add	r3, r3, r1
  101a78:	e5890000 	str	r0, [r9]
  101a7c:	e5891004 	str	r1, [r9, #4]
  101a80:	d2899008 	addle	r9, r9, #8
  101a84:	e58d309c 	str	r3, [sp, #156]	; 0x9c
  101a88:	e58d2098 	str	r2, [sp, #152]	; 0x98
  101a8c:	ca00034f 	bgt	1027d0 <_vfprintf_r+0x1df0>
  101a90:	e59d2050 	ldr	r2, [sp, #80]	; 0x50
  101a94:	e2424001 	sub	r4, r2, #1
  101a98:	e3540000 	cmp	r4, #0
  101a9c:	daffff8e 	ble	1018dc <_vfprintf_r+0xefc>
  101aa0:	e3540010 	cmp	r4, #16
  101aa4:	e59d2098 	ldr	r2, [sp, #152]	; 0x98
  101aa8:	da00011c 	ble	101f20 <_vfprintf_r+0x1540>
  101aac:	e3a07010 	mov	r7, #16
  101ab0:	e51f5c88 	ldr	r5, [pc, #-3208]	; 100e30 <_vfprintf_r+0x450>
  101ab4:	e59d802c 	ldr	r8, [sp, #44]	; 0x2c
  101ab8:	ea000002 	b	101ac8 <_vfprintf_r+0x10e8>
  101abc:	e2444010 	sub	r4, r4, #16
  101ac0:	e3540010 	cmp	r4, #16
  101ac4:	da000116 	ble	101f24 <_vfprintf_r+0x1544>
  101ac8:	e2822001 	add	r2, r2, #1
  101acc:	e2833010 	add	r3, r3, #16
  101ad0:	e3520007 	cmp	r2, #7
  101ad4:	e88900a0 	stm	r9, {r5, r7}
  101ad8:	e58d2098 	str	r2, [sp, #152]	; 0x98
  101adc:	d2899008 	addle	r9, r9, #8
  101ae0:	e58d309c 	str	r3, [sp, #156]	; 0x9c
  101ae4:	dafffff4 	ble	101abc <_vfprintf_r+0x10dc>
  101ae8:	e28d2094 	add	r2, sp, #148	; 0x94
  101aec:	e1a0100b 	mov	r1, fp
  101af0:	e1a00008 	mov	r0, r8
  101af4:	e1a0900a 	mov	r9, sl
  101af8:	eb0017b0 	bl	1079c0 <__sprint_r>
  101afc:	e3500000 	cmp	r0, #0
  101b00:	1afffc96 	bne	100d60 <_vfprintf_r+0x380>
  101b04:	e59d309c 	ldr	r3, [sp, #156]	; 0x9c
  101b08:	e59d2098 	ldr	r2, [sp, #152]	; 0x98
  101b0c:	eaffffea 	b	101abc <_vfprintf_r+0x10dc>
  101b10:	e59d2034 	ldr	r2, [sp, #52]	; 0x34
  101b14:	e59d1020 	ldr	r1, [sp, #32]
  101b18:	e0614002 	rsb	r4, r1, r2
  101b1c:	e3540000 	cmp	r4, #0
  101b20:	daffff23 	ble	1017b4 <_vfprintf_r+0xdd4>
  101b24:	e3540010 	cmp	r4, #16
  101b28:	e59d2098 	ldr	r2, [sp, #152]	; 0x98
  101b2c:	d51f5d04 	ldrle	r5, [pc, #-3332]	; 100e30 <_vfprintf_r+0x450>
  101b30:	da000020 	ble	101bb8 <_vfprintf_r+0x11d8>
  101b34:	e51f5d0c 	ldr	r5, [pc, #-3340]	; 100e30 <_vfprintf_r+0x450>
  101b38:	e3a08010 	mov	r8, #16
  101b3c:	e58d6040 	str	r6, [sp, #64]	; 0x40
  101b40:	e1a01003 	mov	r1, r3
  101b44:	e1a06005 	mov	r6, r5
  101b48:	e59d502c 	ldr	r5, [sp, #44]	; 0x2c
  101b4c:	ea000002 	b	101b5c <_vfprintf_r+0x117c>
  101b50:	e2444010 	sub	r4, r4, #16
  101b54:	e3540010 	cmp	r4, #16
  101b58:	da000013 	ble	101bac <_vfprintf_r+0x11cc>
  101b5c:	e2822001 	add	r2, r2, #1
  101b60:	e2811010 	add	r1, r1, #16
  101b64:	e3520007 	cmp	r2, #7
  101b68:	e8890140 	stm	r9, {r6, r8}
  101b6c:	e58d2098 	str	r2, [sp, #152]	; 0x98
  101b70:	d2899008 	addle	r9, r9, #8
  101b74:	e58d109c 	str	r1, [sp, #156]	; 0x9c
  101b78:	dafffff4 	ble	101b50 <_vfprintf_r+0x1170>
  101b7c:	e28d2094 	add	r2, sp, #148	; 0x94
  101b80:	e1a0100b 	mov	r1, fp
  101b84:	e1a00005 	mov	r0, r5
  101b88:	e1a0900a 	mov	r9, sl
  101b8c:	eb00178b 	bl	1079c0 <__sprint_r>
  101b90:	e3500000 	cmp	r0, #0
  101b94:	1afffc71 	bne	100d60 <_vfprintf_r+0x380>
  101b98:	e2444010 	sub	r4, r4, #16
  101b9c:	e59d109c 	ldr	r1, [sp, #156]	; 0x9c
  101ba0:	e3540010 	cmp	r4, #16
  101ba4:	e59d2098 	ldr	r2, [sp, #152]	; 0x98
  101ba8:	caffffeb 	bgt	101b5c <_vfprintf_r+0x117c>
  101bac:	e1a05006 	mov	r5, r6
  101bb0:	e59d6040 	ldr	r6, [sp, #64]	; 0x40
  101bb4:	e1a03001 	mov	r3, r1
  101bb8:	e2822001 	add	r2, r2, #1
  101bbc:	e0833004 	add	r3, r3, r4
  101bc0:	e3520007 	cmp	r2, #7
  101bc4:	e5895000 	str	r5, [r9]
  101bc8:	e5894004 	str	r4, [r9, #4]
  101bcc:	d2899008 	addle	r9, r9, #8
  101bd0:	e58d2098 	str	r2, [sp, #152]	; 0x98
  101bd4:	e58d309c 	str	r3, [sp, #156]	; 0x9c
  101bd8:	dafffef5 	ble	1017b4 <_vfprintf_r+0xdd4>
  101bdc:	e28d2094 	add	r2, sp, #148	; 0x94
  101be0:	e1a0100b 	mov	r1, fp
  101be4:	e59d002c 	ldr	r0, [sp, #44]	; 0x2c
  101be8:	eb001774 	bl	1079c0 <__sprint_r>
  101bec:	e3500000 	cmp	r0, #0
  101bf0:	1afffc5a 	bne	100d60 <_vfprintf_r+0x380>
  101bf4:	e59d309c 	ldr	r3, [sp, #156]	; 0x9c
  101bf8:	e1a0900a 	mov	r9, sl
  101bfc:	eafffeec 	b	1017b4 <_vfprintf_r+0xdd4>
  101c00:	e59d2050 	ldr	r2, [sp, #80]	; 0x50
  101c04:	e3520001 	cmp	r2, #1
  101c08:	da00012b 	ble	1020bc <_vfprintf_r+0x16dc>
  101c0c:	e59d2098 	ldr	r2, [sp, #152]	; 0x98
  101c10:	e3a01001 	mov	r1, #1
  101c14:	e59d0048 	ldr	r0, [sp, #72]	; 0x48
  101c18:	e2833001 	add	r3, r3, #1
  101c1c:	e5891004 	str	r1, [r9, #4]
  101c20:	e0822001 	add	r2, r2, r1
  101c24:	e58d309c 	str	r3, [sp, #156]	; 0x9c
  101c28:	e3520007 	cmp	r2, #7
  101c2c:	e5890000 	str	r0, [r9]
  101c30:	e58d2098 	str	r2, [sp, #152]	; 0x98
  101c34:	d2899008 	addle	r9, r9, #8
  101c38:	ca00014a 	bgt	102168 <_vfprintf_r+0x1788>
  101c3c:	e59d105c 	ldr	r1, [sp, #92]	; 0x5c
  101c40:	e2822001 	add	r2, r2, #1
  101c44:	e59d0058 	ldr	r0, [sp, #88]	; 0x58
  101c48:	e3520007 	cmp	r2, #7
  101c4c:	e58d2098 	str	r2, [sp, #152]	; 0x98
  101c50:	e0813003 	add	r3, r1, r3
  101c54:	e8890003 	stm	r9, {r0, r1}
  101c58:	d2899008 	addle	r9, r9, #8
  101c5c:	e58d309c 	str	r3, [sp, #156]	; 0x9c
  101c60:	ca000136 	bgt	102140 <_vfprintf_r+0x1760>
  101c64:	eeb58b40 	vcmp.f64	d8, #0.0
  101c68:	eef1fa10 	vmrs	APSR_nzcv, fpscr
  101c6c:	0a000075 	beq	101e48 <_vfprintf_r+0x1468>
  101c70:	e59d1050 	ldr	r1, [sp, #80]	; 0x50
  101c74:	e2822001 	add	r2, r2, #1
  101c78:	e59d0048 	ldr	r0, [sp, #72]	; 0x48
  101c7c:	e3520007 	cmp	r2, #7
  101c80:	e58d2098 	str	r2, [sp, #152]	; 0x98
  101c84:	e2411001 	sub	r1, r1, #1
  101c88:	e2800001 	add	r0, r0, #1
  101c8c:	e0833001 	add	r3, r3, r1
  101c90:	e5890000 	str	r0, [r9]
  101c94:	e58d309c 	str	r3, [sp, #156]	; 0x9c
  101c98:	e5891004 	str	r1, [r9, #4]
  101c9c:	ca000114 	bgt	1020f4 <_vfprintf_r+0x1714>
  101ca0:	e2899008 	add	r9, r9, #8
  101ca4:	e59d0068 	ldr	r0, [sp, #104]	; 0x68
  101ca8:	e2822001 	add	r2, r2, #1
  101cac:	e3520007 	cmp	r2, #7
  101cb0:	e28d1084 	add	r1, sp, #132	; 0x84
  101cb4:	e58d2098 	str	r2, [sp, #152]	; 0x98
  101cb8:	e0833000 	add	r3, r3, r0
  101cbc:	e1a02000 	mov	r2, r0
  101cc0:	e58d309c 	str	r3, [sp, #156]	; 0x9c
  101cc4:	e8890006 	stm	r9, {r1, r2}
  101cc8:	daffff02 	ble	1018d8 <_vfprintf_r+0xef8>
  101ccc:	e28d2094 	add	r2, sp, #148	; 0x94
  101cd0:	e1a0100b 	mov	r1, fp
  101cd4:	e59d002c 	ldr	r0, [sp, #44]	; 0x2c
  101cd8:	eb001738 	bl	1079c0 <__sprint_r>
  101cdc:	e3500000 	cmp	r0, #0
  101ce0:	1afffc1e 	bne	100d60 <_vfprintf_r+0x380>
  101ce4:	e59d309c 	ldr	r3, [sp, #156]	; 0x9c
  101ce8:	e1a0900a 	mov	r9, sl
  101cec:	eafffefa 	b	1018dc <_vfprintf_r+0xefc>
  101cf0:	e28d2094 	add	r2, sp, #148	; 0x94
  101cf4:	e1a0100b 	mov	r1, fp
  101cf8:	e59d002c 	ldr	r0, [sp, #44]	; 0x2c
  101cfc:	eb00172f 	bl	1079c0 <__sprint_r>
  101d00:	e3500000 	cmp	r0, #0
  101d04:	1afffc15 	bne	100d60 <_vfprintf_r+0x380>
  101d08:	e59d309c 	ldr	r3, [sp, #156]	; 0x9c
  101d0c:	e1a0900a 	mov	r9, sl
  101d10:	eafffe95 	b	10176c <_vfprintf_r+0xd8c>
  101d14:	e28d2094 	add	r2, sp, #148	; 0x94
  101d18:	e1a0100b 	mov	r1, fp
  101d1c:	e59d002c 	ldr	r0, [sp, #44]	; 0x2c
  101d20:	eb001726 	bl	1079c0 <__sprint_r>
  101d24:	e3500000 	cmp	r0, #0
  101d28:	1afffc0c 	bne	100d60 <_vfprintf_r+0x380>
  101d2c:	e59d309c 	ldr	r3, [sp, #156]	; 0x9c
  101d30:	e1a0900a 	mov	r9, sl
  101d34:	eafffe9b 	b	1017a8 <_vfprintf_r+0xdc8>
  101d38:	e59d407c 	ldr	r4, [sp, #124]	; 0x7c
  101d3c:	e3540000 	cmp	r4, #0
  101d40:	da000255 	ble	10269c <_vfprintf_r+0x1cbc>
  101d44:	e59d204c 	ldr	r2, [sp, #76]	; 0x4c
  101d48:	e59d1050 	ldr	r1, [sp, #80]	; 0x50
  101d4c:	e1520001 	cmp	r2, r1
  101d50:	b1a04002 	movlt	r4, r2
  101d54:	a1a04001 	movge	r4, r1
  101d58:	e3540000 	cmp	r4, #0
  101d5c:	da00000a 	ble	101d8c <_vfprintf_r+0x13ac>
  101d60:	e59d2098 	ldr	r2, [sp, #152]	; 0x98
  101d64:	e0833004 	add	r3, r3, r4
  101d68:	e59d1048 	ldr	r1, [sp, #72]	; 0x48
  101d6c:	e5894004 	str	r4, [r9, #4]
  101d70:	e2822001 	add	r2, r2, #1
  101d74:	e58d309c 	str	r3, [sp, #156]	; 0x9c
  101d78:	e3520007 	cmp	r2, #7
  101d7c:	e5891000 	str	r1, [r9]
  101d80:	e58d2098 	str	r2, [sp, #152]	; 0x98
  101d84:	d2899008 	addle	r9, r9, #8
  101d88:	ca0002c1 	bgt	102894 <_vfprintf_r+0x1eb4>
  101d8c:	e59d204c 	ldr	r2, [sp, #76]	; 0x4c
  101d90:	e3540000 	cmp	r4, #0
  101d94:	a0642002 	rsbge	r2, r4, r2
  101d98:	e3520000 	cmp	r2, #0
  101d9c:	e1a04002 	mov	r4, r2
  101da0:	da00007d 	ble	101f9c <_vfprintf_r+0x15bc>
  101da4:	e3540010 	cmp	r4, #16
  101da8:	e59d2098 	ldr	r2, [sp, #152]	; 0x98
  101dac:	d51f5f84 	ldrle	r5, [pc, #-3972]	; 100e30 <_vfprintf_r+0x450>
  101db0:	da000068 	ble	101f58 <_vfprintf_r+0x1578>
  101db4:	e3a07010 	mov	r7, #16
  101db8:	e51f5f90 	ldr	r5, [pc, #-3984]	; 100e30 <_vfprintf_r+0x450>
  101dbc:	e59d802c 	ldr	r8, [sp, #44]	; 0x2c
  101dc0:	ea000002 	b	101dd0 <_vfprintf_r+0x13f0>
  101dc4:	e2444010 	sub	r4, r4, #16
  101dc8:	e3540010 	cmp	r4, #16
  101dcc:	da000061 	ble	101f58 <_vfprintf_r+0x1578>
  101dd0:	e2822001 	add	r2, r2, #1
  101dd4:	e2833010 	add	r3, r3, #16
  101dd8:	e3520007 	cmp	r2, #7
  101ddc:	e88900a0 	stm	r9, {r5, r7}
  101de0:	e58d2098 	str	r2, [sp, #152]	; 0x98
  101de4:	d2899008 	addle	r9, r9, #8
  101de8:	e58d309c 	str	r3, [sp, #156]	; 0x9c
  101dec:	dafffff4 	ble	101dc4 <_vfprintf_r+0x13e4>
  101df0:	e28d2094 	add	r2, sp, #148	; 0x94
  101df4:	e1a0100b 	mov	r1, fp
  101df8:	e1a00008 	mov	r0, r8
  101dfc:	e1a0900a 	mov	r9, sl
  101e00:	eb0016ee 	bl	1079c0 <__sprint_r>
  101e04:	e3500000 	cmp	r0, #0
  101e08:	1afffbd4 	bne	100d60 <_vfprintf_r+0x380>
  101e0c:	e59d309c 	ldr	r3, [sp, #156]	; 0x9c
  101e10:	e59d2098 	ldr	r2, [sp, #152]	; 0x98
  101e14:	eaffffea 	b	101dc4 <_vfprintf_r+0x13e4>
  101e18:	e5dd5077 	ldrb	r5, [sp, #119]	; 0x77
  101e1c:	e1cd22d0 	ldrd	r2, [sp, #32]
  101e20:	e3530000 	cmp	r3, #0
  101e24:	03520009 	cmpeq	r2, #9
  101e28:	8a0000d8 	bhi	102190 <_vfprintf_r+0x17b0>
  101e2c:	e28d3f42 	add	r3, sp, #264	; 0x108
  101e30:	e2822030 	add	r2, r2, #48	; 0x30
  101e34:	e5632041 	strb	r2, [r3, #-65]!	; 0xffffffbf
  101e38:	e063200a 	rsb	r2, r3, sl
  101e3c:	e58d2038 	str	r2, [sp, #56]	; 0x38
  101e40:	e58d3048 	str	r3, [sp, #72]	; 0x48
  101e44:	eafffc24 	b	100edc <_vfprintf_r+0x4fc>
  101e48:	e59d1050 	ldr	r1, [sp, #80]	; 0x50
  101e4c:	e2414001 	sub	r4, r1, #1
  101e50:	e3540000 	cmp	r4, #0
  101e54:	daffff92 	ble	101ca4 <_vfprintf_r+0x12c4>
  101e58:	e3540010 	cmp	r4, #16
  101e5c:	e59f5ec0 	ldr	r5, [pc, #3776]	; 102d24 <_vfprintf_r+0x2344>
  101e60:	da0000ad 	ble	10211c <_vfprintf_r+0x173c>
  101e64:	e3a07010 	mov	r7, #16
  101e68:	e59d802c 	ldr	r8, [sp, #44]	; 0x2c
  101e6c:	ea000002 	b	101e7c <_vfprintf_r+0x149c>
  101e70:	e2444010 	sub	r4, r4, #16
  101e74:	e3540010 	cmp	r4, #16
  101e78:	da0000a7 	ble	10211c <_vfprintf_r+0x173c>
  101e7c:	e2822001 	add	r2, r2, #1
  101e80:	e2833010 	add	r3, r3, #16
  101e84:	e3520007 	cmp	r2, #7
  101e88:	e88900a0 	stm	r9, {r5, r7}
  101e8c:	e58d2098 	str	r2, [sp, #152]	; 0x98
  101e90:	d2899008 	addle	r9, r9, #8
  101e94:	e58d309c 	str	r3, [sp, #156]	; 0x9c
  101e98:	dafffff4 	ble	101e70 <_vfprintf_r+0x1490>
  101e9c:	e28d2094 	add	r2, sp, #148	; 0x94
  101ea0:	e1a0100b 	mov	r1, fp
  101ea4:	e1a00008 	mov	r0, r8
  101ea8:	e1a0900a 	mov	r9, sl
  101eac:	eb0016c3 	bl	1079c0 <__sprint_r>
  101eb0:	e3500000 	cmp	r0, #0
  101eb4:	1afffba9 	bne	100d60 <_vfprintf_r+0x380>
  101eb8:	e59d309c 	ldr	r3, [sp, #156]	; 0x9c
  101ebc:	e59d2098 	ldr	r2, [sp, #152]	; 0x98
  101ec0:	eaffffea 	b	101e70 <_vfprintf_r+0x1490>
  101ec4:	e59dc028 	ldr	ip, [sp, #40]	; 0x28
  101ec8:	e5cd1077 	strb	r1, [sp, #119]	; 0x77
  101ecc:	e35c0000 	cmp	ip, #0
  101ed0:	bafffbf4 	blt	100ea8 <_vfprintf_r+0x4c8>
  101ed4:	13a05001 	movne	r5, #1
  101ed8:	03a05000 	moveq	r5, #0
  101edc:	e1921003 	orrs	r1, r2, r3
  101ee0:	e59d101c 	ldr	r1, [sp, #28]
  101ee4:	13855001 	orrne	r5, r5, #1
  101ee8:	e3550000 	cmp	r5, #0
  101eec:	e3c11080 	bic	r1, r1, #128	; 0x80
  101ef0:	e58d101c 	str	r1, [sp, #28]
  101ef4:	1afffbeb 	bne	100ea8 <_vfprintf_r+0x4c8>
  101ef8:	eafffc77 	b	1010dc <_vfprintf_r+0x6fc>
  101efc:	e59d203c 	ldr	r2, [sp, #60]	; 0x3c
  101f00:	e5923000 	ldr	r3, [r2]
  101f04:	e2822004 	add	r2, r2, #4
  101f08:	e58d203c 	str	r2, [sp, #60]	; 0x3c
  101f0c:	ee803b90 	vdup.32	d16, r3
  101f10:	f2e000b0 	vshr.s64	d16, d16, #32
  101f14:	edcd0b08 	vstr	d16, [sp, #32]
  101f18:	ec532b30 	vmov	r2, r3, d16
  101f1c:	eafffd4c 	b	101454 <_vfprintf_r+0xa74>
  101f20:	e59f5dfc 	ldr	r5, [pc, #3580]	; 102d24 <_vfprintf_r+0x2344>
  101f24:	e2822001 	add	r2, r2, #1
  101f28:	e0833004 	add	r3, r3, r4
  101f2c:	e3520007 	cmp	r2, #7
  101f30:	e58d2098 	str	r2, [sp, #152]	; 0x98
  101f34:	e58d309c 	str	r3, [sp, #156]	; 0x9c
  101f38:	e5895000 	str	r5, [r9]
  101f3c:	e5894004 	str	r4, [r9, #4]
  101f40:	dafffe64 	ble	1018d8 <_vfprintf_r+0xef8>
  101f44:	eaffff60 	b	101ccc <_vfprintf_r+0x12ec>
  101f48:	e2880058 	add	r0, r8, #88	; 0x58
  101f4c:	eb001fd0 	bl	109e94 <__generic_gxx_recursive_mutex_unlock>
  101f50:	e1d830bc 	ldrh	r3, [r8, #12]
  101f54:	eafffb88 	b	100d7c <_vfprintf_r+0x39c>
  101f58:	e2822001 	add	r2, r2, #1
  101f5c:	e0833004 	add	r3, r3, r4
  101f60:	e3520007 	cmp	r2, #7
  101f64:	e5895000 	str	r5, [r9]
  101f68:	e5894004 	str	r4, [r9, #4]
  101f6c:	d2899008 	addle	r9, r9, #8
  101f70:	e58d2098 	str	r2, [sp, #152]	; 0x98
  101f74:	e58d309c 	str	r3, [sp, #156]	; 0x9c
  101f78:	da000007 	ble	101f9c <_vfprintf_r+0x15bc>
  101f7c:	e28d2094 	add	r2, sp, #148	; 0x94
  101f80:	e1a0100b 	mov	r1, fp
  101f84:	e59d002c 	ldr	r0, [sp, #44]	; 0x2c
  101f88:	eb00168c 	bl	1079c0 <__sprint_r>
  101f8c:	e3500000 	cmp	r0, #0
  101f90:	1afffb72 	bne	100d60 <_vfprintf_r+0x380>
  101f94:	e59d309c 	ldr	r3, [sp, #156]	; 0x9c
  101f98:	e1a0900a 	mov	r9, sl
  101f9c:	e59d1048 	ldr	r1, [sp, #72]	; 0x48
  101fa0:	e59d004c 	ldr	r0, [sp, #76]	; 0x4c
  101fa4:	e59d207c 	ldr	r2, [sp, #124]	; 0x7c
  101fa8:	e0817000 	add	r7, r1, r0
  101fac:	e59d1050 	ldr	r1, [sp, #80]	; 0x50
  101fb0:	e1510002 	cmp	r1, r2
  101fb4:	da00014f 	ble	1024f8 <_vfprintf_r+0x1b18>
  101fb8:	e59d1098 	ldr	r1, [sp, #152]	; 0x98
  101fbc:	e59d005c 	ldr	r0, [sp, #92]	; 0x5c
  101fc0:	e59dc058 	ldr	ip, [sp, #88]	; 0x58
  101fc4:	e2811001 	add	r1, r1, #1
  101fc8:	e3510007 	cmp	r1, #7
  101fcc:	e0833000 	add	r3, r3, r0
  101fd0:	e589c000 	str	ip, [r9]
  101fd4:	e5890004 	str	r0, [r9, #4]
  101fd8:	d2899008 	addle	r9, r9, #8
  101fdc:	e58d309c 	str	r3, [sp, #156]	; 0x9c
  101fe0:	e58d1098 	str	r1, [sp, #152]	; 0x98
  101fe4:	ca000195 	bgt	102640 <_vfprintf_r+0x1c60>
  101fe8:	e59d1050 	ldr	r1, [sp, #80]	; 0x50
  101fec:	e59d0048 	ldr	r0, [sp, #72]	; 0x48
  101ff0:	e0622001 	rsb	r2, r2, r1
  101ff4:	e0804001 	add	r4, r0, r1
  101ff8:	e0674004 	rsb	r4, r7, r4
  101ffc:	e1540002 	cmp	r4, r2
  102000:	b1a05004 	movlt	r5, r4
  102004:	a1a05002 	movge	r5, r2
  102008:	e3550000 	cmp	r5, #0
  10200c:	da000009 	ble	102038 <_vfprintf_r+0x1658>
  102010:	e59d1098 	ldr	r1, [sp, #152]	; 0x98
  102014:	e0833005 	add	r3, r3, r5
  102018:	e5897000 	str	r7, [r9]
  10201c:	e5895004 	str	r5, [r9, #4]
  102020:	e2811001 	add	r1, r1, #1
  102024:	e58d309c 	str	r3, [sp, #156]	; 0x9c
  102028:	e3510007 	cmp	r1, #7
  10202c:	e58d1098 	str	r1, [sp, #152]	; 0x98
  102030:	d2899008 	addle	r9, r9, #8
  102034:	ca000175 	bgt	102610 <_vfprintf_r+0x1c30>
  102038:	e3550000 	cmp	r5, #0
  10203c:	a0654002 	rsbge	r4, r5, r2
  102040:	b1a04002 	movlt	r4, r2
  102044:	e3540000 	cmp	r4, #0
  102048:	dafffe23 	ble	1018dc <_vfprintf_r+0xefc>
  10204c:	e3540010 	cmp	r4, #16
  102050:	e59d2098 	ldr	r2, [sp, #152]	; 0x98
  102054:	daffffb1 	ble	101f20 <_vfprintf_r+0x1540>
  102058:	e3a07010 	mov	r7, #16
  10205c:	e59f5cc0 	ldr	r5, [pc, #3264]	; 102d24 <_vfprintf_r+0x2344>
  102060:	e59d802c 	ldr	r8, [sp, #44]	; 0x2c
  102064:	ea000002 	b	102074 <_vfprintf_r+0x1694>
  102068:	e2444010 	sub	r4, r4, #16
  10206c:	e3540010 	cmp	r4, #16
  102070:	daffffab 	ble	101f24 <_vfprintf_r+0x1544>
  102074:	e2822001 	add	r2, r2, #1
  102078:	e2833010 	add	r3, r3, #16
  10207c:	e3520007 	cmp	r2, #7
  102080:	e88900a0 	stm	r9, {r5, r7}
  102084:	e58d2098 	str	r2, [sp, #152]	; 0x98
  102088:	d2899008 	addle	r9, r9, #8
  10208c:	e58d309c 	str	r3, [sp, #156]	; 0x9c
  102090:	dafffff4 	ble	102068 <_vfprintf_r+0x1688>
  102094:	e28d2094 	add	r2, sp, #148	; 0x94
  102098:	e1a0100b 	mov	r1, fp
  10209c:	e1a00008 	mov	r0, r8
  1020a0:	e1a0900a 	mov	r9, sl
  1020a4:	eb001645 	bl	1079c0 <__sprint_r>
  1020a8:	e3500000 	cmp	r0, #0
  1020ac:	1afffb2b 	bne	100d60 <_vfprintf_r+0x380>
  1020b0:	e59d309c 	ldr	r3, [sp, #156]	; 0x9c
  1020b4:	e59d2098 	ldr	r2, [sp, #152]	; 0x98
  1020b8:	eaffffea 	b	102068 <_vfprintf_r+0x1688>
  1020bc:	e59d201c 	ldr	r2, [sp, #28]
  1020c0:	e3120001 	tst	r2, #1
  1020c4:	1afffed0 	bne	101c0c <_vfprintf_r+0x122c>
  1020c8:	e59d2098 	ldr	r2, [sp, #152]	; 0x98
  1020cc:	e3a01001 	mov	r1, #1
  1020d0:	e59d0048 	ldr	r0, [sp, #72]	; 0x48
  1020d4:	e2833001 	add	r3, r3, #1
  1020d8:	e58d309c 	str	r3, [sp, #156]	; 0x9c
  1020dc:	e0822001 	add	r2, r2, r1
  1020e0:	e5891004 	str	r1, [r9, #4]
  1020e4:	e3520007 	cmp	r2, #7
  1020e8:	e5890000 	str	r0, [r9]
  1020ec:	e58d2098 	str	r2, [sp, #152]	; 0x98
  1020f0:	dafffeea 	ble	101ca0 <_vfprintf_r+0x12c0>
  1020f4:	e28d2094 	add	r2, sp, #148	; 0x94
  1020f8:	e1a0100b 	mov	r1, fp
  1020fc:	e59d002c 	ldr	r0, [sp, #44]	; 0x2c
  102100:	eb00162e 	bl	1079c0 <__sprint_r>
  102104:	e3500000 	cmp	r0, #0
  102108:	1afffb14 	bne	100d60 <_vfprintf_r+0x380>
  10210c:	e59d309c 	ldr	r3, [sp, #156]	; 0x9c
  102110:	e1a0900a 	mov	r9, sl
  102114:	e59d2098 	ldr	r2, [sp, #152]	; 0x98
  102118:	eafffee1 	b	101ca4 <_vfprintf_r+0x12c4>
  10211c:	e2822001 	add	r2, r2, #1
  102120:	e0833004 	add	r3, r3, r4
  102124:	e3520007 	cmp	r2, #7
  102128:	e58d2098 	str	r2, [sp, #152]	; 0x98
  10212c:	e58d309c 	str	r3, [sp, #156]	; 0x9c
  102130:	e5895000 	str	r5, [r9]
  102134:	e5894004 	str	r4, [r9, #4]
  102138:	dafffed8 	ble	101ca0 <_vfprintf_r+0x12c0>
  10213c:	eaffffec 	b	1020f4 <_vfprintf_r+0x1714>
  102140:	e28d2094 	add	r2, sp, #148	; 0x94
  102144:	e1a0100b 	mov	r1, fp
  102148:	e59d002c 	ldr	r0, [sp, #44]	; 0x2c
  10214c:	eb00161b 	bl	1079c0 <__sprint_r>
  102150:	e3500000 	cmp	r0, #0
  102154:	1afffb01 	bne	100d60 <_vfprintf_r+0x380>
  102158:	e59d309c 	ldr	r3, [sp, #156]	; 0x9c
  10215c:	e1a0900a 	mov	r9, sl
  102160:	e59d2098 	ldr	r2, [sp, #152]	; 0x98
  102164:	eafffebe 	b	101c64 <_vfprintf_r+0x1284>
  102168:	e28d2094 	add	r2, sp, #148	; 0x94
  10216c:	e1a0100b 	mov	r1, fp
  102170:	e59d002c 	ldr	r0, [sp, #44]	; 0x2c
  102174:	eb001611 	bl	1079c0 <__sprint_r>
  102178:	e3500000 	cmp	r0, #0
  10217c:	1afffaf7 	bne	100d60 <_vfprintf_r+0x380>
  102180:	e59d309c 	ldr	r3, [sp, #156]	; 0x9c
  102184:	e1a0900a 	mov	r9, sl
  102188:	e59d2098 	ldr	r2, [sp, #152]	; 0x98
  10218c:	eafffeaa 	b	101c3c <_vfprintf_r+0x125c>
  102190:	e1a08005 	mov	r8, r5
  102194:	e1cd42d0 	ldrd	r4, [sp, #32]
  102198:	e58d7038 	str	r7, [sp, #56]	; 0x38
  10219c:	e1a0700a 	mov	r7, sl
  1021a0:	e1a00004 	mov	r0, r4
  1021a4:	e1a01005 	mov	r1, r5
  1021a8:	e3a0200a 	mov	r2, #10
  1021ac:	e3a03000 	mov	r3, #0
  1021b0:	eb001ed2 	bl	109d00 <__aeabi_uldivmod>
  1021b4:	e2822030 	add	r2, r2, #48	; 0x30
  1021b8:	e1a00004 	mov	r0, r4
  1021bc:	e1a01005 	mov	r1, r5
  1021c0:	e5672001 	strb	r2, [r7, #-1]!
  1021c4:	e3a03000 	mov	r3, #0
  1021c8:	e3a0200a 	mov	r2, #10
  1021cc:	eb001ecb 	bl	109d00 <__aeabi_uldivmod>
  1021d0:	e1a04000 	mov	r4, r0
  1021d4:	e1a05001 	mov	r5, r1
  1021d8:	e1943005 	orrs	r3, r4, r5
  1021dc:	1affffef 	bne	1021a0 <_vfprintf_r+0x17c0>
  1021e0:	e1a03007 	mov	r3, r7
  1021e4:	e58d7048 	str	r7, [sp, #72]	; 0x48
  1021e8:	e063300a 	rsb	r3, r3, sl
  1021ec:	e59d7038 	ldr	r7, [sp, #56]	; 0x38
  1021f0:	e1a05008 	mov	r5, r8
  1021f4:	e58d3038 	str	r3, [sp, #56]	; 0x38
  1021f8:	eafffb37 	b	100edc <_vfprintf_r+0x4fc>
  1021fc:	e1cd22d0 	ldrd	r2, [sp, #32]
  102200:	e3a0502d 	mov	r5, #45	; 0x2d
  102204:	e5cd5077 	strb	r5, [sp, #119]	; 0x77
  102208:	e2722000 	rsbs	r2, r2, #0
  10220c:	e2e33000 	rsc	r3, r3, #0
  102210:	e1cd22f0 	strd	r2, [sp, #32]
  102214:	e59d3028 	ldr	r3, [sp, #40]	; 0x28
  102218:	e3530000 	cmp	r3, #0
  10221c:	a59d301c 	ldrge	r3, [sp, #28]
  102220:	a3c33080 	bicge	r3, r3, #128	; 0x80
  102224:	a58d301c 	strge	r3, [sp, #28]
  102228:	eafffefb 	b	101e1c <_vfprintf_r+0x143c>
  10222c:	e59d5028 	ldr	r5, [sp, #40]	; 0x28
  102230:	e3a01000 	mov	r1, #0
  102234:	e5cd1077 	strb	r1, [sp, #119]	; 0x77
  102238:	e3550000 	cmp	r5, #0
  10223c:	bafffb19 	blt	100ea8 <_vfprintf_r+0x4c8>
  102240:	e59d101c 	ldr	r1, [sp, #28]
  102244:	e3c11080 	bic	r1, r1, #128	; 0x80
  102248:	e58d101c 	str	r1, [sp, #28]
  10224c:	1afffb15 	bne	100ea8 <_vfprintf_r+0x4c8>
  102250:	eafffba1 	b	1010dc <_vfprintf_r+0x6fc>
  102254:	ec510b18 	vmov	r0, r1, d8
  102258:	eb001499 	bl	1074c4 <__fpclassifyd>
  10225c:	e3500000 	cmp	r0, #0
  102260:	0a0000c1 	beq	10256c <_vfprintf_r+0x1b8c>
  102264:	e59d3028 	ldr	r3, [sp, #40]	; 0x28
  102268:	e3c75020 	bic	r5, r7, #32
  10226c:	e3730001 	cmn	r3, #1
  102270:	03a03006 	moveq	r3, #6
  102274:	058d3028 	streq	r3, [sp, #40]	; 0x28
  102278:	0a00018e 	beq	1028b8 <_vfprintf_r+0x1ed8>
  10227c:	e59d3028 	ldr	r3, [sp, #40]	; 0x28
  102280:	e3550047 	cmp	r5, #71	; 0x47
  102284:	03530000 	cmpeq	r3, #0
  102288:	1a00018a 	bne	1028b8 <_vfprintf_r+0x1ed8>
  10228c:	e59d201c 	ldr	r2, [sp, #28]
  102290:	ee183a90 	vmov	r3, s17
  102294:	e3530000 	cmp	r3, #0
  102298:	e3822c01 	orr	r2, r2, #256	; 0x100
  10229c:	e58d2040 	str	r2, [sp, #64]	; 0x40
  1022a0:	ba0001bf 	blt	1029a4 <_vfprintf_r+0x1fc4>
  1022a4:	eeb09b48 	vmov.f64	d9, d8
  1022a8:	e3a05047 	mov	r5, #71	; 0x47
  1022ac:	e3a08000 	mov	r8, #0
  1022b0:	e3a03001 	mov	r3, #1
  1022b4:	e58d3028 	str	r3, [sp, #40]	; 0x28
  1022b8:	e28d207c 	add	r2, sp, #124	; 0x7c
  1022bc:	e3a03002 	mov	r3, #2
  1022c0:	e59dc028 	ldr	ip, [sp, #40]	; 0x28
  1022c4:	e28d008c 	add	r0, sp, #140	; 0x8c
  1022c8:	e28d1080 	add	r1, sp, #128	; 0x80
  1022cc:	e58d0010 	str	r0, [sp, #16]
  1022d0:	e58d2008 	str	r2, [sp, #8]
  1022d4:	e58d3000 	str	r3, [sp]
  1022d8:	e58dc004 	str	ip, [sp, #4]
  1022dc:	e59d002c 	ldr	r0, [sp, #44]	; 0x2c
  1022e0:	e58d100c 	str	r1, [sp, #12]
  1022e4:	ec532b19 	vmov	r2, r3, d9
  1022e8:	eb000391 	bl	103134 <_dtoa_r>
  1022ec:	e3550047 	cmp	r5, #71	; 0x47
  1022f0:	e58d0048 	str	r0, [sp, #72]	; 0x48
  1022f4:	1a000288 	bne	102d1c <_vfprintf_r+0x233c>
  1022f8:	e59d301c 	ldr	r3, [sp, #28]
  1022fc:	e3130001 	tst	r3, #1
  102300:	0a000249 	beq	102c2c <_vfprintf_r+0x224c>
  102304:	e59d3048 	ldr	r3, [sp, #72]	; 0x48
  102308:	e59d2028 	ldr	r2, [sp, #40]	; 0x28
  10230c:	e0834002 	add	r4, r3, r2
  102310:	eeb59b40 	vcmp.f64	d9, #0.0
  102314:	eef1fa10 	vmrs	APSR_nzcv, fpscr
  102318:	01a03004 	moveq	r3, r4
  10231c:	0a000009 	beq	102348 <_vfprintf_r+0x1968>
  102320:	e59d308c 	ldr	r3, [sp, #140]	; 0x8c
  102324:	e1540003 	cmp	r4, r3
  102328:	9a000006 	bls	102348 <_vfprintf_r+0x1968>
  10232c:	e3a01030 	mov	r1, #48	; 0x30
  102330:	e2832001 	add	r2, r3, #1
  102334:	e58d208c 	str	r2, [sp, #140]	; 0x8c
  102338:	e5c31000 	strb	r1, [r3]
  10233c:	e59d308c 	ldr	r3, [sp, #140]	; 0x8c
  102340:	e1540003 	cmp	r4, r3
  102344:	8afffff9 	bhi	102330 <_vfprintf_r+0x1950>
  102348:	e59d2048 	ldr	r2, [sp, #72]	; 0x48
  10234c:	e3550047 	cmp	r5, #71	; 0x47
  102350:	e0623003 	rsb	r3, r2, r3
  102354:	e58d3050 	str	r3, [sp, #80]	; 0x50
  102358:	e59d307c 	ldr	r3, [sp, #124]	; 0x7c
  10235c:	1a0001b0 	bne	102a24 <_vfprintf_r+0x2044>
  102360:	e59d2028 	ldr	r2, [sp, #40]	; 0x28
  102364:	e3730003 	cmn	r3, #3
  102368:	a3a04000 	movge	r4, #0
  10236c:	b3a04001 	movlt	r4, #1
  102370:	e1530002 	cmp	r3, r2
  102374:	c3844001 	orrgt	r4, r4, #1
  102378:	e3540000 	cmp	r4, #0
  10237c:	12477002 	subne	r7, r7, #2
  102380:	1a0001d2 	bne	102ad0 <_vfprintf_r+0x20f0>
  102384:	e58d304c 	str	r3, [sp, #76]	; 0x4c
  102388:	e59d2050 	ldr	r2, [sp, #80]	; 0x50
  10238c:	e59d304c 	ldr	r3, [sp, #76]	; 0x4c
  102390:	e1520003 	cmp	r2, r3
  102394:	ca0001f8 	bgt	102b7c <_vfprintf_r+0x219c>
  102398:	e59d201c 	ldr	r2, [sp, #28]
  10239c:	e3120001 	tst	r2, #1
  1023a0:	159d304c 	ldrne	r3, [sp, #76]	; 0x4c
  1023a4:	01a02003 	moveq	r2, r3
  1023a8:	01c33fc3 	biceq	r3, r3, r3, asr #31
  1023ac:	03a07067 	moveq	r7, #103	; 0x67
  1023b0:	13a07067 	movne	r7, #103	; 0x67
  1023b4:	058d2038 	streq	r2, [sp, #56]	; 0x38
  1023b8:	12833001 	addne	r3, r3, #1
  1023bc:	158d3038 	strne	r3, [sp, #56]	; 0x38
  1023c0:	11c33fc3 	bicne	r3, r3, r3, asr #31
  1023c4:	e3580000 	cmp	r8, #0
  1023c8:	1a00018e 	bne	102a08 <_vfprintf_r+0x2028>
  1023cc:	e58d3020 	str	r3, [sp, #32]
  1023d0:	e59d3040 	ldr	r3, [sp, #64]	; 0x40
  1023d4:	e58d8028 	str	r8, [sp, #40]	; 0x28
  1023d8:	e5dd5077 	ldrb	r5, [sp, #119]	; 0x77
  1023dc:	e58d301c 	str	r3, [sp, #28]
  1023e0:	eafffac4 	b	100ef8 <_vfprintf_r+0x518>
  1023e4:	e59d301c 	ldr	r3, [sp, #28]
  1023e8:	e3130040 	tst	r3, #64	; 0x40
  1023ec:	e59d303c 	ldr	r3, [sp, #60]	; 0x3c
  1023f0:	11d320b0 	ldrhne	r2, [r3]
  1023f4:	e2833004 	add	r3, r3, #4
  1023f8:	05132004 	ldreq	r2, [r3, #-4]
  1023fc:	e58d303c 	str	r3, [sp, #60]	; 0x3c
  102400:	e3a03000 	mov	r3, #0
  102404:	eafffa97 	b	100e68 <_vfprintf_r+0x488>
  102408:	e59d101c 	ldr	r1, [sp, #28]
  10240c:	e2115040 	ands	r5, r1, #64	; 0x40
  102410:	0a000066 	beq	1025b0 <_vfprintf_r+0x1bd0>
  102414:	e59d303c 	ldr	r3, [sp, #60]	; 0x3c
  102418:	e59d0028 	ldr	r0, [sp, #40]	; 0x28
  10241c:	e5cd2077 	strb	r2, [sp, #119]	; 0x77
  102420:	e1d350b0 	ldrh	r5, [r3]
  102424:	e2838004 	add	r8, r3, #4
  102428:	e3500000 	cmp	r0, #0
  10242c:	ee805b90 	vdup.32	d16, r5
  102430:	f3e000b0 	vshr.u64	d16, d16, #32
  102434:	edcd0b08 	vstr	d16, [sp, #32]
  102438:	ba0001d9 	blt	102ba4 <_vfprintf_r+0x21c4>
  10243c:	13a03001 	movne	r3, #1
  102440:	03a03000 	moveq	r3, #0
  102444:	e3550000 	cmp	r5, #0
  102448:	01a05003 	moveq	r5, r3
  10244c:	13835001 	orrne	r5, r3, #1
  102450:	e3c11080 	bic	r1, r1, #128	; 0x80
  102454:	e3550000 	cmp	r5, #0
  102458:	e58d101c 	str	r1, [sp, #28]
  10245c:	e58d803c 	str	r8, [sp, #60]	; 0x3c
  102460:	0afffb1d 	beq	1010dc <_vfprintf_r+0x6fc>
  102464:	e1a05002 	mov	r5, r2
  102468:	eafffe6b 	b	101e1c <_vfprintf_r+0x143c>
  10246c:	e59dc01c 	ldr	ip, [sp, #28]
  102470:	e21c3040 	ands	r3, ip, #64	; 0x40
  102474:	0a00002a 	beq	102524 <_vfprintf_r+0x1b44>
  102478:	e59d303c 	ldr	r3, [sp, #60]	; 0x3c
  10247c:	e59d1028 	ldr	r1, [sp, #40]	; 0x28
  102480:	e5cd2077 	strb	r2, [sp, #119]	; 0x77
  102484:	e1d300b0 	ldrh	r0, [r3]
  102488:	e2838004 	add	r8, r3, #4
  10248c:	e3510000 	cmp	r1, #0
  102490:	e3a03000 	mov	r3, #0
  102494:	e1a02000 	mov	r2, r0
  102498:	ba000072 	blt	102668 <_vfprintf_r+0x1c88>
  10249c:	13a01001 	movne	r1, #1
  1024a0:	03a01000 	moveq	r1, #0
  1024a4:	e3500000 	cmp	r0, #0
  1024a8:	13811001 	orrne	r1, r1, #1
  1024ac:	e3ccc080 	bic	ip, ip, #128	; 0x80
  1024b0:	e3510000 	cmp	r1, #0
  1024b4:	e58dc01c 	str	ip, [sp, #28]
  1024b8:	e58d803c 	str	r8, [sp, #60]	; 0x3c
  1024bc:	1afffb57 	bne	101220 <_vfprintf_r+0x840>
  1024c0:	eafffc54 	b	101618 <_vfprintf_r+0xc38>
  1024c4:	e59d301c 	ldr	r3, [sp, #28]
  1024c8:	e3130010 	tst	r3, #16
  1024cc:	1a00000d 	bne	102508 <_vfprintf_r+0x1b28>
  1024d0:	e59d301c 	ldr	r3, [sp, #28]
  1024d4:	e3130040 	tst	r3, #64	; 0x40
  1024d8:	0a00000a 	beq	102508 <_vfprintf_r+0x1b28>
  1024dc:	e59d203c 	ldr	r2, [sp, #60]	; 0x3c
  1024e0:	e5923000 	ldr	r3, [r2]
  1024e4:	e2822004 	add	r2, r2, #4
  1024e8:	e58d203c 	str	r2, [sp, #60]	; 0x3c
  1024ec:	e1dd23b0 	ldrh	r2, [sp, #48]	; 0x30
  1024f0:	e1c320b0 	strh	r2, [r3]
  1024f4:	eafff975 	b	100ad0 <_vfprintf_r+0xf0>
  1024f8:	e59d101c 	ldr	r1, [sp, #28]
  1024fc:	e3110001 	tst	r1, #1
  102500:	0afffeb8 	beq	101fe8 <_vfprintf_r+0x1608>
  102504:	eafffeab 	b	101fb8 <_vfprintf_r+0x15d8>
  102508:	e59d203c 	ldr	r2, [sp, #60]	; 0x3c
  10250c:	e5923000 	ldr	r3, [r2]
  102510:	e2822004 	add	r2, r2, #4
  102514:	e58d203c 	str	r2, [sp, #60]	; 0x3c
  102518:	e59d2030 	ldr	r2, [sp, #48]	; 0x30
  10251c:	e5832000 	str	r2, [r3]
  102520:	eafff96a 	b	100ad0 <_vfprintf_r+0xf0>
  102524:	e59d0028 	ldr	r0, [sp, #40]	; 0x28
  102528:	e59d103c 	ldr	r1, [sp, #60]	; 0x3c
  10252c:	e5cd3077 	strb	r3, [sp, #119]	; 0x77
  102530:	e3a03000 	mov	r3, #0
  102534:	e3500000 	cmp	r0, #0
  102538:	e5912000 	ldr	r2, [r1]
  10253c:	e2818004 	add	r8, r1, #4
  102540:	ba000048 	blt	102668 <_vfprintf_r+0x1c88>
  102544:	e59d001c 	ldr	r0, [sp, #28]
  102548:	e1821003 	orr	r1, r2, r3
  10254c:	e58d803c 	str	r8, [sp, #60]	; 0x3c
  102550:	e3c00080 	bic	r0, r0, #128	; 0x80
  102554:	e58d001c 	str	r0, [sp, #28]
  102558:	e59d0028 	ldr	r0, [sp, #40]	; 0x28
  10255c:	e3510000 	cmp	r1, #0
  102560:	03500000 	cmpeq	r0, #0
  102564:	0afffc2b 	beq	101618 <_vfprintf_r+0xc38>
  102568:	eafffb2c 	b	101220 <_vfprintf_r+0x840>
  10256c:	e59dc01c 	ldr	ip, [sp, #28]
  102570:	e30a3140 	movw	r3, #41280	; 0xa140
  102574:	e30a2144 	movw	r2, #41284	; 0xa144
  102578:	e3403010 	movt	r3, #16
  10257c:	e3570047 	cmp	r7, #71	; 0x47
  102580:	e3402010 	movt	r2, #16
  102584:	e3a01003 	mov	r1, #3
  102588:	e3ccc080 	bic	ip, ip, #128	; 0x80
  10258c:	d1a02003 	movle	r2, r3
  102590:	e58d0028 	str	r0, [sp, #40]	; 0x28
  102594:	e58d1020 	str	r1, [sp, #32]
  102598:	e58dc01c 	str	ip, [sp, #28]
  10259c:	e58d2048 	str	r2, [sp, #72]	; 0x48
  1025a0:	e58d004c 	str	r0, [sp, #76]	; 0x4c
  1025a4:	e58d1038 	str	r1, [sp, #56]	; 0x38
  1025a8:	e5dd5077 	ldrb	r5, [sp, #119]	; 0x77
  1025ac:	eafffa51 	b	100ef8 <_vfprintf_r+0x518>
  1025b0:	e59d203c 	ldr	r2, [sp, #60]	; 0x3c
  1025b4:	e59d1028 	ldr	r1, [sp, #40]	; 0x28
  1025b8:	e5cd5077 	strb	r5, [sp, #119]	; 0x77
  1025bc:	e5923000 	ldr	r3, [r2]
  1025c0:	e2828004 	add	r8, r2, #4
  1025c4:	e3510000 	cmp	r1, #0
  1025c8:	b58d803c 	strlt	r8, [sp, #60]	; 0x3c
  1025cc:	ee803b90 	vdup.32	d16, r3
  1025d0:	f3e000b0 	vshr.u64	d16, d16, #32
  1025d4:	edcd0b08 	vstr	d16, [sp, #32]
  1025d8:	bafffe0f 	blt	101e1c <_vfprintf_r+0x143c>
  1025dc:	e1cd22d0 	ldrd	r2, [sp, #32]
  1025e0:	e58d803c 	str	r8, [sp, #60]	; 0x3c
  1025e4:	e1823003 	orr	r3, r2, r3
  1025e8:	e59d201c 	ldr	r2, [sp, #28]
  1025ec:	e3c22080 	bic	r2, r2, #128	; 0x80
  1025f0:	e58d201c 	str	r2, [sp, #28]
  1025f4:	e59d2028 	ldr	r2, [sp, #40]	; 0x28
  1025f8:	e3530000 	cmp	r3, #0
  1025fc:	03520000 	cmpeq	r2, #0
  102600:	13a03001 	movne	r3, #1
  102604:	03a03000 	moveq	r3, #0
  102608:	1afffe03 	bne	101e1c <_vfprintf_r+0x143c>
  10260c:	eafffab1 	b	1010d8 <_vfprintf_r+0x6f8>
  102610:	e28d2094 	add	r2, sp, #148	; 0x94
  102614:	e1a0100b 	mov	r1, fp
  102618:	e59d002c 	ldr	r0, [sp, #44]	; 0x2c
  10261c:	eb0014e7 	bl	1079c0 <__sprint_r>
  102620:	e3500000 	cmp	r0, #0
  102624:	1afff9cd 	bne	100d60 <_vfprintf_r+0x380>
  102628:	e59d207c 	ldr	r2, [sp, #124]	; 0x7c
  10262c:	e1a0900a 	mov	r9, sl
  102630:	e59d1050 	ldr	r1, [sp, #80]	; 0x50
  102634:	e59d309c 	ldr	r3, [sp, #156]	; 0x9c
  102638:	e0622001 	rsb	r2, r2, r1
  10263c:	eafffe7d 	b	102038 <_vfprintf_r+0x1658>
  102640:	e28d2094 	add	r2, sp, #148	; 0x94
  102644:	e1a0100b 	mov	r1, fp
  102648:	e59d002c 	ldr	r0, [sp, #44]	; 0x2c
  10264c:	eb0014db 	bl	1079c0 <__sprint_r>
  102650:	e3500000 	cmp	r0, #0
  102654:	1afff9c1 	bne	100d60 <_vfprintf_r+0x380>
  102658:	e59d207c 	ldr	r2, [sp, #124]	; 0x7c
  10265c:	e1a0900a 	mov	r9, sl
  102660:	e59d309c 	ldr	r3, [sp, #156]	; 0x9c
  102664:	eafffe5f 	b	101fe8 <_vfprintf_r+0x1608>
  102668:	e58d803c 	str	r8, [sp, #60]	; 0x3c
  10266c:	eafffaeb 	b	101220 <_vfprintf_r+0x840>
  102670:	e58d803c 	str	r8, [sp, #60]	; 0x3c
  102674:	eafffb24 	b	10130c <_vfprintf_r+0x92c>
  102678:	e28d2094 	add	r2, sp, #148	; 0x94
  10267c:	e1a0100b 	mov	r1, fp
  102680:	e59d002c 	ldr	r0, [sp, #44]	; 0x2c
  102684:	eb0014cd 	bl	1079c0 <__sprint_r>
  102688:	e3500000 	cmp	r0, #0
  10268c:	1afff9b3 	bne	100d60 <_vfprintf_r+0x380>
  102690:	e59d309c 	ldr	r3, [sp, #156]	; 0x9c
  102694:	e1a0900a 	mov	r9, sl
  102698:	eafffce9 	b	101a44 <_vfprintf_r+0x1064>
  10269c:	e59d2098 	ldr	r2, [sp, #152]	; 0x98
  1026a0:	e30a1178 	movw	r1, #41336	; 0xa178
  1026a4:	e3401010 	movt	r1, #16
  1026a8:	e2833001 	add	r3, r3, #1
  1026ac:	e5891000 	str	r1, [r9]
  1026b0:	e3a01001 	mov	r1, #1
  1026b4:	e2822001 	add	r2, r2, #1
  1026b8:	e5891004 	str	r1, [r9, #4]
  1026bc:	e3520007 	cmp	r2, #7
  1026c0:	e58d309c 	str	r3, [sp, #156]	; 0x9c
  1026c4:	e58d2098 	str	r2, [sp, #152]	; 0x98
  1026c8:	d2899008 	addle	r9, r9, #8
  1026cc:	ca0000e5 	bgt	102a68 <_vfprintf_r+0x2088>
  1026d0:	e59d2050 	ldr	r2, [sp, #80]	; 0x50
  1026d4:	e1922004 	orrs	r2, r2, r4
  1026d8:	1a000002 	bne	1026e8 <_vfprintf_r+0x1d08>
  1026dc:	e59d201c 	ldr	r2, [sp, #28]
  1026e0:	e3120001 	tst	r2, #1
  1026e4:	0afffc7c 	beq	1018dc <_vfprintf_r+0xefc>
  1026e8:	e59d2098 	ldr	r2, [sp, #152]	; 0x98
  1026ec:	e59d105c 	ldr	r1, [sp, #92]	; 0x5c
  1026f0:	e59d0058 	ldr	r0, [sp, #88]	; 0x58
  1026f4:	e2822001 	add	r2, r2, #1
  1026f8:	e3520007 	cmp	r2, #7
  1026fc:	e0813003 	add	r3, r1, r3
  102700:	e5890000 	str	r0, [r9]
  102704:	e5891004 	str	r1, [r9, #4]
  102708:	d2899008 	addle	r9, r9, #8
  10270c:	e58d309c 	str	r3, [sp, #156]	; 0x9c
  102710:	e58d2098 	str	r2, [sp, #152]	; 0x98
  102714:	ca00010d 	bgt	102b50 <_vfprintf_r+0x2170>
  102718:	e2644000 	rsb	r4, r4, #0
  10271c:	e3540000 	cmp	r4, #0
  102720:	da000045 	ble	10283c <_vfprintf_r+0x1e5c>
  102724:	e3540010 	cmp	r4, #16
  102728:	e59f55f4 	ldr	r5, [pc, #1524]	; 102d24 <_vfprintf_r+0x2344>
  10272c:	da000030 	ble	1027f4 <_vfprintf_r+0x1e14>
  102730:	e3a07010 	mov	r7, #16
  102734:	e59d802c 	ldr	r8, [sp, #44]	; 0x2c
  102738:	ea000002 	b	102748 <_vfprintf_r+0x1d68>
  10273c:	e2444010 	sub	r4, r4, #16
  102740:	e3540010 	cmp	r4, #16
  102744:	da00002a 	ble	1027f4 <_vfprintf_r+0x1e14>
  102748:	e2822001 	add	r2, r2, #1
  10274c:	e2833010 	add	r3, r3, #16
  102750:	e3520007 	cmp	r2, #7
  102754:	e88900a0 	stm	r9, {r5, r7}
  102758:	e58d2098 	str	r2, [sp, #152]	; 0x98
  10275c:	d2899008 	addle	r9, r9, #8
  102760:	e58d309c 	str	r3, [sp, #156]	; 0x9c
  102764:	dafffff4 	ble	10273c <_vfprintf_r+0x1d5c>
  102768:	e28d2094 	add	r2, sp, #148	; 0x94
  10276c:	e1a0100b 	mov	r1, fp
  102770:	e1a00008 	mov	r0, r8
  102774:	e1a0900a 	mov	r9, sl
  102778:	eb001490 	bl	1079c0 <__sprint_r>
  10277c:	e3500000 	cmp	r0, #0
  102780:	1afff976 	bne	100d60 <_vfprintf_r+0x380>
  102784:	e59d309c 	ldr	r3, [sp, #156]	; 0x9c
  102788:	e59d2098 	ldr	r2, [sp, #152]	; 0x98
  10278c:	eaffffea 	b	10273c <_vfprintf_r+0x1d5c>
  102790:	e59d309c 	ldr	r3, [sp, #156]	; 0x9c
  102794:	e1a0800b 	mov	r8, fp
  102798:	e59db02c 	ldr	fp, [sp, #44]	; 0x2c
  10279c:	e3530000 	cmp	r3, #0
  1027a0:	1a0000c3 	bne	102ab4 <_vfprintf_r+0x20d4>
  1027a4:	e3a03000 	mov	r3, #0
  1027a8:	e58d3098 	str	r3, [sp, #152]	; 0x98
  1027ac:	eafff96c 	b	100d64 <_vfprintf_r+0x384>
  1027b0:	e59d101c 	ldr	r1, [sp, #28]
  1027b4:	e30a015c 	movw	r0, #41308	; 0xa15c
  1027b8:	e58d803c 	str	r8, [sp, #60]	; 0x3c
  1027bc:	e1a0700c 	mov	r7, ip
  1027c0:	e3400010 	movt	r0, #16
  1027c4:	e3811002 	orr	r1, r1, #2
  1027c8:	e58d101c 	str	r1, [sp, #28]
  1027cc:	eafff9b5 	b	100ea8 <_vfprintf_r+0x4c8>
  1027d0:	e28d2094 	add	r2, sp, #148	; 0x94
  1027d4:	e1a0100b 	mov	r1, fp
  1027d8:	e59d002c 	ldr	r0, [sp, #44]	; 0x2c
  1027dc:	eb001477 	bl	1079c0 <__sprint_r>
  1027e0:	e3500000 	cmp	r0, #0
  1027e4:	1afff95d 	bne	100d60 <_vfprintf_r+0x380>
  1027e8:	e59d309c 	ldr	r3, [sp, #156]	; 0x9c
  1027ec:	e1a0900a 	mov	r9, sl
  1027f0:	eafffca6 	b	101a90 <_vfprintf_r+0x10b0>
  1027f4:	e2822001 	add	r2, r2, #1
  1027f8:	e0833004 	add	r3, r3, r4
  1027fc:	e3520007 	cmp	r2, #7
  102800:	e5895000 	str	r5, [r9]
  102804:	e5894004 	str	r4, [r9, #4]
  102808:	d2899008 	addle	r9, r9, #8
  10280c:	e58d2098 	str	r2, [sp, #152]	; 0x98
  102810:	e58d309c 	str	r3, [sp, #156]	; 0x9c
  102814:	da000008 	ble	10283c <_vfprintf_r+0x1e5c>
  102818:	e28d2094 	add	r2, sp, #148	; 0x94
  10281c:	e1a0100b 	mov	r1, fp
  102820:	e59d002c 	ldr	r0, [sp, #44]	; 0x2c
  102824:	eb001465 	bl	1079c0 <__sprint_r>
  102828:	e3500000 	cmp	r0, #0
  10282c:	1afff94b 	bne	100d60 <_vfprintf_r+0x380>
  102830:	e59d309c 	ldr	r3, [sp, #156]	; 0x9c
  102834:	e1a0900a 	mov	r9, sl
  102838:	e59d2098 	ldr	r2, [sp, #152]	; 0x98
  10283c:	e2822001 	add	r2, r2, #1
  102840:	e59d1050 	ldr	r1, [sp, #80]	; 0x50
  102844:	e3520007 	cmp	r2, #7
  102848:	e58d2098 	str	r2, [sp, #152]	; 0x98
  10284c:	e59d2048 	ldr	r2, [sp, #72]	; 0x48
  102850:	e0813003 	add	r3, r1, r3
  102854:	e5891004 	str	r1, [r9, #4]
  102858:	e58d309c 	str	r3, [sp, #156]	; 0x9c
  10285c:	e5892000 	str	r2, [r9]
  102860:	dafffc1c 	ble	1018d8 <_vfprintf_r+0xef8>
  102864:	eafffd18 	b	101ccc <_vfprintf_r+0x12ec>
  102868:	e59d0048 	ldr	r0, [sp, #72]	; 0x48
  10286c:	e58d4028 	str	r4, [sp, #40]	; 0x28
  102870:	fafff822 	blx	100900 <strlen>
  102874:	e1a03000 	mov	r3, r0
  102878:	e58d0038 	str	r0, [sp, #56]	; 0x38
  10287c:	eafff9f6 	b	10105c <_vfprintf_r+0x67c>
  102880:	e30a5118 	movw	r5, #41240	; 0xa118
  102884:	e59d109c 	ldr	r1, [sp, #156]	; 0x9c
  102888:	e3405010 	movt	r5, #16
  10288c:	e59d2098 	ldr	r2, [sp, #152]	; 0x98
  102890:	eafff9d1 	b	100fdc <_vfprintf_r+0x5fc>
  102894:	e28d2094 	add	r2, sp, #148	; 0x94
  102898:	e1a0100b 	mov	r1, fp
  10289c:	e59d002c 	ldr	r0, [sp, #44]	; 0x2c
  1028a0:	eb001446 	bl	1079c0 <__sprint_r>
  1028a4:	e3500000 	cmp	r0, #0
  1028a8:	1afff92c 	bne	100d60 <_vfprintf_r+0x380>
  1028ac:	e59d309c 	ldr	r3, [sp, #156]	; 0x9c
  1028b0:	e1a0900a 	mov	r9, sl
  1028b4:	eafffd34 	b	101d8c <_vfprintf_r+0x13ac>
  1028b8:	e59d201c 	ldr	r2, [sp, #28]
  1028bc:	ee183a90 	vmov	r3, s17
  1028c0:	e3530000 	cmp	r3, #0
  1028c4:	e3822c01 	orr	r2, r2, #256	; 0x100
  1028c8:	e58d2040 	str	r2, [sp, #64]	; 0x40
  1028cc:	ba000037 	blt	1029b0 <_vfprintf_r+0x1fd0>
  1028d0:	e3550046 	cmp	r5, #70	; 0x46
  1028d4:	13a08000 	movne	r8, #0
  1028d8:	1eb09b48 	vmovne.f64	d9, d8
  1028dc:	1a000037 	bne	1029c0 <_vfprintf_r+0x1fe0>
  1028e0:	e28d207c 	add	r2, sp, #124	; 0x7c
  1028e4:	e3a03003 	mov	r3, #3
  1028e8:	e59dc028 	ldr	ip, [sp, #40]	; 0x28
  1028ec:	e28d008c 	add	r0, sp, #140	; 0x8c
  1028f0:	e28d1080 	add	r1, sp, #128	; 0x80
  1028f4:	e3a08000 	mov	r8, #0
  1028f8:	eeb09b48 	vmov.f64	d9, d8
  1028fc:	e58d0010 	str	r0, [sp, #16]
  102900:	e58d2008 	str	r2, [sp, #8]
  102904:	e58d3000 	str	r3, [sp]
  102908:	e58dc004 	str	ip, [sp, #4]
  10290c:	e59d002c 	ldr	r0, [sp, #44]	; 0x2c
  102910:	e58d100c 	str	r1, [sp, #12]
  102914:	ec532b18 	vmov	r2, r3, d8
  102918:	eb000205 	bl	103134 <_dtoa_r>
  10291c:	e58d0048 	str	r0, [sp, #72]	; 0x48
  102920:	e59d3048 	ldr	r3, [sp, #72]	; 0x48
  102924:	eeb59b40 	vcmp.f64	d9, #0.0
  102928:	eef1fa10 	vmrs	APSR_nzcv, fpscr
  10292c:	e5d32000 	ldrb	r2, [r3]
  102930:	13a03001 	movne	r3, #1
  102934:	03a03000 	moveq	r3, #0
  102938:	e3520030 	cmp	r2, #48	; 0x30
  10293c:	13a03000 	movne	r3, #0
  102940:	02033001 	andeq	r3, r3, #1
  102944:	e3530000 	cmp	r3, #0
  102948:	0a0000b9 	beq	102c34 <_vfprintf_r+0x2254>
  10294c:	e59d3028 	ldr	r3, [sp, #40]	; 0x28
  102950:	e2633001 	rsb	r3, r3, #1
  102954:	e58d307c 	str	r3, [sp, #124]	; 0x7c
  102958:	e59d2028 	ldr	r2, [sp, #40]	; 0x28
  10295c:	e0834002 	add	r4, r3, r2
  102960:	e59d3048 	ldr	r3, [sp, #72]	; 0x48
  102964:	e0834004 	add	r4, r3, r4
  102968:	eafffe68 	b	102310 <_vfprintf_r+0x1930>
  10296c:	e3530006 	cmp	r3, #6
  102970:	e30a2170 	movw	r2, #41328	; 0xa170
  102974:	23a03006 	movcs	r3, #6
  102978:	e3402010 	movt	r2, #16
  10297c:	e58d3038 	str	r3, [sp, #56]	; 0x38
  102980:	e1c33fc3 	bic	r3, r3, r3, asr #31
  102984:	e58d803c 	str	r8, [sp, #60]	; 0x3c
  102988:	e58d3020 	str	r3, [sp, #32]
  10298c:	e58d2048 	str	r2, [sp, #72]	; 0x48
  102990:	eafffad3 	b	1014e4 <_vfprintf_r+0xb04>
  102994:	e30a5118 	movw	r5, #41240	; 0xa118
  102998:	e59d2098 	ldr	r2, [sp, #152]	; 0x98
  10299c:	e3405010 	movt	r5, #16
  1029a0:	eafffbf9 	b	10198c <_vfprintf_r+0xfac>
  1029a4:	e3a05047 	mov	r5, #71	; 0x47
  1029a8:	e3a03001 	mov	r3, #1
  1029ac:	e58d3028 	str	r3, [sp, #40]	; 0x28
  1029b0:	e3550046 	cmp	r5, #70	; 0x46
  1029b4:	eeb19b48 	vneg.f64	d9, d8
  1029b8:	0a00009f 	beq	102c3c <_vfprintf_r+0x225c>
  1029bc:	e3a0802d 	mov	r8, #45	; 0x2d
  1029c0:	e3550045 	cmp	r5, #69	; 0x45
  1029c4:	1afffe3b 	bne	1022b8 <_vfprintf_r+0x18d8>
  1029c8:	e59d3028 	ldr	r3, [sp, #40]	; 0x28
  1029cc:	e28d207c 	add	r2, sp, #124	; 0x7c
  1029d0:	e28d008c 	add	r0, sp, #140	; 0x8c
  1029d4:	e28d1080 	add	r1, sp, #128	; 0x80
  1029d8:	e58d0010 	str	r0, [sp, #16]
  1029dc:	e2834001 	add	r4, r3, #1
  1029e0:	e3a03002 	mov	r3, #2
  1029e4:	e58d2008 	str	r2, [sp, #8]
  1029e8:	e58d3000 	str	r3, [sp]
  1029ec:	e58d4004 	str	r4, [sp, #4]
  1029f0:	e59d002c 	ldr	r0, [sp, #44]	; 0x2c
  1029f4:	e58d100c 	str	r1, [sp, #12]
  1029f8:	ec532b19 	vmov	r2, r3, d9
  1029fc:	eb0001cc 	bl	103134 <_dtoa_r>
  102a00:	e58d0048 	str	r0, [sp, #72]	; 0x48
  102a04:	eaffffd5 	b	102960 <_vfprintf_r+0x1f80>
  102a08:	e59d2040 	ldr	r2, [sp, #64]	; 0x40
  102a0c:	e3a0502d 	mov	r5, #45	; 0x2d
  102a10:	e5cd5077 	strb	r5, [sp, #119]	; 0x77
  102a14:	e58d201c 	str	r2, [sp, #28]
  102a18:	e3a02000 	mov	r2, #0
  102a1c:	e58d2028 	str	r2, [sp, #40]	; 0x28
  102a20:	eafff937 	b	100f04 <_vfprintf_r+0x524>
  102a24:	e3570065 	cmp	r7, #101	; 0x65
  102a28:	da000028 	ble	102ad0 <_vfprintf_r+0x20f0>
  102a2c:	e3570066 	cmp	r7, #102	; 0x66
  102a30:	e58d304c 	str	r3, [sp, #76]	; 0x4c
  102a34:	1afffe53 	bne	102388 <_vfprintf_r+0x19a8>
  102a38:	e3530000 	cmp	r3, #0
  102a3c:	da000095 	ble	102c98 <_vfprintf_r+0x22b8>
  102a40:	e59d2028 	ldr	r2, [sp, #40]	; 0x28
  102a44:	e3520000 	cmp	r2, #0
  102a48:	1a00008b 	bne	102c7c <_vfprintf_r+0x229c>
  102a4c:	e59d201c 	ldr	r2, [sp, #28]
  102a50:	e3120001 	tst	r2, #1
  102a54:	1a000088 	bne	102c7c <_vfprintf_r+0x229c>
  102a58:	e1a02003 	mov	r2, r3
  102a5c:	e1c33fc3 	bic	r3, r3, r3, asr #31
  102a60:	e58d2038 	str	r2, [sp, #56]	; 0x38
  102a64:	eafffe56 	b	1023c4 <_vfprintf_r+0x19e4>
  102a68:	e28d2094 	add	r2, sp, #148	; 0x94
  102a6c:	e1a0100b 	mov	r1, fp
  102a70:	e59d002c 	ldr	r0, [sp, #44]	; 0x2c
  102a74:	eb0013d1 	bl	1079c0 <__sprint_r>
  102a78:	e3500000 	cmp	r0, #0
  102a7c:	1afff8b7 	bne	100d60 <_vfprintf_r+0x380>
  102a80:	e59d407c 	ldr	r4, [sp, #124]	; 0x7c
  102a84:	e1a0900a 	mov	r9, sl
  102a88:	e59d309c 	ldr	r3, [sp, #156]	; 0x9c
  102a8c:	eaffff0f 	b	1026d0 <_vfprintf_r+0x1cf0>
  102a90:	e59d3028 	ldr	r3, [sp, #40]	; 0x28
  102a94:	e5dd5077 	ldrb	r5, [sp, #119]	; 0x77
  102a98:	e58d0028 	str	r0, [sp, #40]	; 0x28
  102a9c:	e58d3038 	str	r3, [sp, #56]	; 0x38
  102aa0:	e1c32fc3 	bic	r2, r3, r3, asr #31
  102aa4:	e58d803c 	str	r8, [sp, #60]	; 0x3c
  102aa8:	e58d004c 	str	r0, [sp, #76]	; 0x4c
  102aac:	e58d2020 	str	r2, [sp, #32]
  102ab0:	eafff910 	b	100ef8 <_vfprintf_r+0x518>
  102ab4:	e1a0000b 	mov	r0, fp
  102ab8:	e28d2094 	add	r2, sp, #148	; 0x94
  102abc:	e1a01008 	mov	r1, r8
  102ac0:	eb0013be 	bl	1079c0 <__sprint_r>
  102ac4:	e3500000 	cmp	r0, #0
  102ac8:	0affff35 	beq	1027a4 <_vfprintf_r+0x1dc4>
  102acc:	eafff8a4 	b	100d64 <_vfprintf_r+0x384>
  102ad0:	e2433001 	sub	r3, r3, #1
  102ad4:	e5cd7084 	strb	r7, [sp, #132]	; 0x84
  102ad8:	e3530000 	cmp	r3, #0
  102adc:	e58d307c 	str	r3, [sp, #124]	; 0x7c
  102ae0:	b2633000 	rsblt	r3, r3, #0
  102ae4:	b3a0202d 	movlt	r2, #45	; 0x2d
  102ae8:	a3a0202b 	movge	r2, #43	; 0x2b
  102aec:	e3530009 	cmp	r3, #9
  102af0:	e5cd2085 	strb	r2, [sp, #133]	; 0x85
  102af4:	ca00002c 	bgt	102bac <_vfprintf_r+0x21cc>
  102af8:	e28dc088 	add	ip, sp, #136	; 0x88
  102afc:	e2833030 	add	r3, r3, #48	; 0x30
  102b00:	e3a02030 	mov	r2, #48	; 0x30
  102b04:	e5cd3087 	strb	r3, [sp, #135]	; 0x87
  102b08:	e5cd2086 	strb	r2, [sp, #134]	; 0x86
  102b0c:	e59d2050 	ldr	r2, [sp, #80]	; 0x50
  102b10:	e28d3084 	add	r3, sp, #132	; 0x84
  102b14:	e063300c 	rsb	r3, r3, ip
  102b18:	e1a01003 	mov	r1, r3
  102b1c:	e58d3068 	str	r3, [sp, #104]	; 0x68
  102b20:	e3520001 	cmp	r2, #1
  102b24:	e1a03002 	mov	r3, r2
  102b28:	e0833001 	add	r3, r3, r1
  102b2c:	e58d3038 	str	r3, [sp, #56]	; 0x38
  102b30:	da000065 	ble	102ccc <_vfprintf_r+0x22ec>
  102b34:	e59d3038 	ldr	r3, [sp, #56]	; 0x38
  102b38:	e3a02000 	mov	r2, #0
  102b3c:	e58d204c 	str	r2, [sp, #76]	; 0x4c
  102b40:	e2833001 	add	r3, r3, #1
  102b44:	e58d3038 	str	r3, [sp, #56]	; 0x38
  102b48:	e1c33fc3 	bic	r3, r3, r3, asr #31
  102b4c:	eafffe1c 	b	1023c4 <_vfprintf_r+0x19e4>
  102b50:	e28d2094 	add	r2, sp, #148	; 0x94
  102b54:	e1a0100b 	mov	r1, fp
  102b58:	e59d002c 	ldr	r0, [sp, #44]	; 0x2c
  102b5c:	eb001397 	bl	1079c0 <__sprint_r>
  102b60:	e3500000 	cmp	r0, #0
  102b64:	1afff87d 	bne	100d60 <_vfprintf_r+0x380>
  102b68:	e59d407c 	ldr	r4, [sp, #124]	; 0x7c
  102b6c:	e1a0900a 	mov	r9, sl
  102b70:	e59d309c 	ldr	r3, [sp, #156]	; 0x9c
  102b74:	e59d2098 	ldr	r2, [sp, #152]	; 0x98
  102b78:	eafffee6 	b	102718 <_vfprintf_r+0x1d38>
  102b7c:	e59d304c 	ldr	r3, [sp, #76]	; 0x4c
  102b80:	e3530000 	cmp	r3, #0
  102b84:	d2637002 	rsble	r7, r3, #2
  102b88:	e59d3050 	ldr	r3, [sp, #80]	; 0x50
  102b8c:	c3a07001 	movgt	r7, #1
  102b90:	e0873003 	add	r3, r7, r3
  102b94:	e3a07067 	mov	r7, #103	; 0x67
  102b98:	e58d3038 	str	r3, [sp, #56]	; 0x38
  102b9c:	e1c33fc3 	bic	r3, r3, r3, asr #31
  102ba0:	eafffe07 	b	1023c4 <_vfprintf_r+0x19e4>
  102ba4:	e58d803c 	str	r8, [sp, #60]	; 0x3c
  102ba8:	eafffe2d 	b	102464 <_vfprintf_r+0x1a84>
  102bac:	e59d406c 	ldr	r4, [sp, #108]	; 0x6c
  102bb0:	e28de093 	add	lr, sp, #147	; 0x93
  102bb4:	e1a0c00e 	mov	ip, lr
  102bb8:	e0c10493 	smull	r0, r1, r3, r4
  102bbc:	e1a02fc3 	asr	r2, r3, #31
  102bc0:	e0621141 	rsb	r1, r2, r1, asr #2
  102bc4:	e1a02181 	lsl	r2, r1, #3
  102bc8:	e3510009 	cmp	r1, #9
  102bcc:	e0822081 	add	r2, r2, r1, lsl #1
  102bd0:	e0622003 	rsb	r2, r2, r3
  102bd4:	e1a03001 	mov	r3, r1
  102bd8:	e2822030 	add	r2, r2, #48	; 0x30
  102bdc:	e56c2001 	strb	r2, [ip, #-1]!
  102be0:	cafffff4 	bgt	102bb8 <_vfprintf_r+0x21d8>
  102be4:	e2813030 	add	r3, r1, #48	; 0x30
  102be8:	e1a0100c 	mov	r1, ip
  102bec:	e6ef2073 	uxtb	r2, r3
  102bf0:	e5612001 	strb	r2, [r1, #-1]!
  102bf4:	e15e0001 	cmp	lr, r1
  102bf8:	9a000045 	bls	102d14 <_vfprintf_r+0x2334>
  102bfc:	e1a0300c 	mov	r3, ip
  102c00:	e28d1086 	add	r1, sp, #134	; 0x86
  102c04:	ea000000 	b	102c0c <_vfprintf_r+0x222c>
  102c08:	e4d32001 	ldrb	r2, [r3], #1
  102c0c:	e153000e 	cmp	r3, lr
  102c10:	e4c12001 	strb	r2, [r1], #1
  102c14:	1afffffb 	bne	102c08 <_vfprintf_r+0x2228>
  102c18:	e2833001 	add	r3, r3, #1
  102c1c:	e06cc003 	rsb	ip, ip, r3
  102c20:	e28d3086 	add	r3, sp, #134	; 0x86
  102c24:	e083c00c 	add	ip, r3, ip
  102c28:	eaffffb7 	b	102b0c <_vfprintf_r+0x212c>
  102c2c:	e59d308c 	ldr	r3, [sp, #140]	; 0x8c
  102c30:	eafffdc4 	b	102348 <_vfprintf_r+0x1968>
  102c34:	e59d307c 	ldr	r3, [sp, #124]	; 0x7c
  102c38:	eaffff46 	b	102958 <_vfprintf_r+0x1f78>
  102c3c:	e28d207c 	add	r2, sp, #124	; 0x7c
  102c40:	e3a03003 	mov	r3, #3
  102c44:	e59dc028 	ldr	ip, [sp, #40]	; 0x28
  102c48:	e28d008c 	add	r0, sp, #140	; 0x8c
  102c4c:	e28d1080 	add	r1, sp, #128	; 0x80
  102c50:	e58d0010 	str	r0, [sp, #16]
  102c54:	e58d2008 	str	r2, [sp, #8]
  102c58:	e3a0802d 	mov	r8, #45	; 0x2d
  102c5c:	e58d3000 	str	r3, [sp]
  102c60:	e58dc004 	str	ip, [sp, #4]
  102c64:	e59d002c 	ldr	r0, [sp, #44]	; 0x2c
  102c68:	e58d100c 	str	r1, [sp, #12]
  102c6c:	ec532b19 	vmov	r2, r3, d9
  102c70:	eb00012f 	bl	103134 <_dtoa_r>
  102c74:	e58d0048 	str	r0, [sp, #72]	; 0x48
  102c78:	eaffff28 	b	102920 <_vfprintf_r+0x1f40>
  102c7c:	e59d3028 	ldr	r3, [sp, #40]	; 0x28
  102c80:	e2834001 	add	r4, r3, #1
  102c84:	e59d304c 	ldr	r3, [sp, #76]	; 0x4c
  102c88:	e0833004 	add	r3, r3, r4
  102c8c:	e58d3038 	str	r3, [sp, #56]	; 0x38
  102c90:	e1c33fc3 	bic	r3, r3, r3, asr #31
  102c94:	eafffdca 	b	1023c4 <_vfprintf_r+0x19e4>
  102c98:	e59d3028 	ldr	r3, [sp, #40]	; 0x28
  102c9c:	e3530000 	cmp	r3, #0
  102ca0:	1a000004 	bne	102cb8 <_vfprintf_r+0x22d8>
  102ca4:	e59d301c 	ldr	r3, [sp, #28]
  102ca8:	e3130001 	tst	r3, #1
  102cac:	03a03001 	moveq	r3, #1
  102cb0:	058d3038 	streq	r3, [sp, #56]	; 0x38
  102cb4:	0afffdc2 	beq	1023c4 <_vfprintf_r+0x19e4>
  102cb8:	e59d3028 	ldr	r3, [sp, #40]	; 0x28
  102cbc:	e2833002 	add	r3, r3, #2
  102cc0:	e58d3038 	str	r3, [sp, #56]	; 0x38
  102cc4:	e1c33fc3 	bic	r3, r3, r3, asr #31
  102cc8:	eafffdbd 	b	1023c4 <_vfprintf_r+0x19e4>
  102ccc:	e59d301c 	ldr	r3, [sp, #28]
  102cd0:	e2133001 	ands	r3, r3, #1
  102cd4:	1affff96 	bne	102b34 <_vfprintf_r+0x2154>
  102cd8:	e58d304c 	str	r3, [sp, #76]	; 0x4c
  102cdc:	e59d3038 	ldr	r3, [sp, #56]	; 0x38
  102ce0:	e1c33fc3 	bic	r3, r3, r3, asr #31
  102ce4:	eafffdb6 	b	1023c4 <_vfprintf_r+0x19e4>
  102ce8:	e59d303c 	ldr	r3, [sp, #60]	; 0x3c
  102cec:	e593c000 	ldr	ip, [r3]
  102cf0:	e1a0e00c 	mov	lr, ip
  102cf4:	e58dc028 	str	ip, [sp, #40]	; 0x28
  102cf8:	e35e0000 	cmp	lr, #0
  102cfc:	e283c004 	add	ip, r3, #4
  102d00:	e58dc03c 	str	ip, [sp, #60]	; 0x3c
  102d04:	e5d63001 	ldrb	r3, [r6, #1]
  102d08:	e1a06000 	mov	r6, r0
  102d0c:	aafff795 	bge	100b68 <_vfprintf_r+0x188>
  102d10:	eafff792 	b	100b60 <_vfprintf_r+0x180>
  102d14:	e28dc086 	add	ip, sp, #134	; 0x86
  102d18:	eaffff7b 	b	102b0c <_vfprintf_r+0x212c>
  102d1c:	e59d4028 	ldr	r4, [sp, #40]	; 0x28
  102d20:	eaffff0e 	b	102960 <_vfprintf_r+0x1f80>
  102d24:	0010a128 	.word	0x0010a128

00102d28 <vfprintf>:
  102d28:	e92d4070 	push	{r4, r5, r6, lr}
  102d2c:	e1a05001 	mov	r5, r1
  102d30:	e1a06002 	mov	r6, r2
  102d34:	e1a04000 	mov	r4, r0
  102d38:	eb00099e 	bl	1053b8 <__getreent>
  102d3c:	e1a03006 	mov	r3, r6
  102d40:	e1a02005 	mov	r2, r5
  102d44:	e1a01004 	mov	r1, r4
  102d48:	e8bd4070 	pop	{r4, r5, r6, lr}
  102d4c:	eafff723 	b	1009e0 <_vfprintf_r>

00102d50 <__sbprintf>:
  102d50:	e92d41f0 	push	{r4, r5, r6, r7, r8, lr}
  102d54:	e1a04001 	mov	r4, r1
  102d58:	e1d110bc 	ldrh	r1, [r1, #12]
  102d5c:	e1a07000 	mov	r7, r0
  102d60:	e1a08003 	mov	r8, r3
  102d64:	e1a06002 	mov	r6, r2
  102d68:	e1d4c0be 	ldrh	ip, [r4, #14]
  102d6c:	e24dde46 	sub	sp, sp, #1120	; 0x460
  102d70:	e5940064 	ldr	r0, [r4, #100]	; 0x64
  102d74:	e24dd008 	sub	sp, sp, #8
  102d78:	e594301c 	ldr	r3, [r4, #28]
  102d7c:	e3c11002 	bic	r1, r1, #2
  102d80:	e5942024 	ldr	r2, [r4, #36]	; 0x24
  102d84:	e1cd10bc 	strh	r1, [sp, #12]
  102d88:	e3a01b01 	mov	r1, #1024	; 0x400
  102d8c:	e1cdc0be 	strh	ip, [sp, #14]
  102d90:	e28dc068 	add	ip, sp, #104	; 0x68
  102d94:	e58d0064 	str	r0, [sp, #100]	; 0x64
  102d98:	e28d0058 	add	r0, sp, #88	; 0x58
  102d9c:	e58d301c 	str	r3, [sp, #28]
  102da0:	e3a03000 	mov	r3, #0
  102da4:	e58d2024 	str	r2, [sp, #36]	; 0x24
  102da8:	e58dc000 	str	ip, [sp]
  102dac:	e58dc010 	str	ip, [sp, #16]
  102db0:	e58d1008 	str	r1, [sp, #8]
  102db4:	e58d1014 	str	r1, [sp, #20]
  102db8:	e58d3018 	str	r3, [sp, #24]
  102dbc:	eb001c30 	bl	109e84 <__generic_gxx_recursive_mutex_init_function>
  102dc0:	e1a02006 	mov	r2, r6
  102dc4:	e1a03008 	mov	r3, r8
  102dc8:	e1a0100d 	mov	r1, sp
  102dcc:	e1a00007 	mov	r0, r7
  102dd0:	ebfff702 	bl	1009e0 <_vfprintf_r>
  102dd4:	e2506000 	subs	r6, r0, #0
  102dd8:	ba000004 	blt	102df0 <__sbprintf+0xa0>
  102ddc:	e1a0100d 	mov	r1, sp
  102de0:	e1a00007 	mov	r0, r7
  102de4:	eb000602 	bl	1045f4 <_fflush_r>
  102de8:	e3500000 	cmp	r0, #0
  102dec:	13e06000 	mvnne	r6, #0
  102df0:	e1dd30bc 	ldrh	r3, [sp, #12]
  102df4:	e28d0058 	add	r0, sp, #88	; 0x58
  102df8:	e3130040 	tst	r3, #64	; 0x40
  102dfc:	11d430bc 	ldrhne	r3, [r4, #12]
  102e00:	13833040 	orrne	r3, r3, #64	; 0x40
  102e04:	11c430bc 	strhne	r3, [r4, #12]
  102e08:	eb001c1f 	bl	109e8c <__generic_gxx_recursive_mutex_destroy>
  102e0c:	e1a00006 	mov	r0, r6
  102e10:	e28dde46 	add	sp, sp, #1120	; 0x460
  102e14:	e28dd008 	add	sp, sp, #8
  102e18:	e8bd81f0 	pop	{r4, r5, r6, r7, r8, pc}

00102e1c <__swsetup_r>:
  102e1c:	e92d4070 	push	{r4, r5, r6, lr}
  102e20:	e1a05000 	mov	r5, r0
  102e24:	e1a04001 	mov	r4, r1
  102e28:	eb000962 	bl	1053b8 <__getreent>
  102e2c:	e2503000 	subs	r3, r0, #0
  102e30:	0a000002 	beq	102e40 <__swsetup_r+0x24>
  102e34:	e5933038 	ldr	r3, [r3, #56]	; 0x38
  102e38:	e3530000 	cmp	r3, #0
  102e3c:	0a00002f 	beq	102f00 <__swsetup_r+0xe4>
  102e40:	e1d420bc 	ldrh	r2, [r4, #12]
  102e44:	e6ff3072 	uxth	r3, r2
  102e48:	e3130008 	tst	r3, #8
  102e4c:	0a00000b 	beq	102e80 <__swsetup_r+0x64>
  102e50:	e5940010 	ldr	r0, [r4, #16]
  102e54:	e3500000 	cmp	r0, #0
  102e58:	0a000012 	beq	102ea8 <__swsetup_r+0x8c>
  102e5c:	e2132001 	ands	r2, r3, #1
  102e60:	1a000019 	bne	102ecc <__swsetup_r+0xb0>
  102e64:	e3130002 	tst	r3, #2
  102e68:	05942014 	ldreq	r2, [r4, #20]
  102e6c:	e3500000 	cmp	r0, #0
  102e70:	e5842008 	str	r2, [r4, #8]
  102e74:	0a00001b 	beq	102ee8 <__swsetup_r+0xcc>
  102e78:	e3a00000 	mov	r0, #0
  102e7c:	e8bd8070 	pop	{r4, r5, r6, pc}
  102e80:	e3130010 	tst	r3, #16
  102e84:	0a000032 	beq	102f54 <__swsetup_r+0x138>
  102e88:	e3130004 	tst	r3, #4
  102e8c:	1a00001d 	bne	102f08 <__swsetup_r+0xec>
  102e90:	e5940010 	ldr	r0, [r4, #16]
  102e94:	e3500000 	cmp	r0, #0
  102e98:	e3822008 	orr	r2, r2, #8
  102e9c:	e6ff3072 	uxth	r3, r2
  102ea0:	e1c420bc 	strh	r2, [r4, #12]
  102ea4:	1affffec 	bne	102e5c <__swsetup_r+0x40>
  102ea8:	e2032d0a 	and	r2, r3, #640	; 0x280
  102eac:	e3520c02 	cmp	r2, #512	; 0x200
  102eb0:	0affffe9 	beq	102e5c <__swsetup_r+0x40>
  102eb4:	e1a00005 	mov	r0, r5
  102eb8:	e1a01004 	mov	r1, r4
  102ebc:	eb00097b 	bl	1054b0 <__smakebuf_r>
  102ec0:	e1d430bc 	ldrh	r3, [r4, #12]
  102ec4:	e5940010 	ldr	r0, [r4, #16]
  102ec8:	eaffffe3 	b	102e5c <__swsetup_r+0x40>
  102ecc:	e5943014 	ldr	r3, [r4, #20]
  102ed0:	e3500000 	cmp	r0, #0
  102ed4:	e3a02000 	mov	r2, #0
  102ed8:	e5842008 	str	r2, [r4, #8]
  102edc:	e2633000 	rsb	r3, r3, #0
  102ee0:	e5843018 	str	r3, [r4, #24]
  102ee4:	1affffe3 	bne	102e78 <__swsetup_r+0x5c>
  102ee8:	e1d430bc 	ldrh	r3, [r4, #12]
  102eec:	e3130080 	tst	r3, #128	; 0x80
  102ef0:	13833040 	orrne	r3, r3, #64	; 0x40
  102ef4:	13e00000 	mvnne	r0, #0
  102ef8:	11c430bc 	strhne	r3, [r4, #12]
  102efc:	e8bd8070 	pop	{r4, r5, r6, pc}
  102f00:	eb00063e 	bl	104800 <__sinit>
  102f04:	eaffffcd 	b	102e40 <__swsetup_r+0x24>
  102f08:	e5941030 	ldr	r1, [r4, #48]	; 0x30
  102f0c:	e3510000 	cmp	r1, #0
  102f10:	0a000007 	beq	102f34 <__swsetup_r+0x118>
  102f14:	e2843040 	add	r3, r4, #64	; 0x40
  102f18:	e1510003 	cmp	r1, r3
  102f1c:	0a000002 	beq	102f2c <__swsetup_r+0x110>
  102f20:	e1a00005 	mov	r0, r5
  102f24:	eb000704 	bl	104b3c <_free_r>
  102f28:	e1d420bc 	ldrh	r2, [r4, #12]
  102f2c:	e3a03000 	mov	r3, #0
  102f30:	e5843030 	str	r3, [r4, #48]	; 0x30
  102f34:	e3c22024 	bic	r2, r2, #36	; 0x24
  102f38:	e5940010 	ldr	r0, [r4, #16]
  102f3c:	e1a02802 	lsl	r2, r2, #16
  102f40:	e3a03000 	mov	r3, #0
  102f44:	e5843004 	str	r3, [r4, #4]
  102f48:	e1a02822 	lsr	r2, r2, #16
  102f4c:	e5840000 	str	r0, [r4]
  102f50:	eaffffcf 	b	102e94 <__swsetup_r+0x78>
  102f54:	e3822040 	orr	r2, r2, #64	; 0x40
  102f58:	e3a03009 	mov	r3, #9
  102f5c:	e5853000 	str	r3, [r5]
  102f60:	e3e00000 	mvn	r0, #0
  102f64:	e1c420bc 	strh	r2, [r4, #12]
  102f68:	e8bd8070 	pop	{r4, r5, r6, pc}
  102f6c:	00000000 	andeq	r0, r0, r0

00102f70 <quorem>:
  102f70:	e92d4ff0 	push	{r4, r5, r6, r7, r8, r9, sl, fp, lr}
  102f74:	e24dd00c 	sub	sp, sp, #12
  102f78:	e5903010 	ldr	r3, [r0, #16]
  102f7c:	e5915010 	ldr	r5, [r1, #16]
  102f80:	e1550003 	cmp	r5, r3
  102f84:	c3a00000 	movgt	r0, #0
  102f88:	ca000067 	bgt	10312c <quorem+0x1bc>
  102f8c:	e2455001 	sub	r5, r5, #1
  102f90:	e2814014 	add	r4, r1, #20
  102f94:	e58d1000 	str	r1, [sp]
  102f98:	e2809014 	add	r9, r0, #20
  102f9c:	e7941105 	ldr	r1, [r4, r5, lsl #2]
  102fa0:	e1a0a105 	lsl	sl, r5, #2
  102fa4:	e1a08000 	mov	r8, r0
  102fa8:	e7990105 	ldr	r0, [r9, r5, lsl #2]
  102fac:	e084700a 	add	r7, r4, sl
  102fb0:	e2811001 	add	r1, r1, #1
  102fb4:	eb001a3d 	bl	1098b0 <__aeabi_uidiv>
  102fb8:	e2506000 	subs	r6, r0, #0
  102fbc:	e089300a 	add	r3, r9, sl
  102fc0:	e58d3004 	str	r3, [sp, #4]
  102fc4:	0a00002c 	beq	10307c <quorem+0x10c>
  102fc8:	e3a0b000 	mov	fp, #0
  102fcc:	e1a0e004 	mov	lr, r4
  102fd0:	e1a0300b 	mov	r3, fp
  102fd4:	e1a0c009 	mov	ip, r9
  102fd8:	e49e1004 	ldr	r1, [lr], #4
  102fdc:	e59c0000 	ldr	r0, [ip]
  102fe0:	e157000e 	cmp	r7, lr
  102fe4:	e6ff2071 	uxth	r2, r1
  102fe8:	e1a01821 	lsr	r1, r1, #16
  102fec:	e022b296 	mla	r2, r6, r2, fp
  102ff0:	e1a0b822 	lsr	fp, r2, #16
  102ff4:	e6ff2072 	uxth	r2, r2
  102ff8:	e02bb196 	mla	fp, r6, r1, fp
  102ffc:	e0623003 	rsb	r3, r2, r3
  103000:	e6f33070 	uxtah	r3, r3, r0
  103004:	e6ff207b 	uxth	r2, fp
  103008:	e1a0b82b 	lsr	fp, fp, #16
  10300c:	e6ff1073 	uxth	r1, r3
  103010:	e0620820 	rsb	r0, r2, r0, lsr #16
  103014:	e0803843 	add	r3, r0, r3, asr #16
  103018:	e1811803 	orr	r1, r1, r3, lsl #16
  10301c:	e1a03843 	asr	r3, r3, #16
  103020:	e48c1004 	str	r1, [ip], #4
  103024:	2affffeb 	bcs	102fd8 <quorem+0x68>
  103028:	e799300a 	ldr	r3, [r9, sl]
  10302c:	e3530000 	cmp	r3, #0
  103030:	1a000011 	bne	10307c <quorem+0x10c>
  103034:	e59d2004 	ldr	r2, [sp, #4]
  103038:	e2423004 	sub	r3, r2, #4
  10303c:	e1590003 	cmp	r9, r3
  103040:	2a00000c 	bcs	103078 <quorem+0x108>
  103044:	e5123004 	ldr	r3, [r2, #-4]
  103048:	e3530000 	cmp	r3, #0
  10304c:	1a000009 	bne	103078 <quorem+0x108>
  103050:	e2423008 	sub	r3, r2, #8
  103054:	ea000002 	b	103064 <quorem+0xf4>
  103058:	e5922000 	ldr	r2, [r2]
  10305c:	e3520000 	cmp	r2, #0
  103060:	1a000004 	bne	103078 <quorem+0x108>
  103064:	e1590003 	cmp	r9, r3
  103068:	e1a02003 	mov	r2, r3
  10306c:	e2455001 	sub	r5, r5, #1
  103070:	e2433004 	sub	r3, r3, #4
  103074:	3afffff7 	bcc	103058 <quorem+0xe8>
  103078:	e5885010 	str	r5, [r8, #16]
  10307c:	e59d1000 	ldr	r1, [sp]
  103080:	e1a00008 	mov	r0, r8
  103084:	eb000e3c 	bl	10697c <__mcmp>
  103088:	e3500000 	cmp	r0, #0
  10308c:	ba000025 	blt	103128 <quorem+0x1b8>
  103090:	e2866001 	add	r6, r6, #1
  103094:	e1a0c009 	mov	ip, r9
  103098:	e3a03000 	mov	r3, #0
  10309c:	e4940004 	ldr	r0, [r4], #4
  1030a0:	e59c1000 	ldr	r1, [ip]
  1030a4:	e1570004 	cmp	r7, r4
  1030a8:	e6ff2070 	uxth	r2, r0
  1030ac:	e1a00820 	lsr	r0, r0, #16
  1030b0:	e0622003 	rsb	r2, r2, r3
  1030b4:	e0603821 	rsb	r3, r0, r1, lsr #16
  1030b8:	e6f22071 	uxtah	r2, r2, r1
  1030bc:	e0833842 	add	r3, r3, r2, asr #16
  1030c0:	e6ff2072 	uxth	r2, r2
  1030c4:	e1821803 	orr	r1, r2, r3, lsl #16
  1030c8:	e1a03843 	asr	r3, r3, #16
  1030cc:	e48c1004 	str	r1, [ip], #4
  1030d0:	2afffff1 	bcs	10309c <quorem+0x12c>
  1030d4:	e7992105 	ldr	r2, [r9, r5, lsl #2]
  1030d8:	e0893105 	add	r3, r9, r5, lsl #2
  1030dc:	e3520000 	cmp	r2, #0
  1030e0:	1a000010 	bne	103128 <quorem+0x1b8>
  1030e4:	e2432004 	sub	r2, r3, #4
  1030e8:	e1590002 	cmp	r9, r2
  1030ec:	2a00000c 	bcs	103124 <quorem+0x1b4>
  1030f0:	e5132004 	ldr	r2, [r3, #-4]
  1030f4:	e3520000 	cmp	r2, #0
  1030f8:	1a000009 	bne	103124 <quorem+0x1b4>
  1030fc:	e2433008 	sub	r3, r3, #8
  103100:	ea000002 	b	103110 <quorem+0x1a0>
  103104:	e5922000 	ldr	r2, [r2]
  103108:	e3520000 	cmp	r2, #0
  10310c:	1a000004 	bne	103124 <quorem+0x1b4>
  103110:	e1590003 	cmp	r9, r3
  103114:	e1a02003 	mov	r2, r3
  103118:	e2455001 	sub	r5, r5, #1
  10311c:	e2433004 	sub	r3, r3, #4
  103120:	3afffff7 	bcc	103104 <quorem+0x194>
  103124:	e5885010 	str	r5, [r8, #16]
  103128:	e1a00006 	mov	r0, r6
  10312c:	e28dd00c 	add	sp, sp, #12
  103130:	e8bd8ff0 	pop	{r4, r5, r6, r7, r8, r9, sl, fp, pc}

00103134 <_dtoa_r>:
  103134:	e590c040 	ldr	ip, [r0, #64]	; 0x40
  103138:	e92d4ff0 	push	{r4, r5, r6, r7, r8, r9, sl, fp, lr}
  10313c:	e1a04000 	mov	r4, r0
  103140:	ed2d8b02 	vpush	{d8}
  103144:	e24dd03c 	sub	sp, sp, #60	; 0x3c
  103148:	e35c0000 	cmp	ip, #0
  10314c:	e1a0a002 	mov	sl, r2
  103150:	e1a0b003 	mov	fp, r3
  103154:	e59d6074 	ldr	r6, [sp, #116]	; 0x74
  103158:	0a000008 	beq	103180 <_dtoa_r+0x4c>
  10315c:	e5902044 	ldr	r2, [r0, #68]	; 0x44
  103160:	e3a03001 	mov	r3, #1
  103164:	e1a0100c 	mov	r1, ip
  103168:	e58c2004 	str	r2, [ip, #4]
  10316c:	e1a03213 	lsl	r3, r3, r2
  103170:	e58c3008 	str	r3, [ip, #8]
  103174:	eb000c54 	bl	1062cc <_Bfree>
  103178:	e3a03000 	mov	r3, #0
  10317c:	e5843040 	str	r3, [r4, #64]	; 0x40
  103180:	e35b0000 	cmp	fp, #0
  103184:	e1a0500b 	mov	r5, fp
  103188:	b3a03001 	movlt	r3, #1
  10318c:	a3a03000 	movge	r3, #0
  103190:	b5863000 	strlt	r3, [r6]
  103194:	b3cb5102 	biclt	r5, fp, #-2147483648	; 0x80000000
  103198:	a5863000 	strge	r3, [r6]
  10319c:	e3a03000 	mov	r3, #0
  1031a0:	e1a02003 	mov	r2, r3
  1031a4:	e3473ff0 	movt	r3, #32752	; 0x7ff0
  1031a8:	e3472ff0 	movt	r2, #32752	; 0x7ff0
  1031ac:	e0033005 	and	r3, r3, r5
  1031b0:	b1a0b005 	movlt	fp, r5
  1031b4:	e1530002 	cmp	r3, r2
  1031b8:	0a000010 	beq	103200 <_dtoa_r+0xcc>
  1031bc:	ec4bab18 	vmov	d8, sl, fp
  1031c0:	eeb58b40 	vcmp.f64	d8, #0.0
  1031c4:	eef1fa10 	vmrs	APSR_nzcv, fpscr
  1031c8:	1a000020 	bne	103250 <_dtoa_r+0x11c>
  1031cc:	e59d3078 	ldr	r3, [sp, #120]	; 0x78
  1031d0:	e59d2070 	ldr	r2, [sp, #112]	; 0x70
  1031d4:	e3530000 	cmp	r3, #0
  1031d8:	e3a03001 	mov	r3, #1
  1031dc:	e5823000 	str	r3, [r2]
  1031e0:	0a00008f 	beq	103424 <_dtoa_r+0x2f0>
  1031e4:	e59f83b4 	ldr	r8, [pc, #948]	; 1035a0 <_dtoa_r+0x46c>
  1031e8:	e59d3078 	ldr	r3, [sp, #120]	; 0x78
  1031ec:	e2480001 	sub	r0, r8, #1
  1031f0:	e5838000 	str	r8, [r3]
  1031f4:	e28dd03c 	add	sp, sp, #60	; 0x3c
  1031f8:	ecbd8b02 	vpop	{d8}
  1031fc:	e8bd8ff0 	pop	{r4, r5, r6, r7, r8, r9, sl, fp, pc}
  103200:	e59d2070 	ldr	r2, [sp, #112]	; 0x70
  103204:	e35a0000 	cmp	sl, #0
  103208:	e302370f 	movw	r3, #9999	; 0x270f
  10320c:	130a8188 	movwne	r8, #41352	; 0xa188
  103210:	13408010 	movtne	r8, #16
  103214:	e5823000 	str	r3, [r2]
  103218:	0a00006d 	beq	1033d4 <_dtoa_r+0x2a0>
  10321c:	e59d3078 	ldr	r3, [sp, #120]	; 0x78
  103220:	e3530000 	cmp	r3, #0
  103224:	0a000276 	beq	103c04 <_dtoa_r+0xad0>
  103228:	e5d83003 	ldrb	r3, [r8, #3]
  10322c:	e1a00008 	mov	r0, r8
  103230:	e59d2078 	ldr	r2, [sp, #120]	; 0x78
  103234:	e3530000 	cmp	r3, #0
  103238:	12883008 	addne	r3, r8, #8
  10323c:	02883003 	addeq	r3, r8, #3
  103240:	e5823000 	str	r3, [r2]
  103244:	e28dd03c 	add	sp, sp, #60	; 0x3c
  103248:	ecbd8b02 	vpop	{d8}
  10324c:	e8bd8ff0 	pop	{r4, r5, r6, r7, r8, r9, sl, fp, pc}
  103250:	e28d2030 	add	r2, sp, #48	; 0x30
  103254:	e28d3034 	add	r3, sp, #52	; 0x34
  103258:	e58d2004 	str	r2, [sp, #4]
  10325c:	e1a00004 	mov	r0, r4
  103260:	e58d3000 	str	r3, [sp]
  103264:	e1a0200a 	mov	r2, sl
  103268:	e1a0300b 	mov	r3, fp
  10326c:	eb000e90 	bl	106cb4 <__d2b>
  103270:	e1b09a25 	lsrs	r9, r5, #20
  103274:	e1a07000 	mov	r7, r0
  103278:	1a00005e 	bne	1033f8 <_dtoa_r+0x2c4>
  10327c:	e59d9030 	ldr	r9, [sp, #48]	; 0x30
  103280:	e3a00001 	mov	r0, #1
  103284:	e59d1034 	ldr	r1, [sp, #52]	; 0x34
  103288:	e58d0014 	str	r0, [sp, #20]
  10328c:	e0891001 	add	r1, r9, r1
  103290:	e2813e43 	add	r3, r1, #1072	; 0x430
  103294:	e2833002 	add	r3, r3, #2
  103298:	e3530020 	cmp	r3, #32
  10329c:	c2633040 	rsbgt	r3, r3, #64	; 0x40
  1032a0:	c2812e41 	addgt	r2, r1, #1040	; 0x410
  1032a4:	c1a05315 	lslgt	r5, r5, r3
  1032a8:	d2633020 	rsble	r3, r3, #32
  1032ac:	c2822002 	addgt	r2, r2, #2
  1032b0:	d1a0331a 	lslle	r3, sl, r3
  1032b4:	c185323a 	orrgt	r3, r5, sl, lsr r2
  1032b8:	e2411001 	sub	r1, r1, #1
  1032bc:	ee073a90 	vmov	s15, r3
  1032c0:	eef80b67 	vcvt.f64.u32	d16, s15
  1032c4:	ec532b30 	vmov	r2, r3, d16
  1032c8:	e243361f 	sub	r3, r3, #32505856	; 0x1f00000
  1032cc:	ec432b30 	vmov	d16, r2, r3
  1032d0:	eef71b08 	vmov.f64	d17, #120	; 0x3fc00000  1.5
  1032d4:	eddf3bab 	vldr	d19, [pc, #684]	; 103588 <_dtoa_r+0x454>
  1032d8:	ee701be1 	vsub.f64	d17, d16, d17
  1032dc:	eddf0bab 	vldr	d16, [pc, #684]	; 103590 <_dtoa_r+0x45c>
  1032e0:	ee071a90 	vmov	s15, r1
  1032e4:	eddf2bab 	vldr	d18, [pc, #684]	; 103598 <_dtoa_r+0x464>
  1032e8:	ee410ba3 	vmla.f64	d16, d17, d19
  1032ec:	eef81be7 	vcvt.f64.s32	d17, s15
  1032f0:	ee410ba2 	vmla.f64	d16, d17, d18
  1032f4:	eefd7be0 	vcvt.s32.f64	s15, d16
  1032f8:	eef50bc0 	vcmpe.f64	d16, #0.0
  1032fc:	eef1fa10 	vmrs	APSR_nzcv, fpscr
  103300:	edcd7a02 	vstr	s15, [sp, #8]
  103304:	4a000148 	bmi	10382c <_dtoa_r+0x6f8>
  103308:	e59d2008 	ldr	r2, [sp, #8]
  10330c:	e3520016 	cmp	r2, #22
  103310:	e1a03002 	mov	r3, r2
  103314:	83a03001 	movhi	r3, #1
  103318:	858d301c 	strhi	r3, [sp, #28]
  10331c:	8a00000a 	bhi	10334c <_dtoa_r+0x218>
  103320:	e30a31b0 	movw	r3, #41392	; 0xa1b0
  103324:	ec4bab31 	vmov	d17, sl, fp
  103328:	e3403010 	movt	r3, #16
  10332c:	e0833182 	add	r3, r3, r2, lsl #3
  103330:	edd30b00 	vldr	d16, [r3]
  103334:	eef40be1 	vcmpe.f64	d16, d17
  103338:	eef1fa10 	vmrs	APSR_nzcv, fpscr
  10333c:	c2423001 	subgt	r3, r2, #1
  103340:	c58d3008 	strgt	r3, [sp, #8]
  103344:	e3a03000 	mov	r3, #0
  103348:	e58d301c 	str	r3, [sp, #28]
  10334c:	e59d3008 	ldr	r3, [sp, #8]
  103350:	e0619009 	rsb	r9, r1, r9
  103354:	e2599001 	subs	r9, r9, #1
  103358:	42696000 	rsbmi	r6, r9, #0
  10335c:	53a06000 	movpl	r6, #0
  103360:	43a09000 	movmi	r9, #0
  103364:	e3530000 	cmp	r3, #0
  103368:	b59d3008 	ldrlt	r3, [sp, #8]
  10336c:	a0899003 	addge	r9, r9, r3
  103370:	a58d3020 	strge	r3, [sp, #32]
  103374:	a3a03000 	movge	r3, #0
  103378:	a58d300c 	strge	r3, [sp, #12]
  10337c:	b0636006 	rsblt	r6, r3, r6
  103380:	b2633000 	rsblt	r3, r3, #0
  103384:	b58d300c 	strlt	r3, [sp, #12]
  103388:	b3a03000 	movlt	r3, #0
  10338c:	b58d3020 	strlt	r3, [sp, #32]
  103390:	e59d3068 	ldr	r3, [sp, #104]	; 0x68
  103394:	e3530009 	cmp	r3, #9
  103398:	8a000024 	bhi	103430 <_dtoa_r+0x2fc>
  10339c:	e3530005 	cmp	r3, #5
  1033a0:	d3a05001 	movle	r5, #1
  1033a4:	c3a05000 	movgt	r5, #0
  1033a8:	c2433004 	subgt	r3, r3, #4
  1033ac:	c58d3068 	strgt	r3, [sp, #104]	; 0x68
  1033b0:	e59d3068 	ldr	r3, [sp, #104]	; 0x68
  1033b4:	e2433002 	sub	r3, r3, #2
  1033b8:	e3530003 	cmp	r3, #3
  1033bc:	979ff103 	ldrls	pc, [pc, r3, lsl #2]
  1033c0:	ea000120 	b	103848 <_dtoa_r+0x714>
  1033c4:	00103b30 	.word	0x00103b30
  1033c8:	00103914 	.word	0x00103914
  1033cc:	00103b60 	.word	0x00103b60
  1033d0:	00103dc0 	.word	0x00103dc0
  1033d4:	e30a3188 	movw	r3, #41352	; 0xa188
  1033d8:	e30a217c 	movw	r2, #41340	; 0xa17c
  1033dc:	e7f30055 	ubfx	r0, r5, #0, #20
  1033e0:	e3403010 	movt	r3, #16
  1033e4:	e3500000 	cmp	r0, #0
  1033e8:	e3402010 	movt	r2, #16
  1033ec:	11a08003 	movne	r8, r3
  1033f0:	01a08002 	moveq	r8, r2
  1033f4:	eaffff88 	b	10321c <_dtoa_r+0xe8>
  1033f8:	e1a0300b 	mov	r3, fp
  1033fc:	e2491fff 	sub	r1, r9, #1020	; 0x3fc
  103400:	e7f30053 	ubfx	r0, r3, #0, #20
  103404:	e1a0200a 	mov	r2, sl
  103408:	e38035ff 	orr	r3, r0, #1069547520	; 0x3fc00000
  10340c:	e3a00000 	mov	r0, #0
  103410:	e2411003 	sub	r1, r1, #3
  103414:	e59d9030 	ldr	r9, [sp, #48]	; 0x30
  103418:	e3833603 	orr	r3, r3, #3145728	; 0x300000
  10341c:	e58d0014 	str	r0, [sp, #20]
  103420:	eaffffa9 	b	1032cc <_dtoa_r+0x198>
  103424:	e30a0178 	movw	r0, #41336	; 0xa178
  103428:	e3400010 	movt	r0, #16
  10342c:	eaffff70 	b	1031f4 <_dtoa_r+0xc0>
  103430:	e3a01000 	mov	r1, #0
  103434:	e3e03000 	mvn	r3, #0
  103438:	e1a00004 	mov	r0, r4
  10343c:	e5841044 	str	r1, [r4, #68]	; 0x44
  103440:	e1a08003 	mov	r8, r3
  103444:	e58d3024 	str	r3, [sp, #36]	; 0x24
  103448:	e58d1068 	str	r1, [sp, #104]	; 0x68
  10344c:	eb000b7b 	bl	106240 <_Balloc>
  103450:	e59d3068 	ldr	r3, [sp, #104]	; 0x68
  103454:	e1a05000 	mov	r5, r0
  103458:	e5840040 	str	r0, [r4, #64]	; 0x40
  10345c:	e58d8010 	str	r8, [sp, #16]
  103460:	e58d306c 	str	r3, [sp, #108]	; 0x6c
  103464:	e3a03001 	mov	r3, #1
  103468:	e58d3018 	str	r3, [sp, #24]
  10346c:	e59d3034 	ldr	r3, [sp, #52]	; 0x34
  103470:	e59d1008 	ldr	r1, [sp, #8]
  103474:	e1e02003 	mvn	r2, r3
  103478:	e1a02fa2 	lsr	r2, r2, #31
  10347c:	e351000e 	cmp	r1, #14
  103480:	c3a02000 	movgt	r2, #0
  103484:	e3520000 	cmp	r2, #0
  103488:	0a000045 	beq	1035a4 <_dtoa_r+0x470>
  10348c:	e59d1010 	ldr	r1, [sp, #16]
  103490:	e30a31b0 	movw	r3, #41392	; 0xa1b0
  103494:	e59d006c 	ldr	r0, [sp, #108]	; 0x6c
  103498:	e3403010 	movt	r3, #16
  10349c:	e3510000 	cmp	r1, #0
  1034a0:	e1a02001 	mov	r2, r1
  1034a4:	c3a02000 	movgt	r2, #0
  1034a8:	d3a02001 	movle	r2, #1
  1034ac:	e0122fa0 	ands	r2, r2, r0, lsr #31
  1034b0:	e59d2008 	ldr	r2, [sp, #8]
  1034b4:	e0833182 	add	r3, r3, r2, lsl #3
  1034b8:	edd32b00 	vldr	d18, [r3]
  1034bc:	1a0001aa 	bne	103b6c <_dtoa_r+0xa38>
  1034c0:	ec4bab30 	vmov	d16, sl, fp
  1034c4:	e3510001 	cmp	r1, #1
  1034c8:	e2852001 	add	r2, r5, #1
  1034cc:	eec01ba2 	vdiv.f64	d17, d16, d18
  1034d0:	eefd7be1 	vcvt.s32.f64	s15, d17
  1034d4:	eef81be7 	vcvt.f64.s32	d17, s15
  1034d8:	ee173a90 	vmov	r3, s15
  1034dc:	e2833030 	add	r3, r3, #48	; 0x30
  1034e0:	e5c53000 	strb	r3, [r5]
  1034e4:	ee410be2 	vmls.f64	d16, d17, d18
  1034e8:	0a000014 	beq	103540 <_dtoa_r+0x40c>
  1034ec:	eef23b04 	vmov.f64	d19, #36	; 0x41200000  10.0
  1034f0:	ee600ba3 	vmul.f64	d16, d16, d19
  1034f4:	eef50b40 	vcmp.f64	d16, #0.0
  1034f8:	eef1fa10 	vmrs	APSR_nzcv, fpscr
  1034fc:	159d1010 	ldrne	r1, [sp, #16]
  103500:	1a000004 	bne	103518 <_dtoa_r+0x3e4>
  103504:	ea0002ff 	b	104108 <_dtoa_r+0xfd4>
  103508:	ee600ba3 	vmul.f64	d16, d16, d19
  10350c:	eef50b40 	vcmp.f64	d16, #0.0
  103510:	eef1fa10 	vmrs	APSR_nzcv, fpscr
  103514:	0a0002fb 	beq	104108 <_dtoa_r+0xfd4>
  103518:	eec01ba2 	vdiv.f64	d17, d16, d18
  10351c:	eefd7be1 	vcvt.s32.f64	s15, d17
  103520:	ee173a90 	vmov	r3, s15
  103524:	e2833030 	add	r3, r3, #48	; 0x30
  103528:	eef81be7 	vcvt.f64.s32	d17, s15
  10352c:	e4c23001 	strb	r3, [r2], #1
  103530:	e0653002 	rsb	r3, r5, r2
  103534:	e1510003 	cmp	r1, r3
  103538:	ee410be2 	vmls.f64	d16, d17, d18
  10353c:	1afffff1 	bne	103508 <_dtoa_r+0x3d4>
  103540:	ee700ba0 	vadd.f64	d16, d16, d16
  103544:	eef42be0 	vcmpe.f64	d18, d16
  103548:	eef1fa10 	vmrs	APSR_nzcv, fpscr
  10354c:	5a000365 	bpl	1042e8 <_dtoa_r+0x11b4>
  103550:	e5523001 	ldrb	r3, [r2, #-1]
  103554:	e1a08005 	mov	r8, r5
  103558:	e1a05002 	mov	r5, r2
  10355c:	e2452001 	sub	r2, r5, #1
  103560:	ea000002 	b	103570 <_dtoa_r+0x43c>
  103564:	e1520008 	cmp	r2, r8
  103568:	0a0002fc 	beq	104160 <_dtoa_r+0x102c>
  10356c:	e5723001 	ldrb	r3, [r2, #-1]!
  103570:	e3530039 	cmp	r3, #57	; 0x39
  103574:	e2825001 	add	r5, r2, #1
  103578:	0afffff9 	beq	103564 <_dtoa_r+0x430>
  10357c:	e2833001 	add	r3, r3, #1
  103580:	e5c23000 	strb	r3, [r2]
  103584:	ea000096 	b	1037e4 <_dtoa_r+0x6b0>
  103588:	636f4361 	.word	0x636f4361
  10358c:	3fd287a7 	.word	0x3fd287a7
  103590:	8b60c8b3 	.word	0x8b60c8b3
  103594:	3fc68a28 	.word	0x3fc68a28
  103598:	509f79fb 	.word	0x509f79fb
  10359c:	3fd34413 	.word	0x3fd34413
  1035a0:	0010a179 	.word	0x0010a179
  1035a4:	e59d2018 	ldr	r2, [sp, #24]
  1035a8:	e3520000 	cmp	r2, #0
  1035ac:	1a0000bb 	bne	1038a0 <_dtoa_r+0x76c>
  1035b0:	e59d300c 	ldr	r3, [sp, #12]
  1035b4:	e1a08006 	mov	r8, r6
  1035b8:	e58d3028 	str	r3, [sp, #40]	; 0x28
  1035bc:	e59d3018 	ldr	r3, [sp, #24]
  1035c0:	e58d3014 	str	r3, [sp, #20]
  1035c4:	e3580000 	cmp	r8, #0
  1035c8:	c3590000 	cmpgt	r9, #0
  1035cc:	da000005 	ble	1035e8 <_dtoa_r+0x4b4>
  1035d0:	e1580009 	cmp	r8, r9
  1035d4:	b1a03008 	movlt	r3, r8
  1035d8:	a1a03009 	movge	r3, r9
  1035dc:	e0636006 	rsb	r6, r3, r6
  1035e0:	e0638008 	rsb	r8, r3, r8
  1035e4:	e0639009 	rsb	r9, r3, r9
  1035e8:	e59d300c 	ldr	r3, [sp, #12]
  1035ec:	e3530000 	cmp	r3, #0
  1035f0:	da000018 	ble	103658 <_dtoa_r+0x524>
  1035f4:	e59d2018 	ldr	r2, [sp, #24]
  1035f8:	e3520000 	cmp	r2, #0
  1035fc:	0a0001cd 	beq	103d38 <_dtoa_r+0xc04>
  103600:	e59d2028 	ldr	r2, [sp, #40]	; 0x28
  103604:	e3520000 	cmp	r2, #0
  103608:	0a0001ca 	beq	103d38 <_dtoa_r+0xc04>
  10360c:	e59d1014 	ldr	r1, [sp, #20]
  103610:	e1a00004 	mov	r0, r4
  103614:	eb000c5b 	bl	106788 <__pow5mult>
  103618:	e1a02007 	mov	r2, r7
  10361c:	e1a01000 	mov	r1, r0
  103620:	e58d0014 	str	r0, [sp, #20]
  103624:	e1a00004 	mov	r0, r4
  103628:	eb000be0 	bl	1065b0 <__multiply>
  10362c:	e1a01007 	mov	r1, r7
  103630:	e58d002c 	str	r0, [sp, #44]	; 0x2c
  103634:	e1a00004 	mov	r0, r4
  103638:	eb000b23 	bl	1062cc <_Bfree>
  10363c:	e59d300c 	ldr	r3, [sp, #12]
  103640:	e59d2028 	ldr	r2, [sp, #40]	; 0x28
  103644:	e0533002 	subs	r3, r3, r2
  103648:	e58d300c 	str	r3, [sp, #12]
  10364c:	e59d302c 	ldr	r3, [sp, #44]	; 0x2c
  103650:	e1a07003 	mov	r7, r3
  103654:	1a0001b7 	bne	103d38 <_dtoa_r+0xc04>
  103658:	e3a01001 	mov	r1, #1
  10365c:	e1a00004 	mov	r0, r4
  103660:	eb000bca 	bl	106590 <__i2b>
  103664:	e59d3020 	ldr	r3, [sp, #32]
  103668:	e58d000c 	str	r0, [sp, #12]
  10366c:	e3530000 	cmp	r3, #0
  103670:	0a0001a9 	beq	103d1c <_dtoa_r+0xbe8>
  103674:	e1a01000 	mov	r1, r0
  103678:	e1a02003 	mov	r2, r3
  10367c:	e1a00004 	mov	r0, r4
  103680:	eb000c40 	bl	106788 <__pow5mult>
  103684:	e59d3068 	ldr	r3, [sp, #104]	; 0x68
  103688:	e58d000c 	str	r0, [sp, #12]
  10368c:	e3530001 	cmp	r3, #1
  103690:	ca0001f5 	bgt	103e6c <_dtoa_r+0xd38>
  103694:	e35a0000 	cmp	sl, #0
  103698:	1a0001f3 	bne	103e6c <_dtoa_r+0xd38>
  10369c:	e7f3305b 	ubfx	r3, fp, #0, #20
  1036a0:	e3530000 	cmp	r3, #0
  1036a4:	13a03000 	movne	r3, #0
  1036a8:	158d3028 	strne	r3, [sp, #40]	; 0x28
  1036ac:	1a000007 	bne	1036d0 <_dtoa_r+0x59c>
  1036b0:	e3cb3102 	bic	r3, fp, #-2147483648	; 0x80000000
  1036b4:	e1a03a23 	lsr	r3, r3, #20
  1036b8:	e1a03a03 	lsl	r3, r3, #20
  1036bc:	e3530000 	cmp	r3, #0
  1036c0:	12866001 	addne	r6, r6, #1
  1036c4:	12899001 	addne	r9, r9, #1
  1036c8:	13a03001 	movne	r3, #1
  1036cc:	e58d3028 	str	r3, [sp, #40]	; 0x28
  1036d0:	e59d3020 	ldr	r3, [sp, #32]
  1036d4:	e3530000 	cmp	r3, #0
  1036d8:	03a00001 	moveq	r0, #1
  1036dc:	1a0001e4 	bne	103e74 <_dtoa_r+0xd40>
  1036e0:	e0800009 	add	r0, r0, r9
  1036e4:	e210001f 	ands	r0, r0, #31
  1036e8:	0a000147 	beq	103c0c <_dtoa_r+0xad8>
  1036ec:	e2603020 	rsb	r3, r0, #32
  1036f0:	e3530004 	cmp	r3, #4
  1036f4:	da000324 	ble	10438c <_dtoa_r+0x1258>
  1036f8:	e260001c 	rsb	r0, r0, #28
  1036fc:	e0866000 	add	r6, r6, r0
  103700:	e0888000 	add	r8, r8, r0
  103704:	e0899000 	add	r9, r9, r0
  103708:	e3560000 	cmp	r6, #0
  10370c:	da000004 	ble	103724 <_dtoa_r+0x5f0>
  103710:	e1a01007 	mov	r1, r7
  103714:	e1a02006 	mov	r2, r6
  103718:	e1a00004 	mov	r0, r4
  10371c:	eb000c58 	bl	106884 <__lshift>
  103720:	e1a07000 	mov	r7, r0
  103724:	e3590000 	cmp	r9, #0
  103728:	da000004 	ble	103740 <_dtoa_r+0x60c>
  10372c:	e1a02009 	mov	r2, r9
  103730:	e59d100c 	ldr	r1, [sp, #12]
  103734:	e1a00004 	mov	r0, r4
  103738:	eb000c51 	bl	106884 <__lshift>
  10373c:	e58d000c 	str	r0, [sp, #12]
  103740:	e59d301c 	ldr	r3, [sp, #28]
  103744:	e3530000 	cmp	r3, #0
  103748:	1a0001d0 	bne	103e90 <_dtoa_r+0xd5c>
  10374c:	e59d3010 	ldr	r3, [sp, #16]
  103750:	e59d2068 	ldr	r2, [sp, #104]	; 0x68
  103754:	e3530000 	cmp	r3, #0
  103758:	d3a03001 	movle	r3, #1
  10375c:	c3a03000 	movgt	r3, #0
  103760:	e3520002 	cmp	r2, #2
  103764:	d3a03000 	movle	r3, #0
  103768:	e3530000 	cmp	r3, #0
  10376c:	0a00012b 	beq	103c20 <_dtoa_r+0xaec>
  103770:	e59d3010 	ldr	r3, [sp, #16]
  103774:	e3530000 	cmp	r3, #0
  103778:	1a00011c 	bne	103bf0 <_dtoa_r+0xabc>
  10377c:	e59d100c 	ldr	r1, [sp, #12]
  103780:	e3a02005 	mov	r2, #5
  103784:	e1a00004 	mov	r0, r4
  103788:	eb000ad6 	bl	1062e8 <__multadd>
  10378c:	e1a01000 	mov	r1, r0
  103790:	e58d000c 	str	r0, [sp, #12]
  103794:	e1a00007 	mov	r0, r7
  103798:	eb000c77 	bl	10697c <__mcmp>
  10379c:	e3500000 	cmp	r0, #0
  1037a0:	c1a08005 	movgt	r8, r5
  1037a4:	da000111 	ble	103bf0 <_dtoa_r+0xabc>
  1037a8:	e59d2008 	ldr	r2, [sp, #8]
  1037ac:	e2885001 	add	r5, r8, #1
  1037b0:	e3a03031 	mov	r3, #49	; 0x31
  1037b4:	e5c83000 	strb	r3, [r8]
  1037b8:	e2822001 	add	r2, r2, #1
  1037bc:	e58d2008 	str	r2, [sp, #8]
  1037c0:	e59d100c 	ldr	r1, [sp, #12]
  1037c4:	e1a00004 	mov	r0, r4
  1037c8:	eb000abf 	bl	1062cc <_Bfree>
  1037cc:	e59d3014 	ldr	r3, [sp, #20]
  1037d0:	e3530000 	cmp	r3, #0
  1037d4:	0a000002 	beq	1037e4 <_dtoa_r+0x6b0>
  1037d8:	e59d1014 	ldr	r1, [sp, #20]
  1037dc:	e1a00004 	mov	r0, r4
  1037e0:	eb000ab9 	bl	1062cc <_Bfree>
  1037e4:	e1a01007 	mov	r1, r7
  1037e8:	e1a00004 	mov	r0, r4
  1037ec:	eb000ab6 	bl	1062cc <_Bfree>
  1037f0:	e59d3078 	ldr	r3, [sp, #120]	; 0x78
  1037f4:	e3a02000 	mov	r2, #0
  1037f8:	e5c52000 	strb	r2, [r5]
  1037fc:	e59d2070 	ldr	r2, [sp, #112]	; 0x70
  103800:	e3530000 	cmp	r3, #0
  103804:	e59d3008 	ldr	r3, [sp, #8]
  103808:	e2833001 	add	r3, r3, #1
  10380c:	e5823000 	str	r3, [r2]
  103810:	0a0000fb 	beq	103c04 <_dtoa_r+0xad0>
  103814:	e59d3078 	ldr	r3, [sp, #120]	; 0x78
  103818:	e1a00008 	mov	r0, r8
  10381c:	e5835000 	str	r5, [r3]
  103820:	e28dd03c 	add	sp, sp, #60	; 0x3c
  103824:	ecbd8b02 	vpop	{d8}
  103828:	e8bd8ff0 	pop	{r4, r5, r6, r7, r8, r9, sl, fp, pc}
  10382c:	eef81be7 	vcvt.f64.s32	d17, s15
  103830:	eef40b61 	vcmp.f64	d16, d17
  103834:	eef1fa10 	vmrs	APSR_nzcv, fpscr
  103838:	1e173a90 	vmovne	r3, s15
  10383c:	12433001 	subne	r3, r3, #1
  103840:	158d3008 	strne	r3, [sp, #8]
  103844:	eafffeaf 	b	103308 <_dtoa_r+0x1d4>
  103848:	e3a08000 	mov	r8, #0
  10384c:	e1a00004 	mov	r0, r4
  103850:	e5848044 	str	r8, [r4, #68]	; 0x44
  103854:	e1a01008 	mov	r1, r8
  103858:	eb000a78 	bl	106240 <_Balloc>
  10385c:	e59d2008 	ldr	r2, [sp, #8]
  103860:	e1a05000 	mov	r5, r0
  103864:	e59d3034 	ldr	r3, [sp, #52]	; 0x34
  103868:	e5840040 	str	r0, [r4, #64]	; 0x40
  10386c:	e352000e 	cmp	r2, #14
  103870:	c3a02000 	movgt	r2, #0
  103874:	d3a02001 	movle	r2, #1
  103878:	e1530008 	cmp	r3, r8
  10387c:	b3a02000 	movlt	r2, #0
  103880:	e1520008 	cmp	r2, r8
  103884:	1a0002c5 	bne	1043a0 <_dtoa_r+0x126c>
  103888:	e3e01000 	mvn	r1, #0
  10388c:	e58d206c 	str	r2, [sp, #108]	; 0x6c
  103890:	e3a02001 	mov	r2, #1
  103894:	e58d1024 	str	r1, [sp, #36]	; 0x24
  103898:	e58d1010 	str	r1, [sp, #16]
  10389c:	e58d2018 	str	r2, [sp, #24]
  1038a0:	e59d2068 	ldr	r2, [sp, #104]	; 0x68
  1038a4:	e3520001 	cmp	r2, #1
  1038a8:	da000244 	ble	1041c0 <_dtoa_r+0x108c>
  1038ac:	e59d3010 	ldr	r3, [sp, #16]
  1038b0:	e2432001 	sub	r2, r3, #1
  1038b4:	e59d300c 	ldr	r3, [sp, #12]
  1038b8:	e1530002 	cmp	r3, r2
  1038bc:	b59d300c 	ldrlt	r3, [sp, #12]
  1038c0:	a0623003 	rsbge	r3, r2, r3
  1038c4:	b58d200c 	strlt	r2, [sp, #12]
  1038c8:	b0633002 	rsblt	r3, r3, r2
  1038cc:	b59d2020 	ldrlt	r2, [sp, #32]
  1038d0:	b0823003 	addlt	r3, r2, r3
  1038d4:	b58d3020 	strlt	r3, [sp, #32]
  1038d8:	b3a03000 	movlt	r3, #0
  1038dc:	e58d3028 	str	r3, [sp, #40]	; 0x28
  1038e0:	e59d3010 	ldr	r3, [sp, #16]
  1038e4:	e3530000 	cmp	r3, #0
  1038e8:	a59d3010 	ldrge	r3, [sp, #16]
  1038ec:	b0638006 	rsblt	r8, r3, r6
  1038f0:	a1a08006 	movge	r8, r6
  1038f4:	b3a03000 	movlt	r3, #0
  1038f8:	e3a01001 	mov	r1, #1
  1038fc:	e1a00004 	mov	r0, r4
  103900:	e0866003 	add	r6, r6, r3
  103904:	e0899003 	add	r9, r9, r3
  103908:	eb000b20 	bl	106590 <__i2b>
  10390c:	e58d0014 	str	r0, [sp, #20]
  103910:	eaffff2b 	b	1035c4 <_dtoa_r+0x490>
  103914:	e3a03000 	mov	r3, #0
  103918:	e58d3018 	str	r3, [sp, #24]
  10391c:	e59d3008 	ldr	r3, [sp, #8]
  103920:	e59d206c 	ldr	r2, [sp, #108]	; 0x6c
  103924:	e0833002 	add	r3, r3, r2
  103928:	e58d3024 	str	r3, [sp, #36]	; 0x24
  10392c:	e2833001 	add	r3, r3, #1
  103930:	e3530000 	cmp	r3, #0
  103934:	e58d3010 	str	r3, [sp, #16]
  103938:	da0001e6 	ble	1040d8 <_dtoa_r+0xfa4>
  10393c:	e59d3010 	ldr	r3, [sp, #16]
  103940:	e353000e 	cmp	r3, #14
  103944:	83a05000 	movhi	r5, #0
  103948:	92055001 	andls	r5, r5, #1
  10394c:	e1a0c003 	mov	ip, r3
  103950:	e35c0017 	cmp	ip, #23
  103954:	e3a01000 	mov	r1, #0
  103958:	e5841044 	str	r1, [r4, #68]	; 0x44
  10395c:	9a000008 	bls	103984 <_dtoa_r+0x850>
  103960:	e3a02001 	mov	r2, #1
  103964:	e3a03004 	mov	r3, #4
  103968:	e1a03083 	lsl	r3, r3, #1
  10396c:	e1a01002 	mov	r1, r2
  103970:	e2822001 	add	r2, r2, #1
  103974:	e2830014 	add	r0, r3, #20
  103978:	e150000c 	cmp	r0, ip
  10397c:	9afffff9 	bls	103968 <_dtoa_r+0x834>
  103980:	e5841044 	str	r1, [r4, #68]	; 0x44
  103984:	e1a00004 	mov	r0, r4
  103988:	eb000a2c 	bl	106240 <_Balloc>
  10398c:	e3550000 	cmp	r5, #0
  103990:	e1a08000 	mov	r8, r0
  103994:	e5840040 	str	r0, [r4, #64]	; 0x40
  103998:	0a00027e 	beq	104398 <_dtoa_r+0x1264>
  10399c:	e59d1008 	ldr	r1, [sp, #8]
  1039a0:	ec4bab35 	vmov	d21, sl, fp
  1039a4:	e3510000 	cmp	r1, #0
  1039a8:	da0000eb 	ble	103d5c <_dtoa_r+0xc28>
  1039ac:	e30a21b0 	movw	r2, #41392	; 0xa1b0
  1039b0:	e1a03241 	asr	r3, r1, #4
  1039b4:	e3402010 	movt	r2, #16
  1039b8:	e201100f 	and	r1, r1, #15
  1039bc:	e3130010 	tst	r3, #16
  1039c0:	e0822181 	add	r2, r2, r1, lsl #3
  1039c4:	1203300f 	andne	r3, r3, #15
  1039c8:	13a01003 	movne	r1, #3
  1039cc:	0ef02b65 	vmoveq.f64	d18, d21
  1039d0:	edd21b00 	vldr	d17, [r2]
  1039d4:	130a22a0 	movwne	r2, #41632	; 0xa2a0
  1039d8:	13402010 	movtne	r2, #16
  1039dc:	03a01002 	moveq	r1, #2
  1039e0:	1dd20b08 	vldrne	d16, [r2, #32]
  1039e4:	1ec52ba0 	vdivne.f64	d18, d21, d16
  1039e8:	e3530000 	cmp	r3, #0
  1039ec:	0a000008 	beq	103a14 <_dtoa_r+0x8e0>
  1039f0:	e30a22a0 	movw	r2, #41632	; 0xa2a0
  1039f4:	e3402010 	movt	r2, #16
  1039f8:	e3130001 	tst	r3, #1
  1039fc:	e2822008 	add	r2, r2, #8
  103a00:	1d520b02 	vldrne	d16, [r2, #-8]
  103a04:	12811001 	addne	r1, r1, #1
  103a08:	1e611ba0 	vmulne.f64	d17, d17, d16
  103a0c:	e1b030c3 	asrs	r3, r3, #1
  103a10:	1afffff8 	bne	1039f8 <_dtoa_r+0x8c4>
  103a14:	eec23ba1 	vdiv.f64	d19, d18, d17
  103a18:	e59d301c 	ldr	r3, [sp, #28]
  103a1c:	e3530000 	cmp	r3, #0
  103a20:	0a000003 	beq	103a34 <_dtoa_r+0x900>
  103a24:	eef70b00 	vmov.f64	d16, #112	; 0x3f800000  1.0
  103a28:	eef43be0 	vcmpe.f64	d19, d16
  103a2c:	eef1fa10 	vmrs	APSR_nzcv, fpscr
  103a30:	4a0001b7 	bmi	104114 <_dtoa_r+0xfe0>
  103a34:	ee071a90 	vmov	s15, r1
  103a38:	eef80be7 	vcvt.f64.s32	d16, s15
  103a3c:	eef12b0c 	vmov.f64	d18, #28	; 0x40e00000  7.0
  103a40:	e59d3010 	ldr	r3, [sp, #16]
  103a44:	ee402ba3 	vmla.f64	d18, d16, d19
  103a48:	e3530000 	cmp	r3, #0
  103a4c:	ec5bab32 	vmov	sl, fp, d18
  103a50:	e24bb50d 	sub	fp, fp, #54525952	; 0x3400000
  103a54:	0a000057 	beq	103bb8 <_dtoa_r+0xa84>
  103a58:	e59dc008 	ldr	ip, [sp, #8]
  103a5c:	e59d2010 	ldr	r2, [sp, #16]
  103a60:	e59d3018 	ldr	r3, [sp, #24]
  103a64:	e3530000 	cmp	r3, #0
  103a68:	e30a31b0 	movw	r3, #41392	; 0xa1b0
  103a6c:	0a0000d6 	beq	103dcc <_dtoa_r+0xc98>
  103a70:	e3403010 	movt	r3, #16
  103a74:	eef64b00 	vmov.f64	d20, #96	; 0x3f000000  0.5
  103a78:	e0833182 	add	r3, r3, r2, lsl #3
  103a7c:	eefd7be3 	vcvt.s32.f64	s15, d19
  103a80:	e2885001 	add	r5, r8, #1
  103a84:	ed532b02 	vldr	d18, [r3, #-8]
  103a88:	eef80be7 	vcvt.f64.s32	d16, s15
  103a8c:	ee173a90 	vmov	r3, s15
  103a90:	eec41ba2 	vdiv.f64	d17, d20, d18
  103a94:	e2833030 	add	r3, r3, #48	; 0x30
  103a98:	ec4bab32 	vmov	d18, sl, fp
  103a9c:	e6ef3073 	uxtb	r3, r3
  103aa0:	ee730be0 	vsub.f64	d16, d19, d16
  103aa4:	e5c83000 	strb	r3, [r8]
  103aa8:	ee712be2 	vsub.f64	d18, d17, d18
  103aac:	eef42be0 	vcmpe.f64	d18, d16
  103ab0:	eef1fa10 	vmrs	APSR_nzcv, fpscr
  103ab4:	ca00001b 	bgt	103b28 <_dtoa_r+0x9f4>
  103ab8:	eef74b00 	vmov.f64	d20, #112	; 0x3f800000  1.0
  103abc:	ee741be0 	vsub.f64	d17, d20, d16
  103ac0:	eef42be1 	vcmpe.f64	d18, d17
  103ac4:	eef1fa10 	vmrs	APSR_nzcv, fpscr
  103ac8:	ca0001cd 	bgt	104204 <_dtoa_r+0x10d0>
  103acc:	e3520001 	cmp	r2, #1
  103ad0:	c0882002 	addgt	r2, r8, r2
  103ad4:	cef23b04 	vmovgt.f64	d19, #36	; 0x41200000  10.0
  103ad8:	ca000006 	bgt	103af8 <_dtoa_r+0x9c4>
  103adc:	ea00009b 	b	103d50 <_dtoa_r+0xc1c>
  103ae0:	ee741be0 	vsub.f64	d17, d20, d16
  103ae4:	eef41be2 	vcmpe.f64	d17, d18
  103ae8:	eef1fa10 	vmrs	APSR_nzcv, fpscr
  103aec:	4a0001c4 	bmi	104204 <_dtoa_r+0x10d0>
  103af0:	e1550002 	cmp	r5, r2
  103af4:	0a000095 	beq	103d50 <_dtoa_r+0xc1c>
  103af8:	ee600ba3 	vmul.f64	d16, d16, d19
  103afc:	ee622ba3 	vmul.f64	d18, d18, d19
  103b00:	eefd7be0 	vcvt.s32.f64	s15, d16
  103b04:	eef81be7 	vcvt.f64.s32	d17, s15
  103b08:	ee173a90 	vmov	r3, s15
  103b0c:	e2833030 	add	r3, r3, #48	; 0x30
  103b10:	e6ef3073 	uxtb	r3, r3
  103b14:	ee700be1 	vsub.f64	d16, d16, d17
  103b18:	e4c53001 	strb	r3, [r5], #1
  103b1c:	eef40be2 	vcmpe.f64	d16, d18
  103b20:	eef1fa10 	vmrs	APSR_nzcv, fpscr
  103b24:	5affffed 	bpl	103ae0 <_dtoa_r+0x9ac>
  103b28:	e58dc008 	str	ip, [sp, #8]
  103b2c:	eaffff2c 	b	1037e4 <_dtoa_r+0x6b0>
  103b30:	e3a03000 	mov	r3, #0
  103b34:	e58d3018 	str	r3, [sp, #24]
  103b38:	e59d306c 	ldr	r3, [sp, #108]	; 0x6c
  103b3c:	e3530000 	cmp	r3, #0
  103b40:	da00016b 	ble	1040f4 <_dtoa_r+0xfc0>
  103b44:	e353000e 	cmp	r3, #14
  103b48:	83a05000 	movhi	r5, #0
  103b4c:	92055001 	andls	r5, r5, #1
  103b50:	e1a0c003 	mov	ip, r3
  103b54:	e58d3024 	str	r3, [sp, #36]	; 0x24
  103b58:	e58d3010 	str	r3, [sp, #16]
  103b5c:	eaffff7b 	b	103950 <_dtoa_r+0x81c>
  103b60:	e3a03001 	mov	r3, #1
  103b64:	e58d3018 	str	r3, [sp, #24]
  103b68:	eafffff2 	b	103b38 <_dtoa_r+0xa04>
  103b6c:	e59d3010 	ldr	r3, [sp, #16]
  103b70:	e3530000 	cmp	r3, #0
  103b74:	1a0001c3 	bne	104288 <_dtoa_r+0x1154>
  103b78:	eef10b04 	vmov.f64	d16, #20	; 0x40a00000  5.0
  103b7c:	ee622ba0 	vmul.f64	d18, d18, d16
  103b80:	ec4bab30 	vmov	d16, sl, fp
  103b84:	eef42be0 	vcmpe.f64	d18, d16
  103b88:	eef1fa10 	vmrs	APSR_nzcv, fpscr
  103b8c:	aa000198 	bge	1041f4 <_dtoa_r+0x10c0>
  103b90:	e58d300c 	str	r3, [sp, #12]
  103b94:	e1a08005 	mov	r8, r5
  103b98:	e58d3014 	str	r3, [sp, #20]
  103b9c:	eaffff01 	b	1037a8 <_dtoa_r+0x674>
  103ba0:	ee071a90 	vmov	s15, r1
  103ba4:	eef81be7 	vcvt.f64.s32	d17, s15
  103ba8:	eef12b0c 	vmov.f64	d18, #28	; 0x40e00000  7.0
  103bac:	ee412ba3 	vmla.f64	d18, d17, d19
  103bb0:	ec5bab32 	vmov	sl, fp, d18
  103bb4:	e24bb50d 	sub	fp, fp, #54525952	; 0x3400000
  103bb8:	eef10b04 	vmov.f64	d16, #20	; 0x40a00000  5.0
  103bbc:	ec4bab32 	vmov	d18, sl, fp
  103bc0:	ee730be0 	vsub.f64	d16, d19, d16
  103bc4:	eef40be2 	vcmpe.f64	d16, d18
  103bc8:	eef1fa10 	vmrs	APSR_nzcv, fpscr
  103bcc:	ca0000a2 	bgt	103e5c <_dtoa_r+0xd28>
  103bd0:	eef12b62 	vneg.f64	d18, d18
  103bd4:	eef40be2 	vcmpe.f64	d16, d18
  103bd8:	eef1fa10 	vmrs	APSR_nzcv, fpscr
  103bdc:	5a00005b 	bpl	103d50 <_dtoa_r+0xc1c>
  103be0:	e1a05008 	mov	r5, r8
  103be4:	e3a03000 	mov	r3, #0
  103be8:	e58d300c 	str	r3, [sp, #12]
  103bec:	e58d3014 	str	r3, [sp, #20]
  103bf0:	e59d306c 	ldr	r3, [sp, #108]	; 0x6c
  103bf4:	e1a08005 	mov	r8, r5
  103bf8:	e1e03003 	mvn	r3, r3
  103bfc:	e58d3008 	str	r3, [sp, #8]
  103c00:	eafffeee 	b	1037c0 <_dtoa_r+0x68c>
  103c04:	e1a00008 	mov	r0, r8
  103c08:	eafffd79 	b	1031f4 <_dtoa_r+0xc0>
  103c0c:	e3a0001c 	mov	r0, #28
  103c10:	e0866000 	add	r6, r6, r0
  103c14:	e0888000 	add	r8, r8, r0
  103c18:	e0899000 	add	r9, r9, r0
  103c1c:	eafffeb9 	b	103708 <_dtoa_r+0x5d4>
  103c20:	e59d3018 	ldr	r3, [sp, #24]
  103c24:	e3530000 	cmp	r3, #0
  103c28:	1a0000c8 	bne	103f50 <_dtoa_r+0xe1c>
  103c2c:	e1a06005 	mov	r6, r5
  103c30:	e59d900c 	ldr	r9, [sp, #12]
  103c34:	e59da010 	ldr	sl, [sp, #16]
  103c38:	ea000001 	b	103c44 <_dtoa_r+0xb10>
  103c3c:	eb0009a9 	bl	1062e8 <__multadd>
  103c40:	e1a07000 	mov	r7, r0
  103c44:	e1a01009 	mov	r1, r9
  103c48:	e1a00007 	mov	r0, r7
  103c4c:	ebfffcc7 	bl	102f70 <quorem>
  103c50:	e2808030 	add	r8, r0, #48	; 0x30
  103c54:	e3a03000 	mov	r3, #0
  103c58:	e4c68001 	strb	r8, [r6], #1
  103c5c:	e0652006 	rsb	r2, r5, r6
  103c60:	e152000a 	cmp	r2, sl
  103c64:	e1a01007 	mov	r1, r7
  103c68:	e3a0200a 	mov	r2, #10
  103c6c:	e1a00004 	mov	r0, r4
  103c70:	bafffff1 	blt	103c3c <_dtoa_r+0xb08>
  103c74:	e59d3010 	ldr	r3, [sp, #16]
  103c78:	e3a0a000 	mov	sl, #0
  103c7c:	e3530001 	cmp	r3, #1
  103c80:	a0856003 	addge	r6, r5, r3
  103c84:	b2856001 	addlt	r6, r5, #1
  103c88:	e1a01007 	mov	r1, r7
  103c8c:	e3a02001 	mov	r2, #1
  103c90:	e1a00004 	mov	r0, r4
  103c94:	eb000afa 	bl	106884 <__lshift>
  103c98:	e59d100c 	ldr	r1, [sp, #12]
  103c9c:	e1a07000 	mov	r7, r0
  103ca0:	eb000b35 	bl	10697c <__mcmp>
  103ca4:	e3500000 	cmp	r0, #0
  103ca8:	da00016c 	ble	104260 <_dtoa_r+0x112c>
  103cac:	e5562001 	ldrb	r2, [r6, #-1]
  103cb0:	e2463001 	sub	r3, r6, #1
  103cb4:	ea000002 	b	103cc4 <_dtoa_r+0xb90>
  103cb8:	e1530005 	cmp	r3, r5
  103cbc:	0a000139 	beq	1041a8 <_dtoa_r+0x1074>
  103cc0:	e5732001 	ldrb	r2, [r3, #-1]!
  103cc4:	e3520039 	cmp	r2, #57	; 0x39
  103cc8:	e2836001 	add	r6, r3, #1
  103ccc:	0afffff9 	beq	103cb8 <_dtoa_r+0xb84>
  103cd0:	e2822001 	add	r2, r2, #1
  103cd4:	e5c32000 	strb	r2, [r3]
  103cd8:	e59d100c 	ldr	r1, [sp, #12]
  103cdc:	e1a00004 	mov	r0, r4
  103ce0:	eb000979 	bl	1062cc <_Bfree>
  103ce4:	e59d3014 	ldr	r3, [sp, #20]
  103ce8:	e3530000 	cmp	r3, #0
  103cec:	0a000169 	beq	104298 <_dtoa_r+0x1164>
  103cf0:	e35a0000 	cmp	sl, #0
  103cf4:	115a0003 	cmpne	sl, r3
  103cf8:	01a08005 	moveq	r8, r5
  103cfc:	01a05006 	moveq	r5, r6
  103d00:	0afffeb4 	beq	1037d8 <_dtoa_r+0x6a4>
  103d04:	e1a0100a 	mov	r1, sl
  103d08:	e1a00004 	mov	r0, r4
  103d0c:	e1a08005 	mov	r8, r5
  103d10:	e1a05006 	mov	r5, r6
  103d14:	eb00096c 	bl	1062cc <_Bfree>
  103d18:	eafffeae 	b	1037d8 <_dtoa_r+0x6a4>
  103d1c:	e59d3068 	ldr	r3, [sp, #104]	; 0x68
  103d20:	e3530001 	cmp	r3, #1
  103d24:	da000195 	ble	104380 <_dtoa_r+0x124c>
  103d28:	e59d3020 	ldr	r3, [sp, #32]
  103d2c:	e3a00001 	mov	r0, #1
  103d30:	e58d3028 	str	r3, [sp, #40]	; 0x28
  103d34:	eafffe69 	b	1036e0 <_dtoa_r+0x5ac>
  103d38:	e1a01007 	mov	r1, r7
  103d3c:	e59d200c 	ldr	r2, [sp, #12]
  103d40:	e1a00004 	mov	r0, r4
  103d44:	eb000a8f 	bl	106788 <__pow5mult>
  103d48:	e1a07000 	mov	r7, r0
  103d4c:	eafffe41 	b	103658 <_dtoa_r+0x524>
  103d50:	e1a05008 	mov	r5, r8
  103d54:	ec5bab35 	vmov	sl, fp, d21
  103d58:	eafffdc3 	b	10346c <_dtoa_r+0x338>
  103d5c:	e59d3008 	ldr	r3, [sp, #8]
  103d60:	e2633000 	rsb	r3, r3, #0
  103d64:	e3530000 	cmp	r3, #0
  103d68:	03a01002 	moveq	r1, #2
  103d6c:	0ef03b65 	vmoveq.f64	d19, d21
  103d70:	0affff28 	beq	103a18 <_dtoa_r+0x8e4>
  103d74:	e30a21b0 	movw	r2, #41392	; 0xa1b0
  103d78:	e203100f 	and	r1, r3, #15
  103d7c:	e3402010 	movt	r2, #16
  103d80:	e1b03243 	asrs	r3, r3, #4
  103d84:	e0822181 	add	r2, r2, r1, lsl #3
  103d88:	edd20b00 	vldr	d16, [r2]
  103d8c:	ee653ba0 	vmul.f64	d19, d21, d16
  103d90:	0a000178 	beq	104378 <_dtoa_r+0x1244>
  103d94:	e30a22a0 	movw	r2, #41632	; 0xa2a0
  103d98:	e3a01002 	mov	r1, #2
  103d9c:	e3402010 	movt	r2, #16
  103da0:	e3130001 	tst	r3, #1
  103da4:	e2822008 	add	r2, r2, #8
  103da8:	1d520b02 	vldrne	d16, [r2, #-8]
  103dac:	12811001 	addne	r1, r1, #1
  103db0:	1e633ba0 	vmulne.f64	d19, d19, d16
  103db4:	e1b030c3 	asrs	r3, r3, #1
  103db8:	1afffff8 	bne	103da0 <_dtoa_r+0xc6c>
  103dbc:	eaffff15 	b	103a18 <_dtoa_r+0x8e4>
  103dc0:	e3a03001 	mov	r3, #1
  103dc4:	e58d3018 	str	r3, [sp, #24]
  103dc8:	eafffed3 	b	10391c <_dtoa_r+0x7e8>
  103dcc:	eefd7be3 	vcvt.s32.f64	s15, d19
  103dd0:	e2420001 	sub	r0, r2, #1
  103dd4:	e3403010 	movt	r3, #16
  103dd8:	ec4bab30 	vmov	d16, sl, fp
  103ddc:	e0833180 	add	r3, r3, r0, lsl #3
  103de0:	e3520001 	cmp	r2, #1
  103de4:	e2885001 	add	r5, r8, #1
  103de8:	edd32b00 	vldr	d18, [r3]
  103dec:	10881002 	addne	r1, r8, r2
  103df0:	eef81be7 	vcvt.f64.s32	d17, s15
  103df4:	11a02005 	movne	r2, r5
  103df8:	ee173a90 	vmov	r3, s15
  103dfc:	e2833030 	add	r3, r3, #48	; 0x30
  103e00:	ee622ba0 	vmul.f64	d18, d18, d16
  103e04:	e5c83000 	strb	r3, [r8]
  103e08:	ee730be1 	vsub.f64	d16, d19, d17
  103e0c:	1ef23b04 	vmovne.f64	d19, #36	; 0x41200000  10.0
  103e10:	0a000009 	beq	103e3c <_dtoa_r+0xd08>
  103e14:	ee600ba3 	vmul.f64	d16, d16, d19
  103e18:	eefd7be0 	vcvt.s32.f64	s15, d16
  103e1c:	eef81be7 	vcvt.f64.s32	d17, s15
  103e20:	ee173a90 	vmov	r3, s15
  103e24:	e2833030 	add	r3, r3, #48	; 0x30
  103e28:	e4c23001 	strb	r3, [r2], #1
  103e2c:	e1510002 	cmp	r1, r2
  103e30:	ee700be1 	vsub.f64	d16, d16, d17
  103e34:	1afffff6 	bne	103e14 <_dtoa_r+0xce0>
  103e38:	e0855000 	add	r5, r5, r0
  103e3c:	eef61b00 	vmov.f64	d17, #96	; 0x3f000000  0.5
  103e40:	ee723ba1 	vadd.f64	d19, d18, d17
  103e44:	eef43be0 	vcmpe.f64	d19, d16
  103e48:	eef1fa10 	vmrs	APSR_nzcv, fpscr
  103e4c:	5a0000ca 	bpl	10417c <_dtoa_r+0x1048>
  103e50:	e58dc008 	str	ip, [sp, #8]
  103e54:	e5553001 	ldrb	r3, [r5, #-1]
  103e58:	eafffdbf 	b	10355c <_dtoa_r+0x428>
  103e5c:	e3a03000 	mov	r3, #0
  103e60:	e58d300c 	str	r3, [sp, #12]
  103e64:	e58d3014 	str	r3, [sp, #20]
  103e68:	eafffe4e 	b	1037a8 <_dtoa_r+0x674>
  103e6c:	e3a03000 	mov	r3, #0
  103e70:	e58d3028 	str	r3, [sp, #40]	; 0x28
  103e74:	e59d200c 	ldr	r2, [sp, #12]
  103e78:	e5923010 	ldr	r3, [r2, #16]
  103e7c:	e0823103 	add	r3, r2, r3, lsl #2
  103e80:	e5930010 	ldr	r0, [r3, #16]
  103e84:	eb000984 	bl	10649c <__hi0bits>
  103e88:	e2600020 	rsb	r0, r0, #32
  103e8c:	eafffe13 	b	1036e0 <_dtoa_r+0x5ac>
  103e90:	e59d100c 	ldr	r1, [sp, #12]
  103e94:	e1a00007 	mov	r0, r7
  103e98:	eb000ab7 	bl	10697c <__mcmp>
  103e9c:	e3500000 	cmp	r0, #0
  103ea0:	aafffe29 	bge	10374c <_dtoa_r+0x618>
  103ea4:	e1a01007 	mov	r1, r7
  103ea8:	e3a03000 	mov	r3, #0
  103eac:	e3a0200a 	mov	r2, #10
  103eb0:	e1a00004 	mov	r0, r4
  103eb4:	eb00090b 	bl	1062e8 <__multadd>
  103eb8:	e59d3018 	ldr	r3, [sp, #24]
  103ebc:	e1a07000 	mov	r7, r0
  103ec0:	e3530000 	cmp	r3, #0
  103ec4:	e59d3008 	ldr	r3, [sp, #8]
  103ec8:	e2433001 	sub	r3, r3, #1
  103ecc:	e58d3008 	str	r3, [sp, #8]
  103ed0:	1a00000c 	bne	103f08 <_dtoa_r+0xdd4>
  103ed4:	e59d3068 	ldr	r3, [sp, #104]	; 0x68
  103ed8:	e59d2024 	ldr	r2, [sp, #36]	; 0x24
  103edc:	e3530002 	cmp	r3, #2
  103ee0:	c3a03001 	movgt	r3, #1
  103ee4:	d3a03000 	movle	r3, #0
  103ee8:	e3520000 	cmp	r2, #0
  103eec:	c3a03000 	movgt	r3, #0
  103ef0:	e3530000 	cmp	r3, #0
  103ef4:	058d2010 	streq	r2, [sp, #16]
  103ef8:	0affff4b 	beq	103c2c <_dtoa_r+0xaf8>
  103efc:	e59d3024 	ldr	r3, [sp, #36]	; 0x24
  103f00:	e58d3010 	str	r3, [sp, #16]
  103f04:	eafffe19 	b	103770 <_dtoa_r+0x63c>
  103f08:	e59d1014 	ldr	r1, [sp, #20]
  103f0c:	e3a03000 	mov	r3, #0
  103f10:	e3a0200a 	mov	r2, #10
  103f14:	e1a00004 	mov	r0, r4
  103f18:	eb0008f2 	bl	1062e8 <__multadd>
  103f1c:	e59d2024 	ldr	r2, [sp, #36]	; 0x24
  103f20:	e59d1068 	ldr	r1, [sp, #104]	; 0x68
  103f24:	e58d0014 	str	r0, [sp, #20]
  103f28:	e3520000 	cmp	r2, #0
  103f2c:	e1a03002 	mov	r3, r2
  103f30:	d3a03001 	movle	r3, #1
  103f34:	c3a03000 	movgt	r3, #0
  103f38:	e3510002 	cmp	r1, #2
  103f3c:	d3a03000 	movle	r3, #0
  103f40:	e3530000 	cmp	r3, #0
  103f44:	01a03002 	moveq	r3, r2
  103f48:	058d3010 	streq	r3, [sp, #16]
  103f4c:	1affffea 	bne	103efc <_dtoa_r+0xdc8>
  103f50:	e3580000 	cmp	r8, #0
  103f54:	da000004 	ble	103f6c <_dtoa_r+0xe38>
  103f58:	e1a02008 	mov	r2, r8
  103f5c:	e59d1014 	ldr	r1, [sp, #20]
  103f60:	e1a00004 	mov	r0, r4
  103f64:	eb000a46 	bl	106884 <__lshift>
  103f68:	e58d0014 	str	r0, [sp, #20]
  103f6c:	e59d3028 	ldr	r3, [sp, #40]	; 0x28
  103f70:	e3530000 	cmp	r3, #0
  103f74:	059d9014 	ldreq	r9, [sp, #20]
  103f78:	1a0000c9 	bne	1042a4 <_dtoa_r+0x1170>
  103f7c:	e59d3010 	ldr	r3, [sp, #16]
  103f80:	e58d5020 	str	r5, [sp, #32]
  103f84:	e2436001 	sub	r6, r3, #1
  103f88:	e20a3001 	and	r3, sl, #1
  103f8c:	e58d3018 	str	r3, [sp, #24]
  103f90:	e0853006 	add	r3, r5, r6
  103f94:	e58d301c 	str	r3, [sp, #28]
  103f98:	e1a06005 	mov	r6, r5
  103f9c:	e59d5014 	ldr	r5, [sp, #20]
  103fa0:	ea000008 	b	103fc8 <_dtoa_r+0xe94>
  103fa4:	eb0008cf 	bl	1062e8 <__multadd>
  103fa8:	e1a01009 	mov	r1, r9
  103fac:	e1a05000 	mov	r5, r0
  103fb0:	e3a03000 	mov	r3, #0
  103fb4:	e1a00004 	mov	r0, r4
  103fb8:	e3a0200a 	mov	r2, #10
  103fbc:	eb0008c9 	bl	1062e8 <__multadd>
  103fc0:	e1a09000 	mov	r9, r0
  103fc4:	e1a0600a 	mov	r6, sl
  103fc8:	e59d100c 	ldr	r1, [sp, #12]
  103fcc:	e1a00007 	mov	r0, r7
  103fd0:	ebfffbe6 	bl	102f70 <quorem>
  103fd4:	e1a01005 	mov	r1, r5
  103fd8:	e1a0b000 	mov	fp, r0
  103fdc:	e1a00007 	mov	r0, r7
  103fe0:	e28b8030 	add	r8, fp, #48	; 0x30
  103fe4:	eb000a64 	bl	10697c <__mcmp>
  103fe8:	e1a02009 	mov	r2, r9
  103fec:	e1a0a000 	mov	sl, r0
  103ff0:	e59d100c 	ldr	r1, [sp, #12]
  103ff4:	e1a00004 	mov	r0, r4
  103ff8:	eb000a78 	bl	1069e0 <__mdiff>
  103ffc:	e590200c 	ldr	r2, [r0, #12]
  104000:	e1a03000 	mov	r3, r0
  104004:	e3520000 	cmp	r2, #0
  104008:	1a000030 	bne	1040d0 <_dtoa_r+0xf9c>
  10400c:	e1a01000 	mov	r1, r0
  104010:	e58d0010 	str	r0, [sp, #16]
  104014:	e1a00007 	mov	r0, r7
  104018:	eb000a57 	bl	10697c <__mcmp>
  10401c:	e59d3010 	ldr	r3, [sp, #16]
  104020:	e1a02000 	mov	r2, r0
  104024:	e1a01003 	mov	r1, r3
  104028:	e1a00004 	mov	r0, r4
  10402c:	e58d2010 	str	r2, [sp, #16]
  104030:	eb0008a5 	bl	1062cc <_Bfree>
  104034:	e59d3068 	ldr	r3, [sp, #104]	; 0x68
  104038:	e59d2010 	ldr	r2, [sp, #16]
  10403c:	e1923003 	orrs	r3, r2, r3
  104040:	1a000002 	bne	104050 <_dtoa_r+0xf1c>
  104044:	e59d3018 	ldr	r3, [sp, #24]
  104048:	e3530000 	cmp	r3, #0
  10404c:	0a0000be 	beq	10434c <_dtoa_r+0x1218>
  104050:	e35a0000 	cmp	sl, #0
  104054:	ba00006c 	blt	10420c <_dtoa_r+0x10d8>
  104058:	e59d3068 	ldr	r3, [sp, #104]	; 0x68
  10405c:	e19a3003 	orrs	r3, sl, r3
  104060:	1a000002 	bne	104070 <_dtoa_r+0xf3c>
  104064:	e59d3018 	ldr	r3, [sp, #24]
  104068:	e3530000 	cmp	r3, #0
  10406c:	0a000066 	beq	10420c <_dtoa_r+0x10d8>
  104070:	e3520000 	cmp	r2, #0
  104074:	ca0000a5 	bgt	104310 <_dtoa_r+0x11dc>
  104078:	e59d301c 	ldr	r3, [sp, #28]
  10407c:	e286a001 	add	sl, r6, #1
  104080:	e5c68000 	strb	r8, [r6]
  104084:	e1530006 	cmp	r3, r6
  104088:	e1a0600a 	mov	r6, sl
  10408c:	0a0000aa 	beq	10433c <_dtoa_r+0x1208>
  104090:	e1a01007 	mov	r1, r7
  104094:	e3a03000 	mov	r3, #0
  104098:	e3a0200a 	mov	r2, #10
  10409c:	e1a00004 	mov	r0, r4
  1040a0:	eb000890 	bl	1062e8 <__multadd>
  1040a4:	e1550009 	cmp	r5, r9
  1040a8:	e1a07000 	mov	r7, r0
  1040ac:	e1a01005 	mov	r1, r5
  1040b0:	e3a03000 	mov	r3, #0
  1040b4:	e3a0200a 	mov	r2, #10
  1040b8:	e1a00004 	mov	r0, r4
  1040bc:	1affffb8 	bne	103fa4 <_dtoa_r+0xe70>
  1040c0:	eb000888 	bl	1062e8 <__multadd>
  1040c4:	e1a05000 	mov	r5, r0
  1040c8:	e1a09000 	mov	r9, r0
  1040cc:	eaffffbc 	b	103fc4 <_dtoa_r+0xe90>
  1040d0:	e3a02001 	mov	r2, #1
  1040d4:	eaffffd2 	b	104024 <_dtoa_r+0xef0>
  1040d8:	e353000e 	cmp	r3, #14
  1040dc:	83a03000 	movhi	r3, #0
  1040e0:	93a03001 	movls	r3, #1
  1040e4:	e3a01000 	mov	r1, #0
  1040e8:	e0055003 	and	r5, r5, r3
  1040ec:	e5841044 	str	r1, [r4, #68]	; 0x44
  1040f0:	eafffe23 	b	103984 <_dtoa_r+0x850>
  1040f4:	e3a03001 	mov	r3, #1
  1040f8:	e58d306c 	str	r3, [sp, #108]	; 0x6c
  1040fc:	e58d3024 	str	r3, [sp, #36]	; 0x24
  104100:	e58d3010 	str	r3, [sp, #16]
  104104:	eafffff6 	b	1040e4 <_dtoa_r+0xfb0>
  104108:	e1a08005 	mov	r8, r5
  10410c:	e1a05002 	mov	r5, r2
  104110:	eafffdb3 	b	1037e4 <_dtoa_r+0x6b0>
  104114:	e59d3010 	ldr	r3, [sp, #16]
  104118:	e3530000 	cmp	r3, #0
  10411c:	0afffe9f 	beq	103ba0 <_dtoa_r+0xa6c>
  104120:	e59d3024 	ldr	r3, [sp, #36]	; 0x24
  104124:	e3530000 	cmp	r3, #0
  104128:	daffff08 	ble	103d50 <_dtoa_r+0xc1c>
  10412c:	eef20b04 	vmov.f64	d16, #36	; 0x41200000  10.0
  104130:	e2811001 	add	r1, r1, #1
  104134:	eef12b0c 	vmov.f64	d18, #28	; 0x40e00000  7.0
  104138:	ee633ba0 	vmul.f64	d19, d19, d16
  10413c:	ee071a90 	vmov	s15, r1
  104140:	eef80be7 	vcvt.f64.s32	d16, s15
  104144:	e59d2008 	ldr	r2, [sp, #8]
  104148:	ee402ba3 	vmla.f64	d18, d16, d19
  10414c:	e242c001 	sub	ip, r2, #1
  104150:	e1a02003 	mov	r2, r3
  104154:	ec5bab32 	vmov	sl, fp, d18
  104158:	e24bb50d 	sub	fp, fp, #54525952	; 0x3400000
  10415c:	eafffe3f 	b	103a60 <_dtoa_r+0x92c>
  104160:	e59d1008 	ldr	r1, [sp, #8]
  104164:	e3a03030 	mov	r3, #48	; 0x30
  104168:	e5c23000 	strb	r3, [r2]
  10416c:	e5553001 	ldrb	r3, [r5, #-1]
  104170:	e2811001 	add	r1, r1, #1
  104174:	e58d1008 	str	r1, [sp, #8]
  104178:	eafffcff 	b	10357c <_dtoa_r+0x448>
  10417c:	ee711be2 	vsub.f64	d17, d17, d18
  104180:	eef41be0 	vcmpe.f64	d17, d16
  104184:	eef1fa10 	vmrs	APSR_nzcv, fpscr
  104188:	ca000001 	bgt	104194 <_dtoa_r+0x1060>
  10418c:	eafffeef 	b	103d50 <_dtoa_r+0xc1c>
  104190:	e1a05002 	mov	r5, r2
  104194:	e5553001 	ldrb	r3, [r5, #-1]
  104198:	e2452001 	sub	r2, r5, #1
  10419c:	e3530030 	cmp	r3, #48	; 0x30
  1041a0:	0afffffa 	beq	104190 <_dtoa_r+0x105c>
  1041a4:	eafffe5f 	b	103b28 <_dtoa_r+0x9f4>
  1041a8:	e59d2008 	ldr	r2, [sp, #8]
  1041ac:	e3a03031 	mov	r3, #49	; 0x31
  1041b0:	e5c53000 	strb	r3, [r5]
  1041b4:	e2822001 	add	r2, r2, #1
  1041b8:	e58d2008 	str	r2, [sp, #8]
  1041bc:	eafffec5 	b	103cd8 <_dtoa_r+0xba4>
  1041c0:	e59d2014 	ldr	r2, [sp, #20]
  1041c4:	e3520000 	cmp	r2, #0
  1041c8:	159d200c 	ldrne	r2, [sp, #12]
  1041cc:	12833e43 	addne	r3, r3, #1072	; 0x430
  1041d0:	059d3030 	ldreq	r3, [sp, #48]	; 0x30
  1041d4:	12833003 	addne	r3, r3, #3
  1041d8:	059d200c 	ldreq	r2, [sp, #12]
  1041dc:	11a08006 	movne	r8, r6
  1041e0:	158d2028 	strne	r2, [sp, #40]	; 0x28
  1041e4:	01a08006 	moveq	r8, r6
  1041e8:	02633036 	rsbeq	r3, r3, #54	; 0x36
  1041ec:	058d2028 	streq	r2, [sp, #40]	; 0x28
  1041f0:	eafffdc0 	b	1038f8 <_dtoa_r+0x7c4>
  1041f4:	e59d3010 	ldr	r3, [sp, #16]
  1041f8:	e58d300c 	str	r3, [sp, #12]
  1041fc:	e58d3014 	str	r3, [sp, #20]
  104200:	eafffe7a 	b	103bf0 <_dtoa_r+0xabc>
  104204:	e58dc008 	str	ip, [sp, #8]
  104208:	eafffcd3 	b	10355c <_dtoa_r+0x428>
  10420c:	e3520000 	cmp	r2, #0
  104210:	e58d5014 	str	r5, [sp, #20]
  104214:	e59d5020 	ldr	r5, [sp, #32]
  104218:	da00000b 	ble	10424c <_dtoa_r+0x1118>
  10421c:	e1a01007 	mov	r1, r7
  104220:	e3a02001 	mov	r2, #1
  104224:	e1a00004 	mov	r0, r4
  104228:	eb000995 	bl	106884 <__lshift>
  10422c:	e59d100c 	ldr	r1, [sp, #12]
  104230:	e1a07000 	mov	r7, r0
  104234:	eb0009d0 	bl	10697c <__mcmp>
  104238:	e3500000 	cmp	r0, #0
  10423c:	da000049 	ble	104368 <_dtoa_r+0x1234>
  104240:	e3580039 	cmp	r8, #57	; 0x39
  104244:	0a000036 	beq	104324 <_dtoa_r+0x11f0>
  104248:	e28b8031 	add	r8, fp, #49	; 0x31
  10424c:	e59da014 	ldr	sl, [sp, #20]
  104250:	e2866001 	add	r6, r6, #1
  104254:	e5468001 	strb	r8, [r6, #-1]
  104258:	e58d9014 	str	r9, [sp, #20]
  10425c:	eafffe9d 	b	103cd8 <_dtoa_r+0xba4>
  104260:	1a000003 	bne	104274 <_dtoa_r+0x1140>
  104264:	e3180001 	tst	r8, #1
  104268:	0a000001 	beq	104274 <_dtoa_r+0x1140>
  10426c:	eafffe8e 	b	103cac <_dtoa_r+0xb78>
  104270:	e1a06002 	mov	r6, r2
  104274:	e5563001 	ldrb	r3, [r6, #-1]
  104278:	e2462001 	sub	r2, r6, #1
  10427c:	e3530030 	cmp	r3, #48	; 0x30
  104280:	0afffffa 	beq	104270 <_dtoa_r+0x113c>
  104284:	eafffe93 	b	103cd8 <_dtoa_r+0xba4>
  104288:	e3a03000 	mov	r3, #0
  10428c:	e58d300c 	str	r3, [sp, #12]
  104290:	e58d3014 	str	r3, [sp, #20]
  104294:	eafffe55 	b	103bf0 <_dtoa_r+0xabc>
  104298:	e1a08005 	mov	r8, r5
  10429c:	e1a05006 	mov	r5, r6
  1042a0:	eafffd4f 	b	1037e4 <_dtoa_r+0x6b0>
  1042a4:	e59d8014 	ldr	r8, [sp, #20]
  1042a8:	e1a00004 	mov	r0, r4
  1042ac:	e5981004 	ldr	r1, [r8, #4]
  1042b0:	eb0007e2 	bl	106240 <_Balloc>
  1042b4:	e5982010 	ldr	r2, [r8, #16]
  1042b8:	e1a06000 	mov	r6, r0
  1042bc:	e288100c 	add	r1, r8, #12
  1042c0:	e280000c 	add	r0, r0, #12
  1042c4:	e2822002 	add	r2, r2, #2
  1042c8:	e1a02102 	lsl	r2, r2, #2
  1042cc:	eb000707 	bl	105ef0 <memcpy>
  1042d0:	e1a01006 	mov	r1, r6
  1042d4:	e3a02001 	mov	r2, #1
  1042d8:	e1a00004 	mov	r0, r4
  1042dc:	eb000968 	bl	106884 <__lshift>
  1042e0:	e1a09000 	mov	r9, r0
  1042e4:	eaffff24 	b	103f7c <_dtoa_r+0xe48>
  1042e8:	eef42b60 	vcmp.f64	d18, d16
  1042ec:	eef1fa10 	vmrs	APSR_nzcv, fpscr
  1042f0:	1affff84 	bne	104108 <_dtoa_r+0xfd4>
  1042f4:	ee173a90 	vmov	r3, s15
  1042f8:	e1a08005 	mov	r8, r5
  1042fc:	e3130001 	tst	r3, #1
  104300:	0affff81 	beq	10410c <_dtoa_r+0xfd8>
  104304:	e5523001 	ldrb	r3, [r2, #-1]
  104308:	e1a05002 	mov	r5, r2
  10430c:	eafffc92 	b	10355c <_dtoa_r+0x428>
  104310:	e3580039 	cmp	r8, #57	; 0x39
  104314:	e58d5014 	str	r5, [sp, #20]
  104318:	12888001 	addne	r8, r8, #1
  10431c:	e59d5020 	ldr	r5, [sp, #32]
  104320:	1affffc9 	bne	10424c <_dtoa_r+0x1118>
  104324:	e3a02039 	mov	r2, #57	; 0x39
  104328:	e59da014 	ldr	sl, [sp, #20]
  10432c:	e5c62000 	strb	r2, [r6]
  104330:	e2866001 	add	r6, r6, #1
  104334:	e58d9014 	str	r9, [sp, #20]
  104338:	eafffe5c 	b	103cb0 <_dtoa_r+0xb7c>
  10433c:	e1a0a005 	mov	sl, r5
  104340:	e58d9014 	str	r9, [sp, #20]
  104344:	e59d5020 	ldr	r5, [sp, #32]
  104348:	eafffe4e 	b	103c88 <_dtoa_r+0xb54>
  10434c:	e3580039 	cmp	r8, #57	; 0x39
  104350:	e58d5014 	str	r5, [sp, #20]
  104354:	e59d5020 	ldr	r5, [sp, #32]
  104358:	0afffff1 	beq	104324 <_dtoa_r+0x11f0>
  10435c:	e35a0000 	cmp	sl, #0
  104360:	caffffb8 	bgt	104248 <_dtoa_r+0x1114>
  104364:	eaffffb8 	b	10424c <_dtoa_r+0x1118>
  104368:	1affffb7 	bne	10424c <_dtoa_r+0x1118>
  10436c:	e3180001 	tst	r8, #1
  104370:	0affffb5 	beq	10424c <_dtoa_r+0x1118>
  104374:	eaffffb1 	b	104240 <_dtoa_r+0x110c>
  104378:	e3a01002 	mov	r1, #2
  10437c:	eafffda5 	b	103a18 <_dtoa_r+0x8e4>
  104380:	e35a0000 	cmp	sl, #0
  104384:	0afffcc4 	beq	10369c <_dtoa_r+0x568>
  104388:	eafffe66 	b	103d28 <_dtoa_r+0xbf4>
  10438c:	1260003c 	rsbne	r0, r0, #60	; 0x3c
  104390:	0afffcdc 	beq	103708 <_dtoa_r+0x5d4>
  104394:	eafffe1d 	b	103c10 <_dtoa_r+0xadc>
  104398:	e1a05000 	mov	r5, r0
  10439c:	eafffc32 	b	10346c <_dtoa_r+0x338>
  1043a0:	e3e03000 	mvn	r3, #0
  1043a4:	e58d806c 	str	r8, [sp, #108]	; 0x6c
  1043a8:	e58d3010 	str	r3, [sp, #16]
  1043ac:	eafffc36 	b	10348c <_dtoa_r+0x358>

001043b0 <__sflush_r>:
  1043b0:	e1d130bc 	ldrh	r3, [r1, #12]
  1043b4:	e92d41f0 	push	{r4, r5, r6, r7, r8, lr}
  1043b8:	e1a05001 	mov	r5, r1
  1043bc:	e1a08000 	mov	r8, r0
  1043c0:	e6ff2073 	uxth	r2, r3
  1043c4:	e3120008 	tst	r2, #8
  1043c8:	1a000034 	bne	1044a0 <__sflush_r+0xf0>
  1043cc:	e5912004 	ldr	r2, [r1, #4]
  1043d0:	e3833b02 	orr	r3, r3, #2048	; 0x800
  1043d4:	e1c130bc 	strh	r3, [r1, #12]
  1043d8:	e3520000 	cmp	r2, #0
  1043dc:	da00004d 	ble	104518 <__sflush_r+0x168>
  1043e0:	e5956028 	ldr	r6, [r5, #40]	; 0x28
  1043e4:	e3560000 	cmp	r6, #0
  1043e8:	0a00004d 	beq	104524 <__sflush_r+0x174>
  1043ec:	e6ff3073 	uxth	r3, r3
  1043f0:	e3a02000 	mov	r2, #0
  1043f4:	e5987000 	ldr	r7, [r8]
  1043f8:	e2030a01 	and	r0, r3, #4096	; 0x1000
  1043fc:	e5882000 	str	r2, [r8]
  104400:	e6ff4070 	uxth	r4, r0
  104404:	e1540002 	cmp	r4, r2
  104408:	0a00005e 	beq	104588 <__sflush_r+0x1d8>
  10440c:	e5952050 	ldr	r2, [r5, #80]	; 0x50
  104410:	e3130004 	tst	r3, #4
  104414:	0a000005 	beq	104430 <__sflush_r+0x80>
  104418:	e5951030 	ldr	r1, [r5, #48]	; 0x30
  10441c:	e5953004 	ldr	r3, [r5, #4]
  104420:	e3510000 	cmp	r1, #0
  104424:	e0632002 	rsb	r2, r3, r2
  104428:	1595303c 	ldrne	r3, [r5, #60]	; 0x3c
  10442c:	10632002 	rsbne	r2, r3, r2
  104430:	e3a03000 	mov	r3, #0
  104434:	e595101c 	ldr	r1, [r5, #28]
  104438:	e1a00008 	mov	r0, r8
  10443c:	e12fff36 	blx	r6
  104440:	e3700001 	cmn	r0, #1
  104444:	0a000038 	beq	10452c <__sflush_r+0x17c>
  104448:	e1d510bc 	ldrh	r1, [r5, #12]
  10444c:	e30f37ff 	movw	r3, #63487	; 0xf7ff
  104450:	e5952010 	ldr	r2, [r5, #16]
  104454:	e3a0c000 	mov	ip, #0
  104458:	e585c004 	str	ip, [r5, #4]
  10445c:	e0033001 	and	r3, r3, r1
  104460:	e3130a01 	tst	r3, #4096	; 0x1000
  104464:	e1c530bc 	strh	r3, [r5, #12]
  104468:	e5852000 	str	r2, [r5]
  10446c:	1a000043 	bne	104580 <__sflush_r+0x1d0>
  104470:	e5951030 	ldr	r1, [r5, #48]	; 0x30
  104474:	e5887000 	str	r7, [r8]
  104478:	e3510000 	cmp	r1, #0
  10447c:	0a000028 	beq	104524 <__sflush_r+0x174>
  104480:	e2853040 	add	r3, r5, #64	; 0x40
  104484:	e1510003 	cmp	r1, r3
  104488:	0a000001 	beq	104494 <__sflush_r+0xe4>
  10448c:	e1a00008 	mov	r0, r8
  104490:	eb0001a9 	bl	104b3c <_free_r>
  104494:	e3a00000 	mov	r0, #0
  104498:	e5850030 	str	r0, [r5, #48]	; 0x30
  10449c:	e8bd81f0 	pop	{r4, r5, r6, r7, r8, pc}
  1044a0:	e5916010 	ldr	r6, [r1, #16]
  1044a4:	e3560000 	cmp	r6, #0
  1044a8:	0a00001d 	beq	104524 <__sflush_r+0x174>
  1044ac:	e5914000 	ldr	r4, [r1]
  1044b0:	e3120003 	tst	r2, #3
  1044b4:	05913014 	ldreq	r3, [r1, #20]
  1044b8:	13a03000 	movne	r3, #0
  1044bc:	e5816000 	str	r6, [r1]
  1044c0:	e0664004 	rsb	r4, r6, r4
  1044c4:	e3540000 	cmp	r4, #0
  1044c8:	e5813008 	str	r3, [r1, #8]
  1044cc:	ca000002 	bgt	1044dc <__sflush_r+0x12c>
  1044d0:	ea000013 	b	104524 <__sflush_r+0x174>
  1044d4:	e3540000 	cmp	r4, #0
  1044d8:	da000011 	ble	104524 <__sflush_r+0x174>
  1044dc:	e1a03004 	mov	r3, r4
  1044e0:	e1a02006 	mov	r2, r6
  1044e4:	e5957024 	ldr	r7, [r5, #36]	; 0x24
  1044e8:	e1a00008 	mov	r0, r8
  1044ec:	e595101c 	ldr	r1, [r5, #28]
  1044f0:	e12fff37 	blx	r7
  1044f4:	e3500000 	cmp	r0, #0
  1044f8:	e0604004 	rsb	r4, r0, r4
  1044fc:	e0866000 	add	r6, r6, r0
  104500:	cafffff3 	bgt	1044d4 <__sflush_r+0x124>
  104504:	e1d530bc 	ldrh	r3, [r5, #12]
  104508:	e3e00000 	mvn	r0, #0
  10450c:	e3833040 	orr	r3, r3, #64	; 0x40
  104510:	e1c530bc 	strh	r3, [r5, #12]
  104514:	e8bd81f0 	pop	{r4, r5, r6, r7, r8, pc}
  104518:	e591203c 	ldr	r2, [r1, #60]	; 0x3c
  10451c:	e3520000 	cmp	r2, #0
  104520:	caffffae 	bgt	1043e0 <__sflush_r+0x30>
  104524:	e3a00000 	mov	r0, #0
  104528:	e8bd81f0 	pop	{r4, r5, r6, r7, r8, pc}
  10452c:	e5982000 	ldr	r2, [r8]
  104530:	e352001d 	cmp	r2, #29
  104534:	13520000 	cmpne	r2, #0
  104538:	03a03001 	moveq	r3, #1
  10453c:	13a03000 	movne	r3, #0
  104540:	e3520016 	cmp	r2, #22
  104544:	03833001 	orreq	r3, r3, #1
  104548:	e3530000 	cmp	r3, #0
  10454c:	0a000024 	beq	1045e4 <__sflush_r+0x234>
  104550:	e1d5c0bc 	ldrh	ip, [r5, #12]
  104554:	e30f37ff 	movw	r3, #63487	; 0xf7ff
  104558:	e5951010 	ldr	r1, [r5, #16]
  10455c:	e3a0e000 	mov	lr, #0
  104560:	e585e004 	str	lr, [r5, #4]
  104564:	e003300c 	and	r3, r3, ip
  104568:	e3130a01 	tst	r3, #4096	; 0x1000
  10456c:	e1c530bc 	strh	r3, [r5, #12]
  104570:	e5851000 	str	r1, [r5]
  104574:	0affffbd 	beq	104470 <__sflush_r+0xc0>
  104578:	e3520000 	cmp	r2, #0
  10457c:	1affffbb 	bne	104470 <__sflush_r+0xc0>
  104580:	e5850050 	str	r0, [r5, #80]	; 0x50
  104584:	eaffffb9 	b	104470 <__sflush_r+0xc0>
  104588:	e1a02004 	mov	r2, r4
  10458c:	e3a03001 	mov	r3, #1
  104590:	e595101c 	ldr	r1, [r5, #28]
  104594:	e1a00008 	mov	r0, r8
  104598:	e12fff36 	blx	r6
  10459c:	e3700001 	cmn	r0, #1
  1045a0:	e1a02000 	mov	r2, r0
  1045a4:	0a000002 	beq	1045b4 <__sflush_r+0x204>
  1045a8:	e1d530bc 	ldrh	r3, [r5, #12]
  1045ac:	e5956028 	ldr	r6, [r5, #40]	; 0x28
  1045b0:	eaffff96 	b	104410 <__sflush_r+0x60>
  1045b4:	e5983000 	ldr	r3, [r8]
  1045b8:	e3530000 	cmp	r3, #0
  1045bc:	0afffff9 	beq	1045a8 <__sflush_r+0x1f8>
  1045c0:	e3530016 	cmp	r3, #22
  1045c4:	1353001d 	cmpne	r3, #29
  1045c8:	11d530bc 	ldrhne	r3, [r5, #12]
  1045cc:	01a00004 	moveq	r0, r4
  1045d0:	05887000 	streq	r7, [r8]
  1045d4:	11a00002 	movne	r0, r2
  1045d8:	13833040 	orrne	r3, r3, #64	; 0x40
  1045dc:	11c530bc 	strhne	r3, [r5, #12]
  1045e0:	e8bd81f0 	pop	{r4, r5, r6, r7, r8, pc}
  1045e4:	e1d530bc 	ldrh	r3, [r5, #12]
  1045e8:	e3833040 	orr	r3, r3, #64	; 0x40
  1045ec:	e1c530bc 	strh	r3, [r5, #12]
  1045f0:	e8bd81f0 	pop	{r4, r5, r6, r7, r8, pc}

001045f4 <_fflush_r>:
  1045f4:	e92d4070 	push	{r4, r5, r6, lr}
  1045f8:	e2504000 	subs	r4, r0, #0
  1045fc:	e1a05001 	mov	r5, r1
  104600:	0a000002 	beq	104610 <_fflush_r+0x1c>
  104604:	e5943038 	ldr	r3, [r4, #56]	; 0x38
  104608:	e3530000 	cmp	r3, #0
  10460c:	0a000013 	beq	104660 <_fflush_r+0x6c>
  104610:	e1d500bc 	ldrh	r0, [r5, #12]
  104614:	e3500000 	cmp	r0, #0
  104618:	08bd8070 	popeq	{r4, r5, r6, pc}
  10461c:	e5953064 	ldr	r3, [r5, #100]	; 0x64
  104620:	e3130001 	tst	r3, #1
  104624:	1a000001 	bne	104630 <_fflush_r+0x3c>
  104628:	e3100c02 	tst	r0, #512	; 0x200
  10462c:	0a00000d 	beq	104668 <_fflush_r+0x74>
  104630:	e1a00004 	mov	r0, r4
  104634:	e1a01005 	mov	r1, r5
  104638:	ebffff5c 	bl	1043b0 <__sflush_r>
  10463c:	e5953064 	ldr	r3, [r5, #100]	; 0x64
  104640:	e1a04000 	mov	r4, r0
  104644:	e3130001 	tst	r3, #1
  104648:	1a000002 	bne	104658 <_fflush_r+0x64>
  10464c:	e1d530bc 	ldrh	r3, [r5, #12]
  104650:	e3130c02 	tst	r3, #512	; 0x200
  104654:	0a000006 	beq	104674 <_fflush_r+0x80>
  104658:	e1a00004 	mov	r0, r4
  10465c:	e8bd8070 	pop	{r4, r5, r6, pc}
  104660:	eb000066 	bl	104800 <__sinit>
  104664:	eaffffe9 	b	104610 <_fflush_r+0x1c>
  104668:	e2850058 	add	r0, r5, #88	; 0x58
  10466c:	eb00160a 	bl	109e9c <__generic_gxx_recursive_mutex_lock>
  104670:	eaffffee 	b	104630 <_fflush_r+0x3c>
  104674:	e2850058 	add	r0, r5, #88	; 0x58
  104678:	eb001605 	bl	109e94 <__generic_gxx_recursive_mutex_unlock>
  10467c:	e1a00004 	mov	r0, r4
  104680:	e8bd8070 	pop	{r4, r5, r6, pc}

00104684 <fflush>:
  104684:	e3500000 	cmp	r0, #0
  104688:	0a000005 	beq	1046a4 <fflush+0x20>
  10468c:	e92d4010 	push	{r4, lr}
  104690:	e1a04000 	mov	r4, r0
  104694:	eb000347 	bl	1053b8 <__getreent>
  104698:	e1a01004 	mov	r1, r4
  10469c:	e8bd4010 	pop	{r4, lr}
  1046a0:	eaffffd3 	b	1045f4 <_fflush_r>
  1046a4:	e30a3360 	movw	r3, #41824	; 0xa360
  1046a8:	e30415f4 	movw	r1, #17908	; 0x45f4
  1046ac:	e3403010 	movt	r3, #16
  1046b0:	e3401010 	movt	r1, #16
  1046b4:	e5930000 	ldr	r0, [r3]
  1046b8:	ea00031e 	b	105338 <_fwalk_reent>

001046bc <_cleanup_r>:
  1046bc:	e3091088 	movw	r1, #37000	; 0x9088
  1046c0:	e3401010 	movt	r1, #16
  1046c4:	ea00031b 	b	105338 <_fwalk_reent>

001046c8 <__fp_lock>:
  1046c8:	e1d030bc 	ldrh	r3, [r0, #12]
  1046cc:	e3130c02 	tst	r3, #512	; 0x200
  1046d0:	0a000001 	beq	1046dc <__fp_lock+0x14>
  1046d4:	e3a00000 	mov	r0, #0
  1046d8:	e12fff1e 	bx	lr
  1046dc:	e92d4010 	push	{r4, lr}
  1046e0:	e2800058 	add	r0, r0, #88	; 0x58
  1046e4:	eb0015ec 	bl	109e9c <__generic_gxx_recursive_mutex_lock>
  1046e8:	e3a00000 	mov	r0, #0
  1046ec:	e8bd8010 	pop	{r4, pc}

001046f0 <__fp_unlock>:
  1046f0:	e1d030bc 	ldrh	r3, [r0, #12]
  1046f4:	e3130c02 	tst	r3, #512	; 0x200
  1046f8:	0a000001 	beq	104704 <__fp_unlock+0x14>
  1046fc:	e3a00000 	mov	r0, #0
  104700:	e12fff1e 	bx	lr
  104704:	e92d4010 	push	{r4, lr}
  104708:	e2800058 	add	r0, r0, #88	; 0x58
  10470c:	eb0015e0 	bl	109e94 <__generic_gxx_recursive_mutex_unlock>
  104710:	e3a00000 	mov	r0, #0
  104714:	e8bd8010 	pop	{r4, pc}

00104718 <std.isra.0>:
  104718:	e92d4010 	push	{r4, lr}
  10471c:	e3a03000 	mov	r3, #0
  104720:	e1a04000 	mov	r4, r0
  104724:	e1c010bc 	strh	r1, [r0, #12]
  104728:	e1a01003 	mov	r1, r3
  10472c:	e280005c 	add	r0, r0, #92	; 0x5c
  104730:	e1c420be 	strh	r2, [r4, #14]
  104734:	e3a02008 	mov	r2, #8
  104738:	e5843000 	str	r3, [r4]
  10473c:	e5843004 	str	r3, [r4, #4]
  104740:	e5843008 	str	r3, [r4, #8]
  104744:	e5843064 	str	r3, [r4, #100]	; 0x64
  104748:	e5843010 	str	r3, [r4, #16]
  10474c:	e5843014 	str	r3, [r4, #20]
  104750:	e5843018 	str	r3, [r4, #24]
  104754:	eb000672 	bl	106124 <memset>
  104758:	e307c56c 	movw	ip, #30060	; 0x756c
  10475c:	e30715a4 	movw	r1, #30116	; 0x75a4
  104760:	e30725f8 	movw	r2, #30200	; 0x75f8
  104764:	e3073624 	movw	r3, #30244	; 0x7624
  104768:	e340c010 	movt	ip, #16
  10476c:	e3401010 	movt	r1, #16
  104770:	e3402010 	movt	r2, #16
  104774:	e3403010 	movt	r3, #16
  104778:	e584401c 	str	r4, [r4, #28]
  10477c:	e2840058 	add	r0, r4, #88	; 0x58
  104780:	e584c020 	str	ip, [r4, #32]
  104784:	e5841024 	str	r1, [r4, #36]	; 0x24
  104788:	e5842028 	str	r2, [r4, #40]	; 0x28
  10478c:	e584302c 	str	r3, [r4, #44]	; 0x2c
  104790:	e8bd4010 	pop	{r4, lr}
  104794:	ea0015ba 	b	109e84 <__generic_gxx_recursive_mutex_init_function>

00104798 <__sfmoreglue>:
  104798:	e2412001 	sub	r2, r1, #1
  10479c:	e92d4070 	push	{r4, r5, r6, lr}
  1047a0:	e1a04202 	lsl	r4, r2, #4
  1047a4:	e1a06001 	mov	r6, r1
  1047a8:	e0444102 	sub	r4, r4, r2, lsl #2
  1047ac:	e0844002 	add	r4, r4, r2
  1047b0:	e1a04184 	lsl	r4, r4, #3
  1047b4:	e2841074 	add	r1, r4, #116	; 0x74
  1047b8:	eb000395 	bl	105614 <_malloc_r>
  1047bc:	e2505000 	subs	r5, r0, #0
  1047c0:	0a000006 	beq	1047e0 <__sfmoreglue+0x48>
  1047c4:	e3a01000 	mov	r1, #0
  1047c8:	e285000c 	add	r0, r5, #12
  1047cc:	e5856004 	str	r6, [r5, #4]
  1047d0:	e2842068 	add	r2, r4, #104	; 0x68
  1047d4:	e5851000 	str	r1, [r5]
  1047d8:	e5850008 	str	r0, [r5, #8]
  1047dc:	eb000650 	bl	106124 <memset>
  1047e0:	e1a00005 	mov	r0, r5
  1047e4:	e8bd8070 	pop	{r4, r5, r6, pc}

001047e8 <_cleanup>:
  1047e8:	e30a3360 	movw	r3, #41824	; 0xa360
  1047ec:	e3091088 	movw	r1, #37000	; 0x9088
  1047f0:	e3403010 	movt	r3, #16
  1047f4:	e3401010 	movt	r1, #16
  1047f8:	e5930000 	ldr	r0, [r3]
  1047fc:	ea0002cd 	b	105338 <_fwalk_reent>

00104800 <__sinit>:
  104800:	e92d4010 	push	{r4, lr}
  104804:	e1a04000 	mov	r4, r0
  104808:	e30a0c4c 	movw	r0, #44108	; 0xac4c
  10480c:	e3400010 	movt	r0, #16
  104810:	eb0015a1 	bl	109e9c <__generic_gxx_recursive_mutex_lock>
  104814:	e5942038 	ldr	r2, [r4, #56]	; 0x38
  104818:	e3520000 	cmp	r2, #0
  10481c:	1a000018 	bne	104884 <__sinit+0x84>
  104820:	e30436bc 	movw	r3, #18108	; 0x46bc
  104824:	e3a0c003 	mov	ip, #3
  104828:	e3403010 	movt	r3, #16
  10482c:	e2840fbb 	add	r0, r4, #748	; 0x2ec
  104830:	e584303c 	str	r3, [r4, #60]	; 0x3c
  104834:	e3a01004 	mov	r1, #4
  104838:	e584c2e4 	str	ip, [r4, #740]	; 0x2e4
  10483c:	e58422e0 	str	r2, [r4, #736]	; 0x2e0
  104840:	e58402e8 	str	r0, [r4, #744]	; 0x2e8
  104844:	e5940004 	ldr	r0, [r4, #4]
  104848:	ebffffb2 	bl	104718 <std.isra.0>
  10484c:	e5940008 	ldr	r0, [r4, #8]
  104850:	e3a02001 	mov	r2, #1
  104854:	e3a01009 	mov	r1, #9
  104858:	ebffffae 	bl	104718 <std.isra.0>
  10485c:	e594000c 	ldr	r0, [r4, #12]
  104860:	e3a02002 	mov	r2, #2
  104864:	e3a01012 	mov	r1, #18
  104868:	ebffffaa 	bl	104718 <std.isra.0>
  10486c:	e3a03001 	mov	r3, #1
  104870:	e30a0c4c 	movw	r0, #44108	; 0xac4c
  104874:	e5843038 	str	r3, [r4, #56]	; 0x38
  104878:	e3400010 	movt	r0, #16
  10487c:	e8bd4010 	pop	{r4, lr}
  104880:	ea001583 	b	109e94 <__generic_gxx_recursive_mutex_unlock>
  104884:	e30a0c4c 	movw	r0, #44108	; 0xac4c
  104888:	e8bd4010 	pop	{r4, lr}
  10488c:	e3400010 	movt	r0, #16
  104890:	ea00157f 	b	109e94 <__generic_gxx_recursive_mutex_unlock>

00104894 <__sfp>:
  104894:	e92d4070 	push	{r4, r5, r6, lr}
  104898:	e30a4360 	movw	r4, #41824	; 0xa360
  10489c:	e1a06000 	mov	r6, r0
  1048a0:	e3404010 	movt	r4, #16
  1048a4:	e59f0100 	ldr	r0, [pc, #256]	; 1049ac <__sfp+0x118>
  1048a8:	eb00157b 	bl	109e9c <__generic_gxx_recursive_mutex_lock>
  1048ac:	e5940000 	ldr	r0, [r4]
  1048b0:	e5903038 	ldr	r3, [r0, #56]	; 0x38
  1048b4:	e3530000 	cmp	r3, #0
  1048b8:	0a000032 	beq	104988 <__sfp+0xf4>
  1048bc:	e2805e2e 	add	r5, r0, #736	; 0x2e0
  1048c0:	e9950018 	ldmib	r5, {r3, r4}
  1048c4:	e2533001 	subs	r3, r3, #1
  1048c8:	5a000004 	bpl	1048e0 <__sfp+0x4c>
  1048cc:	ea000020 	b	104954 <__sfp+0xc0>
  1048d0:	e2433001 	sub	r3, r3, #1
  1048d4:	e2844068 	add	r4, r4, #104	; 0x68
  1048d8:	e3730001 	cmn	r3, #1
  1048dc:	0a00001c 	beq	104954 <__sfp+0xc0>
  1048e0:	e1d420fc 	ldrsh	r2, [r4, #12]
  1048e4:	e3520000 	cmp	r2, #0
  1048e8:	1afffff8 	bne	1048d0 <__sfp+0x3c>
  1048ec:	e3a05000 	mov	r5, #0
  1048f0:	e3a03001 	mov	r3, #1
  1048f4:	e3e02000 	mvn	r2, #0
  1048f8:	e1c430bc 	strh	r3, [r4, #12]
  1048fc:	e1c420be 	strh	r2, [r4, #14]
  104900:	e2840058 	add	r0, r4, #88	; 0x58
  104904:	e5845064 	str	r5, [r4, #100]	; 0x64
  104908:	eb00155d 	bl	109e84 <__generic_gxx_recursive_mutex_init_function>
  10490c:	e59f0098 	ldr	r0, [pc, #152]	; 1049ac <__sfp+0x118>
  104910:	eb00155f 	bl	109e94 <__generic_gxx_recursive_mutex_unlock>
  104914:	e5845000 	str	r5, [r4]
  104918:	e1a01005 	mov	r1, r5
  10491c:	e5845008 	str	r5, [r4, #8]
  104920:	e3a02008 	mov	r2, #8
  104924:	e5845004 	str	r5, [r4, #4]
  104928:	e284005c 	add	r0, r4, #92	; 0x5c
  10492c:	e5845010 	str	r5, [r4, #16]
  104930:	e5845014 	str	r5, [r4, #20]
  104934:	e5845018 	str	r5, [r4, #24]
  104938:	eb0005f9 	bl	106124 <memset>
  10493c:	e1a00004 	mov	r0, r4
  104940:	e5845030 	str	r5, [r4, #48]	; 0x30
  104944:	e5845034 	str	r5, [r4, #52]	; 0x34
  104948:	e5845044 	str	r5, [r4, #68]	; 0x44
  10494c:	e5845048 	str	r5, [r4, #72]	; 0x48
  104950:	e8bd8070 	pop	{r4, r5, r6, pc}
  104954:	e5953000 	ldr	r3, [r5]
  104958:	e3530000 	cmp	r3, #0
  10495c:	11a05003 	movne	r5, r3
  104960:	1affffd6 	bne	1048c0 <__sfp+0x2c>
  104964:	e3a01004 	mov	r1, #4
  104968:	e1a00006 	mov	r0, r6
  10496c:	ebffff89 	bl	104798 <__sfmoreglue>
  104970:	e3500000 	cmp	r0, #0
  104974:	e1a04000 	mov	r4, r0
  104978:	e5850000 	str	r0, [r5]
  10497c:	0a000004 	beq	104994 <__sfp+0x100>
  104980:	e1a05000 	mov	r5, r0
  104984:	eaffffcd 	b	1048c0 <__sfp+0x2c>
  104988:	ebffff9c 	bl	104800 <__sinit>
  10498c:	e5940000 	ldr	r0, [r4]
  104990:	eaffffc9 	b	1048bc <__sfp+0x28>
  104994:	e59f0010 	ldr	r0, [pc, #16]	; 1049ac <__sfp+0x118>
  104998:	eb00153d 	bl	109e94 <__generic_gxx_recursive_mutex_unlock>
  10499c:	e3a0300c 	mov	r3, #12
  1049a0:	e1a00004 	mov	r0, r4
  1049a4:	e5863000 	str	r3, [r6]
  1049a8:	e8bd8070 	pop	{r4, r5, r6, pc}
  1049ac:	0010ac50 	.word	0x0010ac50

001049b0 <__sfp_lock_acquire>:
  1049b0:	e59f0000 	ldr	r0, [pc]	; 1049b8 <__sfp_lock_acquire+0x8>
  1049b4:	ea001538 	b	109e9c <__generic_gxx_recursive_mutex_lock>
  1049b8:	0010ac50 	.word	0x0010ac50

001049bc <__sfp_lock_release>:
  1049bc:	e59f0000 	ldr	r0, [pc]	; 1049c4 <__sfp_lock_release+0x8>
  1049c0:	ea001533 	b	109e94 <__generic_gxx_recursive_mutex_unlock>
  1049c4:	0010ac50 	.word	0x0010ac50

001049c8 <__sinit_lock_acquire>:
  1049c8:	e30a0c4c 	movw	r0, #44108	; 0xac4c
  1049cc:	e3400010 	movt	r0, #16
  1049d0:	ea001531 	b	109e9c <__generic_gxx_recursive_mutex_lock>

001049d4 <__sinit_lock_release>:
  1049d4:	e30a0c4c 	movw	r0, #44108	; 0xac4c
  1049d8:	e3400010 	movt	r0, #16
  1049dc:	ea00152c 	b	109e94 <__generic_gxx_recursive_mutex_unlock>

001049e0 <__fp_lock_all>:
  1049e0:	e92d4010 	push	{r4, lr}
  1049e4:	e59f0014 	ldr	r0, [pc, #20]	; 104a00 <__fp_lock_all+0x20>
  1049e8:	eb00152b 	bl	109e9c <__generic_gxx_recursive_mutex_lock>
  1049ec:	eb000271 	bl	1053b8 <__getreent>
  1049f0:	e30416c8 	movw	r1, #18120	; 0x46c8
  1049f4:	e8bd4010 	pop	{r4, lr}
  1049f8:	e3401010 	movt	r1, #16
  1049fc:	ea00022f 	b	1052c0 <_fwalk>
  104a00:	0010ac50 	.word	0x0010ac50

00104a04 <__fp_unlock_all>:
  104a04:	e92d4010 	push	{r4, lr}
  104a08:	eb00026a 	bl	1053b8 <__getreent>
  104a0c:	e30416f0 	movw	r1, #18160	; 0x46f0
  104a10:	e3401010 	movt	r1, #16
  104a14:	eb000229 	bl	1052c0 <_fwalk>
  104a18:	e59f0004 	ldr	r0, [pc, #4]	; 104a24 <__fp_unlock_all+0x20>
  104a1c:	e8bd4010 	pop	{r4, lr}
  104a20:	ea00151b 	b	109e94 <__generic_gxx_recursive_mutex_unlock>
  104a24:	0010ac50 	.word	0x0010ac50

00104a28 <__init___sfp_lock>:
  104a28:	e59f0000 	ldr	r0, [pc]	; 104a30 <__init___sfp_lock+0x8>
  104a2c:	ea001514 	b	109e84 <__generic_gxx_recursive_mutex_init_function>
  104a30:	0010ac50 	.word	0x0010ac50

00104a34 <__init___sinit_lock>:
  104a34:	e30a0c4c 	movw	r0, #44108	; 0xac4c
  104a38:	e3400010 	movt	r0, #16
  104a3c:	ea001510 	b	109e84 <__generic_gxx_recursive_mutex_init_function>

00104a40 <_malloc_trim_r>:
  104a40:	e92d41f0 	push	{r4, r5, r6, r7, r8, lr}
  104a44:	e30a780c 	movw	r7, #43020	; 0xa80c
  104a48:	e3407010 	movt	r7, #16
  104a4c:	e1a04001 	mov	r4, r1
  104a50:	e1a06000 	mov	r6, r0
  104a54:	eb0005f0 	bl	10621c <__malloc_lock>
  104a58:	e5973008 	ldr	r3, [r7, #8]
  104a5c:	e5935004 	ldr	r5, [r3, #4]
  104a60:	e3c55003 	bic	r5, r5, #3
  104a64:	e0641005 	rsb	r1, r4, r5
  104a68:	e2811efe 	add	r1, r1, #4064	; 0xfe0
  104a6c:	e281100f 	add	r1, r1, #15
  104a70:	e3c11eff 	bic	r1, r1, #4080	; 0xff0
  104a74:	e3c1100f 	bic	r1, r1, #15
  104a78:	e2414a01 	sub	r4, r1, #4096	; 0x1000
  104a7c:	e3540a01 	cmp	r4, #4096	; 0x1000
  104a80:	ba000006 	blt	104aa0 <_malloc_trim_r+0x60>
  104a84:	e3a01000 	mov	r1, #0
  104a88:	e1a00006 	mov	r0, r6
  104a8c:	eb000aa8 	bl	107534 <_sbrk_r>
  104a90:	e5973008 	ldr	r3, [r7, #8]
  104a94:	e0833005 	add	r3, r3, r5
  104a98:	e1500003 	cmp	r0, r3
  104a9c:	0a000003 	beq	104ab0 <_malloc_trim_r+0x70>
  104aa0:	e1a00006 	mov	r0, r6
  104aa4:	eb0005df 	bl	106228 <__malloc_unlock>
  104aa8:	e3a00000 	mov	r0, #0
  104aac:	e8bd81f0 	pop	{r4, r5, r6, r7, r8, pc}
  104ab0:	e2641000 	rsb	r1, r4, #0
  104ab4:	e1a00006 	mov	r0, r6
  104ab8:	eb000a9d 	bl	107534 <_sbrk_r>
  104abc:	e3700001 	cmn	r0, #1
  104ac0:	0a00000c 	beq	104af8 <_malloc_trim_r+0xb8>
  104ac4:	e30a3c64 	movw	r3, #44132	; 0xac64
  104ac8:	e5972008 	ldr	r2, [r7, #8]
  104acc:	e3403010 	movt	r3, #16
  104ad0:	e0645005 	rsb	r5, r4, r5
  104ad4:	e5931000 	ldr	r1, [r3]
  104ad8:	e3855001 	orr	r5, r5, #1
  104adc:	e1a00006 	mov	r0, r6
  104ae0:	e5825004 	str	r5, [r2, #4]
  104ae4:	e0641001 	rsb	r1, r4, r1
  104ae8:	e5831000 	str	r1, [r3]
  104aec:	eb0005cd 	bl	106228 <__malloc_unlock>
  104af0:	e3a00001 	mov	r0, #1
  104af4:	e8bd81f0 	pop	{r4, r5, r6, r7, r8, pc}
  104af8:	e3a01000 	mov	r1, #0
  104afc:	e1a00006 	mov	r0, r6
  104b00:	eb000a8b 	bl	107534 <_sbrk_r>
  104b04:	e5972008 	ldr	r2, [r7, #8]
  104b08:	e0623000 	rsb	r3, r2, r0
  104b0c:	e353000f 	cmp	r3, #15
  104b10:	daffffe2 	ble	104aa0 <_malloc_trim_r+0x60>
  104b14:	e30acc14 	movw	ip, #44052	; 0xac14
  104b18:	e30a1c64 	movw	r1, #44132	; 0xac64
  104b1c:	e340c010 	movt	ip, #16
  104b20:	e3833001 	orr	r3, r3, #1
  104b24:	e59cc000 	ldr	ip, [ip]
  104b28:	e3401010 	movt	r1, #16
  104b2c:	e5823004 	str	r3, [r2, #4]
  104b30:	e06c0000 	rsb	r0, ip, r0
  104b34:	e5810000 	str	r0, [r1]
  104b38:	eaffffd8 	b	104aa0 <_malloc_trim_r+0x60>

00104b3c <_free_r>:
  104b3c:	e3510000 	cmp	r1, #0
  104b40:	012fff1e 	bxeq	lr
  104b44:	e92d4070 	push	{r4, r5, r6, lr}
  104b48:	e1a05001 	mov	r5, r1
  104b4c:	e1a04000 	mov	r4, r0
  104b50:	eb0005b1 	bl	10621c <__malloc_lock>
  104b54:	e5151004 	ldr	r1, [r5, #-4]
  104b58:	e30a280c 	movw	r2, #43020	; 0xa80c
  104b5c:	e3402010 	movt	r2, #16
  104b60:	e245c008 	sub	ip, r5, #8
  104b64:	e5926008 	ldr	r6, [r2, #8]
  104b68:	e3c13001 	bic	r3, r1, #1
  104b6c:	e08c0003 	add	r0, ip, r3
  104b70:	e590e004 	ldr	lr, [r0, #4]
  104b74:	e1500006 	cmp	r0, r6
  104b78:	e3cee003 	bic	lr, lr, #3
  104b7c:	0a000051 	beq	104cc8 <_free_r+0x18c>
  104b80:	e3110001 	tst	r1, #1
  104b84:	e580e004 	str	lr, [r0, #4]
  104b88:	1a000009 	bne	104bb4 <_free_r+0x78>
  104b8c:	e5151008 	ldr	r1, [r5, #-8]
  104b90:	e2825008 	add	r5, r2, #8
  104b94:	e061c00c 	rsb	ip, r1, ip
  104b98:	e0833001 	add	r3, r3, r1
  104b9c:	e59c1008 	ldr	r1, [ip, #8]
  104ba0:	e1510005 	cmp	r1, r5
  104ba4:	0a00005f 	beq	104d28 <_free_r+0x1ec>
  104ba8:	e59c500c 	ldr	r5, [ip, #12]
  104bac:	e581500c 	str	r5, [r1, #12]
  104bb0:	e5851008 	str	r1, [r5, #8]
  104bb4:	e080100e 	add	r1, r0, lr
  104bb8:	e5911004 	ldr	r1, [r1, #4]
  104bbc:	e3110001 	tst	r1, #1
  104bc0:	13831001 	orrne	r1, r3, #1
  104bc4:	158c1004 	strne	r1, [ip, #4]
  104bc8:	178c3003 	strne	r3, [ip, r3]
  104bcc:	0a00002f 	beq	104c90 <_free_r+0x154>
  104bd0:	e3530c02 	cmp	r3, #512	; 0x200
  104bd4:	2a000010 	bcs	104c1c <_free_r+0xe0>
  104bd8:	e592e004 	ldr	lr, [r2, #4]
  104bdc:	e1a031a3 	lsr	r3, r3, #3
  104be0:	e3a06001 	mov	r6, #1
  104be4:	e0831006 	add	r1, r3, r6
  104be8:	e1a03143 	asr	r3, r3, #2
  104bec:	e7925181 	ldr	r5, [r2, r1, lsl #3]
  104bf0:	e0820181 	add	r0, r2, r1, lsl #3
  104bf4:	e18e3316 	orr	r3, lr, r6, lsl r3
  104bf8:	e2400008 	sub	r0, r0, #8
  104bfc:	e58c000c 	str	r0, [ip, #12]
  104c00:	e58c5008 	str	r5, [ip, #8]
  104c04:	e5823004 	str	r3, [r2, #4]
  104c08:	e782c181 	str	ip, [r2, r1, lsl #3]
  104c0c:	e585c00c 	str	ip, [r5, #12]
  104c10:	e1a00004 	mov	r0, r4
  104c14:	e8bd4070 	pop	{r4, r5, r6, lr}
  104c18:	ea000582 	b	106228 <__malloc_unlock>
  104c1c:	e1a014a3 	lsr	r1, r3, #9
  104c20:	e3510004 	cmp	r1, #4
  104c24:	8a00004c 	bhi	104d5c <_free_r+0x220>
  104c28:	e1a01323 	lsr	r1, r3, #6
  104c2c:	e281e039 	add	lr, r1, #57	; 0x39
  104c30:	e2811038 	add	r1, r1, #56	; 0x38
  104c34:	e1a0e08e 	lsl	lr, lr, #1
  104c38:	e082010e 	add	r0, r2, lr, lsl #2
  104c3c:	e792210e 	ldr	r2, [r2, lr, lsl #2]
  104c40:	e30ae80c 	movw	lr, #43020	; 0xa80c
  104c44:	e2400008 	sub	r0, r0, #8
  104c48:	e340e010 	movt	lr, #16
  104c4c:	e1500002 	cmp	r0, r2
  104c50:	0a000047 	beq	104d74 <_free_r+0x238>
  104c54:	e5921004 	ldr	r1, [r2, #4]
  104c58:	e3c11003 	bic	r1, r1, #3
  104c5c:	e1530001 	cmp	r3, r1
  104c60:	2a000002 	bcs	104c70 <_free_r+0x134>
  104c64:	e5922008 	ldr	r2, [r2, #8]
  104c68:	e1500002 	cmp	r0, r2
  104c6c:	1afffff8 	bne	104c54 <_free_r+0x118>
  104c70:	e592000c 	ldr	r0, [r2, #12]
  104c74:	e58c000c 	str	r0, [ip, #12]
  104c78:	e58c2008 	str	r2, [ip, #8]
  104c7c:	e580c008 	str	ip, [r0, #8]
  104c80:	e1a00004 	mov	r0, r4
  104c84:	e582c00c 	str	ip, [r2, #12]
  104c88:	e8bd4070 	pop	{r4, r5, r6, lr}
  104c8c:	ea000565 	b	106228 <__malloc_unlock>
  104c90:	e5901008 	ldr	r1, [r0, #8]
  104c94:	e083300e 	add	r3, r3, lr
  104c98:	e59fe178 	ldr	lr, [pc, #376]	; 104e18 <_free_r+0x2dc>
  104c9c:	e151000e 	cmp	r1, lr
  104ca0:	0a00003a 	beq	104d90 <_free_r+0x254>
  104ca4:	e590e00c 	ldr	lr, [r0, #12]
  104ca8:	e3530c02 	cmp	r3, #512	; 0x200
  104cac:	e3830001 	orr	r0, r3, #1
  104cb0:	e581e00c 	str	lr, [r1, #12]
  104cb4:	e58e1008 	str	r1, [lr, #8]
  104cb8:	e58c0004 	str	r0, [ip, #4]
  104cbc:	e78c3003 	str	r3, [ip, r3]
  104cc0:	2affffd5 	bcs	104c1c <_free_r+0xe0>
  104cc4:	eaffffc3 	b	104bd8 <_free_r+0x9c>
  104cc8:	e3110001 	tst	r1, #1
  104ccc:	e083300e 	add	r3, r3, lr
  104cd0:	1a000006 	bne	104cf0 <_free_r+0x1b4>
  104cd4:	e5151008 	ldr	r1, [r5, #-8]
  104cd8:	e061c00c 	rsb	ip, r1, ip
  104cdc:	e0833001 	add	r3, r3, r1
  104ce0:	e59c0008 	ldr	r0, [ip, #8]
  104ce4:	e59c100c 	ldr	r1, [ip, #12]
  104ce8:	e580100c 	str	r1, [r0, #12]
  104cec:	e5810008 	str	r0, [r1, #8]
  104cf0:	e30a1c18 	movw	r1, #44056	; 0xac18
  104cf4:	e3830001 	orr	r0, r3, #1
  104cf8:	e3401010 	movt	r1, #16
  104cfc:	e58c0004 	str	r0, [ip, #4]
  104d00:	e5911000 	ldr	r1, [r1]
  104d04:	e582c008 	str	ip, [r2, #8]
  104d08:	e1530001 	cmp	r3, r1
  104d0c:	3affffbf 	bcc	104c10 <_free_r+0xd4>
  104d10:	e30a3c60 	movw	r3, #44128	; 0xac60
  104d14:	e1a00004 	mov	r0, r4
  104d18:	e3403010 	movt	r3, #16
  104d1c:	e5931000 	ldr	r1, [r3]
  104d20:	ebffff46 	bl	104a40 <_malloc_trim_r>
  104d24:	eaffffb9 	b	104c10 <_free_r+0xd4>
  104d28:	e080200e 	add	r2, r0, lr
  104d2c:	e5922004 	ldr	r2, [r2, #4]
  104d30:	e3120001 	tst	r2, #1
  104d34:	1a000033 	bne	104e08 <_free_r+0x2cc>
  104d38:	e5901008 	ldr	r1, [r0, #8]
  104d3c:	e08e3003 	add	r3, lr, r3
  104d40:	e590200c 	ldr	r2, [r0, #12]
  104d44:	e3830001 	orr	r0, r3, #1
  104d48:	e581200c 	str	r2, [r1, #12]
  104d4c:	e5821008 	str	r1, [r2, #8]
  104d50:	e58c0004 	str	r0, [ip, #4]
  104d54:	e78c3003 	str	r3, [ip, r3]
  104d58:	eaffffac 	b	104c10 <_free_r+0xd4>
  104d5c:	e3510014 	cmp	r1, #20
  104d60:	8a000011 	bhi	104dac <_free_r+0x270>
  104d64:	e281e05c 	add	lr, r1, #92	; 0x5c
  104d68:	e281105b 	add	r1, r1, #91	; 0x5b
  104d6c:	e1a0e08e 	lsl	lr, lr, #1
  104d70:	eaffffb0 	b	104c38 <_free_r+0xfc>
  104d74:	e59e3004 	ldr	r3, [lr, #4]
  104d78:	e1a01141 	asr	r1, r1, #2
  104d7c:	e3a05001 	mov	r5, #1
  104d80:	e1a02000 	mov	r2, r0
  104d84:	e1831115 	orr	r1, r3, r5, lsl r1
  104d88:	e58e1004 	str	r1, [lr, #4]
  104d8c:	eaffffb8 	b	104c74 <_free_r+0x138>
  104d90:	e3830001 	orr	r0, r3, #1
  104d94:	e582c014 	str	ip, [r2, #20]
  104d98:	e582c010 	str	ip, [r2, #16]
  104d9c:	e58c100c 	str	r1, [ip, #12]
  104da0:	e98c0003 	stmib	ip, {r0, r1}
  104da4:	e78c3003 	str	r3, [ip, r3]
  104da8:	eaffff98 	b	104c10 <_free_r+0xd4>
  104dac:	e3510054 	cmp	r1, #84	; 0x54
  104db0:	8a000004 	bhi	104dc8 <_free_r+0x28c>
  104db4:	e1a01623 	lsr	r1, r3, #12
  104db8:	e281e06f 	add	lr, r1, #111	; 0x6f
  104dbc:	e281106e 	add	r1, r1, #110	; 0x6e
  104dc0:	e1a0e08e 	lsl	lr, lr, #1
  104dc4:	eaffff9b 	b	104c38 <_free_r+0xfc>
  104dc8:	e3510f55 	cmp	r1, #340	; 0x154
  104dcc:	8a000004 	bhi	104de4 <_free_r+0x2a8>
  104dd0:	e1a017a3 	lsr	r1, r3, #15
  104dd4:	e281e078 	add	lr, r1, #120	; 0x78
  104dd8:	e2811077 	add	r1, r1, #119	; 0x77
  104ddc:	e1a0e08e 	lsl	lr, lr, #1
  104de0:	eaffff94 	b	104c38 <_free_r+0xfc>
  104de4:	e3000554 	movw	r0, #1364	; 0x554
  104de8:	e1510000 	cmp	r1, r0
  104dec:	91a01923 	lsrls	r1, r3, #18
  104df0:	83a0e0fe 	movhi	lr, #254	; 0xfe
  104df4:	83a0107e 	movhi	r1, #126	; 0x7e
  104df8:	9281e07d 	addls	lr, r1, #125	; 0x7d
  104dfc:	9281107c 	addls	r1, r1, #124	; 0x7c
  104e00:	91a0e08e 	lslls	lr, lr, #1
  104e04:	eaffff8b 	b	104c38 <_free_r+0xfc>
  104e08:	e3832001 	orr	r2, r3, #1
  104e0c:	e58c2004 	str	r2, [ip, #4]
  104e10:	e78c3003 	str	r3, [ip, r3]
  104e14:	eaffff7d 	b	104c10 <_free_r+0xd4>
  104e18:	0010a814 	.word	0x0010a814

00104e1c <__sfvwrite_r>:
  104e1c:	e5923008 	ldr	r3, [r2, #8]
  104e20:	e3530000 	cmp	r3, #0
  104e24:	0a000034 	beq	104efc <__sfvwrite_r+0xe0>
  104e28:	e1d130bc 	ldrh	r3, [r1, #12]
  104e2c:	e92d4ff0 	push	{r4, r5, r6, r7, r8, r9, sl, fp, lr}
  104e30:	e24dd00c 	sub	sp, sp, #12
  104e34:	e1a04001 	mov	r4, r1
  104e38:	e58d0000 	str	r0, [sp]
  104e3c:	e3130008 	tst	r3, #8
  104e40:	e1a07002 	mov	r7, r2
  104e44:	0a000021 	beq	104ed0 <__sfvwrite_r+0xb4>
  104e48:	e5912010 	ldr	r2, [r1, #16]
  104e4c:	e3520000 	cmp	r2, #0
  104e50:	0a00001e 	beq	104ed0 <__sfvwrite_r+0xb4>
  104e54:	e2038002 	and	r8, r3, #2
  104e58:	e5975000 	ldr	r5, [r7]
  104e5c:	e6ff8078 	uxth	r8, r8
  104e60:	e3580000 	cmp	r8, #0
  104e64:	0a000026 	beq	104f04 <__sfvwrite_r+0xe8>
  104e68:	e3a08000 	mov	r8, #0
  104e6c:	e3a09b3f 	mov	r9, #64512	; 0xfc00
  104e70:	e1a06008 	mov	r6, r8
  104e74:	e3479fff 	movt	r9, #32767	; 0x7fff
  104e78:	e3560000 	cmp	r6, #0
  104e7c:	e1a02008 	mov	r2, r8
  104e80:	e59d0000 	ldr	r0, [sp]
  104e84:	0a000018 	beq	104eec <__sfvwrite_r+0xd0>
  104e88:	e1560009 	cmp	r6, r9
  104e8c:	e594a024 	ldr	sl, [r4, #36]	; 0x24
  104e90:	31a03006 	movcc	r3, r6
  104e94:	21a03009 	movcs	r3, r9
  104e98:	e594101c 	ldr	r1, [r4, #28]
  104e9c:	e12fff3a 	blx	sl
  104ea0:	e3500000 	cmp	r0, #0
  104ea4:	e0888000 	add	r8, r8, r0
  104ea8:	e0606006 	rsb	r6, r0, r6
  104eac:	da00003f 	ble	104fb0 <__sfvwrite_r+0x194>
  104eb0:	e5973008 	ldr	r3, [r7, #8]
  104eb4:	e0600003 	rsb	r0, r0, r3
  104eb8:	e3500000 	cmp	r0, #0
  104ebc:	e5870008 	str	r0, [r7, #8]
  104ec0:	1affffec 	bne	104e78 <__sfvwrite_r+0x5c>
  104ec4:	e3a00000 	mov	r0, #0
  104ec8:	e28dd00c 	add	sp, sp, #12
  104ecc:	e8bd8ff0 	pop	{r4, r5, r6, r7, r8, r9, sl, fp, pc}
  104ed0:	e1a01004 	mov	r1, r4
  104ed4:	e59d0000 	ldr	r0, [sp]
  104ed8:	ebfff7cf 	bl	102e1c <__swsetup_r>
  104edc:	e3500000 	cmp	r0, #0
  104ee0:	1a0000ef 	bne	1052a4 <__sfvwrite_r+0x488>
  104ee4:	e1d430bc 	ldrh	r3, [r4, #12]
  104ee8:	eaffffd9 	b	104e54 <__sfvwrite_r+0x38>
  104eec:	e5958000 	ldr	r8, [r5]
  104ef0:	e2855008 	add	r5, r5, #8
  104ef4:	e5156004 	ldr	r6, [r5, #-4]
  104ef8:	eaffffde 	b	104e78 <__sfvwrite_r+0x5c>
  104efc:	e3a00000 	mov	r0, #0
  104f00:	e12fff1e 	bx	lr
  104f04:	e2139001 	ands	r9, r3, #1
  104f08:	1a00002e 	bne	104fc8 <__sfvwrite_r+0x1ac>
  104f0c:	e1a08009 	mov	r8, r9
  104f10:	e3580000 	cmp	r8, #0
  104f14:	0a00001c 	beq	104f8c <__sfvwrite_r+0x170>
  104f18:	e3130c02 	tst	r3, #512	; 0x200
  104f1c:	e5946008 	ldr	r6, [r4, #8]
  104f20:	0a000059 	beq	10508c <__sfvwrite_r+0x270>
  104f24:	e1580006 	cmp	r8, r6
  104f28:	e1a0a006 	mov	sl, r6
  104f2c:	3a00007e 	bcc	10512c <__sfvwrite_r+0x310>
  104f30:	e3130d12 	tst	r3, #1152	; 0x480
  104f34:	1a00008b 	bne	105168 <__sfvwrite_r+0x34c>
  104f38:	e5940000 	ldr	r0, [r4]
  104f3c:	e1a0200a 	mov	r2, sl
  104f40:	e1a01009 	mov	r1, r9
  104f44:	eb00042c 	bl	105ffc <memmove>
  104f48:	e5943008 	ldr	r3, [r4, #8]
  104f4c:	e1a00008 	mov	r0, r8
  104f50:	e5942000 	ldr	r2, [r4]
  104f54:	e0666003 	rsb	r6, r6, r3
  104f58:	e082200a 	add	r2, r2, sl
  104f5c:	e5846008 	str	r6, [r4, #8]
  104f60:	e5842000 	str	r2, [r4]
  104f64:	e5973008 	ldr	r3, [r7, #8]
  104f68:	e0899000 	add	r9, r9, r0
  104f6c:	e0608008 	rsb	r8, r0, r8
  104f70:	e0600003 	rsb	r0, r0, r3
  104f74:	e3500000 	cmp	r0, #0
  104f78:	e5870008 	str	r0, [r7, #8]
  104f7c:	0affffd0 	beq	104ec4 <__sfvwrite_r+0xa8>
  104f80:	e3580000 	cmp	r8, #0
  104f84:	e1d430bc 	ldrh	r3, [r4, #12]
  104f88:	1affffe2 	bne	104f18 <__sfvwrite_r+0xfc>
  104f8c:	e5959000 	ldr	r9, [r5]
  104f90:	e2855008 	add	r5, r5, #8
  104f94:	e5158004 	ldr	r8, [r5, #-4]
  104f98:	eaffffdc 	b	104f10 <__sfvwrite_r+0xf4>
  104f9c:	e1a01004 	mov	r1, r4
  104fa0:	e59d0000 	ldr	r0, [sp]
  104fa4:	ebfffd92 	bl	1045f4 <_fflush_r>
  104fa8:	e3500000 	cmp	r0, #0
  104fac:	0a00004a 	beq	1050dc <__sfvwrite_r+0x2c0>
  104fb0:	e1d430bc 	ldrh	r3, [r4, #12]
  104fb4:	e3833040 	orr	r3, r3, #64	; 0x40
  104fb8:	e3e00000 	mvn	r0, #0
  104fbc:	e1c430bc 	strh	r3, [r4, #12]
  104fc0:	e28dd00c 	add	sp, sp, #12
  104fc4:	e8bd8ff0 	pop	{r4, r5, r6, r7, r8, r9, sl, fp, pc}
  104fc8:	e1a0b008 	mov	fp, r8
  104fcc:	e1a0a008 	mov	sl, r8
  104fd0:	e1a09008 	mov	r9, r8
  104fd4:	e3590000 	cmp	r9, #0
  104fd8:	0a000026 	beq	105078 <__sfvwrite_r+0x25c>
  104fdc:	e35b0000 	cmp	fp, #0
  104fe0:	0a000055 	beq	10513c <__sfvwrite_r+0x320>
  104fe4:	e5942010 	ldr	r2, [r4, #16]
  104fe8:	e1580009 	cmp	r8, r9
  104fec:	e594c014 	ldr	ip, [r4, #20]
  104ff0:	31a01008 	movcc	r1, r8
  104ff4:	e5943008 	ldr	r3, [r4, #8]
  104ff8:	21a01009 	movcs	r1, r9
  104ffc:	e5940000 	ldr	r0, [r4]
  105000:	e1a06001 	mov	r6, r1
  105004:	e08c3003 	add	r3, ip, r3
  105008:	e1500002 	cmp	r0, r2
  10500c:	93a02000 	movls	r2, #0
  105010:	83a02001 	movhi	r2, #1
  105014:	e1510003 	cmp	r1, r3
  105018:	d3a02000 	movle	r2, #0
  10501c:	e3520000 	cmp	r2, #0
  105020:	1a000082 	bne	105230 <__sfvwrite_r+0x414>
  105024:	e151000c 	cmp	r1, ip
  105028:	ba00002d 	blt	1050e4 <__sfvwrite_r+0x2c8>
  10502c:	e5946024 	ldr	r6, [r4, #36]	; 0x24
  105030:	e1a0300c 	mov	r3, ip
  105034:	e1a0200a 	mov	r2, sl
  105038:	e594101c 	ldr	r1, [r4, #28]
  10503c:	e59d0000 	ldr	r0, [sp]
  105040:	e12fff36 	blx	r6
  105044:	e2506000 	subs	r6, r0, #0
  105048:	daffffd8 	ble	104fb0 <__sfvwrite_r+0x194>
  10504c:	e0588006 	subs	r8, r8, r6
  105050:	0a00002e 	beq	105110 <__sfvwrite_r+0x2f4>
  105054:	e5973008 	ldr	r3, [r7, #8]
  105058:	e08aa006 	add	sl, sl, r6
  10505c:	e0669009 	rsb	r9, r6, r9
  105060:	e0666003 	rsb	r6, r6, r3
  105064:	e3560000 	cmp	r6, #0
  105068:	e5876008 	str	r6, [r7, #8]
  10506c:	0affff94 	beq	104ec4 <__sfvwrite_r+0xa8>
  105070:	e3590000 	cmp	r9, #0
  105074:	1affffd8 	bne	104fdc <__sfvwrite_r+0x1c0>
  105078:	e595a000 	ldr	sl, [r5]
  10507c:	e3a0b000 	mov	fp, #0
  105080:	e5959004 	ldr	r9, [r5, #4]
  105084:	e2855008 	add	r5, r5, #8
  105088:	eaffffd1 	b	104fd4 <__sfvwrite_r+0x1b8>
  10508c:	e5940000 	ldr	r0, [r4]
  105090:	e5943010 	ldr	r3, [r4, #16]
  105094:	e1500003 	cmp	r0, r3
  105098:	8a000002 	bhi	1050a8 <__sfvwrite_r+0x28c>
  10509c:	e594a014 	ldr	sl, [r4, #20]
  1050a0:	e158000a 	cmp	r8, sl
  1050a4:	2a000053 	bcs	1051f8 <__sfvwrite_r+0x3dc>
  1050a8:	e1560008 	cmp	r6, r8
  1050ac:	e1a01009 	mov	r1, r9
  1050b0:	21a06008 	movcs	r6, r8
  1050b4:	e1a02006 	mov	r2, r6
  1050b8:	eb0003cf 	bl	105ffc <memmove>
  1050bc:	e5943008 	ldr	r3, [r4, #8]
  1050c0:	e5942000 	ldr	r2, [r4]
  1050c4:	e0663003 	rsb	r3, r6, r3
  1050c8:	e3530000 	cmp	r3, #0
  1050cc:	e0822006 	add	r2, r2, r6
  1050d0:	e5843008 	str	r3, [r4, #8]
  1050d4:	e5842000 	str	r2, [r4]
  1050d8:	0affffaf 	beq	104f9c <__sfvwrite_r+0x180>
  1050dc:	e1a00006 	mov	r0, r6
  1050e0:	eaffff9f 	b	104f64 <__sfvwrite_r+0x148>
  1050e4:	e1a02001 	mov	r2, r1
  1050e8:	e1a0100a 	mov	r1, sl
  1050ec:	eb0003c2 	bl	105ffc <memmove>
  1050f0:	e5942008 	ldr	r2, [r4, #8]
  1050f4:	e0588006 	subs	r8, r8, r6
  1050f8:	e5943000 	ldr	r3, [r4]
  1050fc:	e0662002 	rsb	r2, r6, r2
  105100:	e0833006 	add	r3, r3, r6
  105104:	e5842008 	str	r2, [r4, #8]
  105108:	e5843000 	str	r3, [r4]
  10510c:	1affffd0 	bne	105054 <__sfvwrite_r+0x238>
  105110:	e1a01004 	mov	r1, r4
  105114:	e59d0000 	ldr	r0, [sp]
  105118:	ebfffd35 	bl	1045f4 <_fflush_r>
  10511c:	e3500000 	cmp	r0, #0
  105120:	1affffa2 	bne	104fb0 <__sfvwrite_r+0x194>
  105124:	e1a0b008 	mov	fp, r8
  105128:	eaffffc9 	b	105054 <__sfvwrite_r+0x238>
  10512c:	e5940000 	ldr	r0, [r4]
  105130:	e1a06008 	mov	r6, r8
  105134:	e1a0a008 	mov	sl, r8
  105138:	eaffff7f 	b	104f3c <__sfvwrite_r+0x120>
  10513c:	e1a02009 	mov	r2, r9
  105140:	e3a0100a 	mov	r1, #10
  105144:	e1a0000a 	mov	r0, sl
  105148:	eb000328 	bl	105df0 <memchr>
  10514c:	e3500000 	cmp	r0, #0
  105150:	12800001 	addne	r0, r0, #1
  105154:	13a0b001 	movne	fp, #1
  105158:	106a8000 	rsbne	r8, sl, r0
  10515c:	02898001 	addeq	r8, r9, #1
  105160:	03a0b001 	moveq	fp, #1
  105164:	eaffff9e 	b	104fe4 <__sfvwrite_r+0x1c8>
  105168:	e594b014 	ldr	fp, [r4, #20]
  10516c:	e5941010 	ldr	r1, [r4, #16]
  105170:	e5946000 	ldr	r6, [r4]
  105174:	e08bb08b 	add	fp, fp, fp, lsl #1
  105178:	e0616006 	rsb	r6, r1, r6
  10517c:	e08bbfab 	add	fp, fp, fp, lsr #31
  105180:	e2860001 	add	r0, r6, #1
  105184:	e0800008 	add	r0, r0, r8
  105188:	e1a0b0cb 	asr	fp, fp, #1
  10518c:	e150000b 	cmp	r0, fp
  105190:	e1a0200b 	mov	r2, fp
  105194:	81a0b000 	movhi	fp, r0
  105198:	81a0200b 	movhi	r2, fp
  10519c:	e3130b01 	tst	r3, #1024	; 0x400
  1051a0:	0a000031 	beq	10526c <__sfvwrite_r+0x450>
  1051a4:	e1a01002 	mov	r1, r2
  1051a8:	e59d0000 	ldr	r0, [sp]
  1051ac:	eb000118 	bl	105614 <_malloc_r>
  1051b0:	e250a000 	subs	sl, r0, #0
  1051b4:	0a00003c 	beq	1052ac <__sfvwrite_r+0x490>
  1051b8:	e1a02006 	mov	r2, r6
  1051bc:	e5941010 	ldr	r1, [r4, #16]
  1051c0:	eb00034a 	bl	105ef0 <memcpy>
  1051c4:	e1d430bc 	ldrh	r3, [r4, #12]
  1051c8:	e3c33d12 	bic	r3, r3, #1152	; 0x480
  1051cc:	e3833080 	orr	r3, r3, #128	; 0x80
  1051d0:	e1c430bc 	strh	r3, [r4, #12]
  1051d4:	e08a0006 	add	r0, sl, r6
  1051d8:	e066300b 	rsb	r3, r6, fp
  1051dc:	e584a010 	str	sl, [r4, #16]
  1051e0:	e1a06008 	mov	r6, r8
  1051e4:	e5840000 	str	r0, [r4]
  1051e8:	e1a0a008 	mov	sl, r8
  1051ec:	e5843008 	str	r3, [r4, #8]
  1051f0:	e584b014 	str	fp, [r4, #20]
  1051f4:	eaffff50 	b	104f3c <__sfvwrite_r+0x120>
  1051f8:	e3780106 	cmn	r8, #-2147483647	; 0x80000001
  1051fc:	e1a0100a 	mov	r1, sl
  105200:	31a00008 	movcc	r0, r8
  105204:	23e00102 	mvncs	r0, #-2147483648	; 0x80000000
  105208:	eb00122b 	bl	109abc <__aeabi_idiv>
  10520c:	e5946024 	ldr	r6, [r4, #36]	; 0x24
  105210:	e003009a 	mul	r3, sl, r0
  105214:	e1a02009 	mov	r2, r9
  105218:	e594101c 	ldr	r1, [r4, #28]
  10521c:	e59d0000 	ldr	r0, [sp]
  105220:	e12fff36 	blx	r6
  105224:	e3500000 	cmp	r0, #0
  105228:	caffff4d 	bgt	104f64 <__sfvwrite_r+0x148>
  10522c:	eaffff5f 	b	104fb0 <__sfvwrite_r+0x194>
  105230:	e1a02003 	mov	r2, r3
  105234:	e1a0100a 	mov	r1, sl
  105238:	e58d3004 	str	r3, [sp, #4]
  10523c:	eb00036e 	bl	105ffc <memmove>
  105240:	e5942000 	ldr	r2, [r4]
  105244:	e1a01004 	mov	r1, r4
  105248:	e89d0009 	ldm	sp, {r0, r3}
  10524c:	e0822003 	add	r2, r2, r3
  105250:	e5842000 	str	r2, [r4]
  105254:	ebfffce6 	bl	1045f4 <_fflush_r>
  105258:	e3500000 	cmp	r0, #0
  10525c:	e59d3004 	ldr	r3, [sp, #4]
  105260:	1affff52 	bne	104fb0 <__sfvwrite_r+0x194>
  105264:	e1a06003 	mov	r6, r3
  105268:	eaffff77 	b	10504c <__sfvwrite_r+0x230>
  10526c:	e59d0000 	ldr	r0, [sp]
  105270:	eb00073a 	bl	106f60 <_realloc_r>
  105274:	e250a000 	subs	sl, r0, #0
  105278:	1affffd5 	bne	1051d4 <__sfvwrite_r+0x3b8>
  10527c:	e59d5000 	ldr	r5, [sp]
  105280:	e5941010 	ldr	r1, [r4, #16]
  105284:	e1a00005 	mov	r0, r5
  105288:	ebfffe2b 	bl	104b3c <_free_r>
  10528c:	e1d420bc 	ldrh	r2, [r4, #12]
  105290:	e30f3f7f 	movw	r3, #65407	; 0xff7f
  105294:	e3a0100c 	mov	r1, #12
  105298:	e5851000 	str	r1, [r5]
  10529c:	e0033002 	and	r3, r3, r2
  1052a0:	eaffff43 	b	104fb4 <__sfvwrite_r+0x198>
  1052a4:	e3e00000 	mvn	r0, #0
  1052a8:	eaffff06 	b	104ec8 <__sfvwrite_r+0xac>
  1052ac:	e59d1000 	ldr	r1, [sp]
  1052b0:	e3a0200c 	mov	r2, #12
  1052b4:	e1d430bc 	ldrh	r3, [r4, #12]
  1052b8:	e5812000 	str	r2, [r1]
  1052bc:	eaffff3c 	b	104fb4 <__sfvwrite_r+0x198>

001052c0 <_fwalk>:
  1052c0:	e92d41f0 	push	{r4, r5, r6, r7, r8, lr}
  1052c4:	e2907e2e 	adds	r7, r0, #736	; 0x2e0
  1052c8:	0a000017 	beq	10532c <_fwalk+0x6c>
  1052cc:	e1a08001 	mov	r8, r1
  1052d0:	e3a06000 	mov	r6, #0
  1052d4:	e5975004 	ldr	r5, [r7, #4]
  1052d8:	e5974008 	ldr	r4, [r7, #8]
  1052dc:	e2555001 	subs	r5, r5, #1
  1052e0:	4a00000c 	bmi	105318 <_fwalk+0x58>
  1052e4:	e1d430bc 	ldrh	r3, [r4, #12]
  1052e8:	e2455001 	sub	r5, r5, #1
  1052ec:	e3530001 	cmp	r3, #1
  1052f0:	9a000005 	bls	10530c <_fwalk+0x4c>
  1052f4:	e1d430fe 	ldrsh	r3, [r4, #14]
  1052f8:	e1a00004 	mov	r0, r4
  1052fc:	e3730001 	cmn	r3, #1
  105300:	0a000001 	beq	10530c <_fwalk+0x4c>
  105304:	e12fff38 	blx	r8
  105308:	e1866000 	orr	r6, r6, r0
  10530c:	e3750001 	cmn	r5, #1
  105310:	e2844068 	add	r4, r4, #104	; 0x68
  105314:	1afffff2 	bne	1052e4 <_fwalk+0x24>
  105318:	e5977000 	ldr	r7, [r7]
  10531c:	e3570000 	cmp	r7, #0
  105320:	1affffeb 	bne	1052d4 <_fwalk+0x14>
  105324:	e1a00006 	mov	r0, r6
  105328:	e8bd81f0 	pop	{r4, r5, r6, r7, r8, pc}
  10532c:	e1a06007 	mov	r6, r7
  105330:	e1a00006 	mov	r0, r6
  105334:	e8bd81f0 	pop	{r4, r5, r6, r7, r8, pc}

00105338 <_fwalk_reent>:
  105338:	e92d47f0 	push	{r4, r5, r6, r7, r8, r9, sl, lr}
  10533c:	e2907e2e 	adds	r7, r0, #736	; 0x2e0
  105340:	0a000019 	beq	1053ac <_fwalk_reent+0x74>
  105344:	e1a08001 	mov	r8, r1
  105348:	e1a06000 	mov	r6, r0
  10534c:	e3a09000 	mov	r9, #0
  105350:	e5975004 	ldr	r5, [r7, #4]
  105354:	e5974008 	ldr	r4, [r7, #8]
  105358:	e2555001 	subs	r5, r5, #1
  10535c:	4a00000d 	bmi	105398 <_fwalk_reent+0x60>
  105360:	e1d430bc 	ldrh	r3, [r4, #12]
  105364:	e2455001 	sub	r5, r5, #1
  105368:	e3530001 	cmp	r3, #1
  10536c:	9a000006 	bls	10538c <_fwalk_reent+0x54>
  105370:	e1d430fe 	ldrsh	r3, [r4, #14]
  105374:	e1a01004 	mov	r1, r4
  105378:	e1a00006 	mov	r0, r6
  10537c:	e3730001 	cmn	r3, #1
  105380:	0a000001 	beq	10538c <_fwalk_reent+0x54>
  105384:	e12fff38 	blx	r8
  105388:	e1899000 	orr	r9, r9, r0
  10538c:	e3750001 	cmn	r5, #1
  105390:	e2844068 	add	r4, r4, #104	; 0x68
  105394:	1afffff1 	bne	105360 <_fwalk_reent+0x28>
  105398:	e5977000 	ldr	r7, [r7]
  10539c:	e3570000 	cmp	r7, #0
  1053a0:	1affffea 	bne	105350 <_fwalk_reent+0x18>
  1053a4:	e1a00009 	mov	r0, r9
  1053a8:	e8bd87f0 	pop	{r4, r5, r6, r7, r8, r9, sl, pc}
  1053ac:	e1a09007 	mov	r9, r7
  1053b0:	e1a00009 	mov	r0, r9
  1053b4:	e8bd87f0 	pop	{r4, r5, r6, r7, r8, r9, sl, pc}

001053b8 <__getreent>:
  1053b8:	e30a3364 	movw	r3, #41828	; 0xa364
  1053bc:	e3403010 	movt	r3, #16
  1053c0:	e5930000 	ldr	r0, [r3]
  1053c4:	e12fff1e 	bx	lr

001053c8 <_setlocale_r>:
  1053c8:	e3520000 	cmp	r2, #0
  1053cc:	0a000018 	beq	105434 <_setlocale_r+0x6c>
  1053d0:	e30a1190 	movw	r1, #41360	; 0xa190
  1053d4:	e92d4010 	push	{r4, lr}
  1053d8:	e1a00002 	mov	r0, r2
  1053dc:	e3401010 	movt	r1, #16
  1053e0:	e1a04002 	mov	r4, r2
  1053e4:	fa000897 	blx	107648 <strcmp>
  1053e8:	e3500000 	cmp	r0, #0
  1053ec:	1a000002 	bne	1053fc <_setlocale_r+0x34>
  1053f0:	e30a018c 	movw	r0, #41356	; 0xa18c
  1053f4:	e3400010 	movt	r0, #16
  1053f8:	e8bd8010 	pop	{r4, pc}
  1053fc:	e30a118c 	movw	r1, #41356	; 0xa18c
  105400:	e1a00004 	mov	r0, r4
  105404:	e3401010 	movt	r1, #16
  105408:	fa00088e 	blx	107648 <strcmp>
  10540c:	e3500000 	cmp	r0, #0
  105410:	0afffff6 	beq	1053f0 <_setlocale_r+0x28>
  105414:	e30a1158 	movw	r1, #41304	; 0xa158
  105418:	e1a00004 	mov	r0, r4
  10541c:	e3401010 	movt	r1, #16
  105420:	fa000888 	blx	107648 <strcmp>
  105424:	e3500000 	cmp	r0, #0
  105428:	0afffff0 	beq	1053f0 <_setlocale_r+0x28>
  10542c:	e3a00000 	mov	r0, #0
  105430:	e8bd8010 	pop	{r4, pc}
  105434:	e30a018c 	movw	r0, #41356	; 0xa18c
  105438:	e3400010 	movt	r0, #16
  10543c:	e12fff1e 	bx	lr

00105440 <__locale_charset>:
  105440:	e30a0790 	movw	r0, #42896	; 0xa790
  105444:	e3400010 	movt	r0, #16
  105448:	e12fff1e 	bx	lr

0010544c <__locale_mb_cur_max>:
  10544c:	e30a3790 	movw	r3, #42896	; 0xa790
  105450:	e3403010 	movt	r3, #16
  105454:	e5930020 	ldr	r0, [r3, #32]
  105458:	e12fff1e 	bx	lr

0010545c <__locale_msgcharset>:
  10545c:	e59f0000 	ldr	r0, [pc]	; 105464 <__locale_msgcharset+0x8>
  105460:	e12fff1e 	bx	lr
  105464:	0010a7b4 	.word	0x0010a7b4

00105468 <__locale_cjk_lang>:
  105468:	e3a00000 	mov	r0, #0
  10546c:	e12fff1e 	bx	lr

00105470 <_localeconv_r>:
  105470:	e59f0000 	ldr	r0, [pc]	; 105478 <_localeconv_r+0x8>
  105474:	e12fff1e 	bx	lr
  105478:	0010a7d4 	.word	0x0010a7d4

0010547c <setlocale>:
  10547c:	e92d4070 	push	{r4, r5, r6, lr}
  105480:	e1a05001 	mov	r5, r1
  105484:	e1a04000 	mov	r4, r0
  105488:	ebffffca 	bl	1053b8 <__getreent>
  10548c:	e1a02005 	mov	r2, r5
  105490:	e1a01004 	mov	r1, r4
  105494:	e8bd4070 	pop	{r4, r5, r6, lr}
  105498:	eaffffca 	b	1053c8 <_setlocale_r>

0010549c <localeconv>:
  10549c:	e92d4010 	push	{r4, lr}
  1054a0:	ebffffc4 	bl	1053b8 <__getreent>
  1054a4:	e59f0000 	ldr	r0, [pc]	; 1054ac <localeconv+0x10>
  1054a8:	e8bd8010 	pop	{r4, pc}
  1054ac:	0010a7d4 	.word	0x0010a7d4

001054b0 <__smakebuf_r>:
  1054b0:	e1d130bc 	ldrh	r3, [r1, #12]
  1054b4:	e6ff2073 	uxth	r2, r3
  1054b8:	e3120002 	tst	r2, #2
  1054bc:	1a000030 	bne	105584 <__smakebuf_r+0xd4>
  1054c0:	e92d40f0 	push	{r4, r5, r6, r7, lr}
  1054c4:	e1a04001 	mov	r4, r1
  1054c8:	e1d110fe 	ldrsh	r1, [r1, #14]
  1054cc:	e24dd044 	sub	sp, sp, #68	; 0x44
  1054d0:	e1a05000 	mov	r5, r0
  1054d4:	e3510000 	cmp	r1, #0
  1054d8:	ba000011 	blt	105524 <__smakebuf_r+0x74>
  1054dc:	e28d2004 	add	r2, sp, #4
  1054e0:	eb000fb8 	bl	1093c8 <_fstat_r>
  1054e4:	e3500000 	cmp	r0, #0
  1054e8:	ba00000b 	blt	10551c <__smakebuf_r+0x6c>
  1054ec:	e59d3008 	ldr	r3, [sp, #8]
  1054f0:	e2033a0f 	and	r3, r3, #61440	; 0xf000
  1054f4:	e2437a02 	sub	r7, r3, #8192	; 0x2000
  1054f8:	e3530902 	cmp	r3, #32768	; 0x8000
  1054fc:	e16f7f17 	clz	r7, r7
  105500:	e1a072a7 	lsr	r7, r7, #5
  105504:	0a000024 	beq	10559c <__smakebuf_r+0xec>
  105508:	e1d430bc 	ldrh	r3, [r4, #12]
  10550c:	e3a06b01 	mov	r6, #1024	; 0x400
  105510:	e3833b02 	orr	r3, r3, #2048	; 0x800
  105514:	e1c430bc 	strh	r3, [r4, #12]
  105518:	ea000007 	b	10553c <__smakebuf_r+0x8c>
  10551c:	e1d430bc 	ldrh	r3, [r4, #12]
  105520:	e6ff2073 	uxth	r2, r3
  105524:	e3120080 	tst	r2, #128	; 0x80
  105528:	13a06040 	movne	r6, #64	; 0x40
  10552c:	03a06b01 	moveq	r6, #1024	; 0x400
  105530:	e3a07000 	mov	r7, #0
  105534:	e3833b02 	orr	r3, r3, #2048	; 0x800
  105538:	e1c430bc 	strh	r3, [r4, #12]
  10553c:	e1a01006 	mov	r1, r6
  105540:	e1a00005 	mov	r0, r5
  105544:	eb000032 	bl	105614 <_malloc_r>
  105548:	e3500000 	cmp	r0, #0
  10554c:	e1d430bc 	ldrh	r3, [r4, #12]
  105550:	0a000025 	beq	1055ec <__smakebuf_r+0x13c>
  105554:	e30426bc 	movw	r2, #18108	; 0x46bc
  105558:	e3570000 	cmp	r7, #0
  10555c:	e3402010 	movt	r2, #16
  105560:	e3833080 	orr	r3, r3, #128	; 0x80
  105564:	e585203c 	str	r2, [r5, #60]	; 0x3c
  105568:	e5840000 	str	r0, [r4]
  10556c:	e5840010 	str	r0, [r4, #16]
  105570:	e5846014 	str	r6, [r4, #20]
  105574:	e1c430bc 	strh	r3, [r4, #12]
  105578:	1a000012 	bne	1055c8 <__smakebuf_r+0x118>
  10557c:	e28dd044 	add	sp, sp, #68	; 0x44
  105580:	e8bd80f0 	pop	{r4, r5, r6, r7, pc}
  105584:	e2813043 	add	r3, r1, #67	; 0x43
  105588:	e3a02001 	mov	r2, #1
  10558c:	e5813000 	str	r3, [r1]
  105590:	e5813010 	str	r3, [r1, #16]
  105594:	e5812014 	str	r2, [r1, #20]
  105598:	e12fff1e 	bx	lr
  10559c:	e5942028 	ldr	r2, [r4, #40]	; 0x28
  1055a0:	e30735f8 	movw	r3, #30200	; 0x75f8
  1055a4:	e3403010 	movt	r3, #16
  1055a8:	e1520003 	cmp	r2, r3
  1055ac:	1affffd5 	bne	105508 <__smakebuf_r+0x58>
  1055b0:	e1d430bc 	ldrh	r3, [r4, #12]
  1055b4:	e3a06b01 	mov	r6, #1024	; 0x400
  1055b8:	e584604c 	str	r6, [r4, #76]	; 0x4c
  1055bc:	e1833006 	orr	r3, r3, r6
  1055c0:	e1c430bc 	strh	r3, [r4, #12]
  1055c4:	eaffffdc 	b	10553c <__smakebuf_r+0x8c>
  1055c8:	e1a00005 	mov	r0, r5
  1055cc:	e1d410fe 	ldrsh	r1, [r4, #14]
  1055d0:	eb000f8c 	bl	109408 <_isatty_r>
  1055d4:	e3500000 	cmp	r0, #0
  1055d8:	11d430bc 	ldrhne	r3, [r4, #12]
  1055dc:	13833001 	orrne	r3, r3, #1
  1055e0:	11c430bc 	strhne	r3, [r4, #12]
  1055e4:	e28dd044 	add	sp, sp, #68	; 0x44
  1055e8:	e8bd80f0 	pop	{r4, r5, r6, r7, pc}
  1055ec:	e3130c02 	tst	r3, #512	; 0x200
  1055f0:	1affffe1 	bne	10557c <__smakebuf_r+0xcc>
  1055f4:	e2842043 	add	r2, r4, #67	; 0x43
  1055f8:	e3833002 	orr	r3, r3, #2
  1055fc:	e3a01001 	mov	r1, #1
  105600:	e1c430bc 	strh	r3, [r4, #12]
  105604:	e5842000 	str	r2, [r4]
  105608:	e5842010 	str	r2, [r4, #16]
  10560c:	e5841014 	str	r1, [r4, #20]
  105610:	eaffffd9 	b	10557c <__smakebuf_r+0xcc>

00105614 <_malloc_r>:
  105614:	e92d4ff0 	push	{r4, r5, r6, r7, r8, r9, sl, fp, lr}
  105618:	e281500b 	add	r5, r1, #11
  10561c:	e3550016 	cmp	r5, #22
  105620:	e24dd00c 	sub	sp, sp, #12
  105624:	e1a06000 	mov	r6, r0
  105628:	9a000075 	bls	105804 <_malloc_r+0x1f0>
  10562c:	e3c55007 	bic	r5, r5, #7
  105630:	e1510005 	cmp	r1, r5
  105634:	93a01000 	movls	r1, #0
  105638:	83a01001 	movhi	r1, #1
  10563c:	e1913fa5 	orrs	r3, r1, r5, lsr #31
  105640:	1a00008c 	bne	105878 <_malloc_r+0x264>
  105644:	eb0002f4 	bl	10621c <__malloc_lock>
  105648:	e3550f7e 	cmp	r5, #504	; 0x1f8
  10564c:	3a0001e3 	bcc	105de0 <_malloc_r+0x7cc>
  105650:	e1b034a5 	lsrs	r3, r5, #9
  105654:	0a00008d 	beq	105890 <_malloc_r+0x27c>
  105658:	e3530004 	cmp	r3, #4
  10565c:	8a0000e8 	bhi	105a04 <_malloc_r+0x3f0>
  105660:	e1a03325 	lsr	r3, r5, #6
  105664:	e283e039 	add	lr, r3, #57	; 0x39
  105668:	e283c038 	add	ip, r3, #56	; 0x38
  10566c:	e1a0008e 	lsl	r0, lr, #1
  105670:	e30a780c 	movw	r7, #43020	; 0xa80c
  105674:	e3407010 	movt	r7, #16
  105678:	e0870100 	add	r0, r7, r0, lsl #2
  10567c:	e5903004 	ldr	r3, [r0, #4]
  105680:	e2400008 	sub	r0, r0, #8
  105684:	e1500003 	cmp	r0, r3
  105688:	1a000005 	bne	1056a4 <_malloc_r+0x90>
  10568c:	ea000083 	b	1058a0 <_malloc_r+0x28c>
  105690:	e3510000 	cmp	r1, #0
  105694:	aa000083 	bge	1058a8 <_malloc_r+0x294>
  105698:	e593300c 	ldr	r3, [r3, #12]
  10569c:	e1500003 	cmp	r0, r3
  1056a0:	0a00007e 	beq	1058a0 <_malloc_r+0x28c>
  1056a4:	e5932004 	ldr	r2, [r3, #4]
  1056a8:	e3c22003 	bic	r2, r2, #3
  1056ac:	e0651002 	rsb	r1, r5, r2
  1056b0:	e351000f 	cmp	r1, #15
  1056b4:	dafffff5 	ble	105690 <_malloc_r+0x7c>
  1056b8:	e1a0000c 	mov	r0, ip
  1056bc:	e30ae80c 	movw	lr, #43020	; 0xa80c
  1056c0:	e5973010 	ldr	r3, [r7, #16]
  1056c4:	e340e010 	movt	lr, #16
  1056c8:	e28ec008 	add	ip, lr, #8
  1056cc:	e153000c 	cmp	r3, ip
  1056d0:	059e2004 	ldreq	r2, [lr, #4]
  1056d4:	0a000018 	beq	10573c <_malloc_r+0x128>
  1056d8:	e5932004 	ldr	r2, [r3, #4]
  1056dc:	e3c22003 	bic	r2, r2, #3
  1056e0:	e0651002 	rsb	r1, r5, r2
  1056e4:	e351000f 	cmp	r1, #15
  1056e8:	ca0000eb 	bgt	105a9c <_malloc_r+0x488>
  1056ec:	e3510000 	cmp	r1, #0
  1056f0:	e58ec014 	str	ip, [lr, #20]
  1056f4:	e58ec010 	str	ip, [lr, #16]
  1056f8:	aa000078 	bge	1058e0 <_malloc_r+0x2cc>
  1056fc:	e3520c02 	cmp	r2, #512	; 0x200
  105700:	2a0000c8 	bcs	105a28 <_malloc_r+0x414>
  105704:	e59e1004 	ldr	r1, [lr, #4]
  105708:	e1a021a2 	lsr	r2, r2, #3
  10570c:	e3a0a001 	mov	sl, #1
  105710:	e082400a 	add	r4, r2, sl
  105714:	e1a02142 	asr	r2, r2, #2
  105718:	e79e8184 	ldr	r8, [lr, r4, lsl #3]
  10571c:	e08e9184 	add	r9, lr, r4, lsl #3
  105720:	e181221a 	orr	r2, r1, sl, lsl r2
  105724:	e2491008 	sub	r1, r9, #8
  105728:	e583100c 	str	r1, [r3, #12]
  10572c:	e5838008 	str	r8, [r3, #8]
  105730:	e58e2004 	str	r2, [lr, #4]
  105734:	e78e3184 	str	r3, [lr, r4, lsl #3]
  105738:	e588300c 	str	r3, [r8, #12]
  10573c:	e1a03140 	asr	r3, r0, #2
  105740:	e3a0e001 	mov	lr, #1
  105744:	e1a0e31e 	lsl	lr, lr, r3
  105748:	e15e0002 	cmp	lr, r2
  10574c:	8a00006d 	bhi	105908 <_malloc_r+0x2f4>
  105750:	e11e0002 	tst	lr, r2
  105754:	1a000008 	bne	10577c <_malloc_r+0x168>
  105758:	e1a0e08e 	lsl	lr, lr, #1
  10575c:	e3c00003 	bic	r0, r0, #3
  105760:	e2800004 	add	r0, r0, #4
  105764:	e11e0002 	tst	lr, r2
  105768:	1a000003 	bne	10577c <_malloc_r+0x168>
  10576c:	e1a0e08e 	lsl	lr, lr, #1
  105770:	e2800004 	add	r0, r0, #4
  105774:	e11e0002 	tst	lr, r2
  105778:	0afffffb 	beq	10576c <_malloc_r+0x158>
  10577c:	e0879180 	add	r9, r7, r0, lsl #3
  105780:	e1a08000 	mov	r8, r0
  105784:	e1a04009 	mov	r4, r9
  105788:	e594300c 	ldr	r3, [r4, #12]
  10578c:	e1540003 	cmp	r4, r3
  105790:	1a000005 	bne	1057ac <_malloc_r+0x198>
  105794:	ea0000cd 	b	105ad0 <_malloc_r+0x4bc>
  105798:	e3510000 	cmp	r1, #0
  10579c:	aa0000d5 	bge	105af8 <_malloc_r+0x4e4>
  1057a0:	e593300c 	ldr	r3, [r3, #12]
  1057a4:	e1540003 	cmp	r4, r3
  1057a8:	0a0000c8 	beq	105ad0 <_malloc_r+0x4bc>
  1057ac:	e5932004 	ldr	r2, [r3, #4]
  1057b0:	e3c22003 	bic	r2, r2, #3
  1057b4:	e0651002 	rsb	r1, r5, r2
  1057b8:	e351000f 	cmp	r1, #15
  1057bc:	dafffff5 	ble	105798 <_malloc_r+0x184>
  1057c0:	e1a04003 	mov	r4, r3
  1057c4:	e593200c 	ldr	r2, [r3, #12]
  1057c8:	e5b4e008 	ldr	lr, [r4, #8]!
  1057cc:	e3858001 	orr	r8, r5, #1
  1057d0:	e5838004 	str	r8, [r3, #4]
  1057d4:	e0835005 	add	r5, r3, r5
  1057d8:	e3813001 	orr	r3, r1, #1
  1057dc:	e1a00006 	mov	r0, r6
  1057e0:	e58e200c 	str	r2, [lr, #12]
  1057e4:	e582e008 	str	lr, [r2, #8]
  1057e8:	e5875014 	str	r5, [r7, #20]
  1057ec:	e5875010 	str	r5, [r7, #16]
  1057f0:	e585c00c 	str	ip, [r5, #12]
  1057f4:	e9851008 	stmib	r5, {r3, ip}
  1057f8:	e7851001 	str	r1, [r5, r1]
  1057fc:	eb000289 	bl	106228 <__malloc_unlock>
  105800:	ea000019 	b	10586c <_malloc_r+0x258>
  105804:	e3510010 	cmp	r1, #16
  105808:	8a00001a 	bhi	105878 <_malloc_r+0x264>
  10580c:	eb000282 	bl	10621c <__malloc_lock>
  105810:	e3a05010 	mov	r5, #16
  105814:	e3a02006 	mov	r2, #6
  105818:	e3a00002 	mov	r0, #2
  10581c:	e30a780c 	movw	r7, #43020	; 0xa80c
  105820:	e3407010 	movt	r7, #16
  105824:	e0872102 	add	r2, r7, r2, lsl #2
  105828:	e5923004 	ldr	r3, [r2, #4]
  10582c:	e2421008 	sub	r1, r2, #8
  105830:	e1530001 	cmp	r3, r1
  105834:	0a0000aa 	beq	105ae4 <_malloc_r+0x4d0>
  105838:	e5932004 	ldr	r2, [r3, #4]
  10583c:	e2834008 	add	r4, r3, #8
  105840:	e593100c 	ldr	r1, [r3, #12]
  105844:	e1a00006 	mov	r0, r6
  105848:	e593c008 	ldr	ip, [r3, #8]
  10584c:	e3c22003 	bic	r2, r2, #3
  105850:	e0833002 	add	r3, r3, r2
  105854:	e5932004 	ldr	r2, [r3, #4]
  105858:	e58c100c 	str	r1, [ip, #12]
  10585c:	e581c008 	str	ip, [r1, #8]
  105860:	e3822001 	orr	r2, r2, #1
  105864:	e5832004 	str	r2, [r3, #4]
  105868:	eb00026e 	bl	106228 <__malloc_unlock>
  10586c:	e1a00004 	mov	r0, r4
  105870:	e28dd00c 	add	sp, sp, #12
  105874:	e8bd8ff0 	pop	{r4, r5, r6, r7, r8, r9, sl, fp, pc}
  105878:	e3a0300c 	mov	r3, #12
  10587c:	e3a04000 	mov	r4, #0
  105880:	e1a00004 	mov	r0, r4
  105884:	e5863000 	str	r3, [r6]
  105888:	e28dd00c 	add	sp, sp, #12
  10588c:	e8bd8ff0 	pop	{r4, r5, r6, r7, r8, r9, sl, fp, pc}
  105890:	e3a00080 	mov	r0, #128	; 0x80
  105894:	e3a0e040 	mov	lr, #64	; 0x40
  105898:	e3a0c03f 	mov	ip, #63	; 0x3f
  10589c:	eaffff73 	b	105670 <_malloc_r+0x5c>
  1058a0:	e1a0000e 	mov	r0, lr
  1058a4:	eaffff84 	b	1056bc <_malloc_r+0xa8>
  1058a8:	e0832002 	add	r2, r3, r2
  1058ac:	e593c00c 	ldr	ip, [r3, #12]
  1058b0:	e5921004 	ldr	r1, [r2, #4]
  1058b4:	e2834008 	add	r4, r3, #8
  1058b8:	e593e008 	ldr	lr, [r3, #8]
  1058bc:	e1a00006 	mov	r0, r6
  1058c0:	e3813001 	orr	r3, r1, #1
  1058c4:	e58ec00c 	str	ip, [lr, #12]
  1058c8:	e58ce008 	str	lr, [ip, #8]
  1058cc:	e5823004 	str	r3, [r2, #4]
  1058d0:	eb000254 	bl	106228 <__malloc_unlock>
  1058d4:	e1a00004 	mov	r0, r4
  1058d8:	e28dd00c 	add	sp, sp, #12
  1058dc:	e8bd8ff0 	pop	{r4, r5, r6, r7, r8, r9, sl, fp, pc}
  1058e0:	e0832002 	add	r2, r3, r2
  1058e4:	e2834008 	add	r4, r3, #8
  1058e8:	e5921004 	ldr	r1, [r2, #4]
  1058ec:	e1a00006 	mov	r0, r6
  1058f0:	e3813001 	orr	r3, r1, #1
  1058f4:	e5823004 	str	r3, [r2, #4]
  1058f8:	eb00024a 	bl	106228 <__malloc_unlock>
  1058fc:	e1a00004 	mov	r0, r4
  105900:	e28dd00c 	add	sp, sp, #12
  105904:	e8bd8ff0 	pop	{r4, r5, r6, r7, r8, r9, sl, fp, pc}
  105908:	e5974008 	ldr	r4, [r7, #8]
  10590c:	e30a180c 	movw	r1, #43020	; 0xa80c
  105910:	e3401010 	movt	r1, #16
  105914:	e5943004 	ldr	r3, [r4, #4]
  105918:	e3c3a003 	bic	sl, r3, #3
  10591c:	e065300a 	rsb	r3, r5, sl
  105920:	e353000f 	cmp	r3, #15
  105924:	c3a02000 	movgt	r2, #0
  105928:	d3a02001 	movle	r2, #1
  10592c:	e15a0005 	cmp	sl, r5
  105930:	33822001 	orrcc	r2, r2, #1
  105934:	e3520000 	cmp	r2, #0
  105938:	0a000025 	beq	1059d4 <_malloc_r+0x3c0>
  10593c:	e30a9c60 	movw	r9, #44128	; 0xac60
  105940:	e5913408 	ldr	r3, [r1, #1032]	; 0x408
  105944:	e3409010 	movt	r9, #16
  105948:	e1a00006 	mov	r0, r6
  10594c:	e5998000 	ldr	r8, [r9]
  105950:	e3730001 	cmn	r3, #1
  105954:	e0858008 	add	r8, r5, r8
  105958:	12888a01 	addne	r8, r8, #4096	; 0x1000
  10595c:	02888010 	addeq	r8, r8, #16
  105960:	1288800f 	addne	r8, r8, #15
  105964:	13c88eff 	bicne	r8, r8, #4080	; 0xff0
  105968:	13c8800f 	bicne	r8, r8, #15
  10596c:	e1a01008 	mov	r1, r8
  105970:	eb0006ef 	bl	107534 <_sbrk_r>
  105974:	e3700001 	cmn	r0, #1
  105978:	e1a0b000 	mov	fp, r0
  10597c:	0a0000f0 	beq	105d44 <_malloc_r+0x730>
  105980:	e084300a 	add	r3, r4, sl
  105984:	e30a180c 	movw	r1, #43020	; 0xa80c
  105988:	e1540007 	cmp	r4, r7
  10598c:	11530000 	cmpne	r3, r0
  105990:	e3401010 	movt	r1, #16
  105994:	9a000085 	bls	105bb0 <_malloc_r+0x59c>
  105998:	e5914008 	ldr	r4, [r1, #8]
  10599c:	e5942004 	ldr	r2, [r4, #4]
  1059a0:	e3c22003 	bic	r2, r2, #3
  1059a4:	e1550002 	cmp	r5, r2
  1059a8:	e0653002 	rsb	r3, r5, r2
  1059ac:	93a02000 	movls	r2, #0
  1059b0:	83a02001 	movhi	r2, #1
  1059b4:	e353000f 	cmp	r3, #15
  1059b8:	d3822001 	orrle	r2, r2, #1
  1059bc:	e3520000 	cmp	r2, #0
  1059c0:	0a000003 	beq	1059d4 <_malloc_r+0x3c0>
  1059c4:	e1a00006 	mov	r0, r6
  1059c8:	e3a04000 	mov	r4, #0
  1059cc:	eb000215 	bl	106228 <__malloc_unlock>
  1059d0:	eaffffa5 	b	10586c <_malloc_r+0x258>
  1059d4:	e3852001 	orr	r2, r5, #1
  1059d8:	e3833001 	orr	r3, r3, #1
  1059dc:	e0845005 	add	r5, r4, r5
  1059e0:	e5842004 	str	r2, [r4, #4]
  1059e4:	e1a00006 	mov	r0, r6
  1059e8:	e5875008 	str	r5, [r7, #8]
  1059ec:	e2844008 	add	r4, r4, #8
  1059f0:	e5853004 	str	r3, [r5, #4]
  1059f4:	eb00020b 	bl	106228 <__malloc_unlock>
  1059f8:	e1a00004 	mov	r0, r4
  1059fc:	e28dd00c 	add	sp, sp, #12
  105a00:	e8bd8ff0 	pop	{r4, r5, r6, r7, r8, r9, sl, fp, pc}
  105a04:	e3530014 	cmp	r3, #20
  105a08:	9a000046 	bls	105b28 <_malloc_r+0x514>
  105a0c:	e3530054 	cmp	r3, #84	; 0x54
  105a10:	8a0000ae 	bhi	105cd0 <_malloc_r+0x6bc>
  105a14:	e1a03625 	lsr	r3, r5, #12
  105a18:	e283e06f 	add	lr, r3, #111	; 0x6f
  105a1c:	e283c06e 	add	ip, r3, #110	; 0x6e
  105a20:	e1a0008e 	lsl	r0, lr, #1
  105a24:	eaffff11 	b	105670 <_malloc_r+0x5c>
  105a28:	e1a0e4a2 	lsr	lr, r2, #9
  105a2c:	e35e0004 	cmp	lr, #4
  105a30:	9a000040 	bls	105b38 <_malloc_r+0x524>
  105a34:	e35e0014 	cmp	lr, #20
  105a38:	8a0000ba 	bhi	105d28 <_malloc_r+0x714>
  105a3c:	e28e105c 	add	r1, lr, #92	; 0x5c
  105a40:	e28ee05b 	add	lr, lr, #91	; 0x5b
  105a44:	e1a01081 	lsl	r1, r1, #1
  105a48:	e0878101 	add	r8, r7, r1, lsl #2
  105a4c:	e7971101 	ldr	r1, [r7, r1, lsl #2]
  105a50:	e30a480c 	movw	r4, #43020	; 0xa80c
  105a54:	e2488008 	sub	r8, r8, #8
  105a58:	e3404010 	movt	r4, #16
  105a5c:	e1580001 	cmp	r8, r1
  105a60:	0a0000a1 	beq	105cec <_malloc_r+0x6d8>
  105a64:	e591e004 	ldr	lr, [r1, #4]
  105a68:	e3cee003 	bic	lr, lr, #3
  105a6c:	e152000e 	cmp	r2, lr
  105a70:	2a000002 	bcs	105a80 <_malloc_r+0x46c>
  105a74:	e5911008 	ldr	r1, [r1, #8]
  105a78:	e1580001 	cmp	r8, r1
  105a7c:	1afffff8 	bne	105a64 <_malloc_r+0x450>
  105a80:	e591800c 	ldr	r8, [r1, #12]
  105a84:	e5972004 	ldr	r2, [r7, #4]
  105a88:	e583800c 	str	r8, [r3, #12]
  105a8c:	e5831008 	str	r1, [r3, #8]
  105a90:	e5883008 	str	r3, [r8, #8]
  105a94:	e581300c 	str	r3, [r1, #12]
  105a98:	eaffff27 	b	10573c <_malloc_r+0x128>
  105a9c:	e3854001 	orr	r4, r5, #1
  105aa0:	e3812001 	orr	r2, r1, #1
  105aa4:	e0835005 	add	r5, r3, r5
  105aa8:	e5834004 	str	r4, [r3, #4]
  105aac:	e1a00006 	mov	r0, r6
  105ab0:	e58e5014 	str	r5, [lr, #20]
  105ab4:	e58e5010 	str	r5, [lr, #16]
  105ab8:	e2834008 	add	r4, r3, #8
  105abc:	e585c00c 	str	ip, [r5, #12]
  105ac0:	e9851004 	stmib	r5, {r2, ip}
  105ac4:	e7851001 	str	r1, [r5, r1]
  105ac8:	eb0001d6 	bl	106228 <__malloc_unlock>
  105acc:	eaffff66 	b	10586c <_malloc_r+0x258>
  105ad0:	e2888001 	add	r8, r8, #1
  105ad4:	e2844008 	add	r4, r4, #8
  105ad8:	e3180003 	tst	r8, #3
  105adc:	1affff29 	bne	105788 <_malloc_r+0x174>
  105ae0:	ea00001c 	b	105b58 <_malloc_r+0x544>
  105ae4:	e592300c 	ldr	r3, [r2, #12]
  105ae8:	e1520003 	cmp	r2, r3
  105aec:	02800002 	addeq	r0, r0, #2
  105af0:	0afffef1 	beq	1056bc <_malloc_r+0xa8>
  105af4:	eaffff4f 	b	105838 <_malloc_r+0x224>
  105af8:	e0832002 	add	r2, r3, r2
  105afc:	e1a04003 	mov	r4, r3
  105b00:	e5921004 	ldr	r1, [r2, #4]
  105b04:	e1a00006 	mov	r0, r6
  105b08:	e593c00c 	ldr	ip, [r3, #12]
  105b0c:	e5b4e008 	ldr	lr, [r4, #8]!
  105b10:	e3813001 	orr	r3, r1, #1
  105b14:	e5823004 	str	r3, [r2, #4]
  105b18:	e58ec00c 	str	ip, [lr, #12]
  105b1c:	e58ce008 	str	lr, [ip, #8]
  105b20:	eb0001c0 	bl	106228 <__malloc_unlock>
  105b24:	eaffff50 	b	10586c <_malloc_r+0x258>
  105b28:	e283e05c 	add	lr, r3, #92	; 0x5c
  105b2c:	e283c05b 	add	ip, r3, #91	; 0x5b
  105b30:	e1a0008e 	lsl	r0, lr, #1
  105b34:	eafffecd 	b	105670 <_malloc_r+0x5c>
  105b38:	e1a0e322 	lsr	lr, r2, #6
  105b3c:	e28e1039 	add	r1, lr, #57	; 0x39
  105b40:	e28ee038 	add	lr, lr, #56	; 0x38
  105b44:	e1a01081 	lsl	r1, r1, #1
  105b48:	eaffffbe 	b	105a48 <_malloc_r+0x434>
  105b4c:	e4193008 	ldr	r3, [r9], #-8
  105b50:	e1590003 	cmp	r9, r3
  105b54:	1a00009f 	bne	105dd8 <_malloc_r+0x7c4>
  105b58:	e3100003 	tst	r0, #3
  105b5c:	e2400001 	sub	r0, r0, #1
  105b60:	1afffff9 	bne	105b4c <_malloc_r+0x538>
  105b64:	e5973004 	ldr	r3, [r7, #4]
  105b68:	e1c3300e 	bic	r3, r3, lr
  105b6c:	e5873004 	str	r3, [r7, #4]
  105b70:	e1b0e08e 	lsls	lr, lr, #1
  105b74:	13a02001 	movne	r2, #1
  105b78:	03a02000 	moveq	r2, #0
  105b7c:	e15e0003 	cmp	lr, r3
  105b80:	83a02000 	movhi	r2, #0
  105b84:	92022001 	andls	r2, r2, #1
  105b88:	e3520000 	cmp	r2, #0
  105b8c:	0affff5d 	beq	105908 <_malloc_r+0x2f4>
  105b90:	e11e0003 	tst	lr, r3
  105b94:	e1a00008 	mov	r0, r8
  105b98:	1afffef7 	bne	10577c <_malloc_r+0x168>
  105b9c:	e1a0e08e 	lsl	lr, lr, #1
  105ba0:	e2800004 	add	r0, r0, #4
  105ba4:	e11e0003 	tst	lr, r3
  105ba8:	0afffffb 	beq	105b9c <_malloc_r+0x588>
  105bac:	eafffef2 	b	10577c <_malloc_r+0x168>
  105bb0:	e5992004 	ldr	r2, [r9, #4]
  105bb4:	e1530000 	cmp	r3, r0
  105bb8:	e0882002 	add	r2, r8, r2
  105bbc:	e5892004 	str	r2, [r9, #4]
  105bc0:	0a000063 	beq	105d54 <_malloc_r+0x740>
  105bc4:	e5970408 	ldr	r0, [r7, #1032]	; 0x408
  105bc8:	e30a180c 	movw	r1, #43020	; 0xa80c
  105bcc:	e3401010 	movt	r1, #16
  105bd0:	e3700001 	cmn	r0, #1
  105bd4:	e1a00006 	mov	r0, r6
  105bd8:	1063300b 	rsbne	r3, r3, fp
  105bdc:	0581b408 	streq	fp, [r1, #1032]	; 0x408
  105be0:	10832002 	addne	r2, r3, r2
  105be4:	15892004 	strne	r2, [r9, #4]
  105be8:	e21b3007 	ands	r3, fp, #7
  105bec:	12631008 	rsbne	r1, r3, #8
  105bf0:	12632a01 	rsbne	r2, r3, #4096	; 0x1000
  105bf4:	108bb001 	addne	fp, fp, r1
  105bf8:	12822008 	addne	r2, r2, #8
  105bfc:	e08b3008 	add	r3, fp, r8
  105c00:	03a02a01 	moveq	r2, #4096	; 0x1000
  105c04:	e7eb3053 	ubfx	r3, r3, #0, #12
  105c08:	e30a8c60 	movw	r8, #44128	; 0xac60
  105c0c:	e0633002 	rsb	r3, r3, r2
  105c10:	e3408010 	movt	r8, #16
  105c14:	e1a01003 	mov	r1, r3
  105c18:	e58d3004 	str	r3, [sp, #4]
  105c1c:	eb000644 	bl	107534 <_sbrk_r>
  105c20:	e3700001 	cmn	r0, #1
  105c24:	e5992004 	ldr	r2, [r9, #4]
  105c28:	159d3004 	ldrne	r3, [sp, #4]
  105c2c:	106b1000 	rsbne	r1, fp, r0
  105c30:	03a01001 	moveq	r1, #1
  105c34:	03a03000 	moveq	r3, #0
  105c38:	e587b008 	str	fp, [r7, #8]
  105c3c:	10811003 	addne	r1, r1, r3
  105c40:	e0832002 	add	r2, r3, r2
  105c44:	13811001 	orrne	r1, r1, #1
  105c48:	e1540007 	cmp	r4, r7
  105c4c:	e58b1004 	str	r1, [fp, #4]
  105c50:	e5892004 	str	r2, [r9, #4]
  105c54:	0a00000f 	beq	105c98 <_malloc_r+0x684>
  105c58:	e35a000f 	cmp	sl, #15
  105c5c:	93a03001 	movls	r3, #1
  105c60:	958b3004 	strls	r3, [fp, #4]
  105c64:	9affff56 	bls	1059c4 <_malloc_r+0x3b0>
  105c68:	e5941004 	ldr	r1, [r4, #4]
  105c6c:	e24a300c 	sub	r3, sl, #12
  105c70:	e3c33007 	bic	r3, r3, #7
  105c74:	e3a0c005 	mov	ip, #5
  105c78:	e353000f 	cmp	r3, #15
  105c7c:	e0840003 	add	r0, r4, r3
  105c80:	e2011001 	and	r1, r1, #1
  105c84:	e1813003 	orr	r3, r1, r3
  105c88:	e5843004 	str	r3, [r4, #4]
  105c8c:	e580c004 	str	ip, [r0, #4]
  105c90:	e580c008 	str	ip, [r0, #8]
  105c94:	8a00003a 	bhi	105d84 <_malloc_r+0x770>
  105c98:	e599102c 	ldr	r1, [r9, #44]	; 0x2c
  105c9c:	e30a3c60 	movw	r3, #44128	; 0xac60
  105ca0:	e3403010 	movt	r3, #16
  105ca4:	e5974008 	ldr	r4, [r7, #8]
  105ca8:	e1520001 	cmp	r2, r1
  105cac:	e5991030 	ldr	r1, [r9, #48]	; 0x30
  105cb0:	8583202c 	strhi	r2, [r3, #44]	; 0x2c
  105cb4:	e30a3c60 	movw	r3, #44128	; 0xac60
  105cb8:	e3403010 	movt	r3, #16
  105cbc:	e1520001 	cmp	r2, r1
  105cc0:	85832030 	strhi	r2, [r3, #48]	; 0x30
  105cc4:	e5942004 	ldr	r2, [r4, #4]
  105cc8:	e3c22003 	bic	r2, r2, #3
  105ccc:	eaffff34 	b	1059a4 <_malloc_r+0x390>
  105cd0:	e3530f55 	cmp	r3, #340	; 0x154
  105cd4:	8a00000b 	bhi	105d08 <_malloc_r+0x6f4>
  105cd8:	e1a037a5 	lsr	r3, r5, #15
  105cdc:	e283e078 	add	lr, r3, #120	; 0x78
  105ce0:	e283c077 	add	ip, r3, #119	; 0x77
  105ce4:	e1a0008e 	lsl	r0, lr, #1
  105ce8:	eafffe60 	b	105670 <_malloc_r+0x5c>
  105cec:	e5942004 	ldr	r2, [r4, #4]
  105cf0:	e1a0e14e 	asr	lr, lr, #2
  105cf4:	e3a09001 	mov	r9, #1
  105cf8:	e1a01008 	mov	r1, r8
  105cfc:	e1822e19 	orr	r2, r2, r9, lsl lr
  105d00:	e5842004 	str	r2, [r4, #4]
  105d04:	eaffff5f 	b	105a88 <_malloc_r+0x474>
  105d08:	e3002554 	movw	r2, #1364	; 0x554
  105d0c:	e1530002 	cmp	r3, r2
  105d10:	8a000017 	bhi	105d74 <_malloc_r+0x760>
  105d14:	e1a03925 	lsr	r3, r5, #18
  105d18:	e283e07d 	add	lr, r3, #125	; 0x7d
  105d1c:	e283c07c 	add	ip, r3, #124	; 0x7c
  105d20:	e1a0008e 	lsl	r0, lr, #1
  105d24:	eafffe51 	b	105670 <_malloc_r+0x5c>
  105d28:	e35e0054 	cmp	lr, #84	; 0x54
  105d2c:	8a000019 	bhi	105d98 <_malloc_r+0x784>
  105d30:	e1a0e622 	lsr	lr, r2, #12
  105d34:	e28e106f 	add	r1, lr, #111	; 0x6f
  105d38:	e28ee06e 	add	lr, lr, #110	; 0x6e
  105d3c:	e1a01081 	lsl	r1, r1, #1
  105d40:	eaffff40 	b	105a48 <_malloc_r+0x434>
  105d44:	e5974008 	ldr	r4, [r7, #8]
  105d48:	e5942004 	ldr	r2, [r4, #4]
  105d4c:	e3c22003 	bic	r2, r2, #3
  105d50:	eaffff13 	b	1059a4 <_malloc_r+0x390>
  105d54:	e7eb0053 	ubfx	r0, r3, #0, #12
  105d58:	e3500000 	cmp	r0, #0
  105d5c:	1affff98 	bne	105bc4 <_malloc_r+0x5b0>
  105d60:	e5911008 	ldr	r1, [r1, #8]
  105d64:	e08a3008 	add	r3, sl, r8
  105d68:	e3833001 	orr	r3, r3, #1
  105d6c:	e5813004 	str	r3, [r1, #4]
  105d70:	eaffffc8 	b	105c98 <_malloc_r+0x684>
  105d74:	e3a000fe 	mov	r0, #254	; 0xfe
  105d78:	e3a0e07f 	mov	lr, #127	; 0x7f
  105d7c:	e3a0c07e 	mov	ip, #126	; 0x7e
  105d80:	eafffe3a 	b	105670 <_malloc_r+0x5c>
  105d84:	e2841008 	add	r1, r4, #8
  105d88:	e1a00006 	mov	r0, r6
  105d8c:	ebfffb6a 	bl	104b3c <_free_r>
  105d90:	e5982004 	ldr	r2, [r8, #4]
  105d94:	eaffffbf 	b	105c98 <_malloc_r+0x684>
  105d98:	e35e0f55 	cmp	lr, #340	; 0x154
  105d9c:	8a000004 	bhi	105db4 <_malloc_r+0x7a0>
  105da0:	e1a0e7a2 	lsr	lr, r2, #15
  105da4:	e28e1078 	add	r1, lr, #120	; 0x78
  105da8:	e28ee077 	add	lr, lr, #119	; 0x77
  105dac:	e1a01081 	lsl	r1, r1, #1
  105db0:	eaffff24 	b	105a48 <_malloc_r+0x434>
  105db4:	e3001554 	movw	r1, #1364	; 0x554
  105db8:	e15e0001 	cmp	lr, r1
  105dbc:	91a0e922 	lsrls	lr, r2, #18
  105dc0:	83a010fe 	movhi	r1, #254	; 0xfe
  105dc4:	83a0e07e 	movhi	lr, #126	; 0x7e
  105dc8:	928e107d 	addls	r1, lr, #125	; 0x7d
  105dcc:	928ee07c 	addls	lr, lr, #124	; 0x7c
  105dd0:	91a01081 	lslls	r1, r1, #1
  105dd4:	eaffff1b 	b	105a48 <_malloc_r+0x434>
  105dd8:	e5973004 	ldr	r3, [r7, #4]
  105ddc:	eaffff63 	b	105b70 <_malloc_r+0x55c>
  105de0:	e1a001a5 	lsr	r0, r5, #3
  105de4:	e2802001 	add	r2, r0, #1
  105de8:	e1a02082 	lsl	r2, r2, #1
  105dec:	eafffe8a 	b	10581c <_malloc_r+0x208>

00105df0 <memchr>:
  105df0:	e3100003 	tst	r0, #3
  105df4:	e92d4030 	push	{r4, r5, lr}
  105df8:	e6ef1071 	uxtb	r1, r1
  105dfc:	0a000038 	beq	105ee4 <memchr+0xf4>
  105e00:	e3520000 	cmp	r2, #0
  105e04:	e2423001 	sub	r3, r2, #1
  105e08:	0a00001f 	beq	105e8c <memchr+0x9c>
  105e0c:	e5d02000 	ldrb	r2, [r0]
  105e10:	e1520001 	cmp	r2, r1
  105e14:	08bd8030 	popeq	{r4, r5, pc}
  105e18:	e2802001 	add	r2, r0, #1
  105e1c:	ea000005 	b	105e38 <memchr+0x48>
  105e20:	e3530000 	cmp	r3, #0
  105e24:	0a000018 	beq	105e8c <memchr+0x9c>
  105e28:	e5d0c000 	ldrb	ip, [r0]
  105e2c:	e2433001 	sub	r3, r3, #1
  105e30:	e15c0001 	cmp	ip, r1
  105e34:	08bd8030 	popeq	{r4, r5, pc}
  105e38:	e3120003 	tst	r2, #3
  105e3c:	e1a00002 	mov	r0, r2
  105e40:	e2822001 	add	r2, r2, #1
  105e44:	1afffff5 	bne	105e20 <memchr+0x30>
  105e48:	e3530003 	cmp	r3, #3
  105e4c:	8a000010 	bhi	105e94 <memchr+0xa4>
  105e50:	e3530000 	cmp	r3, #0
  105e54:	0a00000c 	beq	105e8c <memchr+0x9c>
  105e58:	e5d02000 	ldrb	r2, [r0]
  105e5c:	e1520001 	cmp	r2, r1
  105e60:	08bd8030 	popeq	{r4, r5, pc}
  105e64:	e0803003 	add	r3, r0, r3
  105e68:	e2802001 	add	r2, r0, #1
  105e6c:	ea000002 	b	105e7c <memchr+0x8c>
  105e70:	e5d0c000 	ldrb	ip, [r0]
  105e74:	e15c0001 	cmp	ip, r1
  105e78:	08bd8030 	popeq	{r4, r5, pc}
  105e7c:	e1530002 	cmp	r3, r2
  105e80:	e1a00002 	mov	r0, r2
  105e84:	e2822001 	add	r2, r2, #1
  105e88:	1afffff8 	bne	105e70 <memchr+0x80>
  105e8c:	e3a00000 	mov	r0, #0
  105e90:	e8bd8030 	pop	{r4, r5, pc}
  105e94:	e1815401 	orr	r5, r1, r1, lsl #8
  105e98:	e1a0e000 	mov	lr, r0
  105e9c:	e1855805 	orr	r5, r5, r5, lsl #16
  105ea0:	e59ec000 	ldr	ip, [lr]
  105ea4:	e30f2eff 	movw	r2, #65279	; 0xfeff
  105ea8:	e34f2efe 	movt	r2, #65278	; 0xfefe
  105eac:	e3084080 	movw	r4, #32896	; 0x8080
  105eb0:	e7df4814 	bfi	r4, r4, #16, #16
  105eb4:	e1a0000e 	mov	r0, lr
  105eb8:	e02cc005 	eor	ip, ip, r5
  105ebc:	e28ee004 	add	lr, lr, #4
  105ec0:	e08c2002 	add	r2, ip, r2
  105ec4:	e1c2200c 	bic	r2, r2, ip
  105ec8:	e1120004 	tst	r2, r4
  105ecc:	1affffe1 	bne	105e58 <memchr+0x68>
  105ed0:	e2433004 	sub	r3, r3, #4
  105ed4:	e1a0000e 	mov	r0, lr
  105ed8:	e3530003 	cmp	r3, #3
  105edc:	8affffef 	bhi	105ea0 <memchr+0xb0>
  105ee0:	eaffffda 	b	105e50 <memchr+0x60>
  105ee4:	e1a03002 	mov	r3, r2
  105ee8:	eaffffd6 	b	105e48 <memchr+0x58>
  105eec:	00000000 	andeq	r0, r0, r0

00105ef0 <memcpy>:
  105ef0:	e92d4001 	push	{r0, lr}
  105ef4:	f5d1f000 	pld	[r1]
  105ef8:	f5d1f040 	pld	[r1, #64]	; 0x40
  105efc:	e3520010 	cmp	r2, #16
  105f00:	3a00002d 	bcc	105fbc <memcpy+0xcc>
  105f04:	e2603000 	rsb	r3, r0, #0
  105f08:	e213300f 	ands	r3, r3, #15
  105f0c:	0a00000f 	beq	105f50 <memcpy+0x60>
  105f10:	e0422003 	sub	r2, r2, r3
  105f14:	e1b0cf83 	lsls	ip, r3, #31
  105f18:	44d1e001 	ldrbmi	lr, [r1], #1
  105f1c:	44c0e001 	strbmi	lr, [r0], #1
  105f20:	24d1c001 	ldrbcs	ip, [r1], #1
  105f24:	24d1e001 	ldrbcs	lr, [r1], #1
  105f28:	24c0c001 	strbcs	ip, [r0], #1
  105f2c:	24c0e001 	strbcs	lr, [r0], #1
  105f30:	e1b0ce83 	lsls	ip, r3, #29
  105f34:	aa000001 	bge	105f40 <memcpy+0x50>
  105f38:	f4a1030d 	vld4.8	{d0[0],d1[0],d2[0],d3[0]}, [r1]!
  105f3c:	f480031d 	vst4.8	{d0[0],d1[0],d2[0],d3[0]}, [r0 :32]!
  105f40:	3a000001 	bcc	105f4c <memcpy+0x5c>
  105f44:	f421070d 	vld1.8	{d0}, [r1]!
  105f48:	f400071d 	vst1.8	{d0}, [r0 :64]!
  105f4c:	f5d1f040 	pld	[r1, #64]	; 0x40
  105f50:	e2522080 	subs	r2, r2, #128	; 0x80
  105f54:	3a00000c 	bcc	105f8c <memcpy+0x9c>
  105f58:	f5d1f080 	pld	[r1, #128]	; 0x80
  105f5c:	f5d1f0c0 	pld	[r1, #192]	; 0xc0
  105f60:	f5d1f100 	pld	[r1, #256]	; 0x100
  105f64:	f421020d 	vld1.8	{d0-d3}, [r1]!
  105f68:	f421420d 	vld1.8	{d4-d7}, [r1]!
  105f6c:	f400022d 	vst1.8	{d0-d3}, [r0 :128]!
  105f70:	f421020d 	vld1.8	{d0-d3}, [r1]!
  105f74:	f400422d 	vst1.8	{d4-d7}, [r0 :128]!
  105f78:	f421420d 	vld1.8	{d4-d7}, [r1]!
  105f7c:	e2522080 	subs	r2, r2, #128	; 0x80
  105f80:	f400022d 	vst1.8	{d0-d3}, [r0 :128]!
  105f84:	f400422d 	vst1.8	{d4-d7}, [r0 :128]!
  105f88:	2afffff3 	bcs	105f5c <memcpy+0x6c>
  105f8c:	e2822080 	add	r2, r2, #128	; 0x80
  105f90:	e2522020 	subs	r2, r2, #32
  105f94:	3a000003 	bcc	105fa8 <memcpy+0xb8>
  105f98:	f421020d 	vld1.8	{d0-d3}, [r1]!
  105f9c:	e2522020 	subs	r2, r2, #32
  105fa0:	f400022d 	vst1.8	{d0-d3}, [r0 :128]!
  105fa4:	2afffffb 	bcs	105f98 <memcpy+0xa8>
  105fa8:	e2822020 	add	r2, r2, #32
  105fac:	e3120010 	tst	r2, #16
  105fb0:	0a000001 	beq	105fbc <memcpy+0xcc>
  105fb4:	f4210a0d 	vld1.8	{d0-d1}, [r1]!
  105fb8:	f4000a2d 	vst1.8	{d0-d1}, [r0 :128]!
  105fbc:	e1b0ce82 	lsls	ip, r2, #29
  105fc0:	3a000001 	bcc	105fcc <memcpy+0xdc>
  105fc4:	f421070d 	vld1.8	{d0}, [r1]!
  105fc8:	f400070d 	vst1.8	{d0}, [r0]!
  105fcc:	aa000001 	bge	105fd8 <memcpy+0xe8>
  105fd0:	f4a1030d 	vld4.8	{d0[0],d1[0],d2[0],d3[0]}, [r1]!
  105fd4:	f480030d 	vst4.8	{d0[0],d1[0],d2[0],d3[0]}, [r0]!
  105fd8:	e1b0cf82 	lsls	ip, r2, #31
  105fdc:	44d13001 	ldrbmi	r3, [r1], #1
  105fe0:	24d1c001 	ldrbcs	ip, [r1], #1
  105fe4:	24d1e001 	ldrbcs	lr, [r1], #1
  105fe8:	44c03001 	strbmi	r3, [r0], #1
  105fec:	24c0c001 	strbcs	ip, [r0], #1
  105ff0:	24c0e001 	strbcs	lr, [r0], #1
  105ff4:	e8bd4001 	pop	{r0, lr}
  105ff8:	e12fff1e 	bx	lr

00105ffc <memmove>:
  105ffc:	e1500001 	cmp	r0, r1
  106000:	e92d4070 	push	{r4, r5, r6, lr}
  106004:	9a00000b 	bls	106038 <memmove+0x3c>
  106008:	e0813002 	add	r3, r1, r2
  10600c:	e1500003 	cmp	r0, r3
  106010:	2a000008 	bcs	106038 <memmove+0x3c>
  106014:	e3520000 	cmp	r2, #0
  106018:	e0801002 	add	r1, r0, r2
  10601c:	08bd8070 	popeq	{r4, r5, r6, pc}
  106020:	e0622003 	rsb	r2, r2, r3
  106024:	e573c001 	ldrb	ip, [r3, #-1]!
  106028:	e1530002 	cmp	r3, r2
  10602c:	e561c001 	strb	ip, [r1, #-1]!
  106030:	1afffffb 	bne	106024 <memmove+0x28>
  106034:	e8bd8070 	pop	{r4, r5, r6, pc}
  106038:	e352000f 	cmp	r2, #15
  10603c:	8a000009 	bhi	106068 <memmove+0x6c>
  106040:	e1a03000 	mov	r3, r0
  106044:	e3520000 	cmp	r2, #0
  106048:	0a000032 	beq	106118 <memmove+0x11c>
  10604c:	e2433001 	sub	r3, r3, #1
  106050:	e0812002 	add	r2, r1, r2
  106054:	e4d1c001 	ldrb	ip, [r1], #1
  106058:	e1520001 	cmp	r2, r1
  10605c:	e5e3c001 	strb	ip, [r3, #1]!
  106060:	1afffffb 	bne	106054 <memmove+0x58>
  106064:	e8bd8070 	pop	{r4, r5, r6, pc}
  106068:	e1813000 	orr	r3, r1, r0
  10606c:	e3130003 	tst	r3, #3
  106070:	1a000026 	bne	106110 <memmove+0x114>
  106074:	e280c010 	add	ip, r0, #16
  106078:	e2813010 	add	r3, r1, #16
  10607c:	e1a0e002 	mov	lr, r2
  106080:	e5134010 	ldr	r4, [r3, #-16]
  106084:	e24ee010 	sub	lr, lr, #16
  106088:	e35e000f 	cmp	lr, #15
  10608c:	e2833010 	add	r3, r3, #16
  106090:	e28cc010 	add	ip, ip, #16
  106094:	e50c4020 	str	r4, [ip, #-32]	; 0xffffffe0
  106098:	e513401c 	ldr	r4, [r3, #-28]	; 0xffffffe4
  10609c:	e50c401c 	str	r4, [ip, #-28]	; 0xffffffe4
  1060a0:	e5134018 	ldr	r4, [r3, #-24]	; 0xffffffe8
  1060a4:	e50c4018 	str	r4, [ip, #-24]	; 0xffffffe8
  1060a8:	e5134014 	ldr	r4, [r3, #-20]	; 0xffffffec
  1060ac:	e50c4014 	str	r4, [ip, #-20]	; 0xffffffec
  1060b0:	8afffff2 	bhi	106080 <memmove+0x84>
  1060b4:	e2423010 	sub	r3, r2, #16
  1060b8:	e202600f 	and	r6, r2, #15
  1060bc:	e3c3300f 	bic	r3, r3, #15
  1060c0:	e3560003 	cmp	r6, #3
  1060c4:	e2833010 	add	r3, r3, #16
  1060c8:	e0811003 	add	r1, r1, r3
  1060cc:	e0803003 	add	r3, r0, r3
  1060d0:	9a000011 	bls	10611c <memmove+0x120>
  1060d4:	e2434004 	sub	r4, r3, #4
  1060d8:	e1a0e001 	mov	lr, r1
  1060dc:	e1a0c006 	mov	ip, r6
  1060e0:	e24cc004 	sub	ip, ip, #4
  1060e4:	e49e5004 	ldr	r5, [lr], #4
  1060e8:	e35c0003 	cmp	ip, #3
  1060ec:	e5a45004 	str	r5, [r4, #4]!
  1060f0:	8afffffa 	bhi	1060e0 <memmove+0xe4>
  1060f4:	e246c004 	sub	ip, r6, #4
  1060f8:	e2022003 	and	r2, r2, #3
  1060fc:	e3ccc003 	bic	ip, ip, #3
  106100:	e28cc004 	add	ip, ip, #4
  106104:	e083300c 	add	r3, r3, ip
  106108:	e081100c 	add	r1, r1, ip
  10610c:	eaffffcc 	b	106044 <memmove+0x48>
  106110:	e1a03000 	mov	r3, r0
  106114:	eaffffcc 	b	10604c <memmove+0x50>
  106118:	e8bd8070 	pop	{r4, r5, r6, pc}
  10611c:	e1a02006 	mov	r2, r6
  106120:	eaffffc7 	b	106044 <memmove+0x48>

00106124 <memset>:
  106124:	e3100003 	tst	r0, #3
  106128:	e92d4010 	push	{r4, lr}
  10612c:	0a000038 	beq	106214 <memset+0xf0>
  106130:	e3520000 	cmp	r2, #0
  106134:	e2422001 	sub	r2, r2, #1
  106138:	08bd8010 	popeq	{r4, pc}
  10613c:	e6efe071 	uxtb	lr, r1
  106140:	e1a03000 	mov	r3, r0
  106144:	ea000002 	b	106154 <memset+0x30>
  106148:	e3520000 	cmp	r2, #0
  10614c:	e1a0200c 	mov	r2, ip
  106150:	08bd8010 	popeq	{r4, pc}
  106154:	e4c3e001 	strb	lr, [r3], #1
  106158:	e3130003 	tst	r3, #3
  10615c:	e242c001 	sub	ip, r2, #1
  106160:	1afffff8 	bne	106148 <memset+0x24>
  106164:	e3520003 	cmp	r2, #3
  106168:	9a000020 	bls	1061f0 <memset+0xcc>
  10616c:	e6efe071 	uxtb	lr, r1
  106170:	e352000f 	cmp	r2, #15
  106174:	e18ee40e 	orr	lr, lr, lr, lsl #8
  106178:	e18ee80e 	orr	lr, lr, lr, lsl #16
  10617c:	9a000010 	bls	1061c4 <memset+0xa0>
  106180:	e283c010 	add	ip, r3, #16
  106184:	e1a04002 	mov	r4, r2
  106188:	e2444010 	sub	r4, r4, #16
  10618c:	e50ce010 	str	lr, [ip, #-16]
  106190:	e354000f 	cmp	r4, #15
  106194:	e50ce00c 	str	lr, [ip, #-12]
  106198:	e50ce008 	str	lr, [ip, #-8]
  10619c:	e28cc010 	add	ip, ip, #16
  1061a0:	e50ce014 	str	lr, [ip, #-20]	; 0xffffffec
  1061a4:	8afffff7 	bhi	106188 <memset+0x64>
  1061a8:	e242c010 	sub	ip, r2, #16
  1061ac:	e202200f 	and	r2, r2, #15
  1061b0:	e3ccc00f 	bic	ip, ip, #15
  1061b4:	e3520003 	cmp	r2, #3
  1061b8:	e28cc010 	add	ip, ip, #16
  1061bc:	e083300c 	add	r3, r3, ip
  1061c0:	9a00000a 	bls	1061f0 <memset+0xcc>
  1061c4:	e1a04003 	mov	r4, r3
  1061c8:	e1a0c002 	mov	ip, r2
  1061cc:	e24cc004 	sub	ip, ip, #4
  1061d0:	e484e004 	str	lr, [r4], #4
  1061d4:	e35c0003 	cmp	ip, #3
  1061d8:	8afffffb 	bhi	1061cc <memset+0xa8>
  1061dc:	e242c004 	sub	ip, r2, #4
  1061e0:	e2022003 	and	r2, r2, #3
  1061e4:	e3ccc003 	bic	ip, ip, #3
  1061e8:	e28cc004 	add	ip, ip, #4
  1061ec:	e083300c 	add	r3, r3, ip
  1061f0:	e3520000 	cmp	r2, #0
  1061f4:	16ef1071 	uxtbne	r1, r1
  1061f8:	10832002 	addne	r2, r3, r2
  1061fc:	0a000003 	beq	106210 <memset+0xec>
  106200:	e4c31001 	strb	r1, [r3], #1
  106204:	e1530002 	cmp	r3, r2
  106208:	1afffffc 	bne	106200 <memset+0xdc>
  10620c:	e8bd8010 	pop	{r4, pc}
  106210:	e8bd8010 	pop	{r4, pc}
  106214:	e1a03000 	mov	r3, r0
  106218:	eaffffd1 	b	106164 <memset+0x40>

0010621c <__malloc_lock>:
  10621c:	e30a0c94 	movw	r0, #44180	; 0xac94
  106220:	e3400010 	movt	r0, #16
  106224:	ea000f1c 	b	109e9c <__generic_gxx_recursive_mutex_lock>

00106228 <__malloc_unlock>:
  106228:	e30a0c94 	movw	r0, #44180	; 0xac94
  10622c:	e3400010 	movt	r0, #16
  106230:	ea000f17 	b	109e94 <__generic_gxx_recursive_mutex_unlock>

00106234 <__init___malloc_lock_object>:
  106234:	e30a0c94 	movw	r0, #44180	; 0xac94
  106238:	e3400010 	movt	r0, #16
  10623c:	ea000f10 	b	109e84 <__generic_gxx_recursive_mutex_init_function>

00106240 <_Balloc>:
  106240:	e590204c 	ldr	r2, [r0, #76]	; 0x4c
  106244:	e92d4070 	push	{r4, r5, r6, lr}
  106248:	e1a05000 	mov	r5, r0
  10624c:	e1a04001 	mov	r4, r1
  106250:	e3520000 	cmp	r2, #0
  106254:	0a000009 	beq	106280 <_Balloc+0x40>
  106258:	e7923104 	ldr	r3, [r2, r4, lsl #2]
  10625c:	e3530000 	cmp	r3, #0
  106260:	0a00000f 	beq	1062a4 <_Balloc+0x64>
  106264:	e5931000 	ldr	r1, [r3]
  106268:	e7821104 	str	r1, [r2, r4, lsl #2]
  10626c:	e3a02000 	mov	r2, #0
  106270:	e1a00003 	mov	r0, r3
  106274:	e5832010 	str	r2, [r3, #16]
  106278:	e583200c 	str	r2, [r3, #12]
  10627c:	e8bd8070 	pop	{r4, r5, r6, pc}
  106280:	e3a02021 	mov	r2, #33	; 0x21
  106284:	e3a01004 	mov	r1, #4
  106288:	eb000b4c 	bl	108fc0 <_calloc_r>
  10628c:	e3500000 	cmp	r0, #0
  106290:	e585004c 	str	r0, [r5, #76]	; 0x4c
  106294:	11a02000 	movne	r2, r0
  106298:	1affffee 	bne	106258 <_Balloc+0x18>
  10629c:	e3a00000 	mov	r0, #0
  1062a0:	e8bd8070 	pop	{r4, r5, r6, pc}
  1062a4:	e3a01001 	mov	r1, #1
  1062a8:	e1a00005 	mov	r0, r5
  1062ac:	e1a05411 	lsl	r5, r1, r4
  1062b0:	e2852005 	add	r2, r5, #5
  1062b4:	e1a02102 	lsl	r2, r2, #2
  1062b8:	eb000b40 	bl	108fc0 <_calloc_r>
  1062bc:	e2503000 	subs	r3, r0, #0
  1062c0:	0afffff5 	beq	10629c <_Balloc+0x5c>
